ARM GAS  C:\Users\Admin\AppData\Local\Temp\ccYAfxe2.s 			page 1


   1              		.cpu cortex-m4
   2              		.arch armv7e-m
   3              		.fpu fpv4-sp-d16
   4              		.eabi_attribute 27, 1
   5              		.eabi_attribute 28, 1
   6              		.eabi_attribute 20, 1
   7              		.eabi_attribute 21, 1
   8              		.eabi_attribute 23, 3
   9              		.eabi_attribute 24, 1
  10              		.eabi_attribute 25, 1
  11              		.eabi_attribute 26, 1
  12              		.eabi_attribute 30, 6
  13              		.eabi_attribute 34, 1
  14              		.eabi_attribute 18, 4
  15              		.file	"queue.c"
  16              		.text
  17              	.Ltext0:
  18              		.cfi_sections	.debug_frame
  19              		.global	xQueueRegistry
  20              		.section	.bss.xQueueRegistry,"aw",%nobits
  21              		.align	2
  24              	xQueueRegistry:
  25 0000 00000000 		.space	64
  25      00000000 
  25      00000000 
  25      00000000 
  25      00000000 
  26              		.section	.text.xQueueGenericReset,"ax",%progbits
  27              		.align	1
  28              		.global	xQueueGenericReset
  29              		.syntax unified
  30              		.thumb
  31              		.thumb_func
  33              	xQueueGenericReset:
  34              	.LFB5:
  35              		.file 1 "ThirdParty/FreeRTOS/queue.c"
   1:ThirdParty/FreeRTOS/queue.c **** /*
   2:ThirdParty/FreeRTOS/queue.c ****  * FreeRTOS Kernel V10.5.1
   3:ThirdParty/FreeRTOS/queue.c ****  * Copyright (C) 2021 Amazon.com, Inc. or its affiliates.  All Rights Reserved.
   4:ThirdParty/FreeRTOS/queue.c ****  *
   5:ThirdParty/FreeRTOS/queue.c ****  * SPDX-License-Identifier: MIT
   6:ThirdParty/FreeRTOS/queue.c ****  *
   7:ThirdParty/FreeRTOS/queue.c ****  * Permission is hereby granted, free of charge, to any person obtaining a copy of
   8:ThirdParty/FreeRTOS/queue.c ****  * this software and associated documentation files (the "Software"), to deal in
   9:ThirdParty/FreeRTOS/queue.c ****  * the Software without restriction, including without limitation the rights to
  10:ThirdParty/FreeRTOS/queue.c ****  * use, copy, modify, merge, publish, distribute, sublicense, and/or sell copies of
  11:ThirdParty/FreeRTOS/queue.c ****  * the Software, and to permit persons to whom the Software is furnished to do so,
  12:ThirdParty/FreeRTOS/queue.c ****  * subject to the following conditions:
  13:ThirdParty/FreeRTOS/queue.c ****  *
  14:ThirdParty/FreeRTOS/queue.c ****  * The above copyright notice and this permission notice shall be included in all
  15:ThirdParty/FreeRTOS/queue.c ****  * copies or substantial portions of the Software.
  16:ThirdParty/FreeRTOS/queue.c ****  *
  17:ThirdParty/FreeRTOS/queue.c ****  * THE SOFTWARE IS PROVIDED "AS IS", WITHOUT WARRANTY OF ANY KIND, EXPRESS OR
  18:ThirdParty/FreeRTOS/queue.c ****  * IMPLIED, INCLUDING BUT NOT LIMITED TO THE WARRANTIES OF MERCHANTABILITY, FITNESS
  19:ThirdParty/FreeRTOS/queue.c ****  * FOR A PARTICULAR PURPOSE AND NONINFRINGEMENT. IN NO EVENT SHALL THE AUTHORS OR
  20:ThirdParty/FreeRTOS/queue.c ****  * COPYRIGHT HOLDERS BE LIABLE FOR ANY CLAIM, DAMAGES OR OTHER LIABILITY, WHETHER
  21:ThirdParty/FreeRTOS/queue.c ****  * IN AN ACTION OF CONTRACT, TORT OR OTHERWISE, ARISING FROM, OUT OF OR IN
ARM GAS  C:\Users\Admin\AppData\Local\Temp\ccYAfxe2.s 			page 2


  22:ThirdParty/FreeRTOS/queue.c ****  * CONNECTION WITH THE SOFTWARE OR THE USE OR OTHER DEALINGS IN THE SOFTWARE.
  23:ThirdParty/FreeRTOS/queue.c ****  *
  24:ThirdParty/FreeRTOS/queue.c ****  * https://www.FreeRTOS.org
  25:ThirdParty/FreeRTOS/queue.c ****  * https://github.com/FreeRTOS
  26:ThirdParty/FreeRTOS/queue.c ****  *
  27:ThirdParty/FreeRTOS/queue.c ****  */
  28:ThirdParty/FreeRTOS/queue.c **** 
  29:ThirdParty/FreeRTOS/queue.c **** #include <stdlib.h>
  30:ThirdParty/FreeRTOS/queue.c **** #include <string.h>
  31:ThirdParty/FreeRTOS/queue.c **** 
  32:ThirdParty/FreeRTOS/queue.c **** /* Defining MPU_WRAPPERS_INCLUDED_FROM_API_FILE prevents task.h from redefining
  33:ThirdParty/FreeRTOS/queue.c ****  * all the API functions to use the MPU wrappers.  That should only be done when
  34:ThirdParty/FreeRTOS/queue.c ****  * task.h is included from an application file. */
  35:ThirdParty/FreeRTOS/queue.c **** #define MPU_WRAPPERS_INCLUDED_FROM_API_FILE
  36:ThirdParty/FreeRTOS/queue.c **** 
  37:ThirdParty/FreeRTOS/queue.c **** #include "FreeRTOS.h"
  38:ThirdParty/FreeRTOS/queue.c **** #include "task.h"
  39:ThirdParty/FreeRTOS/queue.c **** #include "queue.h"
  40:ThirdParty/FreeRTOS/queue.c **** 
  41:ThirdParty/FreeRTOS/queue.c **** #if ( configUSE_CO_ROUTINES == 1 )
  42:ThirdParty/FreeRTOS/queue.c ****     #include "croutine.h"
  43:ThirdParty/FreeRTOS/queue.c **** #endif
  44:ThirdParty/FreeRTOS/queue.c **** 
  45:ThirdParty/FreeRTOS/queue.c **** /* Lint e9021, e961 and e750 are suppressed as a MISRA exception justified
  46:ThirdParty/FreeRTOS/queue.c ****  * because the MPU ports require MPU_WRAPPERS_INCLUDED_FROM_API_FILE to be defined
  47:ThirdParty/FreeRTOS/queue.c ****  * for the header files above, but not in this file, in order to generate the
  48:ThirdParty/FreeRTOS/queue.c ****  * correct privileged Vs unprivileged linkage and placement. */
  49:ThirdParty/FreeRTOS/queue.c **** #undef MPU_WRAPPERS_INCLUDED_FROM_API_FILE /*lint !e961 !e750 !e9021. */
  50:ThirdParty/FreeRTOS/queue.c **** 
  51:ThirdParty/FreeRTOS/queue.c **** 
  52:ThirdParty/FreeRTOS/queue.c **** /* Constants used with the cRxLock and cTxLock structure members. */
  53:ThirdParty/FreeRTOS/queue.c **** #define queueUNLOCKED             ( ( int8_t ) -1 )
  54:ThirdParty/FreeRTOS/queue.c **** #define queueLOCKED_UNMODIFIED    ( ( int8_t ) 0 )
  55:ThirdParty/FreeRTOS/queue.c **** #define queueINT8_MAX             ( ( int8_t ) 127 )
  56:ThirdParty/FreeRTOS/queue.c **** 
  57:ThirdParty/FreeRTOS/queue.c **** /* When the Queue_t structure is used to represent a base queue its pcHead and
  58:ThirdParty/FreeRTOS/queue.c ****  * pcTail members are used as pointers into the queue storage area.  When the
  59:ThirdParty/FreeRTOS/queue.c ****  * Queue_t structure is used to represent a mutex pcHead and pcTail pointers are
  60:ThirdParty/FreeRTOS/queue.c ****  * not necessary, and the pcHead pointer is set to NULL to indicate that the
  61:ThirdParty/FreeRTOS/queue.c ****  * structure instead holds a pointer to the mutex holder (if any).  Map alternative
  62:ThirdParty/FreeRTOS/queue.c ****  * names to the pcHead and structure member to ensure the readability of the code
  63:ThirdParty/FreeRTOS/queue.c ****  * is maintained.  The QueuePointers_t and SemaphoreData_t types are used to form
  64:ThirdParty/FreeRTOS/queue.c ****  * a union as their usage is mutually exclusive dependent on what the queue is
  65:ThirdParty/FreeRTOS/queue.c ****  * being used for. */
  66:ThirdParty/FreeRTOS/queue.c **** #define uxQueueType               pcHead
  67:ThirdParty/FreeRTOS/queue.c **** #define queueQUEUE_IS_MUTEX       NULL
  68:ThirdParty/FreeRTOS/queue.c **** 
  69:ThirdParty/FreeRTOS/queue.c **** typedef struct QueuePointers
  70:ThirdParty/FreeRTOS/queue.c **** {
  71:ThirdParty/FreeRTOS/queue.c ****     int8_t * pcTail;     /*< Points to the byte at the end of the queue storage area.  Once more by
  72:ThirdParty/FreeRTOS/queue.c ****     int8_t * pcReadFrom; /*< Points to the last place that a queued item was read from when the str
  73:ThirdParty/FreeRTOS/queue.c **** } QueuePointers_t;
  74:ThirdParty/FreeRTOS/queue.c **** 
  75:ThirdParty/FreeRTOS/queue.c **** typedef struct SemaphoreData
  76:ThirdParty/FreeRTOS/queue.c **** {
  77:ThirdParty/FreeRTOS/queue.c ****     TaskHandle_t xMutexHolder;        /*< The handle of the task that holds the mutex. */
  78:ThirdParty/FreeRTOS/queue.c ****     UBaseType_t uxRecursiveCallCount; /*< Maintains a count of the number of times a recursive mute
ARM GAS  C:\Users\Admin\AppData\Local\Temp\ccYAfxe2.s 			page 3


  79:ThirdParty/FreeRTOS/queue.c **** } SemaphoreData_t;
  80:ThirdParty/FreeRTOS/queue.c **** 
  81:ThirdParty/FreeRTOS/queue.c **** /* Semaphores do not actually store or copy data, so have an item size of
  82:ThirdParty/FreeRTOS/queue.c ****  * zero. */
  83:ThirdParty/FreeRTOS/queue.c **** #define queueSEMAPHORE_QUEUE_ITEM_LENGTH    ( ( UBaseType_t ) 0 )
  84:ThirdParty/FreeRTOS/queue.c **** #define queueMUTEX_GIVE_BLOCK_TIME          ( ( TickType_t ) 0U )
  85:ThirdParty/FreeRTOS/queue.c **** 
  86:ThirdParty/FreeRTOS/queue.c **** #if ( configUSE_PREEMPTION == 0 )
  87:ThirdParty/FreeRTOS/queue.c **** 
  88:ThirdParty/FreeRTOS/queue.c **** /* If the cooperative scheduler is being used then a yield should not be
  89:ThirdParty/FreeRTOS/queue.c ****  * performed just because a higher priority task has been woken. */
  90:ThirdParty/FreeRTOS/queue.c ****     #define queueYIELD_IF_USING_PREEMPTION()
  91:ThirdParty/FreeRTOS/queue.c **** #else
  92:ThirdParty/FreeRTOS/queue.c ****     #define queueYIELD_IF_USING_PREEMPTION()    portYIELD_WITHIN_API()
  93:ThirdParty/FreeRTOS/queue.c **** #endif
  94:ThirdParty/FreeRTOS/queue.c **** 
  95:ThirdParty/FreeRTOS/queue.c **** /*
  96:ThirdParty/FreeRTOS/queue.c ****  * Definition of the queue used by the scheduler.
  97:ThirdParty/FreeRTOS/queue.c ****  * Items are queued by copy, not reference.  See the following link for the
  98:ThirdParty/FreeRTOS/queue.c ****  * rationale: https://www.FreeRTOS.org/Embedded-RTOS-Queues.html
  99:ThirdParty/FreeRTOS/queue.c ****  */
 100:ThirdParty/FreeRTOS/queue.c **** typedef struct QueueDefinition /* The old naming convention is used to prevent breaking kernel awar
 101:ThirdParty/FreeRTOS/queue.c **** {
 102:ThirdParty/FreeRTOS/queue.c ****     int8_t * pcHead;           /*< Points to the beginning of the queue storage area. */
 103:ThirdParty/FreeRTOS/queue.c ****     int8_t * pcWriteTo;        /*< Points to the free next place in the storage area. */
 104:ThirdParty/FreeRTOS/queue.c **** 
 105:ThirdParty/FreeRTOS/queue.c ****     union
 106:ThirdParty/FreeRTOS/queue.c ****     {
 107:ThirdParty/FreeRTOS/queue.c ****         QueuePointers_t xQueue;     /*< Data required exclusively when this structure is used as a 
 108:ThirdParty/FreeRTOS/queue.c ****         SemaphoreData_t xSemaphore; /*< Data required exclusively when this structure is used as a 
 109:ThirdParty/FreeRTOS/queue.c ****     } u;
 110:ThirdParty/FreeRTOS/queue.c **** 
 111:ThirdParty/FreeRTOS/queue.c ****     List_t xTasksWaitingToSend;             /*< List of tasks that are blocked waiting to post onto
 112:ThirdParty/FreeRTOS/queue.c ****     List_t xTasksWaitingToReceive;          /*< List of tasks that are blocked waiting to read from
 113:ThirdParty/FreeRTOS/queue.c **** 
 114:ThirdParty/FreeRTOS/queue.c ****     volatile UBaseType_t uxMessagesWaiting; /*< The number of items currently in the queue. */
 115:ThirdParty/FreeRTOS/queue.c ****     UBaseType_t uxLength;                   /*< The length of the queue defined as the number of it
 116:ThirdParty/FreeRTOS/queue.c ****     UBaseType_t uxItemSize;                 /*< The size of each items that the queue will hold. */
 117:ThirdParty/FreeRTOS/queue.c **** 
 118:ThirdParty/FreeRTOS/queue.c ****     volatile int8_t cRxLock;                /*< Stores the number of items received from the queue 
 119:ThirdParty/FreeRTOS/queue.c ****     volatile int8_t cTxLock;                /*< Stores the number of items transmitted to the queue
 120:ThirdParty/FreeRTOS/queue.c **** 
 121:ThirdParty/FreeRTOS/queue.c ****     #if ( ( configSUPPORT_STATIC_ALLOCATION == 1 ) && ( configSUPPORT_DYNAMIC_ALLOCATION == 1 ) )
 122:ThirdParty/FreeRTOS/queue.c ****         uint8_t ucStaticallyAllocated; /*< Set to pdTRUE if the memory used by the queue was static
 123:ThirdParty/FreeRTOS/queue.c ****     #endif
 124:ThirdParty/FreeRTOS/queue.c **** 
 125:ThirdParty/FreeRTOS/queue.c ****     #if ( configUSE_QUEUE_SETS == 1 )
 126:ThirdParty/FreeRTOS/queue.c ****         struct QueueDefinition * pxQueueSetContainer;
 127:ThirdParty/FreeRTOS/queue.c ****     #endif
 128:ThirdParty/FreeRTOS/queue.c **** 
 129:ThirdParty/FreeRTOS/queue.c ****     #if ( configUSE_TRACE_FACILITY == 1 )
 130:ThirdParty/FreeRTOS/queue.c ****         UBaseType_t uxQueueNumber;
 131:ThirdParty/FreeRTOS/queue.c ****         uint8_t ucQueueType;
 132:ThirdParty/FreeRTOS/queue.c ****     #endif
 133:ThirdParty/FreeRTOS/queue.c **** } xQUEUE;
 134:ThirdParty/FreeRTOS/queue.c **** 
 135:ThirdParty/FreeRTOS/queue.c **** /* The old xQUEUE name is maintained above then typedefed to the new Queue_t
ARM GAS  C:\Users\Admin\AppData\Local\Temp\ccYAfxe2.s 			page 4


 136:ThirdParty/FreeRTOS/queue.c ****  * name below to enable the use of older kernel aware debuggers. */
 137:ThirdParty/FreeRTOS/queue.c **** typedef xQUEUE Queue_t;
 138:ThirdParty/FreeRTOS/queue.c **** 
 139:ThirdParty/FreeRTOS/queue.c **** /*-----------------------------------------------------------*/
 140:ThirdParty/FreeRTOS/queue.c **** 
 141:ThirdParty/FreeRTOS/queue.c **** /*
 142:ThirdParty/FreeRTOS/queue.c ****  * The queue registry is just a means for kernel aware debuggers to locate
 143:ThirdParty/FreeRTOS/queue.c ****  * queue structures.  It has no other purpose so is an optional component.
 144:ThirdParty/FreeRTOS/queue.c ****  */
 145:ThirdParty/FreeRTOS/queue.c **** #if ( configQUEUE_REGISTRY_SIZE > 0 )
 146:ThirdParty/FreeRTOS/queue.c **** 
 147:ThirdParty/FreeRTOS/queue.c **** /* The type stored within the queue registry array.  This allows a name
 148:ThirdParty/FreeRTOS/queue.c ****  * to be assigned to each queue making kernel aware debugging a little
 149:ThirdParty/FreeRTOS/queue.c ****  * more user friendly. */
 150:ThirdParty/FreeRTOS/queue.c ****     typedef struct QUEUE_REGISTRY_ITEM
 151:ThirdParty/FreeRTOS/queue.c ****     {
 152:ThirdParty/FreeRTOS/queue.c ****         const char * pcQueueName; /*lint !e971 Unqualified char types are allowed for strings and s
 153:ThirdParty/FreeRTOS/queue.c ****         QueueHandle_t xHandle;
 154:ThirdParty/FreeRTOS/queue.c ****     } xQueueRegistryItem;
 155:ThirdParty/FreeRTOS/queue.c **** 
 156:ThirdParty/FreeRTOS/queue.c **** /* The old xQueueRegistryItem name is maintained above then typedefed to the
 157:ThirdParty/FreeRTOS/queue.c ****  * new xQueueRegistryItem name below to enable the use of older kernel aware
 158:ThirdParty/FreeRTOS/queue.c ****  * debuggers. */
 159:ThirdParty/FreeRTOS/queue.c ****     typedef xQueueRegistryItem QueueRegistryItem_t;
 160:ThirdParty/FreeRTOS/queue.c **** 
 161:ThirdParty/FreeRTOS/queue.c **** /* The queue registry is simply an array of QueueRegistryItem_t structures.
 162:ThirdParty/FreeRTOS/queue.c ****  * The pcQueueName member of a structure being NULL is indicative of the
 163:ThirdParty/FreeRTOS/queue.c ****  * array position being vacant. */
 164:ThirdParty/FreeRTOS/queue.c ****     PRIVILEGED_DATA QueueRegistryItem_t xQueueRegistry[ configQUEUE_REGISTRY_SIZE ];
 165:ThirdParty/FreeRTOS/queue.c **** 
 166:ThirdParty/FreeRTOS/queue.c **** #endif /* configQUEUE_REGISTRY_SIZE */
 167:ThirdParty/FreeRTOS/queue.c **** 
 168:ThirdParty/FreeRTOS/queue.c **** /*
 169:ThirdParty/FreeRTOS/queue.c ****  * Unlocks a queue locked by a call to prvLockQueue.  Locking a queue does not
 170:ThirdParty/FreeRTOS/queue.c ****  * prevent an ISR from adding or removing items to the queue, but does prevent
 171:ThirdParty/FreeRTOS/queue.c ****  * an ISR from removing tasks from the queue event lists.  If an ISR finds a
 172:ThirdParty/FreeRTOS/queue.c ****  * queue is locked it will instead increment the appropriate queue lock count
 173:ThirdParty/FreeRTOS/queue.c ****  * to indicate that a task may require unblocking.  When the queue in unlocked
 174:ThirdParty/FreeRTOS/queue.c ****  * these lock counts are inspected, and the appropriate action taken.
 175:ThirdParty/FreeRTOS/queue.c ****  */
 176:ThirdParty/FreeRTOS/queue.c **** static void prvUnlockQueue( Queue_t * const pxQueue ) PRIVILEGED_FUNCTION;
 177:ThirdParty/FreeRTOS/queue.c **** 
 178:ThirdParty/FreeRTOS/queue.c **** /*
 179:ThirdParty/FreeRTOS/queue.c ****  * Uses a critical section to determine if there is any data in a queue.
 180:ThirdParty/FreeRTOS/queue.c ****  *
 181:ThirdParty/FreeRTOS/queue.c ****  * @return pdTRUE if the queue contains no items, otherwise pdFALSE.
 182:ThirdParty/FreeRTOS/queue.c ****  */
 183:ThirdParty/FreeRTOS/queue.c **** static BaseType_t prvIsQueueEmpty( const Queue_t * pxQueue ) PRIVILEGED_FUNCTION;
 184:ThirdParty/FreeRTOS/queue.c **** 
 185:ThirdParty/FreeRTOS/queue.c **** /*
 186:ThirdParty/FreeRTOS/queue.c ****  * Uses a critical section to determine if there is any space in a queue.
 187:ThirdParty/FreeRTOS/queue.c ****  *
 188:ThirdParty/FreeRTOS/queue.c ****  * @return pdTRUE if there is no space, otherwise pdFALSE;
 189:ThirdParty/FreeRTOS/queue.c ****  */
 190:ThirdParty/FreeRTOS/queue.c **** static BaseType_t prvIsQueueFull( const Queue_t * pxQueue ) PRIVILEGED_FUNCTION;
 191:ThirdParty/FreeRTOS/queue.c **** 
 192:ThirdParty/FreeRTOS/queue.c **** /*
ARM GAS  C:\Users\Admin\AppData\Local\Temp\ccYAfxe2.s 			page 5


 193:ThirdParty/FreeRTOS/queue.c ****  * Copies an item into the queue, either at the front of the queue or the
 194:ThirdParty/FreeRTOS/queue.c ****  * back of the queue.
 195:ThirdParty/FreeRTOS/queue.c ****  */
 196:ThirdParty/FreeRTOS/queue.c **** static BaseType_t prvCopyDataToQueue( Queue_t * const pxQueue,
 197:ThirdParty/FreeRTOS/queue.c ****                                       const void * pvItemToQueue,
 198:ThirdParty/FreeRTOS/queue.c ****                                       const BaseType_t xPosition ) PRIVILEGED_FUNCTION;
 199:ThirdParty/FreeRTOS/queue.c **** 
 200:ThirdParty/FreeRTOS/queue.c **** /*
 201:ThirdParty/FreeRTOS/queue.c ****  * Copies an item out of a queue.
 202:ThirdParty/FreeRTOS/queue.c ****  */
 203:ThirdParty/FreeRTOS/queue.c **** static void prvCopyDataFromQueue( Queue_t * const pxQueue,
 204:ThirdParty/FreeRTOS/queue.c ****                                   void * const pvBuffer ) PRIVILEGED_FUNCTION;
 205:ThirdParty/FreeRTOS/queue.c **** 
 206:ThirdParty/FreeRTOS/queue.c **** #if ( configUSE_QUEUE_SETS == 1 )
 207:ThirdParty/FreeRTOS/queue.c **** 
 208:ThirdParty/FreeRTOS/queue.c **** /*
 209:ThirdParty/FreeRTOS/queue.c ****  * Checks to see if a queue is a member of a queue set, and if so, notifies
 210:ThirdParty/FreeRTOS/queue.c ****  * the queue set that the queue contains data.
 211:ThirdParty/FreeRTOS/queue.c ****  */
 212:ThirdParty/FreeRTOS/queue.c ****     static BaseType_t prvNotifyQueueSetContainer( const Queue_t * const pxQueue ) PRIVILEGED_FUNCTI
 213:ThirdParty/FreeRTOS/queue.c **** #endif
 214:ThirdParty/FreeRTOS/queue.c **** 
 215:ThirdParty/FreeRTOS/queue.c **** /*
 216:ThirdParty/FreeRTOS/queue.c ****  * Called after a Queue_t structure has been allocated either statically or
 217:ThirdParty/FreeRTOS/queue.c ****  * dynamically to fill in the structure's members.
 218:ThirdParty/FreeRTOS/queue.c ****  */
 219:ThirdParty/FreeRTOS/queue.c **** static void prvInitialiseNewQueue( const UBaseType_t uxQueueLength,
 220:ThirdParty/FreeRTOS/queue.c ****                                    const UBaseType_t uxItemSize,
 221:ThirdParty/FreeRTOS/queue.c ****                                    uint8_t * pucQueueStorage,
 222:ThirdParty/FreeRTOS/queue.c ****                                    const uint8_t ucQueueType,
 223:ThirdParty/FreeRTOS/queue.c ****                                    Queue_t * pxNewQueue ) PRIVILEGED_FUNCTION;
 224:ThirdParty/FreeRTOS/queue.c **** 
 225:ThirdParty/FreeRTOS/queue.c **** /*
 226:ThirdParty/FreeRTOS/queue.c ****  * Mutexes are a special type of queue.  When a mutex is created, first the
 227:ThirdParty/FreeRTOS/queue.c ****  * queue is created, then prvInitialiseMutex() is called to configure the queue
 228:ThirdParty/FreeRTOS/queue.c ****  * as a mutex.
 229:ThirdParty/FreeRTOS/queue.c ****  */
 230:ThirdParty/FreeRTOS/queue.c **** #if ( configUSE_MUTEXES == 1 )
 231:ThirdParty/FreeRTOS/queue.c ****     static void prvInitialiseMutex( Queue_t * pxNewQueue ) PRIVILEGED_FUNCTION;
 232:ThirdParty/FreeRTOS/queue.c **** #endif
 233:ThirdParty/FreeRTOS/queue.c **** 
 234:ThirdParty/FreeRTOS/queue.c **** #if ( configUSE_MUTEXES == 1 )
 235:ThirdParty/FreeRTOS/queue.c **** 
 236:ThirdParty/FreeRTOS/queue.c **** /*
 237:ThirdParty/FreeRTOS/queue.c ****  * If a task waiting for a mutex causes the mutex holder to inherit a
 238:ThirdParty/FreeRTOS/queue.c ****  * priority, but the waiting task times out, then the holder should
 239:ThirdParty/FreeRTOS/queue.c ****  * disinherit the priority - but only down to the highest priority of any
 240:ThirdParty/FreeRTOS/queue.c ****  * other tasks that are waiting for the same mutex.  This function returns
 241:ThirdParty/FreeRTOS/queue.c ****  * that priority.
 242:ThirdParty/FreeRTOS/queue.c ****  */
 243:ThirdParty/FreeRTOS/queue.c ****     static UBaseType_t prvGetDisinheritPriorityAfterTimeout( const Queue_t * const pxQueue ) PRIVIL
 244:ThirdParty/FreeRTOS/queue.c **** #endif
 245:ThirdParty/FreeRTOS/queue.c **** /*-----------------------------------------------------------*/
 246:ThirdParty/FreeRTOS/queue.c **** 
 247:ThirdParty/FreeRTOS/queue.c **** /*
 248:ThirdParty/FreeRTOS/queue.c ****  * Macro to mark a queue as locked.  Locking a queue prevents an ISR from
 249:ThirdParty/FreeRTOS/queue.c ****  * accessing the queue event lists.
ARM GAS  C:\Users\Admin\AppData\Local\Temp\ccYAfxe2.s 			page 6


 250:ThirdParty/FreeRTOS/queue.c ****  */
 251:ThirdParty/FreeRTOS/queue.c **** #define prvLockQueue( pxQueue )                            \
 252:ThirdParty/FreeRTOS/queue.c ****     taskENTER_CRITICAL();                                  \
 253:ThirdParty/FreeRTOS/queue.c ****     {                                                      \
 254:ThirdParty/FreeRTOS/queue.c ****         if( ( pxQueue )->cRxLock == queueUNLOCKED )        \
 255:ThirdParty/FreeRTOS/queue.c ****         {                                                  \
 256:ThirdParty/FreeRTOS/queue.c ****             ( pxQueue )->cRxLock = queueLOCKED_UNMODIFIED; \
 257:ThirdParty/FreeRTOS/queue.c ****         }                                                  \
 258:ThirdParty/FreeRTOS/queue.c ****         if( ( pxQueue )->cTxLock == queueUNLOCKED )        \
 259:ThirdParty/FreeRTOS/queue.c ****         {                                                  \
 260:ThirdParty/FreeRTOS/queue.c ****             ( pxQueue )->cTxLock = queueLOCKED_UNMODIFIED; \
 261:ThirdParty/FreeRTOS/queue.c ****         }                                                  \
 262:ThirdParty/FreeRTOS/queue.c ****     }                                                      \
 263:ThirdParty/FreeRTOS/queue.c ****     taskEXIT_CRITICAL()
 264:ThirdParty/FreeRTOS/queue.c **** 
 265:ThirdParty/FreeRTOS/queue.c **** /*
 266:ThirdParty/FreeRTOS/queue.c ****  * Macro to increment cTxLock member of the queue data structure. It is
 267:ThirdParty/FreeRTOS/queue.c ****  * capped at the number of tasks in the system as we cannot unblock more
 268:ThirdParty/FreeRTOS/queue.c ****  * tasks than the number of tasks in the system.
 269:ThirdParty/FreeRTOS/queue.c ****  */
 270:ThirdParty/FreeRTOS/queue.c **** #define prvIncrementQueueTxLock( pxQueue, cTxLock )                           \
 271:ThirdParty/FreeRTOS/queue.c ****     {                                                                         \
 272:ThirdParty/FreeRTOS/queue.c ****         const UBaseType_t uxNumberOfTasks = uxTaskGetNumberOfTasks();         \
 273:ThirdParty/FreeRTOS/queue.c ****         if( ( UBaseType_t ) ( cTxLock ) < uxNumberOfTasks )                   \
 274:ThirdParty/FreeRTOS/queue.c ****         {                                                                     \
 275:ThirdParty/FreeRTOS/queue.c ****             configASSERT( ( cTxLock ) != queueINT8_MAX );                     \
 276:ThirdParty/FreeRTOS/queue.c ****             ( pxQueue )->cTxLock = ( int8_t ) ( ( cTxLock ) + ( int8_t ) 1 ); \
 277:ThirdParty/FreeRTOS/queue.c ****         }                                                                     \
 278:ThirdParty/FreeRTOS/queue.c ****     }
 279:ThirdParty/FreeRTOS/queue.c **** 
 280:ThirdParty/FreeRTOS/queue.c **** /*
 281:ThirdParty/FreeRTOS/queue.c ****  * Macro to increment cRxLock member of the queue data structure. It is
 282:ThirdParty/FreeRTOS/queue.c ****  * capped at the number of tasks in the system as we cannot unblock more
 283:ThirdParty/FreeRTOS/queue.c ****  * tasks than the number of tasks in the system.
 284:ThirdParty/FreeRTOS/queue.c ****  */
 285:ThirdParty/FreeRTOS/queue.c **** #define prvIncrementQueueRxLock( pxQueue, cRxLock )                           \
 286:ThirdParty/FreeRTOS/queue.c ****     {                                                                         \
 287:ThirdParty/FreeRTOS/queue.c ****         const UBaseType_t uxNumberOfTasks = uxTaskGetNumberOfTasks();         \
 288:ThirdParty/FreeRTOS/queue.c ****         if( ( UBaseType_t ) ( cRxLock ) < uxNumberOfTasks )                   \
 289:ThirdParty/FreeRTOS/queue.c ****         {                                                                     \
 290:ThirdParty/FreeRTOS/queue.c ****             configASSERT( ( cRxLock ) != queueINT8_MAX );                     \
 291:ThirdParty/FreeRTOS/queue.c ****             ( pxQueue )->cRxLock = ( int8_t ) ( ( cRxLock ) + ( int8_t ) 1 ); \
 292:ThirdParty/FreeRTOS/queue.c ****         }                                                                     \
 293:ThirdParty/FreeRTOS/queue.c ****     }
 294:ThirdParty/FreeRTOS/queue.c **** /*-----------------------------------------------------------*/
 295:ThirdParty/FreeRTOS/queue.c **** 
 296:ThirdParty/FreeRTOS/queue.c **** BaseType_t xQueueGenericReset( QueueHandle_t xQueue,
 297:ThirdParty/FreeRTOS/queue.c ****                                BaseType_t xNewQueue )
 298:ThirdParty/FreeRTOS/queue.c **** {
  36              		.loc 1 298 1
  37              		.cfi_startproc
  38              		@ args = 0, pretend = 0, frame = 24
  39              		@ frame_needed = 1, uses_anonymous_args = 0
  40 0000 80B5     		push	{r7, lr}
  41              	.LCFI0:
  42              		.cfi_def_cfa_offset 8
  43              		.cfi_offset 7, -8
ARM GAS  C:\Users\Admin\AppData\Local\Temp\ccYAfxe2.s 			page 7


  44              		.cfi_offset 14, -4
  45 0002 86B0     		sub	sp, sp, #24
  46              	.LCFI1:
  47              		.cfi_def_cfa_offset 32
  48 0004 00AF     		add	r7, sp, #0
  49              	.LCFI2:
  50              		.cfi_def_cfa_register 7
  51 0006 7860     		str	r0, [r7, #4]
  52 0008 3960     		str	r1, [r7]
 299:ThirdParty/FreeRTOS/queue.c ****     BaseType_t xReturn = pdPASS;
  53              		.loc 1 299 16
  54 000a 0123     		movs	r3, #1
  55 000c 7B61     		str	r3, [r7, #20]
 300:ThirdParty/FreeRTOS/queue.c ****     Queue_t * const pxQueue = xQueue;
  56              		.loc 1 300 21
  57 000e 7B68     		ldr	r3, [r7, #4]
  58 0010 3B61     		str	r3, [r7, #16]
 301:ThirdParty/FreeRTOS/queue.c **** 
 302:ThirdParty/FreeRTOS/queue.c ****     configASSERT( pxQueue );
  59              		.loc 1 302 5
  60 0012 3B69     		ldr	r3, [r7, #16]
  61 0014 002B     		cmp	r3, #0
  62 0016 0AD1     		bne	.L2
  63              	.LBB114:
  64              	.LBB115:
  65              		.file 2 "ThirdParty/FreeRTOS/portable/GCC/ARM_CM4F/portmacro.h"
   1:ThirdParty/FreeRTOS/portable/GCC/ARM_CM4F/portmacro.h **** /*
   2:ThirdParty/FreeRTOS/portable/GCC/ARM_CM4F/portmacro.h ****  * FreeRTOS Kernel V10.5.1
   3:ThirdParty/FreeRTOS/portable/GCC/ARM_CM4F/portmacro.h ****  * Copyright (C) 2021 Amazon.com, Inc. or its affiliates.  All Rights Reserved.
   4:ThirdParty/FreeRTOS/portable/GCC/ARM_CM4F/portmacro.h ****  *
   5:ThirdParty/FreeRTOS/portable/GCC/ARM_CM4F/portmacro.h ****  * SPDX-License-Identifier: MIT
   6:ThirdParty/FreeRTOS/portable/GCC/ARM_CM4F/portmacro.h ****  *
   7:ThirdParty/FreeRTOS/portable/GCC/ARM_CM4F/portmacro.h ****  * Permission is hereby granted, free of charge, to any person obtaining a copy of
   8:ThirdParty/FreeRTOS/portable/GCC/ARM_CM4F/portmacro.h ****  * this software and associated documentation files (the "Software"), to deal in
   9:ThirdParty/FreeRTOS/portable/GCC/ARM_CM4F/portmacro.h ****  * the Software without restriction, including without limitation the rights to
  10:ThirdParty/FreeRTOS/portable/GCC/ARM_CM4F/portmacro.h ****  * use, copy, modify, merge, publish, distribute, sublicense, and/or sell copies of
  11:ThirdParty/FreeRTOS/portable/GCC/ARM_CM4F/portmacro.h ****  * the Software, and to permit persons to whom the Software is furnished to do so,
  12:ThirdParty/FreeRTOS/portable/GCC/ARM_CM4F/portmacro.h ****  * subject to the following conditions:
  13:ThirdParty/FreeRTOS/portable/GCC/ARM_CM4F/portmacro.h ****  *
  14:ThirdParty/FreeRTOS/portable/GCC/ARM_CM4F/portmacro.h ****  * The above copyright notice and this permission notice shall be included in all
  15:ThirdParty/FreeRTOS/portable/GCC/ARM_CM4F/portmacro.h ****  * copies or substantial portions of the Software.
  16:ThirdParty/FreeRTOS/portable/GCC/ARM_CM4F/portmacro.h ****  *
  17:ThirdParty/FreeRTOS/portable/GCC/ARM_CM4F/portmacro.h ****  * THE SOFTWARE IS PROVIDED "AS IS", WITHOUT WARRANTY OF ANY KIND, EXPRESS OR
  18:ThirdParty/FreeRTOS/portable/GCC/ARM_CM4F/portmacro.h ****  * IMPLIED, INCLUDING BUT NOT LIMITED TO THE WARRANTIES OF MERCHANTABILITY, FITNESS
  19:ThirdParty/FreeRTOS/portable/GCC/ARM_CM4F/portmacro.h ****  * FOR A PARTICULAR PURPOSE AND NONINFRINGEMENT. IN NO EVENT SHALL THE AUTHORS OR
  20:ThirdParty/FreeRTOS/portable/GCC/ARM_CM4F/portmacro.h ****  * COPYRIGHT HOLDERS BE LIABLE FOR ANY CLAIM, DAMAGES OR OTHER LIABILITY, WHETHER
  21:ThirdParty/FreeRTOS/portable/GCC/ARM_CM4F/portmacro.h ****  * IN AN ACTION OF CONTRACT, TORT OR OTHERWISE, ARISING FROM, OUT OF OR IN
  22:ThirdParty/FreeRTOS/portable/GCC/ARM_CM4F/portmacro.h ****  * CONNECTION WITH THE SOFTWARE OR THE USE OR OTHER DEALINGS IN THE SOFTWARE.
  23:ThirdParty/FreeRTOS/portable/GCC/ARM_CM4F/portmacro.h ****  *
  24:ThirdParty/FreeRTOS/portable/GCC/ARM_CM4F/portmacro.h ****  * https://www.FreeRTOS.org
  25:ThirdParty/FreeRTOS/portable/GCC/ARM_CM4F/portmacro.h ****  * https://github.com/FreeRTOS
  26:ThirdParty/FreeRTOS/portable/GCC/ARM_CM4F/portmacro.h ****  *
  27:ThirdParty/FreeRTOS/portable/GCC/ARM_CM4F/portmacro.h ****  */
  28:ThirdParty/FreeRTOS/portable/GCC/ARM_CM4F/portmacro.h **** 
  29:ThirdParty/FreeRTOS/portable/GCC/ARM_CM4F/portmacro.h **** 
  30:ThirdParty/FreeRTOS/portable/GCC/ARM_CM4F/portmacro.h **** #ifndef PORTMACRO_H
  31:ThirdParty/FreeRTOS/portable/GCC/ARM_CM4F/portmacro.h ****     #define PORTMACRO_H
ARM GAS  C:\Users\Admin\AppData\Local\Temp\ccYAfxe2.s 			page 8


  32:ThirdParty/FreeRTOS/portable/GCC/ARM_CM4F/portmacro.h **** 
  33:ThirdParty/FreeRTOS/portable/GCC/ARM_CM4F/portmacro.h ****     #ifdef __cplusplus
  34:ThirdParty/FreeRTOS/portable/GCC/ARM_CM4F/portmacro.h ****         extern "C" {
  35:ThirdParty/FreeRTOS/portable/GCC/ARM_CM4F/portmacro.h ****     #endif
  36:ThirdParty/FreeRTOS/portable/GCC/ARM_CM4F/portmacro.h **** 
  37:ThirdParty/FreeRTOS/portable/GCC/ARM_CM4F/portmacro.h **** /*-----------------------------------------------------------
  38:ThirdParty/FreeRTOS/portable/GCC/ARM_CM4F/portmacro.h ****  * Port specific definitions.
  39:ThirdParty/FreeRTOS/portable/GCC/ARM_CM4F/portmacro.h ****  *
  40:ThirdParty/FreeRTOS/portable/GCC/ARM_CM4F/portmacro.h ****  * The settings in this file configure FreeRTOS correctly for the
  41:ThirdParty/FreeRTOS/portable/GCC/ARM_CM4F/portmacro.h ****  * given hardware and compiler.
  42:ThirdParty/FreeRTOS/portable/GCC/ARM_CM4F/portmacro.h ****  *
  43:ThirdParty/FreeRTOS/portable/GCC/ARM_CM4F/portmacro.h ****  * These settings should not be altered.
  44:ThirdParty/FreeRTOS/portable/GCC/ARM_CM4F/portmacro.h ****  *-----------------------------------------------------------
  45:ThirdParty/FreeRTOS/portable/GCC/ARM_CM4F/portmacro.h ****  */
  46:ThirdParty/FreeRTOS/portable/GCC/ARM_CM4F/portmacro.h **** 
  47:ThirdParty/FreeRTOS/portable/GCC/ARM_CM4F/portmacro.h **** /* Type definitions. */
  48:ThirdParty/FreeRTOS/portable/GCC/ARM_CM4F/portmacro.h ****     #define portCHAR          char
  49:ThirdParty/FreeRTOS/portable/GCC/ARM_CM4F/portmacro.h ****     #define portFLOAT         float
  50:ThirdParty/FreeRTOS/portable/GCC/ARM_CM4F/portmacro.h ****     #define portDOUBLE        double
  51:ThirdParty/FreeRTOS/portable/GCC/ARM_CM4F/portmacro.h ****     #define portLONG          long
  52:ThirdParty/FreeRTOS/portable/GCC/ARM_CM4F/portmacro.h ****     #define portSHORT         short
  53:ThirdParty/FreeRTOS/portable/GCC/ARM_CM4F/portmacro.h ****     #define portSTACK_TYPE    uint32_t
  54:ThirdParty/FreeRTOS/portable/GCC/ARM_CM4F/portmacro.h ****     #define portBASE_TYPE     long
  55:ThirdParty/FreeRTOS/portable/GCC/ARM_CM4F/portmacro.h **** 
  56:ThirdParty/FreeRTOS/portable/GCC/ARM_CM4F/portmacro.h ****     typedef portSTACK_TYPE   StackType_t;
  57:ThirdParty/FreeRTOS/portable/GCC/ARM_CM4F/portmacro.h ****     typedef long             BaseType_t;
  58:ThirdParty/FreeRTOS/portable/GCC/ARM_CM4F/portmacro.h ****     typedef unsigned long    UBaseType_t;
  59:ThirdParty/FreeRTOS/portable/GCC/ARM_CM4F/portmacro.h **** 
  60:ThirdParty/FreeRTOS/portable/GCC/ARM_CM4F/portmacro.h ****     #if ( configUSE_16_BIT_TICKS == 1 )
  61:ThirdParty/FreeRTOS/portable/GCC/ARM_CM4F/portmacro.h ****         typedef uint16_t     TickType_t;
  62:ThirdParty/FreeRTOS/portable/GCC/ARM_CM4F/portmacro.h ****         #define portMAX_DELAY              ( TickType_t ) 0xffff
  63:ThirdParty/FreeRTOS/portable/GCC/ARM_CM4F/portmacro.h ****     #else
  64:ThirdParty/FreeRTOS/portable/GCC/ARM_CM4F/portmacro.h ****         typedef uint32_t     TickType_t;
  65:ThirdParty/FreeRTOS/portable/GCC/ARM_CM4F/portmacro.h ****         #define portMAX_DELAY              ( TickType_t ) 0xffffffffUL
  66:ThirdParty/FreeRTOS/portable/GCC/ARM_CM4F/portmacro.h **** 
  67:ThirdParty/FreeRTOS/portable/GCC/ARM_CM4F/portmacro.h **** /* 32-bit tick type on a 32-bit architecture, so reads of the tick count do
  68:ThirdParty/FreeRTOS/portable/GCC/ARM_CM4F/portmacro.h ****  * not need to be guarded with a critical section. */
  69:ThirdParty/FreeRTOS/portable/GCC/ARM_CM4F/portmacro.h ****         #define portTICK_TYPE_IS_ATOMIC    1
  70:ThirdParty/FreeRTOS/portable/GCC/ARM_CM4F/portmacro.h ****     #endif
  71:ThirdParty/FreeRTOS/portable/GCC/ARM_CM4F/portmacro.h **** /*-----------------------------------------------------------*/
  72:ThirdParty/FreeRTOS/portable/GCC/ARM_CM4F/portmacro.h **** 
  73:ThirdParty/FreeRTOS/portable/GCC/ARM_CM4F/portmacro.h **** /* Architecture specifics. */
  74:ThirdParty/FreeRTOS/portable/GCC/ARM_CM4F/portmacro.h ****     #define portSTACK_GROWTH      ( -1 )
  75:ThirdParty/FreeRTOS/portable/GCC/ARM_CM4F/portmacro.h ****     #define portTICK_PERIOD_MS    ( ( TickType_t ) 1000 / configTICK_RATE_HZ )
  76:ThirdParty/FreeRTOS/portable/GCC/ARM_CM4F/portmacro.h ****     #define portBYTE_ALIGNMENT    8
  77:ThirdParty/FreeRTOS/portable/GCC/ARM_CM4F/portmacro.h ****     #define portDONT_DISCARD      __attribute__( ( used ) )
  78:ThirdParty/FreeRTOS/portable/GCC/ARM_CM4F/portmacro.h **** /*-----------------------------------------------------------*/
  79:ThirdParty/FreeRTOS/portable/GCC/ARM_CM4F/portmacro.h **** 
  80:ThirdParty/FreeRTOS/portable/GCC/ARM_CM4F/portmacro.h **** /* Scheduler utilities. */
  81:ThirdParty/FreeRTOS/portable/GCC/ARM_CM4F/portmacro.h ****     #define portYIELD()                                 \
  82:ThirdParty/FreeRTOS/portable/GCC/ARM_CM4F/portmacro.h ****     {                                                   \
  83:ThirdParty/FreeRTOS/portable/GCC/ARM_CM4F/portmacro.h ****         /* Set a PendSV to request a context switch. */ \
  84:ThirdParty/FreeRTOS/portable/GCC/ARM_CM4F/portmacro.h ****         portNVIC_INT_CTRL_REG = portNVIC_PENDSVSET_BIT; \
  85:ThirdParty/FreeRTOS/portable/GCC/ARM_CM4F/portmacro.h ****                                                         \
  86:ThirdParty/FreeRTOS/portable/GCC/ARM_CM4F/portmacro.h ****         /* Barriers are normally not required but do ensure the code is completely \
  87:ThirdParty/FreeRTOS/portable/GCC/ARM_CM4F/portmacro.h ****          * within the specified behaviour for the architecture. */ \
  88:ThirdParty/FreeRTOS/portable/GCC/ARM_CM4F/portmacro.h ****         __asm volatile ( "dsb" ::: "memory" );                     \
ARM GAS  C:\Users\Admin\AppData\Local\Temp\ccYAfxe2.s 			page 9


  89:ThirdParty/FreeRTOS/portable/GCC/ARM_CM4F/portmacro.h ****         __asm volatile ( "isb" );                                  \
  90:ThirdParty/FreeRTOS/portable/GCC/ARM_CM4F/portmacro.h ****     }
  91:ThirdParty/FreeRTOS/portable/GCC/ARM_CM4F/portmacro.h **** 
  92:ThirdParty/FreeRTOS/portable/GCC/ARM_CM4F/portmacro.h ****     #define portNVIC_INT_CTRL_REG     ( *( ( volatile uint32_t * ) 0xe000ed04 ) )
  93:ThirdParty/FreeRTOS/portable/GCC/ARM_CM4F/portmacro.h ****     #define portNVIC_PENDSVSET_BIT    ( 1UL << 28UL )
  94:ThirdParty/FreeRTOS/portable/GCC/ARM_CM4F/portmacro.h ****     #define portEND_SWITCHING_ISR( xSwitchRequired )    do { if( xSwitchRequired != pdFALSE ) portY
  95:ThirdParty/FreeRTOS/portable/GCC/ARM_CM4F/portmacro.h ****     #define portYIELD_FROM_ISR( x )                     portEND_SWITCHING_ISR( x )
  96:ThirdParty/FreeRTOS/portable/GCC/ARM_CM4F/portmacro.h **** /*-----------------------------------------------------------*/
  97:ThirdParty/FreeRTOS/portable/GCC/ARM_CM4F/portmacro.h **** 
  98:ThirdParty/FreeRTOS/portable/GCC/ARM_CM4F/portmacro.h **** /* Critical section management. */
  99:ThirdParty/FreeRTOS/portable/GCC/ARM_CM4F/portmacro.h ****     extern void vPortEnterCritical( void );
 100:ThirdParty/FreeRTOS/portable/GCC/ARM_CM4F/portmacro.h ****     extern void vPortExitCritical( void );
 101:ThirdParty/FreeRTOS/portable/GCC/ARM_CM4F/portmacro.h ****     #define portSET_INTERRUPT_MASK_FROM_ISR()         ulPortRaiseBASEPRI()
 102:ThirdParty/FreeRTOS/portable/GCC/ARM_CM4F/portmacro.h ****     #define portCLEAR_INTERRUPT_MASK_FROM_ISR( x )    vPortSetBASEPRI( x )
 103:ThirdParty/FreeRTOS/portable/GCC/ARM_CM4F/portmacro.h ****     #define portDISABLE_INTERRUPTS()                  vPortRaiseBASEPRI()
 104:ThirdParty/FreeRTOS/portable/GCC/ARM_CM4F/portmacro.h ****     #define portENABLE_INTERRUPTS()                   vPortSetBASEPRI( 0 )
 105:ThirdParty/FreeRTOS/portable/GCC/ARM_CM4F/portmacro.h ****     #define portENTER_CRITICAL()                      vPortEnterCritical()
 106:ThirdParty/FreeRTOS/portable/GCC/ARM_CM4F/portmacro.h ****     #define portEXIT_CRITICAL()                       vPortExitCritical()
 107:ThirdParty/FreeRTOS/portable/GCC/ARM_CM4F/portmacro.h **** 
 108:ThirdParty/FreeRTOS/portable/GCC/ARM_CM4F/portmacro.h **** /*-----------------------------------------------------------*/
 109:ThirdParty/FreeRTOS/portable/GCC/ARM_CM4F/portmacro.h **** 
 110:ThirdParty/FreeRTOS/portable/GCC/ARM_CM4F/portmacro.h **** /* Task function macros as described on the FreeRTOS.org WEB site.  These are
 111:ThirdParty/FreeRTOS/portable/GCC/ARM_CM4F/portmacro.h ****  * not necessary for to use this port.  They are defined so the common demo files
 112:ThirdParty/FreeRTOS/portable/GCC/ARM_CM4F/portmacro.h ****  * (which build with all the ports) will build. */
 113:ThirdParty/FreeRTOS/portable/GCC/ARM_CM4F/portmacro.h ****     #define portTASK_FUNCTION_PROTO( vFunction, pvParameters )    void vFunction( void * pvParamete
 114:ThirdParty/FreeRTOS/portable/GCC/ARM_CM4F/portmacro.h ****     #define portTASK_FUNCTION( vFunction, pvParameters )          void vFunction( void * pvParamete
 115:ThirdParty/FreeRTOS/portable/GCC/ARM_CM4F/portmacro.h **** /*-----------------------------------------------------------*/
 116:ThirdParty/FreeRTOS/portable/GCC/ARM_CM4F/portmacro.h **** 
 117:ThirdParty/FreeRTOS/portable/GCC/ARM_CM4F/portmacro.h **** /* Tickless idle/low power functionality. */
 118:ThirdParty/FreeRTOS/portable/GCC/ARM_CM4F/portmacro.h ****     #ifndef portSUPPRESS_TICKS_AND_SLEEP
 119:ThirdParty/FreeRTOS/portable/GCC/ARM_CM4F/portmacro.h ****         extern void vPortSuppressTicksAndSleep( TickType_t xExpectedIdleTime );
 120:ThirdParty/FreeRTOS/portable/GCC/ARM_CM4F/portmacro.h ****         #define portSUPPRESS_TICKS_AND_SLEEP( xExpectedIdleTime )    vPortSuppressTicksAndSleep( xE
 121:ThirdParty/FreeRTOS/portable/GCC/ARM_CM4F/portmacro.h ****     #endif
 122:ThirdParty/FreeRTOS/portable/GCC/ARM_CM4F/portmacro.h **** /*-----------------------------------------------------------*/
 123:ThirdParty/FreeRTOS/portable/GCC/ARM_CM4F/portmacro.h **** 
 124:ThirdParty/FreeRTOS/portable/GCC/ARM_CM4F/portmacro.h **** /* Architecture specific optimisations. */
 125:ThirdParty/FreeRTOS/portable/GCC/ARM_CM4F/portmacro.h ****     #ifndef configUSE_PORT_OPTIMISED_TASK_SELECTION
 126:ThirdParty/FreeRTOS/portable/GCC/ARM_CM4F/portmacro.h ****         #define configUSE_PORT_OPTIMISED_TASK_SELECTION    1
 127:ThirdParty/FreeRTOS/portable/GCC/ARM_CM4F/portmacro.h ****     #endif
 128:ThirdParty/FreeRTOS/portable/GCC/ARM_CM4F/portmacro.h **** 
 129:ThirdParty/FreeRTOS/portable/GCC/ARM_CM4F/portmacro.h ****     #if configUSE_PORT_OPTIMISED_TASK_SELECTION == 1
 130:ThirdParty/FreeRTOS/portable/GCC/ARM_CM4F/portmacro.h **** 
 131:ThirdParty/FreeRTOS/portable/GCC/ARM_CM4F/portmacro.h **** /* Generic helper function. */
 132:ThirdParty/FreeRTOS/portable/GCC/ARM_CM4F/portmacro.h ****         __attribute__( ( always_inline ) ) static inline uint8_t ucPortCountLeadingZeros( uint32_t 
 133:ThirdParty/FreeRTOS/portable/GCC/ARM_CM4F/portmacro.h ****         {
 134:ThirdParty/FreeRTOS/portable/GCC/ARM_CM4F/portmacro.h ****             uint8_t ucReturn;
 135:ThirdParty/FreeRTOS/portable/GCC/ARM_CM4F/portmacro.h **** 
 136:ThirdParty/FreeRTOS/portable/GCC/ARM_CM4F/portmacro.h ****             __asm volatile ( "clz %0, %1" : "=r" ( ucReturn ) : "r" ( ulBitmap ) : "memory" );
 137:ThirdParty/FreeRTOS/portable/GCC/ARM_CM4F/portmacro.h **** 
 138:ThirdParty/FreeRTOS/portable/GCC/ARM_CM4F/portmacro.h ****             return ucReturn;
 139:ThirdParty/FreeRTOS/portable/GCC/ARM_CM4F/portmacro.h ****         }
 140:ThirdParty/FreeRTOS/portable/GCC/ARM_CM4F/portmacro.h **** 
 141:ThirdParty/FreeRTOS/portable/GCC/ARM_CM4F/portmacro.h **** /* Check the configuration. */
 142:ThirdParty/FreeRTOS/portable/GCC/ARM_CM4F/portmacro.h ****         #if ( configMAX_PRIORITIES > 32 )
 143:ThirdParty/FreeRTOS/portable/GCC/ARM_CM4F/portmacro.h ****             #error configUSE_PORT_OPTIMISED_TASK_SELECTION can only be set to 1 when configMAX_PRIO
 144:ThirdParty/FreeRTOS/portable/GCC/ARM_CM4F/portmacro.h ****         #endif
 145:ThirdParty/FreeRTOS/portable/GCC/ARM_CM4F/portmacro.h **** 
ARM GAS  C:\Users\Admin\AppData\Local\Temp\ccYAfxe2.s 			page 10


 146:ThirdParty/FreeRTOS/portable/GCC/ARM_CM4F/portmacro.h **** /* Store/clear the ready priorities in a bit map. */
 147:ThirdParty/FreeRTOS/portable/GCC/ARM_CM4F/portmacro.h ****         #define portRECORD_READY_PRIORITY( uxPriority, uxReadyPriorities )    ( uxReadyPriorities )
 148:ThirdParty/FreeRTOS/portable/GCC/ARM_CM4F/portmacro.h ****         #define portRESET_READY_PRIORITY( uxPriority, uxReadyPriorities )     ( uxReadyPriorities )
 149:ThirdParty/FreeRTOS/portable/GCC/ARM_CM4F/portmacro.h **** 
 150:ThirdParty/FreeRTOS/portable/GCC/ARM_CM4F/portmacro.h **** /*-----------------------------------------------------------*/
 151:ThirdParty/FreeRTOS/portable/GCC/ARM_CM4F/portmacro.h **** 
 152:ThirdParty/FreeRTOS/portable/GCC/ARM_CM4F/portmacro.h ****         #define portGET_HIGHEST_PRIORITY( uxTopPriority, uxReadyPriorities )    uxTopPriority = ( 3
 153:ThirdParty/FreeRTOS/portable/GCC/ARM_CM4F/portmacro.h **** 
 154:ThirdParty/FreeRTOS/portable/GCC/ARM_CM4F/portmacro.h ****     #endif /* configUSE_PORT_OPTIMISED_TASK_SELECTION */
 155:ThirdParty/FreeRTOS/portable/GCC/ARM_CM4F/portmacro.h **** 
 156:ThirdParty/FreeRTOS/portable/GCC/ARM_CM4F/portmacro.h **** /*-----------------------------------------------------------*/
 157:ThirdParty/FreeRTOS/portable/GCC/ARM_CM4F/portmacro.h **** 
 158:ThirdParty/FreeRTOS/portable/GCC/ARM_CM4F/portmacro.h ****     #ifdef configASSERT
 159:ThirdParty/FreeRTOS/portable/GCC/ARM_CM4F/portmacro.h ****         void vPortValidateInterruptPriority( void );
 160:ThirdParty/FreeRTOS/portable/GCC/ARM_CM4F/portmacro.h ****         #define portASSERT_IF_INTERRUPT_PRIORITY_INVALID()    vPortValidateInterruptPriority()
 161:ThirdParty/FreeRTOS/portable/GCC/ARM_CM4F/portmacro.h ****     #endif
 162:ThirdParty/FreeRTOS/portable/GCC/ARM_CM4F/portmacro.h **** 
 163:ThirdParty/FreeRTOS/portable/GCC/ARM_CM4F/portmacro.h **** /* portNOP() is not required by this port. */
 164:ThirdParty/FreeRTOS/portable/GCC/ARM_CM4F/portmacro.h ****     #define portNOP()
 165:ThirdParty/FreeRTOS/portable/GCC/ARM_CM4F/portmacro.h **** 
 166:ThirdParty/FreeRTOS/portable/GCC/ARM_CM4F/portmacro.h ****     #define portINLINE              __inline
 167:ThirdParty/FreeRTOS/portable/GCC/ARM_CM4F/portmacro.h **** 
 168:ThirdParty/FreeRTOS/portable/GCC/ARM_CM4F/portmacro.h ****     #ifndef portFORCE_INLINE
 169:ThirdParty/FreeRTOS/portable/GCC/ARM_CM4F/portmacro.h ****         #define portFORCE_INLINE    inline __attribute__( ( always_inline ) )
 170:ThirdParty/FreeRTOS/portable/GCC/ARM_CM4F/portmacro.h ****     #endif
 171:ThirdParty/FreeRTOS/portable/GCC/ARM_CM4F/portmacro.h **** 
 172:ThirdParty/FreeRTOS/portable/GCC/ARM_CM4F/portmacro.h ****     portFORCE_INLINE static BaseType_t xPortIsInsideInterrupt( void )
 173:ThirdParty/FreeRTOS/portable/GCC/ARM_CM4F/portmacro.h ****     {
 174:ThirdParty/FreeRTOS/portable/GCC/ARM_CM4F/portmacro.h ****         uint32_t ulCurrentInterrupt;
 175:ThirdParty/FreeRTOS/portable/GCC/ARM_CM4F/portmacro.h ****         BaseType_t xReturn;
 176:ThirdParty/FreeRTOS/portable/GCC/ARM_CM4F/portmacro.h **** 
 177:ThirdParty/FreeRTOS/portable/GCC/ARM_CM4F/portmacro.h ****         /* Obtain the number of the currently executing interrupt. */
 178:ThirdParty/FreeRTOS/portable/GCC/ARM_CM4F/portmacro.h ****         __asm volatile ( "mrs %0, ipsr" : "=r" ( ulCurrentInterrupt )::"memory" );
 179:ThirdParty/FreeRTOS/portable/GCC/ARM_CM4F/portmacro.h **** 
 180:ThirdParty/FreeRTOS/portable/GCC/ARM_CM4F/portmacro.h ****         if( ulCurrentInterrupt == 0 )
 181:ThirdParty/FreeRTOS/portable/GCC/ARM_CM4F/portmacro.h ****         {
 182:ThirdParty/FreeRTOS/portable/GCC/ARM_CM4F/portmacro.h ****             xReturn = pdFALSE;
 183:ThirdParty/FreeRTOS/portable/GCC/ARM_CM4F/portmacro.h ****         }
 184:ThirdParty/FreeRTOS/portable/GCC/ARM_CM4F/portmacro.h ****         else
 185:ThirdParty/FreeRTOS/portable/GCC/ARM_CM4F/portmacro.h ****         {
 186:ThirdParty/FreeRTOS/portable/GCC/ARM_CM4F/portmacro.h ****             xReturn = pdTRUE;
 187:ThirdParty/FreeRTOS/portable/GCC/ARM_CM4F/portmacro.h ****         }
 188:ThirdParty/FreeRTOS/portable/GCC/ARM_CM4F/portmacro.h **** 
 189:ThirdParty/FreeRTOS/portable/GCC/ARM_CM4F/portmacro.h ****         return xReturn;
 190:ThirdParty/FreeRTOS/portable/GCC/ARM_CM4F/portmacro.h ****     }
 191:ThirdParty/FreeRTOS/portable/GCC/ARM_CM4F/portmacro.h **** 
 192:ThirdParty/FreeRTOS/portable/GCC/ARM_CM4F/portmacro.h **** /*-----------------------------------------------------------*/
 193:ThirdParty/FreeRTOS/portable/GCC/ARM_CM4F/portmacro.h **** 
 194:ThirdParty/FreeRTOS/portable/GCC/ARM_CM4F/portmacro.h ****     portFORCE_INLINE static void vPortRaiseBASEPRI( void )
 195:ThirdParty/FreeRTOS/portable/GCC/ARM_CM4F/portmacro.h ****     {
 196:ThirdParty/FreeRTOS/portable/GCC/ARM_CM4F/portmacro.h ****         uint32_t ulNewBASEPRI;
 197:ThirdParty/FreeRTOS/portable/GCC/ARM_CM4F/portmacro.h **** 
 198:ThirdParty/FreeRTOS/portable/GCC/ARM_CM4F/portmacro.h ****         __asm volatile
  66              		.loc 2 198 9
  67              		.syntax unified
  68              	@ 198 "ThirdParty/FreeRTOS/portable/GCC/ARM_CM4F/portmacro.h" 1
  69 0018 4FF05003 			mov r3, #80												
ARM GAS  C:\Users\Admin\AppData\Local\Temp\ccYAfxe2.s 			page 11


  70 001c 83F31188 		msr basepri, r3											
  71 0020 BFF36F8F 		isb														
  72 0024 BFF34F8F 		dsb														
  73              	
  74              	@ 0 "" 2
  75              		.thumb
  76              		.syntax unified
  77 0028 FB60     		str	r3, [r7, #12]
 199:ThirdParty/FreeRTOS/portable/GCC/ARM_CM4F/portmacro.h ****         (
 200:ThirdParty/FreeRTOS/portable/GCC/ARM_CM4F/portmacro.h ****             "	mov %0, %1												\n"\
 201:ThirdParty/FreeRTOS/portable/GCC/ARM_CM4F/portmacro.h ****             "	msr basepri, %0											\n"\
 202:ThirdParty/FreeRTOS/portable/GCC/ARM_CM4F/portmacro.h ****             "	isb														\n"\
 203:ThirdParty/FreeRTOS/portable/GCC/ARM_CM4F/portmacro.h ****             "	dsb														\n"\
 204:ThirdParty/FreeRTOS/portable/GCC/ARM_CM4F/portmacro.h ****             : "=r" ( ulNewBASEPRI ) : "i" ( configMAX_SYSCALL_INTERRUPT_PRIORITY ) : "memory"
 205:ThirdParty/FreeRTOS/portable/GCC/ARM_CM4F/portmacro.h ****         );
 206:ThirdParty/FreeRTOS/portable/GCC/ARM_CM4F/portmacro.h ****     }
  78              		.loc 2 206 5
  79 002a 00BF     		nop
  80              	.L3:
  81              	.LBE115:
  82              	.LBE114:
  83              		.loc 1 302 5 discriminator 1
  84 002c FEE7     		b	.L3
  85              	.L2:
 303:ThirdParty/FreeRTOS/queue.c **** 
 304:ThirdParty/FreeRTOS/queue.c ****     if( ( pxQueue != NULL ) &&
  86              		.loc 1 304 7
  87 002e 3B69     		ldr	r3, [r7, #16]
  88 0030 002B     		cmp	r3, #0
  89 0032 52D0     		beq	.L4
 305:ThirdParty/FreeRTOS/queue.c ****         ( pxQueue->uxLength >= 1U ) &&
  90              		.loc 1 305 18 discriminator 1
  91 0034 3B69     		ldr	r3, [r7, #16]
  92 0036 DB6B     		ldr	r3, [r3, #60]
 304:ThirdParty/FreeRTOS/queue.c ****         ( pxQueue->uxLength >= 1U ) &&
  93              		.loc 1 304 29 discriminator 1
  94 0038 002B     		cmp	r3, #0
  95 003a 4ED0     		beq	.L4
 306:ThirdParty/FreeRTOS/queue.c ****         /* Check for multiplication overflow. */
 307:ThirdParty/FreeRTOS/queue.c ****         ( ( SIZE_MAX / pxQueue->uxLength ) >= pxQueue->uxItemSize ) )
  96              		.loc 1 307 54
  97 003c 3B69     		ldr	r3, [r7, #16]
  98 003e 1A6C     		ldr	r2, [r3, #64]
  99              		.loc 1 307 31
 100 0040 3B69     		ldr	r3, [r7, #16]
 101 0042 DB6B     		ldr	r3, [r3, #60]
 102              		.loc 1 307 44
 103 0044 0021     		movs	r1, #0
 104 0046 A3FB0223 		umull	r2, r3, r3, r2
 105 004a 002B     		cmp	r3, #0
 106 004c 00D0     		beq	.L5
 107 004e 0121     		movs	r1, #1
 108              	.L5:
 109 0050 0B46     		mov	r3, r1
 305:ThirdParty/FreeRTOS/queue.c ****         /* Check for multiplication overflow. */
 110              		.loc 1 305 37
 111 0052 002B     		cmp	r3, #0
ARM GAS  C:\Users\Admin\AppData\Local\Temp\ccYAfxe2.s 			page 12


 112 0054 41D1     		bne	.L4
 308:ThirdParty/FreeRTOS/queue.c ****     {
 309:ThirdParty/FreeRTOS/queue.c ****         taskENTER_CRITICAL();
 113              		.loc 1 309 9
 114 0056 FFF7FEFF 		bl	vPortEnterCritical
 310:ThirdParty/FreeRTOS/queue.c ****         {
 311:ThirdParty/FreeRTOS/queue.c ****             pxQueue->u.xQueue.pcTail = pxQueue->pcHead + ( pxQueue->uxLength * pxQueue->uxItemSize 
 115              		.loc 1 311 47
 116 005a 3B69     		ldr	r3, [r7, #16]
 117 005c 1A68     		ldr	r2, [r3]
 118              		.loc 1 311 67
 119 005e 3B69     		ldr	r3, [r7, #16]
 120 0060 DB6B     		ldr	r3, [r3, #60]
 121              		.loc 1 311 87
 122 0062 3969     		ldr	r1, [r7, #16]
 123 0064 096C     		ldr	r1, [r1, #64]
 124              		.loc 1 311 78
 125 0066 01FB03F3 		mul	r3, r1, r3
 126              		.loc 1 311 56
 127 006a 1A44     		add	r2, r2, r3
 128              		.loc 1 311 38
 129 006c 3B69     		ldr	r3, [r7, #16]
 130 006e 9A60     		str	r2, [r3, #8]
 312:ThirdParty/FreeRTOS/queue.c ****             pxQueue->uxMessagesWaiting = ( UBaseType_t ) 0U;
 131              		.loc 1 312 40
 132 0070 3B69     		ldr	r3, [r7, #16]
 133 0072 0022     		movs	r2, #0
 134 0074 9A63     		str	r2, [r3, #56]
 313:ThirdParty/FreeRTOS/queue.c ****             pxQueue->pcWriteTo = pxQueue->pcHead;
 135              		.loc 1 313 41
 136 0076 3B69     		ldr	r3, [r7, #16]
 137 0078 1A68     		ldr	r2, [r3]
 138              		.loc 1 313 32
 139 007a 3B69     		ldr	r3, [r7, #16]
 140 007c 5A60     		str	r2, [r3, #4]
 314:ThirdParty/FreeRTOS/queue.c ****             pxQueue->u.xQueue.pcReadFrom = pxQueue->pcHead + ( ( pxQueue->uxLength - 1U ) * pxQueue
 141              		.loc 1 314 51
 142 007e 3B69     		ldr	r3, [r7, #16]
 143 0080 1A68     		ldr	r2, [r3]
 144              		.loc 1 314 73
 145 0082 3B69     		ldr	r3, [r7, #16]
 146 0084 DB6B     		ldr	r3, [r3, #60]
 147              		.loc 1 314 84
 148 0086 013B     		subs	r3, r3, #1
 149              		.loc 1 314 100
 150 0088 3969     		ldr	r1, [r7, #16]
 151 008a 096C     		ldr	r1, [r1, #64]
 152              		.loc 1 314 91
 153 008c 01FB03F3 		mul	r3, r1, r3
 154              		.loc 1 314 60
 155 0090 1A44     		add	r2, r2, r3
 156              		.loc 1 314 42
 157 0092 3B69     		ldr	r3, [r7, #16]
 158 0094 DA60     		str	r2, [r3, #12]
 315:ThirdParty/FreeRTOS/queue.c ****             pxQueue->cRxLock = queueUNLOCKED;
 159              		.loc 1 315 30
 160 0096 3B69     		ldr	r3, [r7, #16]
ARM GAS  C:\Users\Admin\AppData\Local\Temp\ccYAfxe2.s 			page 13


 161 0098 FF22     		movs	r2, #255
 162 009a 83F84420 		strb	r2, [r3, #68]
 316:ThirdParty/FreeRTOS/queue.c ****             pxQueue->cTxLock = queueUNLOCKED;
 163              		.loc 1 316 30
 164 009e 3B69     		ldr	r3, [r7, #16]
 165 00a0 FF22     		movs	r2, #255
 166 00a2 83F84520 		strb	r2, [r3, #69]
 317:ThirdParty/FreeRTOS/queue.c **** 
 318:ThirdParty/FreeRTOS/queue.c ****             if( xNewQueue == pdFALSE )
 167              		.loc 1 318 15
 168 00a6 3B68     		ldr	r3, [r7]
 169 00a8 002B     		cmp	r3, #0
 170 00aa 09D1     		bne	.L7
 319:ThirdParty/FreeRTOS/queue.c ****             {
 320:ThirdParty/FreeRTOS/queue.c ****                 /* If there are tasks blocked waiting to read from the queue, then
 321:ThirdParty/FreeRTOS/queue.c ****                  * the tasks will remain blocked as after this function exits the queue
 322:ThirdParty/FreeRTOS/queue.c ****                  * will still be empty.  If there are tasks blocked waiting to write to
 323:ThirdParty/FreeRTOS/queue.c ****                  * the queue, then one should be unblocked as after this function exits
 324:ThirdParty/FreeRTOS/queue.c ****                  * it will be possible to write to it. */
 325:ThirdParty/FreeRTOS/queue.c ****                 if( listLIST_IS_EMPTY( &( pxQueue->xTasksWaitingToSend ) ) == pdFALSE )
 171              		.loc 1 325 21
 172 00ac 3B69     		ldr	r3, [r7, #16]
 173 00ae 1B69     		ldr	r3, [r3, #16]
 174              		.loc 1 325 19
 175 00b0 002B     		cmp	r3, #0
 176 00b2 0FD0     		beq	.L8
 326:ThirdParty/FreeRTOS/queue.c ****                 {
 327:ThirdParty/FreeRTOS/queue.c ****                     if( xTaskRemoveFromEventList( &( pxQueue->xTasksWaitingToSend ) ) != pdFALSE )
 177              		.loc 1 327 51
 178 00b4 3B69     		ldr	r3, [r7, #16]
 179 00b6 1033     		adds	r3, r3, #16
 180              		.loc 1 327 25
 181 00b8 1846     		mov	r0, r3
 182 00ba FFF7FEFF 		bl	xTaskRemoveFromEventList
 183 00be 09E0     		b	.L8
 184              	.L7:
 328:ThirdParty/FreeRTOS/queue.c ****                     {
 329:ThirdParty/FreeRTOS/queue.c ****                         queueYIELD_IF_USING_PREEMPTION();
 330:ThirdParty/FreeRTOS/queue.c ****                     }
 331:ThirdParty/FreeRTOS/queue.c ****                     else
 332:ThirdParty/FreeRTOS/queue.c ****                     {
 333:ThirdParty/FreeRTOS/queue.c ****                         mtCOVERAGE_TEST_MARKER();
 334:ThirdParty/FreeRTOS/queue.c ****                     }
 335:ThirdParty/FreeRTOS/queue.c ****                 }
 336:ThirdParty/FreeRTOS/queue.c ****                 else
 337:ThirdParty/FreeRTOS/queue.c ****                 {
 338:ThirdParty/FreeRTOS/queue.c ****                     mtCOVERAGE_TEST_MARKER();
 339:ThirdParty/FreeRTOS/queue.c ****                 }
 340:ThirdParty/FreeRTOS/queue.c ****             }
 341:ThirdParty/FreeRTOS/queue.c ****             else
 342:ThirdParty/FreeRTOS/queue.c ****             {
 343:ThirdParty/FreeRTOS/queue.c ****                 /* Ensure the event queues start in the correct state. */
 344:ThirdParty/FreeRTOS/queue.c ****                 vListInitialise( &( pxQueue->xTasksWaitingToSend ) );
 185              		.loc 1 344 17
 186 00c0 3B69     		ldr	r3, [r7, #16]
 187 00c2 1033     		adds	r3, r3, #16
 188 00c4 1846     		mov	r0, r3
ARM GAS  C:\Users\Admin\AppData\Local\Temp\ccYAfxe2.s 			page 14


 189 00c6 FFF7FEFF 		bl	vListInitialise
 345:ThirdParty/FreeRTOS/queue.c ****                 vListInitialise( &( pxQueue->xTasksWaitingToReceive ) );
 190              		.loc 1 345 17
 191 00ca 3B69     		ldr	r3, [r7, #16]
 192 00cc 2433     		adds	r3, r3, #36
 193 00ce 1846     		mov	r0, r3
 194 00d0 FFF7FEFF 		bl	vListInitialise
 195              	.L8:
 346:ThirdParty/FreeRTOS/queue.c ****             }
 347:ThirdParty/FreeRTOS/queue.c ****         }
 348:ThirdParty/FreeRTOS/queue.c ****         taskEXIT_CRITICAL();
 196              		.loc 1 348 9
 197 00d4 FFF7FEFF 		bl	vPortExitCritical
 198 00d8 01E0     		b	.L9
 199              	.L4:
 349:ThirdParty/FreeRTOS/queue.c ****     }
 350:ThirdParty/FreeRTOS/queue.c ****     else
 351:ThirdParty/FreeRTOS/queue.c ****     {
 352:ThirdParty/FreeRTOS/queue.c ****         xReturn = pdFAIL;
 200              		.loc 1 352 17
 201 00da 0023     		movs	r3, #0
 202 00dc 7B61     		str	r3, [r7, #20]
 203              	.L9:
 353:ThirdParty/FreeRTOS/queue.c ****     }
 354:ThirdParty/FreeRTOS/queue.c **** 
 355:ThirdParty/FreeRTOS/queue.c ****     configASSERT( xReturn != pdFAIL );
 204              		.loc 1 355 5
 205 00de 7B69     		ldr	r3, [r7, #20]
 206 00e0 002B     		cmp	r3, #0
 207 00e2 0AD1     		bne	.L10
 208              	.LBB116:
 209              	.LBB117:
 198:ThirdParty/FreeRTOS/portable/GCC/ARM_CM4F/portmacro.h ****         (
 210              		.loc 2 198 9
 211              		.syntax unified
 212              	@ 198 "ThirdParty/FreeRTOS/portable/GCC/ARM_CM4F/portmacro.h" 1
 213 00e4 4FF05003 			mov r3, #80												
 214 00e8 83F31188 		msr basepri, r3											
 215 00ec BFF36F8F 		isb														
 216 00f0 BFF34F8F 		dsb														
 217              	
 218              	@ 0 "" 2
 219              		.thumb
 220              		.syntax unified
 221 00f4 BB60     		str	r3, [r7, #8]
 222              		.loc 2 206 5
 223 00f6 00BF     		nop
 224              	.L11:
 225              	.LBE117:
 226              	.LBE116:
 227              		.loc 1 355 5 discriminator 4
 228 00f8 FEE7     		b	.L11
 229              	.L10:
 356:ThirdParty/FreeRTOS/queue.c **** 
 357:ThirdParty/FreeRTOS/queue.c ****     /* A value is returned for calling semantic consistency with previous
 358:ThirdParty/FreeRTOS/queue.c ****      * versions. */
 359:ThirdParty/FreeRTOS/queue.c ****     return xReturn;
ARM GAS  C:\Users\Admin\AppData\Local\Temp\ccYAfxe2.s 			page 15


 230              		.loc 1 359 12
 231 00fa 7B69     		ldr	r3, [r7, #20]
 360:ThirdParty/FreeRTOS/queue.c **** }
 232              		.loc 1 360 1
 233 00fc 1846     		mov	r0, r3
 234 00fe 1837     		adds	r7, r7, #24
 235              	.LCFI3:
 236              		.cfi_def_cfa_offset 8
 237 0100 BD46     		mov	sp, r7
 238              	.LCFI4:
 239              		.cfi_def_cfa_register 13
 240              		@ sp needed
 241 0102 80BD     		pop	{r7, pc}
 242              		.cfi_endproc
 243              	.LFE5:
 245              		.section	.text.xQueueGenericCreate,"ax",%progbits
 246              		.align	1
 247              		.global	xQueueGenericCreate
 248              		.syntax unified
 249              		.thumb
 250              		.thumb_func
 252              	xQueueGenericCreate:
 253              	.LFB6:
 361:ThirdParty/FreeRTOS/queue.c **** /*-----------------------------------------------------------*/
 362:ThirdParty/FreeRTOS/queue.c **** 
 363:ThirdParty/FreeRTOS/queue.c **** #if ( configSUPPORT_STATIC_ALLOCATION == 1 )
 364:ThirdParty/FreeRTOS/queue.c **** 
 365:ThirdParty/FreeRTOS/queue.c ****     QueueHandle_t xQueueGenericCreateStatic( const UBaseType_t uxQueueLength,
 366:ThirdParty/FreeRTOS/queue.c ****                                              const UBaseType_t uxItemSize,
 367:ThirdParty/FreeRTOS/queue.c ****                                              uint8_t * pucQueueStorage,
 368:ThirdParty/FreeRTOS/queue.c ****                                              StaticQueue_t * pxStaticQueue,
 369:ThirdParty/FreeRTOS/queue.c ****                                              const uint8_t ucQueueType )
 370:ThirdParty/FreeRTOS/queue.c ****     {
 371:ThirdParty/FreeRTOS/queue.c ****         Queue_t * pxNewQueue = NULL;
 372:ThirdParty/FreeRTOS/queue.c **** 
 373:ThirdParty/FreeRTOS/queue.c ****         /* The StaticQueue_t structure and the queue storage area must be
 374:ThirdParty/FreeRTOS/queue.c ****          * supplied. */
 375:ThirdParty/FreeRTOS/queue.c ****         configASSERT( pxStaticQueue );
 376:ThirdParty/FreeRTOS/queue.c **** 
 377:ThirdParty/FreeRTOS/queue.c ****         if( ( uxQueueLength > ( UBaseType_t ) 0 ) &&
 378:ThirdParty/FreeRTOS/queue.c ****             ( pxStaticQueue != NULL ) &&
 379:ThirdParty/FreeRTOS/queue.c **** 
 380:ThirdParty/FreeRTOS/queue.c ****             /* A queue storage area should be provided if the item size is not 0, and
 381:ThirdParty/FreeRTOS/queue.c ****              * should not be provided if the item size is 0. */
 382:ThirdParty/FreeRTOS/queue.c ****             ( !( ( pucQueueStorage != NULL ) && ( uxItemSize == 0 ) ) ) &&
 383:ThirdParty/FreeRTOS/queue.c ****             ( !( ( pucQueueStorage == NULL ) && ( uxItemSize != 0 ) ) ) )
 384:ThirdParty/FreeRTOS/queue.c ****         {
 385:ThirdParty/FreeRTOS/queue.c ****             #if ( configASSERT_DEFINED == 1 )
 386:ThirdParty/FreeRTOS/queue.c ****             {
 387:ThirdParty/FreeRTOS/queue.c ****                 /* Sanity check that the size of the structure used to declare a
 388:ThirdParty/FreeRTOS/queue.c ****                  * variable of type StaticQueue_t or StaticSemaphore_t equals the size of
 389:ThirdParty/FreeRTOS/queue.c ****                  * the real queue and semaphore structures. */
 390:ThirdParty/FreeRTOS/queue.c ****                 volatile size_t xSize = sizeof( StaticQueue_t );
 391:ThirdParty/FreeRTOS/queue.c **** 
 392:ThirdParty/FreeRTOS/queue.c ****                 /* This assertion cannot be branch covered in unit tests */
 393:ThirdParty/FreeRTOS/queue.c ****                 configASSERT( xSize == sizeof( Queue_t ) ); /* LCOV_EXCL_BR_LINE */
 394:ThirdParty/FreeRTOS/queue.c ****                 ( void ) xSize;                             /* Keeps lint quiet when configASSERT()
ARM GAS  C:\Users\Admin\AppData\Local\Temp\ccYAfxe2.s 			page 16


 395:ThirdParty/FreeRTOS/queue.c ****             }
 396:ThirdParty/FreeRTOS/queue.c ****             #endif /* configASSERT_DEFINED */
 397:ThirdParty/FreeRTOS/queue.c **** 
 398:ThirdParty/FreeRTOS/queue.c ****             /* The address of a statically allocated queue was passed in, use it.
 399:ThirdParty/FreeRTOS/queue.c ****              * The address of a statically allocated storage area was also passed in
 400:ThirdParty/FreeRTOS/queue.c ****              * but is already set. */
 401:ThirdParty/FreeRTOS/queue.c ****             pxNewQueue = ( Queue_t * ) pxStaticQueue; /*lint !e740 !e9087 Unusual cast is ok as the
 402:ThirdParty/FreeRTOS/queue.c **** 
 403:ThirdParty/FreeRTOS/queue.c ****             #if ( configSUPPORT_DYNAMIC_ALLOCATION == 1 )
 404:ThirdParty/FreeRTOS/queue.c ****             {
 405:ThirdParty/FreeRTOS/queue.c ****                 /* Queues can be allocated wither statically or dynamically, so
 406:ThirdParty/FreeRTOS/queue.c ****                  * note this queue was allocated statically in case the queue is
 407:ThirdParty/FreeRTOS/queue.c ****                  * later deleted. */
 408:ThirdParty/FreeRTOS/queue.c ****                 pxNewQueue->ucStaticallyAllocated = pdTRUE;
 409:ThirdParty/FreeRTOS/queue.c ****             }
 410:ThirdParty/FreeRTOS/queue.c ****             #endif /* configSUPPORT_DYNAMIC_ALLOCATION */
 411:ThirdParty/FreeRTOS/queue.c **** 
 412:ThirdParty/FreeRTOS/queue.c ****             prvInitialiseNewQueue( uxQueueLength, uxItemSize, pucQueueStorage, ucQueueType, pxNewQu
 413:ThirdParty/FreeRTOS/queue.c ****         }
 414:ThirdParty/FreeRTOS/queue.c ****         else
 415:ThirdParty/FreeRTOS/queue.c ****         {
 416:ThirdParty/FreeRTOS/queue.c ****             configASSERT( pxNewQueue );
 417:ThirdParty/FreeRTOS/queue.c ****             mtCOVERAGE_TEST_MARKER();
 418:ThirdParty/FreeRTOS/queue.c ****         }
 419:ThirdParty/FreeRTOS/queue.c **** 
 420:ThirdParty/FreeRTOS/queue.c ****         return pxNewQueue;
 421:ThirdParty/FreeRTOS/queue.c ****     }
 422:ThirdParty/FreeRTOS/queue.c **** 
 423:ThirdParty/FreeRTOS/queue.c **** #endif /* configSUPPORT_STATIC_ALLOCATION */
 424:ThirdParty/FreeRTOS/queue.c **** /*-----------------------------------------------------------*/
 425:ThirdParty/FreeRTOS/queue.c **** 
 426:ThirdParty/FreeRTOS/queue.c **** #if ( configSUPPORT_DYNAMIC_ALLOCATION == 1 )
 427:ThirdParty/FreeRTOS/queue.c **** 
 428:ThirdParty/FreeRTOS/queue.c ****     QueueHandle_t xQueueGenericCreate( const UBaseType_t uxQueueLength,
 429:ThirdParty/FreeRTOS/queue.c ****                                        const UBaseType_t uxItemSize,
 430:ThirdParty/FreeRTOS/queue.c ****                                        const uint8_t ucQueueType )
 431:ThirdParty/FreeRTOS/queue.c ****     {
 254              		.loc 1 431 5
 255              		.cfi_startproc
 256              		@ args = 0, pretend = 0, frame = 32
 257              		@ frame_needed = 1, uses_anonymous_args = 0
 258 0000 80B5     		push	{r7, lr}
 259              	.LCFI5:
 260              		.cfi_def_cfa_offset 8
 261              		.cfi_offset 7, -8
 262              		.cfi_offset 14, -4
 263 0002 8AB0     		sub	sp, sp, #40
 264              	.LCFI6:
 265              		.cfi_def_cfa_offset 48
 266 0004 02AF     		add	r7, sp, #8
 267              	.LCFI7:
 268              		.cfi_def_cfa 7, 40
 269 0006 F860     		str	r0, [r7, #12]
 270 0008 B960     		str	r1, [r7, #8]
 271 000a 1346     		mov	r3, r2
 272 000c FB71     		strb	r3, [r7, #7]
 432:ThirdParty/FreeRTOS/queue.c ****         Queue_t * pxNewQueue = NULL;
ARM GAS  C:\Users\Admin\AppData\Local\Temp\ccYAfxe2.s 			page 17


 273              		.loc 1 432 19
 274 000e 0023     		movs	r3, #0
 275 0010 FB61     		str	r3, [r7, #28]
 433:ThirdParty/FreeRTOS/queue.c ****         size_t xQueueSizeInBytes;
 434:ThirdParty/FreeRTOS/queue.c ****         uint8_t * pucQueueStorage;
 435:ThirdParty/FreeRTOS/queue.c **** 
 436:ThirdParty/FreeRTOS/queue.c ****         if( ( uxQueueLength > ( UBaseType_t ) 0 ) &&
 276              		.loc 1 436 11
 277 0012 FB68     		ldr	r3, [r7, #12]
 278 0014 002B     		cmp	r3, #0
 279 0016 2ED0     		beq	.L14
 437:ThirdParty/FreeRTOS/queue.c ****             /* Check for multiplication overflow. */
 438:ThirdParty/FreeRTOS/queue.c ****             ( ( SIZE_MAX / uxQueueLength ) >= uxItemSize ) &&
 280              		.loc 1 438 44 discriminator 1
 281 0018 0021     		movs	r1, #0
 282 001a BA68     		ldr	r2, [r7, #8]
 283 001c FB68     		ldr	r3, [r7, #12]
 284 001e A3FB0223 		umull	r2, r3, r3, r2
 285 0022 002B     		cmp	r3, #0
 286 0024 00D0     		beq	.L15
 287 0026 0121     		movs	r1, #1
 288              	.L15:
 289 0028 0B46     		mov	r3, r1
 436:ThirdParty/FreeRTOS/queue.c ****             /* Check for multiplication overflow. */
 290              		.loc 1 436 51 discriminator 1
 291 002a 002B     		cmp	r3, #0
 292 002c 23D1     		bne	.L14
 439:ThirdParty/FreeRTOS/queue.c ****             /* Check for addition overflow. */
 440:ThirdParty/FreeRTOS/queue.c ****             ( ( SIZE_MAX - sizeof( Queue_t ) ) >= ( uxQueueLength * uxItemSize ) ) )
 293              		.loc 1 440 67
 294 002e FB68     		ldr	r3, [r7, #12]
 295 0030 BA68     		ldr	r2, [r7, #8]
 296 0032 02FB03F3 		mul	r3, r2, r3
 438:ThirdParty/FreeRTOS/queue.c ****             /* Check for addition overflow. */
 297              		.loc 1 438 60
 298 0036 13F1510F 		cmn	r3, #81
 299 003a 1CD8     		bhi	.L14
 441:ThirdParty/FreeRTOS/queue.c ****         {
 442:ThirdParty/FreeRTOS/queue.c ****             /* Allocate enough space to hold the maximum number of items that
 443:ThirdParty/FreeRTOS/queue.c ****              * can be in the queue at any time.  It is valid for uxItemSize to be
 444:ThirdParty/FreeRTOS/queue.c ****              * zero in the case the queue is used as a semaphore. */
 445:ThirdParty/FreeRTOS/queue.c ****             xQueueSizeInBytes = ( size_t ) ( uxQueueLength * uxItemSize ); /*lint !e961 MISRA excep
 300              		.loc 1 445 31
 301 003c FB68     		ldr	r3, [r7, #12]
 302 003e BA68     		ldr	r2, [r7, #8]
 303 0040 02FB03F3 		mul	r3, r2, r3
 304 0044 BB61     		str	r3, [r7, #24]
 446:ThirdParty/FreeRTOS/queue.c **** 
 447:ThirdParty/FreeRTOS/queue.c ****             /* Allocate the queue and storage area.  Justification for MISRA
 448:ThirdParty/FreeRTOS/queue.c ****              * deviation as follows:  pvPortMalloc() always ensures returned memory
 449:ThirdParty/FreeRTOS/queue.c ****              * blocks are aligned per the requirements of the MCU stack.  In this case
 450:ThirdParty/FreeRTOS/queue.c ****              * pvPortMalloc() must return a pointer that is guaranteed to meet the
 451:ThirdParty/FreeRTOS/queue.c ****              * alignment requirements of the Queue_t structure - which in this case
 452:ThirdParty/FreeRTOS/queue.c ****              * is an int8_t *.  Therefore, whenever the stack alignment requirements
 453:ThirdParty/FreeRTOS/queue.c ****              * are greater than or equal to the pointer to char requirements the cast
 454:ThirdParty/FreeRTOS/queue.c ****              * is safe.  In other cases alignment requirements are not strict (one or
 455:ThirdParty/FreeRTOS/queue.c ****              * two bytes). */
ARM GAS  C:\Users\Admin\AppData\Local\Temp\ccYAfxe2.s 			page 18


 456:ThirdParty/FreeRTOS/queue.c ****             pxNewQueue = ( Queue_t * ) pvPortMalloc( sizeof( Queue_t ) + xQueueSizeInBytes ); /*lin
 305              		.loc 1 456 40
 306 0046 BB69     		ldr	r3, [r7, #24]
 307 0048 5033     		adds	r3, r3, #80
 308 004a 1846     		mov	r0, r3
 309 004c FFF7FEFF 		bl	pvPortMalloc
 310 0050 F861     		str	r0, [r7, #28]
 457:ThirdParty/FreeRTOS/queue.c **** 
 458:ThirdParty/FreeRTOS/queue.c ****             if( pxNewQueue != NULL )
 311              		.loc 1 458 15
 312 0052 FB69     		ldr	r3, [r7, #28]
 313 0054 002B     		cmp	r3, #0
 314 0056 1CD0     		beq	.L18
 459:ThirdParty/FreeRTOS/queue.c ****             {
 460:ThirdParty/FreeRTOS/queue.c ****                 /* Jump past the queue structure to find the location of the queue
 461:ThirdParty/FreeRTOS/queue.c ****                  * storage area. */
 462:ThirdParty/FreeRTOS/queue.c ****                 pucQueueStorage = ( uint8_t * ) pxNewQueue;
 315              		.loc 1 462 33
 316 0058 FB69     		ldr	r3, [r7, #28]
 317 005a 7B61     		str	r3, [r7, #20]
 463:ThirdParty/FreeRTOS/queue.c ****                 pucQueueStorage += sizeof( Queue_t ); /*lint !e9016 Pointer arithmetic allowed on c
 318              		.loc 1 463 33
 319 005c 7B69     		ldr	r3, [r7, #20]
 320 005e 5033     		adds	r3, r3, #80
 321 0060 7B61     		str	r3, [r7, #20]
 464:ThirdParty/FreeRTOS/queue.c **** 
 465:ThirdParty/FreeRTOS/queue.c ****                 #if ( configSUPPORT_STATIC_ALLOCATION == 1 )
 466:ThirdParty/FreeRTOS/queue.c ****                 {
 467:ThirdParty/FreeRTOS/queue.c ****                     /* Queues can be created either statically or dynamically, so
 468:ThirdParty/FreeRTOS/queue.c ****                      * note this task was created dynamically in case it is later
 469:ThirdParty/FreeRTOS/queue.c ****                      * deleted. */
 470:ThirdParty/FreeRTOS/queue.c ****                     pxNewQueue->ucStaticallyAllocated = pdFALSE;
 471:ThirdParty/FreeRTOS/queue.c ****                 }
 472:ThirdParty/FreeRTOS/queue.c ****                 #endif /* configSUPPORT_STATIC_ALLOCATION */
 473:ThirdParty/FreeRTOS/queue.c **** 
 474:ThirdParty/FreeRTOS/queue.c ****                 prvInitialiseNewQueue( uxQueueLength, uxItemSize, pucQueueStorage, ucQueueType, pxN
 322              		.loc 1 474 17
 323 0062 FA79     		ldrb	r2, [r7, #7]	@ zero_extendqisi2
 324 0064 FB69     		ldr	r3, [r7, #28]
 325 0066 0093     		str	r3, [sp]
 326 0068 1346     		mov	r3, r2
 327 006a 7A69     		ldr	r2, [r7, #20]
 328 006c B968     		ldr	r1, [r7, #8]
 329 006e F868     		ldr	r0, [r7, #12]
 330 0070 FFF7FEFF 		bl	prvInitialiseNewQueue
 458:ThirdParty/FreeRTOS/queue.c ****             {
 331              		.loc 1 458 15
 332 0074 0DE0     		b	.L18
 333              	.L14:
 475:ThirdParty/FreeRTOS/queue.c ****             }
 476:ThirdParty/FreeRTOS/queue.c ****             else
 477:ThirdParty/FreeRTOS/queue.c ****             {
 478:ThirdParty/FreeRTOS/queue.c ****                 traceQUEUE_CREATE_FAILED( ucQueueType );
 479:ThirdParty/FreeRTOS/queue.c ****                 mtCOVERAGE_TEST_MARKER();
 480:ThirdParty/FreeRTOS/queue.c ****             }
 481:ThirdParty/FreeRTOS/queue.c ****         }
 482:ThirdParty/FreeRTOS/queue.c ****         else
ARM GAS  C:\Users\Admin\AppData\Local\Temp\ccYAfxe2.s 			page 19


 483:ThirdParty/FreeRTOS/queue.c ****         {
 484:ThirdParty/FreeRTOS/queue.c ****             configASSERT( pxNewQueue );
 334              		.loc 1 484 13
 335 0076 FB69     		ldr	r3, [r7, #28]
 336 0078 002B     		cmp	r3, #0
 337 007a 0AD1     		bne	.L18
 338              	.LBB118:
 339              	.LBB119:
 198:ThirdParty/FreeRTOS/portable/GCC/ARM_CM4F/portmacro.h ****         (
 340              		.loc 2 198 9
 341              		.syntax unified
 342              	@ 198 "ThirdParty/FreeRTOS/portable/GCC/ARM_CM4F/portmacro.h" 1
 343 007c 4FF05003 			mov r3, #80												
 344 0080 83F31188 		msr basepri, r3											
 345 0084 BFF36F8F 		isb														
 346 0088 BFF34F8F 		dsb														
 347              	
 348              	@ 0 "" 2
 349              		.thumb
 350              		.syntax unified
 351 008c 3B61     		str	r3, [r7, #16]
 352              		.loc 2 206 5
 353 008e 00BF     		nop
 354              	.L19:
 355              	.LBE119:
 356              	.LBE118:
 357              		.loc 1 484 13 discriminator 1
 358 0090 FEE7     		b	.L19
 359              	.L18:
 485:ThirdParty/FreeRTOS/queue.c ****             mtCOVERAGE_TEST_MARKER();
 486:ThirdParty/FreeRTOS/queue.c ****         }
 487:ThirdParty/FreeRTOS/queue.c **** 
 488:ThirdParty/FreeRTOS/queue.c ****         return pxNewQueue;
 360              		.loc 1 488 16
 361 0092 FB69     		ldr	r3, [r7, #28]
 489:ThirdParty/FreeRTOS/queue.c ****     }
 362              		.loc 1 489 5
 363 0094 1846     		mov	r0, r3
 364 0096 2037     		adds	r7, r7, #32
 365              	.LCFI8:
 366              		.cfi_def_cfa_offset 8
 367 0098 BD46     		mov	sp, r7
 368              	.LCFI9:
 369              		.cfi_def_cfa_register 13
 370              		@ sp needed
 371 009a 80BD     		pop	{r7, pc}
 372              		.cfi_endproc
 373              	.LFE6:
 375              		.section	.text.prvInitialiseNewQueue,"ax",%progbits
 376              		.align	1
 377              		.syntax unified
 378              		.thumb
 379              		.thumb_func
 381              	prvInitialiseNewQueue:
 382              	.LFB7:
 490:ThirdParty/FreeRTOS/queue.c **** 
 491:ThirdParty/FreeRTOS/queue.c **** #endif /* configSUPPORT_STATIC_ALLOCATION */
ARM GAS  C:\Users\Admin\AppData\Local\Temp\ccYAfxe2.s 			page 20


 492:ThirdParty/FreeRTOS/queue.c **** /*-----------------------------------------------------------*/
 493:ThirdParty/FreeRTOS/queue.c **** 
 494:ThirdParty/FreeRTOS/queue.c **** static void prvInitialiseNewQueue( const UBaseType_t uxQueueLength,
 495:ThirdParty/FreeRTOS/queue.c ****                                    const UBaseType_t uxItemSize,
 496:ThirdParty/FreeRTOS/queue.c ****                                    uint8_t * pucQueueStorage,
 497:ThirdParty/FreeRTOS/queue.c ****                                    const uint8_t ucQueueType,
 498:ThirdParty/FreeRTOS/queue.c ****                                    Queue_t * pxNewQueue )
 499:ThirdParty/FreeRTOS/queue.c **** {
 383              		.loc 1 499 1
 384              		.cfi_startproc
 385              		@ args = 4, pretend = 0, frame = 16
 386              		@ frame_needed = 1, uses_anonymous_args = 0
 387 0000 80B5     		push	{r7, lr}
 388              	.LCFI10:
 389              		.cfi_def_cfa_offset 8
 390              		.cfi_offset 7, -8
 391              		.cfi_offset 14, -4
 392 0002 84B0     		sub	sp, sp, #16
 393              	.LCFI11:
 394              		.cfi_def_cfa_offset 24
 395 0004 00AF     		add	r7, sp, #0
 396              	.LCFI12:
 397              		.cfi_def_cfa_register 7
 398 0006 F860     		str	r0, [r7, #12]
 399 0008 B960     		str	r1, [r7, #8]
 400 000a 7A60     		str	r2, [r7, #4]
 401 000c FB70     		strb	r3, [r7, #3]
 500:ThirdParty/FreeRTOS/queue.c ****     /* Remove compiler warnings about unused parameters should
 501:ThirdParty/FreeRTOS/queue.c ****      * configUSE_TRACE_FACILITY not be set to 1. */
 502:ThirdParty/FreeRTOS/queue.c ****     ( void ) ucQueueType;
 503:ThirdParty/FreeRTOS/queue.c **** 
 504:ThirdParty/FreeRTOS/queue.c ****     if( uxItemSize == ( UBaseType_t ) 0 )
 402              		.loc 1 504 7
 403 000e BB68     		ldr	r3, [r7, #8]
 404 0010 002B     		cmp	r3, #0
 405 0012 03D1     		bne	.L22
 505:ThirdParty/FreeRTOS/queue.c ****     {
 506:ThirdParty/FreeRTOS/queue.c ****         /* No RAM was allocated for the queue storage area, but PC head cannot
 507:ThirdParty/FreeRTOS/queue.c ****          * be set to NULL because NULL is used as a key to say the queue is used as
 508:ThirdParty/FreeRTOS/queue.c ****          * a mutex.  Therefore just set pcHead to point to the queue as a benign
 509:ThirdParty/FreeRTOS/queue.c ****          * value that is known to be within the memory map. */
 510:ThirdParty/FreeRTOS/queue.c ****         pxNewQueue->pcHead = ( int8_t * ) pxNewQueue;
 406              		.loc 1 510 28
 407 0014 BB69     		ldr	r3, [r7, #24]
 408 0016 BA69     		ldr	r2, [r7, #24]
 409 0018 1A60     		str	r2, [r3]
 410 001a 02E0     		b	.L23
 411              	.L22:
 511:ThirdParty/FreeRTOS/queue.c ****     }
 512:ThirdParty/FreeRTOS/queue.c ****     else
 513:ThirdParty/FreeRTOS/queue.c ****     {
 514:ThirdParty/FreeRTOS/queue.c ****         /* Set the head to the start of the queue storage area. */
 515:ThirdParty/FreeRTOS/queue.c ****         pxNewQueue->pcHead = ( int8_t * ) pucQueueStorage;
 412              		.loc 1 515 28
 413 001c BB69     		ldr	r3, [r7, #24]
 414 001e 7A68     		ldr	r2, [r7, #4]
 415 0020 1A60     		str	r2, [r3]
ARM GAS  C:\Users\Admin\AppData\Local\Temp\ccYAfxe2.s 			page 21


 416              	.L23:
 516:ThirdParty/FreeRTOS/queue.c ****     }
 517:ThirdParty/FreeRTOS/queue.c **** 
 518:ThirdParty/FreeRTOS/queue.c ****     /* Initialise the queue members as described where the queue type is
 519:ThirdParty/FreeRTOS/queue.c ****      * defined. */
 520:ThirdParty/FreeRTOS/queue.c ****     pxNewQueue->uxLength = uxQueueLength;
 417              		.loc 1 520 26
 418 0022 BB69     		ldr	r3, [r7, #24]
 419 0024 FA68     		ldr	r2, [r7, #12]
 420 0026 DA63     		str	r2, [r3, #60]
 521:ThirdParty/FreeRTOS/queue.c ****     pxNewQueue->uxItemSize = uxItemSize;
 421              		.loc 1 521 28
 422 0028 BB69     		ldr	r3, [r7, #24]
 423 002a BA68     		ldr	r2, [r7, #8]
 424 002c 1A64     		str	r2, [r3, #64]
 522:ThirdParty/FreeRTOS/queue.c ****     ( void ) xQueueGenericReset( pxNewQueue, pdTRUE );
 425              		.loc 1 522 14
 426 002e 0121     		movs	r1, #1
 427 0030 B869     		ldr	r0, [r7, #24]
 428 0032 FFF7FEFF 		bl	xQueueGenericReset
 523:ThirdParty/FreeRTOS/queue.c **** 
 524:ThirdParty/FreeRTOS/queue.c ****     #if ( configUSE_TRACE_FACILITY == 1 )
 525:ThirdParty/FreeRTOS/queue.c ****     {
 526:ThirdParty/FreeRTOS/queue.c ****         pxNewQueue->ucQueueType = ucQueueType;
 429              		.loc 1 526 33
 430 0036 BB69     		ldr	r3, [r7, #24]
 431 0038 FA78     		ldrb	r2, [r7, #3]
 432 003a 83F84C20 		strb	r2, [r3, #76]
 527:ThirdParty/FreeRTOS/queue.c ****     }
 528:ThirdParty/FreeRTOS/queue.c ****     #endif /* configUSE_TRACE_FACILITY */
 529:ThirdParty/FreeRTOS/queue.c **** 
 530:ThirdParty/FreeRTOS/queue.c ****     #if ( configUSE_QUEUE_SETS == 1 )
 531:ThirdParty/FreeRTOS/queue.c ****     {
 532:ThirdParty/FreeRTOS/queue.c ****         pxNewQueue->pxQueueSetContainer = NULL;
 533:ThirdParty/FreeRTOS/queue.c ****     }
 534:ThirdParty/FreeRTOS/queue.c ****     #endif /* configUSE_QUEUE_SETS */
 535:ThirdParty/FreeRTOS/queue.c **** 
 536:ThirdParty/FreeRTOS/queue.c ****     traceQUEUE_CREATE( pxNewQueue );
 537:ThirdParty/FreeRTOS/queue.c **** }
 433              		.loc 1 537 1
 434 003e 00BF     		nop
 435 0040 1037     		adds	r7, r7, #16
 436              	.LCFI13:
 437              		.cfi_def_cfa_offset 8
 438 0042 BD46     		mov	sp, r7
 439              	.LCFI14:
 440              		.cfi_def_cfa_register 13
 441              		@ sp needed
 442 0044 80BD     		pop	{r7, pc}
 443              		.cfi_endproc
 444              	.LFE7:
 446              		.section	.text.prvInitialiseMutex,"ax",%progbits
 447              		.align	1
 448              		.syntax unified
 449              		.thumb
 450              		.thumb_func
 452              	prvInitialiseMutex:
ARM GAS  C:\Users\Admin\AppData\Local\Temp\ccYAfxe2.s 			page 22


 453              	.LFB8:
 538:ThirdParty/FreeRTOS/queue.c **** /*-----------------------------------------------------------*/
 539:ThirdParty/FreeRTOS/queue.c **** 
 540:ThirdParty/FreeRTOS/queue.c **** #if ( configUSE_MUTEXES == 1 )
 541:ThirdParty/FreeRTOS/queue.c **** 
 542:ThirdParty/FreeRTOS/queue.c ****     static void prvInitialiseMutex( Queue_t * pxNewQueue )
 543:ThirdParty/FreeRTOS/queue.c ****     {
 454              		.loc 1 543 5
 455              		.cfi_startproc
 456              		@ args = 0, pretend = 0, frame = 8
 457              		@ frame_needed = 1, uses_anonymous_args = 0
 458 0000 80B5     		push	{r7, lr}
 459              	.LCFI15:
 460              		.cfi_def_cfa_offset 8
 461              		.cfi_offset 7, -8
 462              		.cfi_offset 14, -4
 463 0002 82B0     		sub	sp, sp, #8
 464              	.LCFI16:
 465              		.cfi_def_cfa_offset 16
 466 0004 00AF     		add	r7, sp, #0
 467              	.LCFI17:
 468              		.cfi_def_cfa_register 7
 469 0006 7860     		str	r0, [r7, #4]
 544:ThirdParty/FreeRTOS/queue.c ****         if( pxNewQueue != NULL )
 470              		.loc 1 544 11
 471 0008 7B68     		ldr	r3, [r7, #4]
 472 000a 002B     		cmp	r3, #0
 473 000c 0ED0     		beq	.L26
 545:ThirdParty/FreeRTOS/queue.c ****         {
 546:ThirdParty/FreeRTOS/queue.c ****             /* The queue create function will set all the queue structure members
 547:ThirdParty/FreeRTOS/queue.c ****             * correctly for a generic queue, but this function is creating a
 548:ThirdParty/FreeRTOS/queue.c ****             * mutex.  Overwrite those members that need to be set differently -
 549:ThirdParty/FreeRTOS/queue.c ****             * in particular the information required for priority inheritance. */
 550:ThirdParty/FreeRTOS/queue.c ****             pxNewQueue->u.xSemaphore.xMutexHolder = NULL;
 474              		.loc 1 550 51
 475 000e 7B68     		ldr	r3, [r7, #4]
 476 0010 0022     		movs	r2, #0
 477 0012 9A60     		str	r2, [r3, #8]
 551:ThirdParty/FreeRTOS/queue.c ****             pxNewQueue->uxQueueType = queueQUEUE_IS_MUTEX;
 478              		.loc 1 551 37
 479 0014 7B68     		ldr	r3, [r7, #4]
 480 0016 0022     		movs	r2, #0
 481 0018 1A60     		str	r2, [r3]
 552:ThirdParty/FreeRTOS/queue.c **** 
 553:ThirdParty/FreeRTOS/queue.c ****             /* In case this is a recursive mutex. */
 554:ThirdParty/FreeRTOS/queue.c ****             pxNewQueue->u.xSemaphore.uxRecursiveCallCount = 0;
 482              		.loc 1 554 59
 483 001a 7B68     		ldr	r3, [r7, #4]
 484 001c 0022     		movs	r2, #0
 485 001e DA60     		str	r2, [r3, #12]
 555:ThirdParty/FreeRTOS/queue.c **** 
 556:ThirdParty/FreeRTOS/queue.c ****             traceCREATE_MUTEX( pxNewQueue );
 557:ThirdParty/FreeRTOS/queue.c **** 
 558:ThirdParty/FreeRTOS/queue.c ****             /* Start with the semaphore in the expected state. */
 559:ThirdParty/FreeRTOS/queue.c ****             ( void ) xQueueGenericSend( pxNewQueue, NULL, ( TickType_t ) 0U, queueSEND_TO_BACK );
 486              		.loc 1 559 22
 487 0020 0023     		movs	r3, #0
ARM GAS  C:\Users\Admin\AppData\Local\Temp\ccYAfxe2.s 			page 23


 488 0022 0022     		movs	r2, #0
 489 0024 0021     		movs	r1, #0
 490 0026 7868     		ldr	r0, [r7, #4]
 491 0028 FFF7FEFF 		bl	xQueueGenericSend
 492              	.L26:
 560:ThirdParty/FreeRTOS/queue.c ****         }
 561:ThirdParty/FreeRTOS/queue.c ****         else
 562:ThirdParty/FreeRTOS/queue.c ****         {
 563:ThirdParty/FreeRTOS/queue.c ****             traceCREATE_MUTEX_FAILED();
 564:ThirdParty/FreeRTOS/queue.c ****         }
 565:ThirdParty/FreeRTOS/queue.c ****     }
 493              		.loc 1 565 5
 494 002c 00BF     		nop
 495 002e 0837     		adds	r7, r7, #8
 496              	.LCFI18:
 497              		.cfi_def_cfa_offset 8
 498 0030 BD46     		mov	sp, r7
 499              	.LCFI19:
 500              		.cfi_def_cfa_register 13
 501              		@ sp needed
 502 0032 80BD     		pop	{r7, pc}
 503              		.cfi_endproc
 504              	.LFE8:
 506              		.section	.text.xQueueCreateMutex,"ax",%progbits
 507              		.align	1
 508              		.global	xQueueCreateMutex
 509              		.syntax unified
 510              		.thumb
 511              		.thumb_func
 513              	xQueueCreateMutex:
 514              	.LFB9:
 566:ThirdParty/FreeRTOS/queue.c **** 
 567:ThirdParty/FreeRTOS/queue.c **** #endif /* configUSE_MUTEXES */
 568:ThirdParty/FreeRTOS/queue.c **** /*-----------------------------------------------------------*/
 569:ThirdParty/FreeRTOS/queue.c **** 
 570:ThirdParty/FreeRTOS/queue.c **** #if ( ( configUSE_MUTEXES == 1 ) && ( configSUPPORT_DYNAMIC_ALLOCATION == 1 ) )
 571:ThirdParty/FreeRTOS/queue.c **** 
 572:ThirdParty/FreeRTOS/queue.c ****     QueueHandle_t xQueueCreateMutex( const uint8_t ucQueueType )
 573:ThirdParty/FreeRTOS/queue.c ****     {
 515              		.loc 1 573 5
 516              		.cfi_startproc
 517              		@ args = 0, pretend = 0, frame = 24
 518              		@ frame_needed = 1, uses_anonymous_args = 0
 519 0000 80B5     		push	{r7, lr}
 520              	.LCFI20:
 521              		.cfi_def_cfa_offset 8
 522              		.cfi_offset 7, -8
 523              		.cfi_offset 14, -4
 524 0002 86B0     		sub	sp, sp, #24
 525              	.LCFI21:
 526              		.cfi_def_cfa_offset 32
 527 0004 00AF     		add	r7, sp, #0
 528              	.LCFI22:
 529              		.cfi_def_cfa_register 7
 530 0006 0346     		mov	r3, r0
 531 0008 FB71     		strb	r3, [r7, #7]
 574:ThirdParty/FreeRTOS/queue.c ****         QueueHandle_t xNewQueue;
ARM GAS  C:\Users\Admin\AppData\Local\Temp\ccYAfxe2.s 			page 24


 575:ThirdParty/FreeRTOS/queue.c ****         const UBaseType_t uxMutexLength = ( UBaseType_t ) 1, uxMutexSize = ( UBaseType_t ) 0;
 532              		.loc 1 575 27
 533 000a 0123     		movs	r3, #1
 534 000c 7B61     		str	r3, [r7, #20]
 535              		.loc 1 575 62
 536 000e 0023     		movs	r3, #0
 537 0010 3B61     		str	r3, [r7, #16]
 576:ThirdParty/FreeRTOS/queue.c **** 
 577:ThirdParty/FreeRTOS/queue.c ****         xNewQueue = xQueueGenericCreate( uxMutexLength, uxMutexSize, ucQueueType );
 538              		.loc 1 577 21
 539 0012 FB79     		ldrb	r3, [r7, #7]	@ zero_extendqisi2
 540 0014 1A46     		mov	r2, r3
 541 0016 3969     		ldr	r1, [r7, #16]
 542 0018 7869     		ldr	r0, [r7, #20]
 543 001a FFF7FEFF 		bl	xQueueGenericCreate
 544 001e F860     		str	r0, [r7, #12]
 578:ThirdParty/FreeRTOS/queue.c ****         prvInitialiseMutex( ( Queue_t * ) xNewQueue );
 545              		.loc 1 578 9
 546 0020 F868     		ldr	r0, [r7, #12]
 547 0022 FFF7FEFF 		bl	prvInitialiseMutex
 579:ThirdParty/FreeRTOS/queue.c **** 
 580:ThirdParty/FreeRTOS/queue.c ****         return xNewQueue;
 548              		.loc 1 580 16
 549 0026 FB68     		ldr	r3, [r7, #12]
 581:ThirdParty/FreeRTOS/queue.c ****     }
 550              		.loc 1 581 5
 551 0028 1846     		mov	r0, r3
 552 002a 1837     		adds	r7, r7, #24
 553              	.LCFI23:
 554              		.cfi_def_cfa_offset 8
 555 002c BD46     		mov	sp, r7
 556              	.LCFI24:
 557              		.cfi_def_cfa_register 13
 558              		@ sp needed
 559 002e 80BD     		pop	{r7, pc}
 560              		.cfi_endproc
 561              	.LFE9:
 563              		.section	.text.xQueueGiveMutexRecursive,"ax",%progbits
 564              		.align	1
 565              		.global	xQueueGiveMutexRecursive
 566              		.syntax unified
 567              		.thumb
 568              		.thumb_func
 570              	xQueueGiveMutexRecursive:
 571              	.LFB10:
 582:ThirdParty/FreeRTOS/queue.c **** 
 583:ThirdParty/FreeRTOS/queue.c **** #endif /* configUSE_MUTEXES */
 584:ThirdParty/FreeRTOS/queue.c **** /*-----------------------------------------------------------*/
 585:ThirdParty/FreeRTOS/queue.c **** 
 586:ThirdParty/FreeRTOS/queue.c **** #if ( ( configUSE_MUTEXES == 1 ) && ( configSUPPORT_STATIC_ALLOCATION == 1 ) )
 587:ThirdParty/FreeRTOS/queue.c **** 
 588:ThirdParty/FreeRTOS/queue.c ****     QueueHandle_t xQueueCreateMutexStatic( const uint8_t ucQueueType,
 589:ThirdParty/FreeRTOS/queue.c ****                                            StaticQueue_t * pxStaticQueue )
 590:ThirdParty/FreeRTOS/queue.c ****     {
 591:ThirdParty/FreeRTOS/queue.c ****         QueueHandle_t xNewQueue;
 592:ThirdParty/FreeRTOS/queue.c ****         const UBaseType_t uxMutexLength = ( UBaseType_t ) 1, uxMutexSize = ( UBaseType_t ) 0;
 593:ThirdParty/FreeRTOS/queue.c **** 
ARM GAS  C:\Users\Admin\AppData\Local\Temp\ccYAfxe2.s 			page 25


 594:ThirdParty/FreeRTOS/queue.c ****         /* Prevent compiler warnings about unused parameters if
 595:ThirdParty/FreeRTOS/queue.c ****          * configUSE_TRACE_FACILITY does not equal 1. */
 596:ThirdParty/FreeRTOS/queue.c ****         ( void ) ucQueueType;
 597:ThirdParty/FreeRTOS/queue.c **** 
 598:ThirdParty/FreeRTOS/queue.c ****         xNewQueue = xQueueGenericCreateStatic( uxMutexLength, uxMutexSize, NULL, pxStaticQueue, ucQ
 599:ThirdParty/FreeRTOS/queue.c ****         prvInitialiseMutex( ( Queue_t * ) xNewQueue );
 600:ThirdParty/FreeRTOS/queue.c **** 
 601:ThirdParty/FreeRTOS/queue.c ****         return xNewQueue;
 602:ThirdParty/FreeRTOS/queue.c ****     }
 603:ThirdParty/FreeRTOS/queue.c **** 
 604:ThirdParty/FreeRTOS/queue.c **** #endif /* configUSE_MUTEXES */
 605:ThirdParty/FreeRTOS/queue.c **** /*-----------------------------------------------------------*/
 606:ThirdParty/FreeRTOS/queue.c **** 
 607:ThirdParty/FreeRTOS/queue.c **** #if ( ( configUSE_MUTEXES == 1 ) && ( INCLUDE_xSemaphoreGetMutexHolder == 1 ) )
 608:ThirdParty/FreeRTOS/queue.c **** 
 609:ThirdParty/FreeRTOS/queue.c ****     TaskHandle_t xQueueGetMutexHolder( QueueHandle_t xSemaphore )
 610:ThirdParty/FreeRTOS/queue.c ****     {
 611:ThirdParty/FreeRTOS/queue.c ****         TaskHandle_t pxReturn;
 612:ThirdParty/FreeRTOS/queue.c ****         Queue_t * const pxSemaphore = ( Queue_t * ) xSemaphore;
 613:ThirdParty/FreeRTOS/queue.c **** 
 614:ThirdParty/FreeRTOS/queue.c ****         configASSERT( xSemaphore );
 615:ThirdParty/FreeRTOS/queue.c **** 
 616:ThirdParty/FreeRTOS/queue.c ****         /* This function is called by xSemaphoreGetMutexHolder(), and should not
 617:ThirdParty/FreeRTOS/queue.c ****          * be called directly.  Note:  This is a good way of determining if the
 618:ThirdParty/FreeRTOS/queue.c ****          * calling task is the mutex holder, but not a good way of determining the
 619:ThirdParty/FreeRTOS/queue.c ****          * identity of the mutex holder, as the holder may change between the
 620:ThirdParty/FreeRTOS/queue.c ****          * following critical section exiting and the function returning. */
 621:ThirdParty/FreeRTOS/queue.c ****         taskENTER_CRITICAL();
 622:ThirdParty/FreeRTOS/queue.c ****         {
 623:ThirdParty/FreeRTOS/queue.c ****             if( pxSemaphore->uxQueueType == queueQUEUE_IS_MUTEX )
 624:ThirdParty/FreeRTOS/queue.c ****             {
 625:ThirdParty/FreeRTOS/queue.c ****                 pxReturn = pxSemaphore->u.xSemaphore.xMutexHolder;
 626:ThirdParty/FreeRTOS/queue.c ****             }
 627:ThirdParty/FreeRTOS/queue.c ****             else
 628:ThirdParty/FreeRTOS/queue.c ****             {
 629:ThirdParty/FreeRTOS/queue.c ****                 pxReturn = NULL;
 630:ThirdParty/FreeRTOS/queue.c ****             }
 631:ThirdParty/FreeRTOS/queue.c ****         }
 632:ThirdParty/FreeRTOS/queue.c ****         taskEXIT_CRITICAL();
 633:ThirdParty/FreeRTOS/queue.c **** 
 634:ThirdParty/FreeRTOS/queue.c ****         return pxReturn;
 635:ThirdParty/FreeRTOS/queue.c ****     } /*lint !e818 xSemaphore cannot be a pointer to const because it is a typedef. */
 636:ThirdParty/FreeRTOS/queue.c **** 
 637:ThirdParty/FreeRTOS/queue.c **** #endif /* if ( ( configUSE_MUTEXES == 1 ) && ( INCLUDE_xSemaphoreGetMutexHolder == 1 ) ) */
 638:ThirdParty/FreeRTOS/queue.c **** /*-----------------------------------------------------------*/
 639:ThirdParty/FreeRTOS/queue.c **** 
 640:ThirdParty/FreeRTOS/queue.c **** #if ( ( configUSE_MUTEXES == 1 ) && ( INCLUDE_xSemaphoreGetMutexHolder == 1 ) )
 641:ThirdParty/FreeRTOS/queue.c **** 
 642:ThirdParty/FreeRTOS/queue.c ****     TaskHandle_t xQueueGetMutexHolderFromISR( QueueHandle_t xSemaphore )
 643:ThirdParty/FreeRTOS/queue.c ****     {
 644:ThirdParty/FreeRTOS/queue.c ****         TaskHandle_t pxReturn;
 645:ThirdParty/FreeRTOS/queue.c **** 
 646:ThirdParty/FreeRTOS/queue.c ****         configASSERT( xSemaphore );
 647:ThirdParty/FreeRTOS/queue.c **** 
 648:ThirdParty/FreeRTOS/queue.c ****         /* Mutexes cannot be used in interrupt service routines, so the mutex
 649:ThirdParty/FreeRTOS/queue.c ****          * holder should not change in an ISR, and therefore a critical section is
 650:ThirdParty/FreeRTOS/queue.c ****          * not required here. */
ARM GAS  C:\Users\Admin\AppData\Local\Temp\ccYAfxe2.s 			page 26


 651:ThirdParty/FreeRTOS/queue.c ****         if( ( ( Queue_t * ) xSemaphore )->uxQueueType == queueQUEUE_IS_MUTEX )
 652:ThirdParty/FreeRTOS/queue.c ****         {
 653:ThirdParty/FreeRTOS/queue.c ****             pxReturn = ( ( Queue_t * ) xSemaphore )->u.xSemaphore.xMutexHolder;
 654:ThirdParty/FreeRTOS/queue.c ****         }
 655:ThirdParty/FreeRTOS/queue.c ****         else
 656:ThirdParty/FreeRTOS/queue.c ****         {
 657:ThirdParty/FreeRTOS/queue.c ****             pxReturn = NULL;
 658:ThirdParty/FreeRTOS/queue.c ****         }
 659:ThirdParty/FreeRTOS/queue.c **** 
 660:ThirdParty/FreeRTOS/queue.c ****         return pxReturn;
 661:ThirdParty/FreeRTOS/queue.c ****     } /*lint !e818 xSemaphore cannot be a pointer to const because it is a typedef. */
 662:ThirdParty/FreeRTOS/queue.c **** 
 663:ThirdParty/FreeRTOS/queue.c **** #endif /* if ( ( configUSE_MUTEXES == 1 ) && ( INCLUDE_xSemaphoreGetMutexHolder == 1 ) ) */
 664:ThirdParty/FreeRTOS/queue.c **** /*-----------------------------------------------------------*/
 665:ThirdParty/FreeRTOS/queue.c **** 
 666:ThirdParty/FreeRTOS/queue.c **** #if ( configUSE_RECURSIVE_MUTEXES == 1 )
 667:ThirdParty/FreeRTOS/queue.c **** 
 668:ThirdParty/FreeRTOS/queue.c ****     BaseType_t xQueueGiveMutexRecursive( QueueHandle_t xMutex )
 669:ThirdParty/FreeRTOS/queue.c ****     {
 572              		.loc 1 669 5
 573              		.cfi_startproc
 574              		@ args = 0, pretend = 0, frame = 24
 575              		@ frame_needed = 1, uses_anonymous_args = 0
 576 0000 90B5     		push	{r4, r7, lr}
 577              	.LCFI25:
 578              		.cfi_def_cfa_offset 12
 579              		.cfi_offset 4, -12
 580              		.cfi_offset 7, -8
 581              		.cfi_offset 14, -4
 582 0002 87B0     		sub	sp, sp, #28
 583              	.LCFI26:
 584              		.cfi_def_cfa_offset 40
 585 0004 00AF     		add	r7, sp, #0
 586              	.LCFI27:
 587              		.cfi_def_cfa_register 7
 588 0006 7860     		str	r0, [r7, #4]
 670:ThirdParty/FreeRTOS/queue.c ****         BaseType_t xReturn;
 671:ThirdParty/FreeRTOS/queue.c ****         Queue_t * const pxMutex = ( Queue_t * ) xMutex;
 589              		.loc 1 671 25
 590 0008 7B68     		ldr	r3, [r7, #4]
 591 000a 3B61     		str	r3, [r7, #16]
 672:ThirdParty/FreeRTOS/queue.c **** 
 673:ThirdParty/FreeRTOS/queue.c ****         configASSERT( pxMutex );
 592              		.loc 1 673 9
 593 000c 3B69     		ldr	r3, [r7, #16]
 594 000e 002B     		cmp	r3, #0
 595 0010 0AD1     		bne	.L30
 596              	.LBB120:
 597              	.LBB121:
 198:ThirdParty/FreeRTOS/portable/GCC/ARM_CM4F/portmacro.h ****         (
 598              		.loc 2 198 9
 599              		.syntax unified
 600              	@ 198 "ThirdParty/FreeRTOS/portable/GCC/ARM_CM4F/portmacro.h" 1
 601 0012 4FF05003 			mov r3, #80												
 602 0016 83F31188 		msr basepri, r3											
 603 001a BFF36F8F 		isb														
 604 001e BFF34F8F 		dsb														
ARM GAS  C:\Users\Admin\AppData\Local\Temp\ccYAfxe2.s 			page 27


 605              	
 606              	@ 0 "" 2
 607              		.thumb
 608              		.syntax unified
 609 0022 FB60     		str	r3, [r7, #12]
 610              		.loc 2 206 5
 611 0024 00BF     		nop
 612              	.L31:
 613              	.LBE121:
 614              	.LBE120:
 615              		.loc 1 673 9 discriminator 1
 616 0026 FEE7     		b	.L31
 617              	.L30:
 674:ThirdParty/FreeRTOS/queue.c **** 
 675:ThirdParty/FreeRTOS/queue.c ****         /* If this is the task that holds the mutex then xMutexHolder will not
 676:ThirdParty/FreeRTOS/queue.c ****          * change outside of this task.  If this task does not hold the mutex then
 677:ThirdParty/FreeRTOS/queue.c ****          * pxMutexHolder can never coincidentally equal the tasks handle, and as
 678:ThirdParty/FreeRTOS/queue.c ****          * this is the only condition we are interested in it does not matter if
 679:ThirdParty/FreeRTOS/queue.c ****          * pxMutexHolder is accessed simultaneously by another task.  Therefore no
 680:ThirdParty/FreeRTOS/queue.c ****          * mutual exclusion is required to test the pxMutexHolder variable. */
 681:ThirdParty/FreeRTOS/queue.c ****         if( pxMutex->u.xSemaphore.xMutexHolder == xTaskGetCurrentTaskHandle() )
 618              		.loc 1 681 34
 619 0028 3B69     		ldr	r3, [r7, #16]
 620 002a 9C68     		ldr	r4, [r3, #8]
 621              		.loc 1 681 51
 622 002c FFF7FEFF 		bl	xTaskGetCurrentTaskHandle
 623 0030 0346     		mov	r3, r0
 624              		.loc 1 681 11
 625 0032 9C42     		cmp	r4, r3
 626 0034 11D1     		bne	.L32
 682:ThirdParty/FreeRTOS/queue.c ****         {
 683:ThirdParty/FreeRTOS/queue.c ****             traceGIVE_MUTEX_RECURSIVE( pxMutex );
 684:ThirdParty/FreeRTOS/queue.c **** 
 685:ThirdParty/FreeRTOS/queue.c ****             /* uxRecursiveCallCount cannot be zero if xMutexHolder is equal to
 686:ThirdParty/FreeRTOS/queue.c ****              * the task handle, therefore no underflow check is required.  Also,
 687:ThirdParty/FreeRTOS/queue.c ****              * uxRecursiveCallCount is only modified by the mutex holder, and as
 688:ThirdParty/FreeRTOS/queue.c ****              * there can only be one, no mutual exclusion is required to modify the
 689:ThirdParty/FreeRTOS/queue.c ****              * uxRecursiveCallCount member. */
 690:ThirdParty/FreeRTOS/queue.c ****             ( pxMutex->u.xSemaphore.uxRecursiveCallCount )--;
 627              		.loc 1 690 36
 628 0036 3B69     		ldr	r3, [r7, #16]
 629 0038 DB68     		ldr	r3, [r3, #12]
 630              		.loc 1 690 59
 631 003a 5A1E     		subs	r2, r3, #1
 632 003c 3B69     		ldr	r3, [r7, #16]
 633 003e DA60     		str	r2, [r3, #12]
 691:ThirdParty/FreeRTOS/queue.c **** 
 692:ThirdParty/FreeRTOS/queue.c ****             /* Has the recursive call count unwound to 0? */
 693:ThirdParty/FreeRTOS/queue.c ****             if( pxMutex->u.xSemaphore.uxRecursiveCallCount == ( UBaseType_t ) 0 )
 634              		.loc 1 693 38
 635 0040 3B69     		ldr	r3, [r7, #16]
 636 0042 DB68     		ldr	r3, [r3, #12]
 637              		.loc 1 693 15
 638 0044 002B     		cmp	r3, #0
 639 0046 05D1     		bne	.L33
 694:ThirdParty/FreeRTOS/queue.c ****             {
 695:ThirdParty/FreeRTOS/queue.c ****                 /* Return the mutex.  This will automatically unblock any other
ARM GAS  C:\Users\Admin\AppData\Local\Temp\ccYAfxe2.s 			page 28


 696:ThirdParty/FreeRTOS/queue.c ****                  * task that might be waiting to access the mutex. */
 697:ThirdParty/FreeRTOS/queue.c ****                 ( void ) xQueueGenericSend( pxMutex, NULL, queueMUTEX_GIVE_BLOCK_TIME, queueSEND_TO
 640              		.loc 1 697 26
 641 0048 0023     		movs	r3, #0
 642 004a 0022     		movs	r2, #0
 643 004c 0021     		movs	r1, #0
 644 004e 3869     		ldr	r0, [r7, #16]
 645 0050 FFF7FEFF 		bl	xQueueGenericSend
 646              	.L33:
 698:ThirdParty/FreeRTOS/queue.c ****             }
 699:ThirdParty/FreeRTOS/queue.c ****             else
 700:ThirdParty/FreeRTOS/queue.c ****             {
 701:ThirdParty/FreeRTOS/queue.c ****                 mtCOVERAGE_TEST_MARKER();
 702:ThirdParty/FreeRTOS/queue.c ****             }
 703:ThirdParty/FreeRTOS/queue.c **** 
 704:ThirdParty/FreeRTOS/queue.c ****             xReturn = pdPASS;
 647              		.loc 1 704 21
 648 0054 0123     		movs	r3, #1
 649 0056 7B61     		str	r3, [r7, #20]
 650 0058 01E0     		b	.L34
 651              	.L32:
 705:ThirdParty/FreeRTOS/queue.c ****         }
 706:ThirdParty/FreeRTOS/queue.c ****         else
 707:ThirdParty/FreeRTOS/queue.c ****         {
 708:ThirdParty/FreeRTOS/queue.c ****             /* The mutex cannot be given because the calling task is not the
 709:ThirdParty/FreeRTOS/queue.c ****              * holder. */
 710:ThirdParty/FreeRTOS/queue.c ****             xReturn = pdFAIL;
 652              		.loc 1 710 21
 653 005a 0023     		movs	r3, #0
 654 005c 7B61     		str	r3, [r7, #20]
 655              	.L34:
 711:ThirdParty/FreeRTOS/queue.c **** 
 712:ThirdParty/FreeRTOS/queue.c ****             traceGIVE_MUTEX_RECURSIVE_FAILED( pxMutex );
 713:ThirdParty/FreeRTOS/queue.c ****         }
 714:ThirdParty/FreeRTOS/queue.c **** 
 715:ThirdParty/FreeRTOS/queue.c ****         return xReturn;
 656              		.loc 1 715 16
 657 005e 7B69     		ldr	r3, [r7, #20]
 716:ThirdParty/FreeRTOS/queue.c ****     }
 658              		.loc 1 716 5
 659 0060 1846     		mov	r0, r3
 660 0062 1C37     		adds	r7, r7, #28
 661              	.LCFI28:
 662              		.cfi_def_cfa_offset 12
 663 0064 BD46     		mov	sp, r7
 664              	.LCFI29:
 665              		.cfi_def_cfa_register 13
 666              		@ sp needed
 667 0066 90BD     		pop	{r4, r7, pc}
 668              		.cfi_endproc
 669              	.LFE10:
 671              		.section	.text.xQueueTakeMutexRecursive,"ax",%progbits
 672              		.align	1
 673              		.global	xQueueTakeMutexRecursive
 674              		.syntax unified
 675              		.thumb
 676              		.thumb_func
ARM GAS  C:\Users\Admin\AppData\Local\Temp\ccYAfxe2.s 			page 29


 678              	xQueueTakeMutexRecursive:
 679              	.LFB11:
 717:ThirdParty/FreeRTOS/queue.c **** 
 718:ThirdParty/FreeRTOS/queue.c **** #endif /* configUSE_RECURSIVE_MUTEXES */
 719:ThirdParty/FreeRTOS/queue.c **** /*-----------------------------------------------------------*/
 720:ThirdParty/FreeRTOS/queue.c **** 
 721:ThirdParty/FreeRTOS/queue.c **** #if ( configUSE_RECURSIVE_MUTEXES == 1 )
 722:ThirdParty/FreeRTOS/queue.c **** 
 723:ThirdParty/FreeRTOS/queue.c ****     BaseType_t xQueueTakeMutexRecursive( QueueHandle_t xMutex,
 724:ThirdParty/FreeRTOS/queue.c ****                                          TickType_t xTicksToWait )
 725:ThirdParty/FreeRTOS/queue.c ****     {
 680              		.loc 1 725 5
 681              		.cfi_startproc
 682              		@ args = 0, pretend = 0, frame = 24
 683              		@ frame_needed = 1, uses_anonymous_args = 0
 684 0000 90B5     		push	{r4, r7, lr}
 685              	.LCFI30:
 686              		.cfi_def_cfa_offset 12
 687              		.cfi_offset 4, -12
 688              		.cfi_offset 7, -8
 689              		.cfi_offset 14, -4
 690 0002 87B0     		sub	sp, sp, #28
 691              	.LCFI31:
 692              		.cfi_def_cfa_offset 40
 693 0004 00AF     		add	r7, sp, #0
 694              	.LCFI32:
 695              		.cfi_def_cfa_register 7
 696 0006 7860     		str	r0, [r7, #4]
 697 0008 3960     		str	r1, [r7]
 726:ThirdParty/FreeRTOS/queue.c ****         BaseType_t xReturn;
 727:ThirdParty/FreeRTOS/queue.c ****         Queue_t * const pxMutex = ( Queue_t * ) xMutex;
 698              		.loc 1 727 25
 699 000a 7B68     		ldr	r3, [r7, #4]
 700 000c 3B61     		str	r3, [r7, #16]
 728:ThirdParty/FreeRTOS/queue.c **** 
 729:ThirdParty/FreeRTOS/queue.c ****         configASSERT( pxMutex );
 701              		.loc 1 729 9
 702 000e 3B69     		ldr	r3, [r7, #16]
 703 0010 002B     		cmp	r3, #0
 704 0012 0AD1     		bne	.L37
 705              	.LBB122:
 706              	.LBB123:
 198:ThirdParty/FreeRTOS/portable/GCC/ARM_CM4F/portmacro.h ****         (
 707              		.loc 2 198 9
 708              		.syntax unified
 709              	@ 198 "ThirdParty/FreeRTOS/portable/GCC/ARM_CM4F/portmacro.h" 1
 710 0014 4FF05003 			mov r3, #80												
 711 0018 83F31188 		msr basepri, r3											
 712 001c BFF36F8F 		isb														
 713 0020 BFF34F8F 		dsb														
 714              	
 715              	@ 0 "" 2
 716              		.thumb
 717              		.syntax unified
 718 0024 FB60     		str	r3, [r7, #12]
 719              		.loc 2 206 5
 720 0026 00BF     		nop
ARM GAS  C:\Users\Admin\AppData\Local\Temp\ccYAfxe2.s 			page 30


 721              	.L38:
 722              	.LBE123:
 723              	.LBE122:
 724              		.loc 1 729 9 discriminator 1
 725 0028 FEE7     		b	.L38
 726              	.L37:
 730:ThirdParty/FreeRTOS/queue.c **** 
 731:ThirdParty/FreeRTOS/queue.c ****         /* Comments regarding mutual exclusion as per those within
 732:ThirdParty/FreeRTOS/queue.c ****          * xQueueGiveMutexRecursive(). */
 733:ThirdParty/FreeRTOS/queue.c **** 
 734:ThirdParty/FreeRTOS/queue.c ****         traceTAKE_MUTEX_RECURSIVE( pxMutex );
 735:ThirdParty/FreeRTOS/queue.c **** 
 736:ThirdParty/FreeRTOS/queue.c ****         if( pxMutex->u.xSemaphore.xMutexHolder == xTaskGetCurrentTaskHandle() )
 727              		.loc 1 736 34
 728 002a 3B69     		ldr	r3, [r7, #16]
 729 002c 9C68     		ldr	r4, [r3, #8]
 730              		.loc 1 736 51
 731 002e FFF7FEFF 		bl	xTaskGetCurrentTaskHandle
 732 0032 0346     		mov	r3, r0
 733              		.loc 1 736 11
 734 0034 9C42     		cmp	r4, r3
 735 0036 07D1     		bne	.L39
 737:ThirdParty/FreeRTOS/queue.c ****         {
 738:ThirdParty/FreeRTOS/queue.c ****             ( pxMutex->u.xSemaphore.uxRecursiveCallCount )++;
 736              		.loc 1 738 36
 737 0038 3B69     		ldr	r3, [r7, #16]
 738 003a DB68     		ldr	r3, [r3, #12]
 739              		.loc 1 738 59
 740 003c 5A1C     		adds	r2, r3, #1
 741 003e 3B69     		ldr	r3, [r7, #16]
 742 0040 DA60     		str	r2, [r3, #12]
 739:ThirdParty/FreeRTOS/queue.c ****             xReturn = pdPASS;
 743              		.loc 1 739 21
 744 0042 0123     		movs	r3, #1
 745 0044 7B61     		str	r3, [r7, #20]
 746 0046 0CE0     		b	.L40
 747              	.L39:
 740:ThirdParty/FreeRTOS/queue.c ****         }
 741:ThirdParty/FreeRTOS/queue.c ****         else
 742:ThirdParty/FreeRTOS/queue.c ****         {
 743:ThirdParty/FreeRTOS/queue.c ****             xReturn = xQueueSemaphoreTake( pxMutex, xTicksToWait );
 748              		.loc 1 743 23
 749 0048 3968     		ldr	r1, [r7]
 750 004a 3869     		ldr	r0, [r7, #16]
 751 004c FFF7FEFF 		bl	xQueueSemaphoreTake
 752 0050 7861     		str	r0, [r7, #20]
 744:ThirdParty/FreeRTOS/queue.c **** 
 745:ThirdParty/FreeRTOS/queue.c ****             /* pdPASS will only be returned if the mutex was successfully
 746:ThirdParty/FreeRTOS/queue.c ****              * obtained.  The calling task may have entered the Blocked state
 747:ThirdParty/FreeRTOS/queue.c ****              * before reaching here. */
 748:ThirdParty/FreeRTOS/queue.c ****             if( xReturn != pdFAIL )
 753              		.loc 1 748 15
 754 0052 7B69     		ldr	r3, [r7, #20]
 755 0054 002B     		cmp	r3, #0
 756 0056 04D0     		beq	.L40
 749:ThirdParty/FreeRTOS/queue.c ****             {
 750:ThirdParty/FreeRTOS/queue.c ****                 ( pxMutex->u.xSemaphore.uxRecursiveCallCount )++;
ARM GAS  C:\Users\Admin\AppData\Local\Temp\ccYAfxe2.s 			page 31


 757              		.loc 1 750 40
 758 0058 3B69     		ldr	r3, [r7, #16]
 759 005a DB68     		ldr	r3, [r3, #12]
 760              		.loc 1 750 63
 761 005c 5A1C     		adds	r2, r3, #1
 762 005e 3B69     		ldr	r3, [r7, #16]
 763 0060 DA60     		str	r2, [r3, #12]
 764              	.L40:
 751:ThirdParty/FreeRTOS/queue.c ****             }
 752:ThirdParty/FreeRTOS/queue.c ****             else
 753:ThirdParty/FreeRTOS/queue.c ****             {
 754:ThirdParty/FreeRTOS/queue.c ****                 traceTAKE_MUTEX_RECURSIVE_FAILED( pxMutex );
 755:ThirdParty/FreeRTOS/queue.c ****             }
 756:ThirdParty/FreeRTOS/queue.c ****         }
 757:ThirdParty/FreeRTOS/queue.c **** 
 758:ThirdParty/FreeRTOS/queue.c ****         return xReturn;
 765              		.loc 1 758 16
 766 0062 7B69     		ldr	r3, [r7, #20]
 759:ThirdParty/FreeRTOS/queue.c ****     }
 767              		.loc 1 759 5
 768 0064 1846     		mov	r0, r3
 769 0066 1C37     		adds	r7, r7, #28
 770              	.LCFI33:
 771              		.cfi_def_cfa_offset 12
 772 0068 BD46     		mov	sp, r7
 773              	.LCFI34:
 774              		.cfi_def_cfa_register 13
 775              		@ sp needed
 776 006a 90BD     		pop	{r4, r7, pc}
 777              		.cfi_endproc
 778              	.LFE11:
 780              		.section	.text.xQueueCreateCountingSemaphore,"ax",%progbits
 781              		.align	1
 782              		.global	xQueueCreateCountingSemaphore
 783              		.syntax unified
 784              		.thumb
 785              		.thumb_func
 787              	xQueueCreateCountingSemaphore:
 788              	.LFB12:
 760:ThirdParty/FreeRTOS/queue.c **** 
 761:ThirdParty/FreeRTOS/queue.c **** #endif /* configUSE_RECURSIVE_MUTEXES */
 762:ThirdParty/FreeRTOS/queue.c **** /*-----------------------------------------------------------*/
 763:ThirdParty/FreeRTOS/queue.c **** 
 764:ThirdParty/FreeRTOS/queue.c **** #if ( ( configUSE_COUNTING_SEMAPHORES == 1 ) && ( configSUPPORT_STATIC_ALLOCATION == 1 ) )
 765:ThirdParty/FreeRTOS/queue.c **** 
 766:ThirdParty/FreeRTOS/queue.c ****     QueueHandle_t xQueueCreateCountingSemaphoreStatic( const UBaseType_t uxMaxCount,
 767:ThirdParty/FreeRTOS/queue.c ****                                                        const UBaseType_t uxInitialCount,
 768:ThirdParty/FreeRTOS/queue.c ****                                                        StaticQueue_t * pxStaticQueue )
 769:ThirdParty/FreeRTOS/queue.c ****     {
 770:ThirdParty/FreeRTOS/queue.c ****         QueueHandle_t xHandle = NULL;
 771:ThirdParty/FreeRTOS/queue.c **** 
 772:ThirdParty/FreeRTOS/queue.c ****         if( ( uxMaxCount != 0 ) &&
 773:ThirdParty/FreeRTOS/queue.c ****             ( uxInitialCount <= uxMaxCount ) )
 774:ThirdParty/FreeRTOS/queue.c ****         {
 775:ThirdParty/FreeRTOS/queue.c ****             xHandle = xQueueGenericCreateStatic( uxMaxCount, queueSEMAPHORE_QUEUE_ITEM_LENGTH, NULL
 776:ThirdParty/FreeRTOS/queue.c **** 
 777:ThirdParty/FreeRTOS/queue.c ****             if( xHandle != NULL )
ARM GAS  C:\Users\Admin\AppData\Local\Temp\ccYAfxe2.s 			page 32


 778:ThirdParty/FreeRTOS/queue.c ****             {
 779:ThirdParty/FreeRTOS/queue.c ****                 ( ( Queue_t * ) xHandle )->uxMessagesWaiting = uxInitialCount;
 780:ThirdParty/FreeRTOS/queue.c **** 
 781:ThirdParty/FreeRTOS/queue.c ****                 traceCREATE_COUNTING_SEMAPHORE();
 782:ThirdParty/FreeRTOS/queue.c ****             }
 783:ThirdParty/FreeRTOS/queue.c ****             else
 784:ThirdParty/FreeRTOS/queue.c ****             {
 785:ThirdParty/FreeRTOS/queue.c ****                 traceCREATE_COUNTING_SEMAPHORE_FAILED();
 786:ThirdParty/FreeRTOS/queue.c ****             }
 787:ThirdParty/FreeRTOS/queue.c ****         }
 788:ThirdParty/FreeRTOS/queue.c ****         else
 789:ThirdParty/FreeRTOS/queue.c ****         {
 790:ThirdParty/FreeRTOS/queue.c ****             configASSERT( xHandle );
 791:ThirdParty/FreeRTOS/queue.c ****             mtCOVERAGE_TEST_MARKER();
 792:ThirdParty/FreeRTOS/queue.c ****         }
 793:ThirdParty/FreeRTOS/queue.c **** 
 794:ThirdParty/FreeRTOS/queue.c ****         return xHandle;
 795:ThirdParty/FreeRTOS/queue.c ****     }
 796:ThirdParty/FreeRTOS/queue.c **** 
 797:ThirdParty/FreeRTOS/queue.c **** #endif /* ( ( configUSE_COUNTING_SEMAPHORES == 1 ) && ( configSUPPORT_DYNAMIC_ALLOCATION == 1 ) ) *
 798:ThirdParty/FreeRTOS/queue.c **** /*-----------------------------------------------------------*/
 799:ThirdParty/FreeRTOS/queue.c **** 
 800:ThirdParty/FreeRTOS/queue.c **** #if ( ( configUSE_COUNTING_SEMAPHORES == 1 ) && ( configSUPPORT_DYNAMIC_ALLOCATION == 1 ) )
 801:ThirdParty/FreeRTOS/queue.c **** 
 802:ThirdParty/FreeRTOS/queue.c ****     QueueHandle_t xQueueCreateCountingSemaphore( const UBaseType_t uxMaxCount,
 803:ThirdParty/FreeRTOS/queue.c ****                                                  const UBaseType_t uxInitialCount )
 804:ThirdParty/FreeRTOS/queue.c ****     {
 789              		.loc 1 804 5
 790              		.cfi_startproc
 791              		@ args = 0, pretend = 0, frame = 16
 792              		@ frame_needed = 1, uses_anonymous_args = 0
 793 0000 80B5     		push	{r7, lr}
 794              	.LCFI35:
 795              		.cfi_def_cfa_offset 8
 796              		.cfi_offset 7, -8
 797              		.cfi_offset 14, -4
 798 0002 84B0     		sub	sp, sp, #16
 799              	.LCFI36:
 800              		.cfi_def_cfa_offset 24
 801 0004 00AF     		add	r7, sp, #0
 802              	.LCFI37:
 803              		.cfi_def_cfa_register 7
 804 0006 7860     		str	r0, [r7, #4]
 805 0008 3960     		str	r1, [r7]
 805:ThirdParty/FreeRTOS/queue.c ****         QueueHandle_t xHandle = NULL;
 806              		.loc 1 805 23
 807 000a 0023     		movs	r3, #0
 808 000c FB60     		str	r3, [r7, #12]
 806:ThirdParty/FreeRTOS/queue.c **** 
 807:ThirdParty/FreeRTOS/queue.c ****         if( ( uxMaxCount != 0 ) &&
 809              		.loc 1 807 11
 810 000e 7B68     		ldr	r3, [r7, #4]
 811 0010 002B     		cmp	r3, #0
 812 0012 10D0     		beq	.L43
 813              		.loc 1 807 33 discriminator 1
 814 0014 3A68     		ldr	r2, [r7]
 815 0016 7B68     		ldr	r3, [r7, #4]
ARM GAS  C:\Users\Admin\AppData\Local\Temp\ccYAfxe2.s 			page 33


 816 0018 9A42     		cmp	r2, r3
 817 001a 0CD8     		bhi	.L43
 808:ThirdParty/FreeRTOS/queue.c ****             ( uxInitialCount <= uxMaxCount ) )
 809:ThirdParty/FreeRTOS/queue.c ****         {
 810:ThirdParty/FreeRTOS/queue.c ****             xHandle = xQueueGenericCreate( uxMaxCount, queueSEMAPHORE_QUEUE_ITEM_LENGTH, queueQUEUE
 818              		.loc 1 810 23
 819 001c 0222     		movs	r2, #2
 820 001e 0021     		movs	r1, #0
 821 0020 7868     		ldr	r0, [r7, #4]
 822 0022 FFF7FEFF 		bl	xQueueGenericCreate
 823 0026 F860     		str	r0, [r7, #12]
 811:ThirdParty/FreeRTOS/queue.c **** 
 812:ThirdParty/FreeRTOS/queue.c ****             if( xHandle != NULL )
 824              		.loc 1 812 15
 825 0028 FB68     		ldr	r3, [r7, #12]
 826 002a 002B     		cmp	r3, #0
 827 002c 11D0     		beq	.L45
 813:ThirdParty/FreeRTOS/queue.c ****             {
 814:ThirdParty/FreeRTOS/queue.c ****                 ( ( Queue_t * ) xHandle )->uxMessagesWaiting = uxInitialCount;
 828              		.loc 1 814 62
 829 002e FB68     		ldr	r3, [r7, #12]
 830 0030 3A68     		ldr	r2, [r7]
 831 0032 9A63     		str	r2, [r3, #56]
 812:ThirdParty/FreeRTOS/queue.c ****             {
 832              		.loc 1 812 15
 833 0034 0DE0     		b	.L45
 834              	.L43:
 815:ThirdParty/FreeRTOS/queue.c **** 
 816:ThirdParty/FreeRTOS/queue.c ****                 traceCREATE_COUNTING_SEMAPHORE();
 817:ThirdParty/FreeRTOS/queue.c ****             }
 818:ThirdParty/FreeRTOS/queue.c ****             else
 819:ThirdParty/FreeRTOS/queue.c ****             {
 820:ThirdParty/FreeRTOS/queue.c ****                 traceCREATE_COUNTING_SEMAPHORE_FAILED();
 821:ThirdParty/FreeRTOS/queue.c ****             }
 822:ThirdParty/FreeRTOS/queue.c ****         }
 823:ThirdParty/FreeRTOS/queue.c ****         else
 824:ThirdParty/FreeRTOS/queue.c ****         {
 825:ThirdParty/FreeRTOS/queue.c ****             configASSERT( xHandle );
 835              		.loc 1 825 13
 836 0036 FB68     		ldr	r3, [r7, #12]
 837 0038 002B     		cmp	r3, #0
 838 003a 0AD1     		bne	.L45
 839              	.LBB124:
 840              	.LBB125:
 198:ThirdParty/FreeRTOS/portable/GCC/ARM_CM4F/portmacro.h ****         (
 841              		.loc 2 198 9
 842              		.syntax unified
 843              	@ 198 "ThirdParty/FreeRTOS/portable/GCC/ARM_CM4F/portmacro.h" 1
 844 003c 4FF05003 			mov r3, #80												
 845 0040 83F31188 		msr basepri, r3											
 846 0044 BFF36F8F 		isb														
 847 0048 BFF34F8F 		dsb														
 848              	
 849              	@ 0 "" 2
 850              		.thumb
 851              		.syntax unified
 852 004c BB60     		str	r3, [r7, #8]
ARM GAS  C:\Users\Admin\AppData\Local\Temp\ccYAfxe2.s 			page 34


 853              		.loc 2 206 5
 854 004e 00BF     		nop
 855              	.L46:
 856              	.LBE125:
 857              	.LBE124:
 858              		.loc 1 825 13 discriminator 1
 859 0050 FEE7     		b	.L46
 860              	.L45:
 826:ThirdParty/FreeRTOS/queue.c ****             mtCOVERAGE_TEST_MARKER();
 827:ThirdParty/FreeRTOS/queue.c ****         }
 828:ThirdParty/FreeRTOS/queue.c **** 
 829:ThirdParty/FreeRTOS/queue.c ****         return xHandle;
 861              		.loc 1 829 16
 862 0052 FB68     		ldr	r3, [r7, #12]
 830:ThirdParty/FreeRTOS/queue.c ****     }
 863              		.loc 1 830 5
 864 0054 1846     		mov	r0, r3
 865 0056 1037     		adds	r7, r7, #16
 866              	.LCFI38:
 867              		.cfi_def_cfa_offset 8
 868 0058 BD46     		mov	sp, r7
 869              	.LCFI39:
 870              		.cfi_def_cfa_register 13
 871              		@ sp needed
 872 005a 80BD     		pop	{r7, pc}
 873              		.cfi_endproc
 874              	.LFE12:
 876              		.section	.text.xQueueGenericSend,"ax",%progbits
 877              		.align	1
 878              		.global	xQueueGenericSend
 879              		.syntax unified
 880              		.thumb
 881              		.thumb_func
 883              	xQueueGenericSend:
 884              	.LFB13:
 831:ThirdParty/FreeRTOS/queue.c **** 
 832:ThirdParty/FreeRTOS/queue.c **** #endif /* ( ( configUSE_COUNTING_SEMAPHORES == 1 ) && ( configSUPPORT_DYNAMIC_ALLOCATION == 1 ) ) *
 833:ThirdParty/FreeRTOS/queue.c **** /*-----------------------------------------------------------*/
 834:ThirdParty/FreeRTOS/queue.c **** 
 835:ThirdParty/FreeRTOS/queue.c **** BaseType_t xQueueGenericSend( QueueHandle_t xQueue,
 836:ThirdParty/FreeRTOS/queue.c ****                               const void * const pvItemToQueue,
 837:ThirdParty/FreeRTOS/queue.c ****                               TickType_t xTicksToWait,
 838:ThirdParty/FreeRTOS/queue.c ****                               const BaseType_t xCopyPosition )
 839:ThirdParty/FreeRTOS/queue.c **** {
 885              		.loc 1 839 1
 886              		.cfi_startproc
 887              		@ args = 0, pretend = 0, frame = 56
 888              		@ frame_needed = 1, uses_anonymous_args = 0
 889 0000 80B5     		push	{r7, lr}
 890              	.LCFI40:
 891              		.cfi_def_cfa_offset 8
 892              		.cfi_offset 7, -8
 893              		.cfi_offset 14, -4
 894 0002 8EB0     		sub	sp, sp, #56
 895              	.LCFI41:
 896              		.cfi_def_cfa_offset 64
 897 0004 00AF     		add	r7, sp, #0
ARM GAS  C:\Users\Admin\AppData\Local\Temp\ccYAfxe2.s 			page 35


 898              	.LCFI42:
 899              		.cfi_def_cfa_register 7
 900 0006 F860     		str	r0, [r7, #12]
 901 0008 B960     		str	r1, [r7, #8]
 902 000a 7A60     		str	r2, [r7, #4]
 903 000c 3B60     		str	r3, [r7]
 840:ThirdParty/FreeRTOS/queue.c ****     BaseType_t xEntryTimeSet = pdFALSE, xYieldRequired;
 904              		.loc 1 840 16
 905 000e 0023     		movs	r3, #0
 906 0010 7B63     		str	r3, [r7, #52]
 841:ThirdParty/FreeRTOS/queue.c ****     TimeOut_t xTimeOut;
 842:ThirdParty/FreeRTOS/queue.c ****     Queue_t * const pxQueue = xQueue;
 907              		.loc 1 842 21
 908 0012 FB68     		ldr	r3, [r7, #12]
 909 0014 3B63     		str	r3, [r7, #48]
 843:ThirdParty/FreeRTOS/queue.c **** 
 844:ThirdParty/FreeRTOS/queue.c ****     configASSERT( pxQueue );
 910              		.loc 1 844 5
 911 0016 3B6B     		ldr	r3, [r7, #48]
 912 0018 002B     		cmp	r3, #0
 913 001a 0AD1     		bne	.L49
 914              	.LBB126:
 915              	.LBB127:
 198:ThirdParty/FreeRTOS/portable/GCC/ARM_CM4F/portmacro.h ****         (
 916              		.loc 2 198 9
 917              		.syntax unified
 918              	@ 198 "ThirdParty/FreeRTOS/portable/GCC/ARM_CM4F/portmacro.h" 1
 919 001c 4FF05003 			mov r3, #80												
 920 0020 83F31188 		msr basepri, r3											
 921 0024 BFF36F8F 		isb														
 922 0028 BFF34F8F 		dsb														
 923              	
 924              	@ 0 "" 2
 925              		.thumb
 926              		.syntax unified
 927 002c BB62     		str	r3, [r7, #40]
 928              		.loc 2 206 5
 929 002e 00BF     		nop
 930              	.L50:
 931              	.LBE127:
 932              	.LBE126:
 933              		.loc 1 844 5 discriminator 1
 934 0030 FEE7     		b	.L50
 935              	.L49:
 845:ThirdParty/FreeRTOS/queue.c ****     configASSERT( !( ( pvItemToQueue == NULL ) && ( pxQueue->uxItemSize != ( UBaseType_t ) 0U ) ) )
 936              		.loc 1 845 5
 937 0032 BB68     		ldr	r3, [r7, #8]
 938 0034 002B     		cmp	r3, #0
 939 0036 03D1     		bne	.L51
 940              		.loc 1 845 5 is_stmt 0 discriminator 2
 941 0038 3B6B     		ldr	r3, [r7, #48]
 942 003a 1B6C     		ldr	r3, [r3, #64]
 943 003c 002B     		cmp	r3, #0
 944 003e 01D1     		bne	.L52
 945              	.L51:
 946              		.loc 1 845 5 discriminator 3
 947 0040 0123     		movs	r3, #1
ARM GAS  C:\Users\Admin\AppData\Local\Temp\ccYAfxe2.s 			page 36


 948 0042 00E0     		b	.L53
 949              	.L52:
 950              		.loc 1 845 5 discriminator 4
 951 0044 0023     		movs	r3, #0
 952              	.L53:
 953              		.loc 1 845 5 discriminator 6
 954 0046 002B     		cmp	r3, #0
 955 0048 0AD1     		bne	.L54
 956              	.LBB128:
 957              	.LBB129:
 198:ThirdParty/FreeRTOS/portable/GCC/ARM_CM4F/portmacro.h ****         (
 958              		.loc 2 198 9 is_stmt 1
 959              		.syntax unified
 960              	@ 198 "ThirdParty/FreeRTOS/portable/GCC/ARM_CM4F/portmacro.h" 1
 961 004a 4FF05003 			mov r3, #80												
 962 004e 83F31188 		msr basepri, r3											
 963 0052 BFF36F8F 		isb														
 964 0056 BFF34F8F 		dsb														
 965              	
 966              	@ 0 "" 2
 967              		.thumb
 968              		.syntax unified
 969 005a 7B62     		str	r3, [r7, #36]
 970              		.loc 2 206 5
 971 005c 00BF     		nop
 972              	.L55:
 973              	.LBE129:
 974              	.LBE128:
 975              		.loc 1 845 5 discriminator 2
 976 005e FEE7     		b	.L55
 977              	.L54:
 846:ThirdParty/FreeRTOS/queue.c ****     configASSERT( !( ( xCopyPosition == queueOVERWRITE ) && ( pxQueue->uxLength != 1 ) ) );
 978              		.loc 1 846 5
 979 0060 3B68     		ldr	r3, [r7]
 980 0062 022B     		cmp	r3, #2
 981 0064 03D1     		bne	.L56
 982              		.loc 1 846 5 is_stmt 0 discriminator 2
 983 0066 3B6B     		ldr	r3, [r7, #48]
 984 0068 DB6B     		ldr	r3, [r3, #60]
 985 006a 012B     		cmp	r3, #1
 986 006c 01D1     		bne	.L57
 987              	.L56:
 988              		.loc 1 846 5 discriminator 3
 989 006e 0123     		movs	r3, #1
 990 0070 00E0     		b	.L58
 991              	.L57:
 992              		.loc 1 846 5 discriminator 4
 993 0072 0023     		movs	r3, #0
 994              	.L58:
 995              		.loc 1 846 5 discriminator 6
 996 0074 002B     		cmp	r3, #0
 997 0076 0AD1     		bne	.L59
 998              	.LBB130:
 999              	.LBB131:
 198:ThirdParty/FreeRTOS/portable/GCC/ARM_CM4F/portmacro.h ****         (
 1000              		.loc 2 198 9 is_stmt 1
 1001              		.syntax unified
ARM GAS  C:\Users\Admin\AppData\Local\Temp\ccYAfxe2.s 			page 37


 1002              	@ 198 "ThirdParty/FreeRTOS/portable/GCC/ARM_CM4F/portmacro.h" 1
 1003 0078 4FF05003 			mov r3, #80												
 1004 007c 83F31188 		msr basepri, r3											
 1005 0080 BFF36F8F 		isb														
 1006 0084 BFF34F8F 		dsb														
 1007              	
 1008              	@ 0 "" 2
 1009              		.thumb
 1010              		.syntax unified
 1011 0088 3B62     		str	r3, [r7, #32]
 1012              		.loc 2 206 5
 1013 008a 00BF     		nop
 1014              	.L60:
 1015              	.LBE131:
 1016              	.LBE130:
 1017              		.loc 1 846 5 discriminator 3
 1018 008c FEE7     		b	.L60
 1019              	.L59:
 847:ThirdParty/FreeRTOS/queue.c ****     #if ( ( INCLUDE_xTaskGetSchedulerState == 1 ) || ( configUSE_TIMERS == 1 ) )
 848:ThirdParty/FreeRTOS/queue.c ****     {
 849:ThirdParty/FreeRTOS/queue.c ****         configASSERT( !( ( xTaskGetSchedulerState() == taskSCHEDULER_SUSPENDED ) && ( xTicksToWait 
 1020              		.loc 1 849 9
 1021 008e FFF7FEFF 		bl	xTaskGetSchedulerState
 1022 0092 0346     		mov	r3, r0
 1023 0094 002B     		cmp	r3, #0
 1024 0096 02D1     		bne	.L61
 1025              		.loc 1 849 9 is_stmt 0 discriminator 2
 1026 0098 7B68     		ldr	r3, [r7, #4]
 1027 009a 002B     		cmp	r3, #0
 1028 009c 01D1     		bne	.L62
 1029              	.L61:
 1030              		.loc 1 849 9 discriminator 3
 1031 009e 0123     		movs	r3, #1
 1032 00a0 00E0     		b	.L63
 1033              	.L62:
 1034              		.loc 1 849 9 discriminator 4
 1035 00a2 0023     		movs	r3, #0
 1036              	.L63:
 1037              		.loc 1 849 9 discriminator 6
 1038 00a4 002B     		cmp	r3, #0
 1039 00a6 0AD1     		bne	.L64
 1040              	.LBB132:
 1041              	.LBB133:
 198:ThirdParty/FreeRTOS/portable/GCC/ARM_CM4F/portmacro.h ****         (
 1042              		.loc 2 198 9 is_stmt 1
 1043              		.syntax unified
 1044              	@ 198 "ThirdParty/FreeRTOS/portable/GCC/ARM_CM4F/portmacro.h" 1
 1045 00a8 4FF05003 			mov r3, #80												
 1046 00ac 83F31188 		msr basepri, r3											
 1047 00b0 BFF36F8F 		isb														
 1048 00b4 BFF34F8F 		dsb														
 1049              	
 1050              	@ 0 "" 2
 1051              		.thumb
 1052              		.syntax unified
 1053 00b8 FB61     		str	r3, [r7, #28]
 1054              		.loc 2 206 5
ARM GAS  C:\Users\Admin\AppData\Local\Temp\ccYAfxe2.s 			page 38


 1055 00ba 00BF     		nop
 1056              	.L65:
 1057              	.LBE133:
 1058              	.LBE132:
 1059              		.loc 1 849 9 discriminator 4
 1060 00bc FEE7     		b	.L65
 1061              	.L64:
 850:ThirdParty/FreeRTOS/queue.c ****     }
 851:ThirdParty/FreeRTOS/queue.c ****     #endif
 852:ThirdParty/FreeRTOS/queue.c **** 
 853:ThirdParty/FreeRTOS/queue.c ****     /*lint -save -e904 This function relaxes the coding standard somewhat to
 854:ThirdParty/FreeRTOS/queue.c ****      * allow return statements within the function itself.  This is done in the
 855:ThirdParty/FreeRTOS/queue.c ****      * interest of execution time efficiency. */
 856:ThirdParty/FreeRTOS/queue.c ****     for( ; ; )
 857:ThirdParty/FreeRTOS/queue.c ****     {
 858:ThirdParty/FreeRTOS/queue.c ****         taskENTER_CRITICAL();
 1062              		.loc 1 858 9
 1063 00be FFF7FEFF 		bl	vPortEnterCritical
 859:ThirdParty/FreeRTOS/queue.c ****         {
 860:ThirdParty/FreeRTOS/queue.c ****             /* Is there room on the queue now?  The running task must be the
 861:ThirdParty/FreeRTOS/queue.c ****              * highest priority task wanting to access the queue.  If the head item
 862:ThirdParty/FreeRTOS/queue.c ****              * in the queue is to be overwritten then it does not matter if the
 863:ThirdParty/FreeRTOS/queue.c ****              * queue is full. */
 864:ThirdParty/FreeRTOS/queue.c ****             if( ( pxQueue->uxMessagesWaiting < pxQueue->uxLength ) || ( xCopyPosition == queueOVERW
 1064              		.loc 1 864 26
 1065 00c2 3B6B     		ldr	r3, [r7, #48]
 1066 00c4 9A6B     		ldr	r2, [r3, #56]
 1067              		.loc 1 864 55
 1068 00c6 3B6B     		ldr	r3, [r7, #48]
 1069 00c8 DB6B     		ldr	r3, [r3, #60]
 1070              		.loc 1 864 15
 1071 00ca 9A42     		cmp	r2, r3
 1072 00cc 02D3     		bcc	.L66
 1073              		.loc 1 864 68 discriminator 1
 1074 00ce 3B68     		ldr	r3, [r7]
 1075 00d0 022B     		cmp	r3, #2
 1076 00d2 12D1     		bne	.L67
 1077              	.L66:
 865:ThirdParty/FreeRTOS/queue.c ****             {
 866:ThirdParty/FreeRTOS/queue.c ****                 traceQUEUE_SEND( pxQueue );
 867:ThirdParty/FreeRTOS/queue.c **** 
 868:ThirdParty/FreeRTOS/queue.c ****                 #if ( configUSE_QUEUE_SETS == 1 )
 869:ThirdParty/FreeRTOS/queue.c ****                 {
 870:ThirdParty/FreeRTOS/queue.c ****                     const UBaseType_t uxPreviousMessagesWaiting = pxQueue->uxMessagesWaiting;
 871:ThirdParty/FreeRTOS/queue.c **** 
 872:ThirdParty/FreeRTOS/queue.c ****                     xYieldRequired = prvCopyDataToQueue( pxQueue, pvItemToQueue, xCopyPosition );
 873:ThirdParty/FreeRTOS/queue.c **** 
 874:ThirdParty/FreeRTOS/queue.c ****                     if( pxQueue->pxQueueSetContainer != NULL )
 875:ThirdParty/FreeRTOS/queue.c ****                     {
 876:ThirdParty/FreeRTOS/queue.c ****                         if( ( xCopyPosition == queueOVERWRITE ) && ( uxPreviousMessagesWaiting != (
 877:ThirdParty/FreeRTOS/queue.c ****                         {
 878:ThirdParty/FreeRTOS/queue.c ****                             /* Do not notify the queue set as an existing item
 879:ThirdParty/FreeRTOS/queue.c ****                              * was overwritten in the queue so the number of items
 880:ThirdParty/FreeRTOS/queue.c ****                              * in the queue has not changed. */
 881:ThirdParty/FreeRTOS/queue.c ****                             mtCOVERAGE_TEST_MARKER();
 882:ThirdParty/FreeRTOS/queue.c ****                         }
 883:ThirdParty/FreeRTOS/queue.c ****                         else if( prvNotifyQueueSetContainer( pxQueue ) != pdFALSE )
ARM GAS  C:\Users\Admin\AppData\Local\Temp\ccYAfxe2.s 			page 39


 884:ThirdParty/FreeRTOS/queue.c ****                         {
 885:ThirdParty/FreeRTOS/queue.c ****                             /* The queue is a member of a queue set, and posting
 886:ThirdParty/FreeRTOS/queue.c ****                              * to the queue set caused a higher priority task to
 887:ThirdParty/FreeRTOS/queue.c ****                              * unblock. A context switch is required. */
 888:ThirdParty/FreeRTOS/queue.c ****                             queueYIELD_IF_USING_PREEMPTION();
 889:ThirdParty/FreeRTOS/queue.c ****                         }
 890:ThirdParty/FreeRTOS/queue.c ****                         else
 891:ThirdParty/FreeRTOS/queue.c ****                         {
 892:ThirdParty/FreeRTOS/queue.c ****                             mtCOVERAGE_TEST_MARKER();
 893:ThirdParty/FreeRTOS/queue.c ****                         }
 894:ThirdParty/FreeRTOS/queue.c ****                     }
 895:ThirdParty/FreeRTOS/queue.c ****                     else
 896:ThirdParty/FreeRTOS/queue.c ****                     {
 897:ThirdParty/FreeRTOS/queue.c ****                         /* If there was a task waiting for data to arrive on the
 898:ThirdParty/FreeRTOS/queue.c ****                          * queue then unblock it now. */
 899:ThirdParty/FreeRTOS/queue.c ****                         if( listLIST_IS_EMPTY( &( pxQueue->xTasksWaitingToReceive ) ) == pdFALSE )
 900:ThirdParty/FreeRTOS/queue.c ****                         {
 901:ThirdParty/FreeRTOS/queue.c ****                             if( xTaskRemoveFromEventList( &( pxQueue->xTasksWaitingToReceive ) ) !=
 902:ThirdParty/FreeRTOS/queue.c ****                             {
 903:ThirdParty/FreeRTOS/queue.c ****                                 /* The unblocked task has a priority higher than
 904:ThirdParty/FreeRTOS/queue.c ****                                  * our own so yield immediately.  Yes it is ok to
 905:ThirdParty/FreeRTOS/queue.c ****                                  * do this from within the critical section - the
 906:ThirdParty/FreeRTOS/queue.c ****                                  * kernel takes care of that. */
 907:ThirdParty/FreeRTOS/queue.c ****                                 queueYIELD_IF_USING_PREEMPTION();
 908:ThirdParty/FreeRTOS/queue.c ****                             }
 909:ThirdParty/FreeRTOS/queue.c ****                             else
 910:ThirdParty/FreeRTOS/queue.c ****                             {
 911:ThirdParty/FreeRTOS/queue.c ****                                 mtCOVERAGE_TEST_MARKER();
 912:ThirdParty/FreeRTOS/queue.c ****                             }
 913:ThirdParty/FreeRTOS/queue.c ****                         }
 914:ThirdParty/FreeRTOS/queue.c ****                         else if( xYieldRequired != pdFALSE )
 915:ThirdParty/FreeRTOS/queue.c ****                         {
 916:ThirdParty/FreeRTOS/queue.c ****                             /* This path is a special case that will only get
 917:ThirdParty/FreeRTOS/queue.c ****                              * executed if the task was holding multiple mutexes
 918:ThirdParty/FreeRTOS/queue.c ****                              * and the mutexes were given back in an order that is
 919:ThirdParty/FreeRTOS/queue.c ****                              * different to that in which they were taken. */
 920:ThirdParty/FreeRTOS/queue.c ****                             queueYIELD_IF_USING_PREEMPTION();
 921:ThirdParty/FreeRTOS/queue.c ****                         }
 922:ThirdParty/FreeRTOS/queue.c ****                         else
 923:ThirdParty/FreeRTOS/queue.c ****                         {
 924:ThirdParty/FreeRTOS/queue.c ****                             mtCOVERAGE_TEST_MARKER();
 925:ThirdParty/FreeRTOS/queue.c ****                         }
 926:ThirdParty/FreeRTOS/queue.c ****                     }
 927:ThirdParty/FreeRTOS/queue.c ****                 }
 928:ThirdParty/FreeRTOS/queue.c ****                 #else /* configUSE_QUEUE_SETS */
 929:ThirdParty/FreeRTOS/queue.c ****                 {
 930:ThirdParty/FreeRTOS/queue.c ****                     xYieldRequired = prvCopyDataToQueue( pxQueue, pvItemToQueue, xCopyPosition );
 1078              		.loc 1 930 38
 1079 00d4 3A68     		ldr	r2, [r7]
 1080 00d6 B968     		ldr	r1, [r7, #8]
 1081 00d8 386B     		ldr	r0, [r7, #48]
 1082 00da FFF7FEFF 		bl	prvCopyDataToQueue
 1083 00de F862     		str	r0, [r7, #44]
 931:ThirdParty/FreeRTOS/queue.c **** 
 932:ThirdParty/FreeRTOS/queue.c ****                     /* If there was a task waiting for data to arrive on the
 933:ThirdParty/FreeRTOS/queue.c ****                      * queue then unblock it now. */
 934:ThirdParty/FreeRTOS/queue.c ****                     if( listLIST_IS_EMPTY( &( pxQueue->xTasksWaitingToReceive ) ) == pdFALSE )
ARM GAS  C:\Users\Admin\AppData\Local\Temp\ccYAfxe2.s 			page 40


 1084              		.loc 1 934 25
 1085 00e0 3B6B     		ldr	r3, [r7, #48]
 1086 00e2 5B6A     		ldr	r3, [r3, #36]
 1087              		.loc 1 934 23
 1088 00e4 002B     		cmp	r3, #0
 1089 00e6 04D0     		beq	.L68
 935:ThirdParty/FreeRTOS/queue.c ****                     {
 936:ThirdParty/FreeRTOS/queue.c ****                         if( xTaskRemoveFromEventList( &( pxQueue->xTasksWaitingToReceive ) ) != pdF
 1090              		.loc 1 936 55
 1091 00e8 3B6B     		ldr	r3, [r7, #48]
 1092 00ea 2433     		adds	r3, r3, #36
 1093              		.loc 1 936 29
 1094 00ec 1846     		mov	r0, r3
 1095 00ee FFF7FEFF 		bl	xTaskRemoveFromEventList
 1096              	.L68:
 937:ThirdParty/FreeRTOS/queue.c ****                         {
 938:ThirdParty/FreeRTOS/queue.c ****                             /* The unblocked task has a priority higher than
 939:ThirdParty/FreeRTOS/queue.c ****                              * our own so yield immediately.  Yes it is ok to do
 940:ThirdParty/FreeRTOS/queue.c ****                              * this from within the critical section - the kernel
 941:ThirdParty/FreeRTOS/queue.c ****                              * takes care of that. */
 942:ThirdParty/FreeRTOS/queue.c ****                             queueYIELD_IF_USING_PREEMPTION();
 943:ThirdParty/FreeRTOS/queue.c ****                         }
 944:ThirdParty/FreeRTOS/queue.c ****                         else
 945:ThirdParty/FreeRTOS/queue.c ****                         {
 946:ThirdParty/FreeRTOS/queue.c ****                             mtCOVERAGE_TEST_MARKER();
 947:ThirdParty/FreeRTOS/queue.c ****                         }
 948:ThirdParty/FreeRTOS/queue.c ****                     }
 949:ThirdParty/FreeRTOS/queue.c ****                     else if( xYieldRequired != pdFALSE )
 950:ThirdParty/FreeRTOS/queue.c ****                     {
 951:ThirdParty/FreeRTOS/queue.c ****                         /* This path is a special case that will only get
 952:ThirdParty/FreeRTOS/queue.c ****                          * executed if the task was holding multiple mutexes and
 953:ThirdParty/FreeRTOS/queue.c ****                          * the mutexes were given back in an order that is
 954:ThirdParty/FreeRTOS/queue.c ****                          * different to that in which they were taken. */
 955:ThirdParty/FreeRTOS/queue.c ****                         queueYIELD_IF_USING_PREEMPTION();
 956:ThirdParty/FreeRTOS/queue.c ****                     }
 957:ThirdParty/FreeRTOS/queue.c ****                     else
 958:ThirdParty/FreeRTOS/queue.c ****                     {
 959:ThirdParty/FreeRTOS/queue.c ****                         mtCOVERAGE_TEST_MARKER();
 960:ThirdParty/FreeRTOS/queue.c ****                     }
 961:ThirdParty/FreeRTOS/queue.c ****                 }
 962:ThirdParty/FreeRTOS/queue.c ****                 #endif /* configUSE_QUEUE_SETS */
 963:ThirdParty/FreeRTOS/queue.c **** 
 964:ThirdParty/FreeRTOS/queue.c ****                 taskEXIT_CRITICAL();
 1097              		.loc 1 964 17
 1098 00f2 FFF7FEFF 		bl	vPortExitCritical
 965:ThirdParty/FreeRTOS/queue.c ****                 return pdPASS;
 1099              		.loc 1 965 24
 1100 00f6 0123     		movs	r3, #1
 1101 00f8 62E0     		b	.L77
 1102              	.L67:
 966:ThirdParty/FreeRTOS/queue.c ****             }
 967:ThirdParty/FreeRTOS/queue.c ****             else
 968:ThirdParty/FreeRTOS/queue.c ****             {
 969:ThirdParty/FreeRTOS/queue.c ****                 if( xTicksToWait == ( TickType_t ) 0 )
 1103              		.loc 1 969 34
 1104 00fa 7B68     		ldr	r3, [r7, #4]
 1105              		.loc 1 969 19
ARM GAS  C:\Users\Admin\AppData\Local\Temp\ccYAfxe2.s 			page 41


 1106 00fc 002B     		cmp	r3, #0
 1107 00fe 03D1     		bne	.L70
 970:ThirdParty/FreeRTOS/queue.c ****                 {
 971:ThirdParty/FreeRTOS/queue.c ****                     /* The queue was full and no block time is specified (or
 972:ThirdParty/FreeRTOS/queue.c ****                      * the block time has expired) so leave now. */
 973:ThirdParty/FreeRTOS/queue.c ****                     taskEXIT_CRITICAL();
 1108              		.loc 1 973 21
 1109 0100 FFF7FEFF 		bl	vPortExitCritical
 974:ThirdParty/FreeRTOS/queue.c **** 
 975:ThirdParty/FreeRTOS/queue.c ****                     /* Return to the original privilege level before exiting
 976:ThirdParty/FreeRTOS/queue.c ****                      * the function. */
 977:ThirdParty/FreeRTOS/queue.c ****                     traceQUEUE_SEND_FAILED( pxQueue );
 978:ThirdParty/FreeRTOS/queue.c ****                     return errQUEUE_FULL;
 1110              		.loc 1 978 28
 1111 0104 0023     		movs	r3, #0
 1112 0106 5BE0     		b	.L77
 1113              	.L70:
 979:ThirdParty/FreeRTOS/queue.c ****                 }
 980:ThirdParty/FreeRTOS/queue.c ****                 else if( xEntryTimeSet == pdFALSE )
 1114              		.loc 1 980 24
 1115 0108 7B6B     		ldr	r3, [r7, #52]
 1116 010a 002B     		cmp	r3, #0
 1117 010c 06D1     		bne	.L71
 981:ThirdParty/FreeRTOS/queue.c ****                 {
 982:ThirdParty/FreeRTOS/queue.c ****                     /* The queue was full and a block time was specified so
 983:ThirdParty/FreeRTOS/queue.c ****                      * configure the timeout structure. */
 984:ThirdParty/FreeRTOS/queue.c ****                     vTaskInternalSetTimeOutState( &xTimeOut );
 1118              		.loc 1 984 21
 1119 010e 07F11403 		add	r3, r7, #20
 1120 0112 1846     		mov	r0, r3
 1121 0114 FFF7FEFF 		bl	vTaskInternalSetTimeOutState
 985:ThirdParty/FreeRTOS/queue.c ****                     xEntryTimeSet = pdTRUE;
 1122              		.loc 1 985 35
 1123 0118 0123     		movs	r3, #1
 1124 011a 7B63     		str	r3, [r7, #52]
 1125              	.L71:
 986:ThirdParty/FreeRTOS/queue.c ****                 }
 987:ThirdParty/FreeRTOS/queue.c ****                 else
 988:ThirdParty/FreeRTOS/queue.c ****                 {
 989:ThirdParty/FreeRTOS/queue.c ****                     /* Entry time was already set. */
 990:ThirdParty/FreeRTOS/queue.c ****                     mtCOVERAGE_TEST_MARKER();
 991:ThirdParty/FreeRTOS/queue.c ****                 }
 992:ThirdParty/FreeRTOS/queue.c ****             }
 993:ThirdParty/FreeRTOS/queue.c ****         }
 994:ThirdParty/FreeRTOS/queue.c ****         taskEXIT_CRITICAL();
 1126              		.loc 1 994 9
 1127 011c FFF7FEFF 		bl	vPortExitCritical
 995:ThirdParty/FreeRTOS/queue.c **** 
 996:ThirdParty/FreeRTOS/queue.c ****         /* Interrupts and other tasks can send to and receive from the queue
 997:ThirdParty/FreeRTOS/queue.c ****          * now the critical section has been exited. */
 998:ThirdParty/FreeRTOS/queue.c **** 
 999:ThirdParty/FreeRTOS/queue.c ****         vTaskSuspendAll();
 1128              		.loc 1 999 9
 1129 0120 FFF7FEFF 		bl	vTaskSuspendAll
1000:ThirdParty/FreeRTOS/queue.c ****         prvLockQueue( pxQueue );
 1130              		.loc 1 1000 9
 1131 0124 FFF7FEFF 		bl	vPortEnterCritical
ARM GAS  C:\Users\Admin\AppData\Local\Temp\ccYAfxe2.s 			page 42


 1132 0128 3B6B     		ldr	r3, [r7, #48]
 1133 012a 93F84430 		ldrb	r3, [r3, #68]
 1134 012e 5BB2     		sxtb	r3, r3
 1135 0130 B3F1FF3F 		cmp	r3, #-1
 1136 0134 03D1     		bne	.L72
 1137              		.loc 1 1000 9 is_stmt 0 discriminator 1
 1138 0136 3B6B     		ldr	r3, [r7, #48]
 1139 0138 0022     		movs	r2, #0
 1140 013a 83F84420 		strb	r2, [r3, #68]
 1141              	.L72:
 1142              		.loc 1 1000 9 discriminator 3
 1143 013e 3B6B     		ldr	r3, [r7, #48]
 1144 0140 93F84530 		ldrb	r3, [r3, #69]
 1145 0144 5BB2     		sxtb	r3, r3
 1146 0146 B3F1FF3F 		cmp	r3, #-1
 1147 014a 03D1     		bne	.L73
 1148              		.loc 1 1000 9 discriminator 4
 1149 014c 3B6B     		ldr	r3, [r7, #48]
 1150 014e 0022     		movs	r2, #0
 1151 0150 83F84520 		strb	r2, [r3, #69]
 1152              	.L73:
 1153              		.loc 1 1000 9 discriminator 6
 1154 0154 FFF7FEFF 		bl	vPortExitCritical
1001:ThirdParty/FreeRTOS/queue.c **** 
1002:ThirdParty/FreeRTOS/queue.c ****         /* Update the timeout state to see if it has expired yet. */
1003:ThirdParty/FreeRTOS/queue.c ****         if( xTaskCheckForTimeOut( &xTimeOut, &xTicksToWait ) == pdFALSE )
 1155              		.loc 1 1003 13 is_stmt 1 discriminator 6
 1156 0158 3A1D     		adds	r2, r7, #4
 1157 015a 07F11403 		add	r3, r7, #20
 1158 015e 1146     		mov	r1, r2
 1159 0160 1846     		mov	r0, r3
 1160 0162 FFF7FEFF 		bl	xTaskCheckForTimeOut
 1161 0166 0346     		mov	r3, r0
 1162              		.loc 1 1003 11 discriminator 6
 1163 0168 002B     		cmp	r3, #0
 1164 016a 23D1     		bne	.L74
1004:ThirdParty/FreeRTOS/queue.c ****         {
1005:ThirdParty/FreeRTOS/queue.c ****             if( prvIsQueueFull( pxQueue ) != pdFALSE )
 1165              		.loc 1 1005 17
 1166 016c 386B     		ldr	r0, [r7, #48]
 1167 016e FFF7FEFF 		bl	prvIsQueueFull
 1168 0172 0346     		mov	r3, r0
 1169              		.loc 1 1005 15
 1170 0174 002B     		cmp	r3, #0
 1171 0176 17D0     		beq	.L75
1006:ThirdParty/FreeRTOS/queue.c ****             {
1007:ThirdParty/FreeRTOS/queue.c ****                 traceBLOCKING_ON_QUEUE_SEND( pxQueue );
1008:ThirdParty/FreeRTOS/queue.c ****                 vTaskPlaceOnEventList( &( pxQueue->xTasksWaitingToSend ), xTicksToWait );
 1172              		.loc 1 1008 17
 1173 0178 3B6B     		ldr	r3, [r7, #48]
 1174 017a 1033     		adds	r3, r3, #16
 1175 017c 7A68     		ldr	r2, [r7, #4]
 1176 017e 1146     		mov	r1, r2
 1177 0180 1846     		mov	r0, r3
 1178 0182 FFF7FEFF 		bl	vTaskPlaceOnEventList
1009:ThirdParty/FreeRTOS/queue.c **** 
1010:ThirdParty/FreeRTOS/queue.c ****                 /* Unlocking the queue means queue events can effect the
ARM GAS  C:\Users\Admin\AppData\Local\Temp\ccYAfxe2.s 			page 43


1011:ThirdParty/FreeRTOS/queue.c ****                  * event list. It is possible that interrupts occurring now
1012:ThirdParty/FreeRTOS/queue.c ****                  * remove this task from the event list again - but as the
1013:ThirdParty/FreeRTOS/queue.c ****                  * scheduler is suspended the task will go onto the pending
1014:ThirdParty/FreeRTOS/queue.c ****                  * ready list instead of the actual ready list. */
1015:ThirdParty/FreeRTOS/queue.c ****                 prvUnlockQueue( pxQueue );
 1179              		.loc 1 1015 17
 1180 0186 386B     		ldr	r0, [r7, #48]
 1181 0188 FFF7FEFF 		bl	prvUnlockQueue
1016:ThirdParty/FreeRTOS/queue.c **** 
1017:ThirdParty/FreeRTOS/queue.c ****                 /* Resuming the scheduler will move tasks from the pending
1018:ThirdParty/FreeRTOS/queue.c ****                  * ready list into the ready list - so it is feasible that this
1019:ThirdParty/FreeRTOS/queue.c ****                  * task is already in the ready list before it yields - in which
1020:ThirdParty/FreeRTOS/queue.c ****                  * case the yield will not cause a context switch unless there
1021:ThirdParty/FreeRTOS/queue.c ****                  * is also a higher priority task in the pending ready list. */
1022:ThirdParty/FreeRTOS/queue.c ****                 if( xTaskResumeAll() == pdFALSE )
 1182              		.loc 1 1022 21
 1183 018c FFF7FEFF 		bl	xTaskResumeAll
 1184 0190 0346     		mov	r3, r0
 1185              		.loc 1 1022 19
 1186 0192 002B     		cmp	r3, #0
 1187 0194 93D1     		bne	.L64
1023:ThirdParty/FreeRTOS/queue.c ****                 {
1024:ThirdParty/FreeRTOS/queue.c ****                     portYIELD_WITHIN_API();
 1188              		.loc 1 1024 21
 1189 0196 0C4B     		ldr	r3, .L78
 1190 0198 4FF08052 		mov	r2, #268435456
 1191 019c 1A60     		str	r2, [r3]
 1192              		.syntax unified
 1193              	@ 1024 "ThirdParty/FreeRTOS/queue.c" 1
 1194 019e BFF34F8F 		dsb
 1195              	@ 0 "" 2
 1196              	@ 1024 "ThirdParty/FreeRTOS/queue.c" 1
 1197 01a2 BFF36F8F 		isb
 1198              	@ 0 "" 2
 1199              		.thumb
 1200              		.syntax unified
 1201 01a6 8AE7     		b	.L64
 1202              	.L75:
1025:ThirdParty/FreeRTOS/queue.c ****                 }
1026:ThirdParty/FreeRTOS/queue.c ****             }
1027:ThirdParty/FreeRTOS/queue.c ****             else
1028:ThirdParty/FreeRTOS/queue.c ****             {
1029:ThirdParty/FreeRTOS/queue.c ****                 /* Try again. */
1030:ThirdParty/FreeRTOS/queue.c ****                 prvUnlockQueue( pxQueue );
 1203              		.loc 1 1030 17
 1204 01a8 386B     		ldr	r0, [r7, #48]
 1205 01aa FFF7FEFF 		bl	prvUnlockQueue
1031:ThirdParty/FreeRTOS/queue.c ****                 ( void ) xTaskResumeAll();
 1206              		.loc 1 1031 26
 1207 01ae FFF7FEFF 		bl	xTaskResumeAll
 1208 01b2 84E7     		b	.L64
 1209              	.L74:
1032:ThirdParty/FreeRTOS/queue.c ****             }
1033:ThirdParty/FreeRTOS/queue.c ****         }
1034:ThirdParty/FreeRTOS/queue.c ****         else
1035:ThirdParty/FreeRTOS/queue.c ****         {
1036:ThirdParty/FreeRTOS/queue.c ****             /* The timeout has expired. */
ARM GAS  C:\Users\Admin\AppData\Local\Temp\ccYAfxe2.s 			page 44


1037:ThirdParty/FreeRTOS/queue.c ****             prvUnlockQueue( pxQueue );
 1210              		.loc 1 1037 13
 1211 01b4 386B     		ldr	r0, [r7, #48]
 1212 01b6 FFF7FEFF 		bl	prvUnlockQueue
1038:ThirdParty/FreeRTOS/queue.c ****             ( void ) xTaskResumeAll();
 1213              		.loc 1 1038 22
 1214 01ba FFF7FEFF 		bl	xTaskResumeAll
1039:ThirdParty/FreeRTOS/queue.c **** 
1040:ThirdParty/FreeRTOS/queue.c ****             traceQUEUE_SEND_FAILED( pxQueue );
1041:ThirdParty/FreeRTOS/queue.c ****             return errQUEUE_FULL;
 1215              		.loc 1 1041 20
 1216 01be 0023     		movs	r3, #0
 1217              	.L77:
1042:ThirdParty/FreeRTOS/queue.c ****         }
1043:ThirdParty/FreeRTOS/queue.c ****     } /*lint -restore */
1044:ThirdParty/FreeRTOS/queue.c **** }
 1218              		.loc 1 1044 1 discriminator 8
 1219 01c0 1846     		mov	r0, r3
 1220 01c2 3837     		adds	r7, r7, #56
 1221              	.LCFI43:
 1222              		.cfi_def_cfa_offset 8
 1223 01c4 BD46     		mov	sp, r7
 1224              	.LCFI44:
 1225              		.cfi_def_cfa_register 13
 1226              		@ sp needed
 1227 01c6 80BD     		pop	{r7, pc}
 1228              	.L79:
 1229              		.align	2
 1230              	.L78:
 1231 01c8 04ED00E0 		.word	-536810236
 1232              		.cfi_endproc
 1233              	.LFE13:
 1235              		.section	.text.xQueueGenericSendFromISR,"ax",%progbits
 1236              		.align	1
 1237              		.global	xQueueGenericSendFromISR
 1238              		.syntax unified
 1239              		.thumb
 1240              		.thumb_func
 1242              	xQueueGenericSendFromISR:
 1243              	.LFB14:
1045:ThirdParty/FreeRTOS/queue.c **** /*-----------------------------------------------------------*/
1046:ThirdParty/FreeRTOS/queue.c **** 
1047:ThirdParty/FreeRTOS/queue.c **** BaseType_t xQueueGenericSendFromISR( QueueHandle_t xQueue,
1048:ThirdParty/FreeRTOS/queue.c ****                                      const void * const pvItemToQueue,
1049:ThirdParty/FreeRTOS/queue.c ****                                      BaseType_t * const pxHigherPriorityTaskWoken,
1050:ThirdParty/FreeRTOS/queue.c ****                                      const BaseType_t xCopyPosition )
1051:ThirdParty/FreeRTOS/queue.c **** {
 1244              		.loc 1 1051 1
 1245              		.cfi_startproc
 1246              		@ args = 0, pretend = 0, frame = 72
 1247              		@ frame_needed = 1, uses_anonymous_args = 0
 1248 0000 80B5     		push	{r7, lr}
 1249              	.LCFI45:
 1250              		.cfi_def_cfa_offset 8
 1251              		.cfi_offset 7, -8
 1252              		.cfi_offset 14, -4
 1253 0002 92B0     		sub	sp, sp, #72
ARM GAS  C:\Users\Admin\AppData\Local\Temp\ccYAfxe2.s 			page 45


 1254              	.LCFI46:
 1255              		.cfi_def_cfa_offset 80
 1256 0004 00AF     		add	r7, sp, #0
 1257              	.LCFI47:
 1258              		.cfi_def_cfa_register 7
 1259 0006 F860     		str	r0, [r7, #12]
 1260 0008 B960     		str	r1, [r7, #8]
 1261 000a 7A60     		str	r2, [r7, #4]
 1262 000c 3B60     		str	r3, [r7]
1052:ThirdParty/FreeRTOS/queue.c ****     BaseType_t xReturn;
1053:ThirdParty/FreeRTOS/queue.c ****     UBaseType_t uxSavedInterruptStatus;
1054:ThirdParty/FreeRTOS/queue.c ****     Queue_t * const pxQueue = xQueue;
 1263              		.loc 1 1054 21
 1264 000e FB68     		ldr	r3, [r7, #12]
 1265 0010 3B64     		str	r3, [r7, #64]
1055:ThirdParty/FreeRTOS/queue.c **** 
1056:ThirdParty/FreeRTOS/queue.c ****     configASSERT( pxQueue );
 1266              		.loc 1 1056 5
 1267 0012 3B6C     		ldr	r3, [r7, #64]
 1268 0014 002B     		cmp	r3, #0
 1269 0016 0AD1     		bne	.L81
 1270              	.LBB134:
 1271              	.LBB135:
 198:ThirdParty/FreeRTOS/portable/GCC/ARM_CM4F/portmacro.h ****         (
 1272              		.loc 2 198 9
 1273              		.syntax unified
 1274              	@ 198 "ThirdParty/FreeRTOS/portable/GCC/ARM_CM4F/portmacro.h" 1
 1275 0018 4FF05003 			mov r3, #80												
 1276 001c 83F31188 		msr basepri, r3											
 1277 0020 BFF36F8F 		isb														
 1278 0024 BFF34F8F 		dsb														
 1279              	
 1280              	@ 0 "" 2
 1281              		.thumb
 1282              		.syntax unified
 1283 0028 FB62     		str	r3, [r7, #44]
 1284              		.loc 2 206 5
 1285 002a 00BF     		nop
 1286              	.L82:
 1287              	.LBE135:
 1288              	.LBE134:
 1289              		.loc 1 1056 5 discriminator 1
 1290 002c FEE7     		b	.L82
 1291              	.L81:
1057:ThirdParty/FreeRTOS/queue.c ****     configASSERT( !( ( pvItemToQueue == NULL ) && ( pxQueue->uxItemSize != ( UBaseType_t ) 0U ) ) )
 1292              		.loc 1 1057 5
 1293 002e BB68     		ldr	r3, [r7, #8]
 1294 0030 002B     		cmp	r3, #0
 1295 0032 03D1     		bne	.L83
 1296              		.loc 1 1057 5 is_stmt 0 discriminator 2
 1297 0034 3B6C     		ldr	r3, [r7, #64]
 1298 0036 1B6C     		ldr	r3, [r3, #64]
 1299 0038 002B     		cmp	r3, #0
 1300 003a 01D1     		bne	.L84
 1301              	.L83:
 1302              		.loc 1 1057 5 discriminator 3
 1303 003c 0123     		movs	r3, #1
ARM GAS  C:\Users\Admin\AppData\Local\Temp\ccYAfxe2.s 			page 46


 1304 003e 00E0     		b	.L85
 1305              	.L84:
 1306              		.loc 1 1057 5 discriminator 4
 1307 0040 0023     		movs	r3, #0
 1308              	.L85:
 1309              		.loc 1 1057 5 discriminator 6
 1310 0042 002B     		cmp	r3, #0
 1311 0044 0AD1     		bne	.L86
 1312              	.LBB136:
 1313              	.LBB137:
 198:ThirdParty/FreeRTOS/portable/GCC/ARM_CM4F/portmacro.h ****         (
 1314              		.loc 2 198 9 is_stmt 1
 1315              		.syntax unified
 1316              	@ 198 "ThirdParty/FreeRTOS/portable/GCC/ARM_CM4F/portmacro.h" 1
 1317 0046 4FF05003 			mov r3, #80												
 1318 004a 83F31188 		msr basepri, r3											
 1319 004e BFF36F8F 		isb														
 1320 0052 BFF34F8F 		dsb														
 1321              	
 1322              	@ 0 "" 2
 1323              		.thumb
 1324              		.syntax unified
 1325 0056 BB62     		str	r3, [r7, #40]
 1326              		.loc 2 206 5
 1327 0058 00BF     		nop
 1328              	.L87:
 1329              	.LBE137:
 1330              	.LBE136:
 1331              		.loc 1 1057 5 discriminator 2
 1332 005a FEE7     		b	.L87
 1333              	.L86:
1058:ThirdParty/FreeRTOS/queue.c ****     configASSERT( !( ( xCopyPosition == queueOVERWRITE ) && ( pxQueue->uxLength != 1 ) ) );
 1334              		.loc 1 1058 5
 1335 005c 3B68     		ldr	r3, [r7]
 1336 005e 022B     		cmp	r3, #2
 1337 0060 03D1     		bne	.L88
 1338              		.loc 1 1058 5 is_stmt 0 discriminator 2
 1339 0062 3B6C     		ldr	r3, [r7, #64]
 1340 0064 DB6B     		ldr	r3, [r3, #60]
 1341 0066 012B     		cmp	r3, #1
 1342 0068 01D1     		bne	.L89
 1343              	.L88:
 1344              		.loc 1 1058 5 discriminator 3
 1345 006a 0123     		movs	r3, #1
 1346 006c 00E0     		b	.L90
 1347              	.L89:
 1348              		.loc 1 1058 5 discriminator 4
 1349 006e 0023     		movs	r3, #0
 1350              	.L90:
 1351              		.loc 1 1058 5 discriminator 6
 1352 0070 002B     		cmp	r3, #0
 1353 0072 0AD1     		bne	.L91
 1354              	.LBB138:
 1355              	.LBB139:
 198:ThirdParty/FreeRTOS/portable/GCC/ARM_CM4F/portmacro.h ****         (
 1356              		.loc 2 198 9 is_stmt 1
 1357              		.syntax unified
ARM GAS  C:\Users\Admin\AppData\Local\Temp\ccYAfxe2.s 			page 47


 1358              	@ 198 "ThirdParty/FreeRTOS/portable/GCC/ARM_CM4F/portmacro.h" 1
 1359 0074 4FF05003 			mov r3, #80												
 1360 0078 83F31188 		msr basepri, r3											
 1361 007c BFF36F8F 		isb														
 1362 0080 BFF34F8F 		dsb														
 1363              	
 1364              	@ 0 "" 2
 1365              		.thumb
 1366              		.syntax unified
 1367 0084 7B62     		str	r3, [r7, #36]
 1368              		.loc 2 206 5
 1369 0086 00BF     		nop
 1370              	.L92:
 1371              	.LBE139:
 1372              	.LBE138:
 1373              		.loc 1 1058 5 discriminator 3
 1374 0088 FEE7     		b	.L92
 1375              	.L91:
1059:ThirdParty/FreeRTOS/queue.c **** 
1060:ThirdParty/FreeRTOS/queue.c ****     /* RTOS ports that support interrupt nesting have the concept of a maximum
1061:ThirdParty/FreeRTOS/queue.c ****      * system call (or maximum API call) interrupt priority.  Interrupts that are
1062:ThirdParty/FreeRTOS/queue.c ****      * above the maximum system call priority are kept permanently enabled, even
1063:ThirdParty/FreeRTOS/queue.c ****      * when the RTOS kernel is in a critical section, but cannot make any calls to
1064:ThirdParty/FreeRTOS/queue.c ****      * FreeRTOS API functions.  If configASSERT() is defined in FreeRTOSConfig.h
1065:ThirdParty/FreeRTOS/queue.c ****      * then portASSERT_IF_INTERRUPT_PRIORITY_INVALID() will result in an assertion
1066:ThirdParty/FreeRTOS/queue.c ****      * failure if a FreeRTOS API function is called from an interrupt that has been
1067:ThirdParty/FreeRTOS/queue.c ****      * assigned a priority above the configured maximum system call priority.
1068:ThirdParty/FreeRTOS/queue.c ****      * Only FreeRTOS functions that end in FromISR can be called from interrupts
1069:ThirdParty/FreeRTOS/queue.c ****      * that have been assigned a priority at or (logically) below the maximum
1070:ThirdParty/FreeRTOS/queue.c ****      * system call interrupt priority.  FreeRTOS maintains a separate interrupt
1071:ThirdParty/FreeRTOS/queue.c ****      * safe API to ensure interrupt entry is as fast and as simple as possible.
1072:ThirdParty/FreeRTOS/queue.c ****      * More information (albeit Cortex-M specific) is provided on the following
1073:ThirdParty/FreeRTOS/queue.c ****      * link: https://www.FreeRTOS.org/RTOS-Cortex-M3-M4.html */
1074:ThirdParty/FreeRTOS/queue.c ****     portASSERT_IF_INTERRUPT_PRIORITY_INVALID();
 1376              		.loc 1 1074 5
 1377 008a FFF7FEFF 		bl	vPortValidateInterruptPriority
 1378              	.LBB140:
 1379              	.LBB141:
 207:ThirdParty/FreeRTOS/portable/GCC/ARM_CM4F/portmacro.h **** 
 208:ThirdParty/FreeRTOS/portable/GCC/ARM_CM4F/portmacro.h **** /*-----------------------------------------------------------*/
 209:ThirdParty/FreeRTOS/portable/GCC/ARM_CM4F/portmacro.h **** 
 210:ThirdParty/FreeRTOS/portable/GCC/ARM_CM4F/portmacro.h ****     portFORCE_INLINE static uint32_t ulPortRaiseBASEPRI( void )
 211:ThirdParty/FreeRTOS/portable/GCC/ARM_CM4F/portmacro.h ****     {
 212:ThirdParty/FreeRTOS/portable/GCC/ARM_CM4F/portmacro.h ****         uint32_t ulOriginalBASEPRI, ulNewBASEPRI;
 213:ThirdParty/FreeRTOS/portable/GCC/ARM_CM4F/portmacro.h **** 
 214:ThirdParty/FreeRTOS/portable/GCC/ARM_CM4F/portmacro.h ****         __asm volatile
 1380              		.loc 2 214 9
 1381              		.syntax unified
 1382              	@ 214 "ThirdParty/FreeRTOS/portable/GCC/ARM_CM4F/portmacro.h" 1
 1383 008e EFF31182 			mrs r2, basepri											
 1384 0092 4FF05003 		mov r3, #80												
 1385 0096 83F31188 		msr basepri, r3											
 1386 009a BFF36F8F 		isb														
 1387 009e BFF34F8F 		dsb														
 1388              	
 1389              	@ 0 "" 2
 1390              		.thumb
ARM GAS  C:\Users\Admin\AppData\Local\Temp\ccYAfxe2.s 			page 48


 1391              		.syntax unified
 1392 00a2 3A62     		str	r2, [r7, #32]
 1393 00a4 FB61     		str	r3, [r7, #28]
 215:ThirdParty/FreeRTOS/portable/GCC/ARM_CM4F/portmacro.h ****         (
 216:ThirdParty/FreeRTOS/portable/GCC/ARM_CM4F/portmacro.h ****             "	mrs %0, basepri											\n"\
 217:ThirdParty/FreeRTOS/portable/GCC/ARM_CM4F/portmacro.h ****             "	mov %1, %2												\n"\
 218:ThirdParty/FreeRTOS/portable/GCC/ARM_CM4F/portmacro.h ****             "	msr basepri, %1											\n"\
 219:ThirdParty/FreeRTOS/portable/GCC/ARM_CM4F/portmacro.h ****             "	isb														\n"\
 220:ThirdParty/FreeRTOS/portable/GCC/ARM_CM4F/portmacro.h ****             "	dsb														\n"\
 221:ThirdParty/FreeRTOS/portable/GCC/ARM_CM4F/portmacro.h ****             : "=r" ( ulOriginalBASEPRI ), "=r" ( ulNewBASEPRI ) : "i" ( configMAX_SYSCALL_INTERRUPT
 222:ThirdParty/FreeRTOS/portable/GCC/ARM_CM4F/portmacro.h ****         );
 223:ThirdParty/FreeRTOS/portable/GCC/ARM_CM4F/portmacro.h **** 
 224:ThirdParty/FreeRTOS/portable/GCC/ARM_CM4F/portmacro.h ****         /* This return will not be reached but is necessary to prevent compiler
 225:ThirdParty/FreeRTOS/portable/GCC/ARM_CM4F/portmacro.h ****          * warnings. */
 226:ThirdParty/FreeRTOS/portable/GCC/ARM_CM4F/portmacro.h ****         return ulOriginalBASEPRI;
 1394              		.loc 2 226 16
 1395 00a6 3B6A     		ldr	r3, [r7, #32]
 1396              	.LBE141:
 1397              	.LBE140:
1075:ThirdParty/FreeRTOS/queue.c **** 
1076:ThirdParty/FreeRTOS/queue.c ****     /* Similar to xQueueGenericSend, except without blocking if there is no room
1077:ThirdParty/FreeRTOS/queue.c ****      * in the queue.  Also don't directly wake a task that was blocked on a queue
1078:ThirdParty/FreeRTOS/queue.c ****      * read, instead return a flag to say whether a context switch is required or
1079:ThirdParty/FreeRTOS/queue.c ****      * not (i.e. has a task with a higher priority than us been woken by this
1080:ThirdParty/FreeRTOS/queue.c ****      * post). */
1081:ThirdParty/FreeRTOS/queue.c ****     uxSavedInterruptStatus = portSET_INTERRUPT_MASK_FROM_ISR();
 1398              		.loc 1 1081 30
 1399 00a8 FB63     		str	r3, [r7, #60]
1082:ThirdParty/FreeRTOS/queue.c ****     {
1083:ThirdParty/FreeRTOS/queue.c ****         if( ( pxQueue->uxMessagesWaiting < pxQueue->uxLength ) || ( xCopyPosition == queueOVERWRITE
 1400              		.loc 1 1083 22
 1401 00aa 3B6C     		ldr	r3, [r7, #64]
 1402 00ac 9A6B     		ldr	r2, [r3, #56]
 1403              		.loc 1 1083 51
 1404 00ae 3B6C     		ldr	r3, [r7, #64]
 1405 00b0 DB6B     		ldr	r3, [r3, #60]
 1406              		.loc 1 1083 11
 1407 00b2 9A42     		cmp	r2, r3
 1408 00b4 02D3     		bcc	.L94
 1409              		.loc 1 1083 64 discriminator 1
 1410 00b6 3B68     		ldr	r3, [r7]
 1411 00b8 022B     		cmp	r3, #2
 1412 00ba 46D1     		bne	.L95
 1413              	.L94:
 1414              	.LBB142:
1084:ThirdParty/FreeRTOS/queue.c ****         {
1085:ThirdParty/FreeRTOS/queue.c ****             const int8_t cTxLock = pxQueue->cTxLock;
 1415              		.loc 1 1085 26
 1416 00bc 3B6C     		ldr	r3, [r7, #64]
 1417 00be 93F84530 		ldrb	r3, [r3, #69]
 1418 00c2 87F83B30 		strb	r3, [r7, #59]
1086:ThirdParty/FreeRTOS/queue.c ****             const UBaseType_t uxPreviousMessagesWaiting = pxQueue->uxMessagesWaiting;
 1419              		.loc 1 1086 31
 1420 00c6 3B6C     		ldr	r3, [r7, #64]
 1421 00c8 9B6B     		ldr	r3, [r3, #56]
 1422 00ca 7B63     		str	r3, [r7, #52]
1087:ThirdParty/FreeRTOS/queue.c **** 
ARM GAS  C:\Users\Admin\AppData\Local\Temp\ccYAfxe2.s 			page 49


1088:ThirdParty/FreeRTOS/queue.c ****             traceQUEUE_SEND_FROM_ISR( pxQueue );
1089:ThirdParty/FreeRTOS/queue.c **** 
1090:ThirdParty/FreeRTOS/queue.c ****             /* Semaphores use xQueueGiveFromISR(), so pxQueue will not be a
1091:ThirdParty/FreeRTOS/queue.c ****              *  semaphore or mutex.  That means prvCopyDataToQueue() cannot result
1092:ThirdParty/FreeRTOS/queue.c ****              *  in a task disinheriting a priority and prvCopyDataToQueue() can be
1093:ThirdParty/FreeRTOS/queue.c ****              *  called here even though the disinherit function does not check if
1094:ThirdParty/FreeRTOS/queue.c ****              *  the scheduler is suspended before accessing the ready lists. */
1095:ThirdParty/FreeRTOS/queue.c ****             ( void ) prvCopyDataToQueue( pxQueue, pvItemToQueue, xCopyPosition );
 1423              		.loc 1 1095 22
 1424 00cc 3A68     		ldr	r2, [r7]
 1425 00ce B968     		ldr	r1, [r7, #8]
 1426 00d0 386C     		ldr	r0, [r7, #64]
 1427 00d2 FFF7FEFF 		bl	prvCopyDataToQueue
1096:ThirdParty/FreeRTOS/queue.c **** 
1097:ThirdParty/FreeRTOS/queue.c ****             /* The event list is not altered if the queue is locked.  This will
1098:ThirdParty/FreeRTOS/queue.c ****              * be done when the queue is unlocked later. */
1099:ThirdParty/FreeRTOS/queue.c ****             if( cTxLock == queueUNLOCKED )
 1428              		.loc 1 1099 15
 1429 00d6 97F93B30 		ldrsb	r3, [r7, #59]
 1430 00da B3F1FF3F 		cmp	r3, #-1
 1431 00de 12D1     		bne	.L96
1100:ThirdParty/FreeRTOS/queue.c ****             {
1101:ThirdParty/FreeRTOS/queue.c ****                 #if ( configUSE_QUEUE_SETS == 1 )
1102:ThirdParty/FreeRTOS/queue.c ****                 {
1103:ThirdParty/FreeRTOS/queue.c ****                     if( pxQueue->pxQueueSetContainer != NULL )
1104:ThirdParty/FreeRTOS/queue.c ****                     {
1105:ThirdParty/FreeRTOS/queue.c ****                         if( ( xCopyPosition == queueOVERWRITE ) && ( uxPreviousMessagesWaiting != (
1106:ThirdParty/FreeRTOS/queue.c ****                         {
1107:ThirdParty/FreeRTOS/queue.c ****                             /* Do not notify the queue set as an existing item
1108:ThirdParty/FreeRTOS/queue.c ****                              * was overwritten in the queue so the number of items
1109:ThirdParty/FreeRTOS/queue.c ****                              * in the queue has not changed. */
1110:ThirdParty/FreeRTOS/queue.c ****                             mtCOVERAGE_TEST_MARKER();
1111:ThirdParty/FreeRTOS/queue.c ****                         }
1112:ThirdParty/FreeRTOS/queue.c ****                         else if( prvNotifyQueueSetContainer( pxQueue ) != pdFALSE )
1113:ThirdParty/FreeRTOS/queue.c ****                         {
1114:ThirdParty/FreeRTOS/queue.c ****                             /* The queue is a member of a queue set, and posting
1115:ThirdParty/FreeRTOS/queue.c ****                              * to the queue set caused a higher priority task to
1116:ThirdParty/FreeRTOS/queue.c ****                              * unblock.  A context switch is required. */
1117:ThirdParty/FreeRTOS/queue.c ****                             if( pxHigherPriorityTaskWoken != NULL )
1118:ThirdParty/FreeRTOS/queue.c ****                             {
1119:ThirdParty/FreeRTOS/queue.c ****                                 *pxHigherPriorityTaskWoken = pdTRUE;
1120:ThirdParty/FreeRTOS/queue.c ****                             }
1121:ThirdParty/FreeRTOS/queue.c ****                             else
1122:ThirdParty/FreeRTOS/queue.c ****                             {
1123:ThirdParty/FreeRTOS/queue.c ****                                 mtCOVERAGE_TEST_MARKER();
1124:ThirdParty/FreeRTOS/queue.c ****                             }
1125:ThirdParty/FreeRTOS/queue.c ****                         }
1126:ThirdParty/FreeRTOS/queue.c ****                         else
1127:ThirdParty/FreeRTOS/queue.c ****                         {
1128:ThirdParty/FreeRTOS/queue.c ****                             mtCOVERAGE_TEST_MARKER();
1129:ThirdParty/FreeRTOS/queue.c ****                         }
1130:ThirdParty/FreeRTOS/queue.c ****                     }
1131:ThirdParty/FreeRTOS/queue.c ****                     else
1132:ThirdParty/FreeRTOS/queue.c ****                     {
1133:ThirdParty/FreeRTOS/queue.c ****                         if( listLIST_IS_EMPTY( &( pxQueue->xTasksWaitingToReceive ) ) == pdFALSE )
1134:ThirdParty/FreeRTOS/queue.c ****                         {
1135:ThirdParty/FreeRTOS/queue.c ****                             if( xTaskRemoveFromEventList( &( pxQueue->xTasksWaitingToReceive ) ) !=
ARM GAS  C:\Users\Admin\AppData\Local\Temp\ccYAfxe2.s 			page 50


1136:ThirdParty/FreeRTOS/queue.c ****                             {
1137:ThirdParty/FreeRTOS/queue.c ****                                 /* The task waiting has a higher priority so
1138:ThirdParty/FreeRTOS/queue.c ****                                  *  record that a context switch is required. */
1139:ThirdParty/FreeRTOS/queue.c ****                                 if( pxHigherPriorityTaskWoken != NULL )
1140:ThirdParty/FreeRTOS/queue.c ****                                 {
1141:ThirdParty/FreeRTOS/queue.c ****                                     *pxHigherPriorityTaskWoken = pdTRUE;
1142:ThirdParty/FreeRTOS/queue.c ****                                 }
1143:ThirdParty/FreeRTOS/queue.c ****                                 else
1144:ThirdParty/FreeRTOS/queue.c ****                                 {
1145:ThirdParty/FreeRTOS/queue.c ****                                     mtCOVERAGE_TEST_MARKER();
1146:ThirdParty/FreeRTOS/queue.c ****                                 }
1147:ThirdParty/FreeRTOS/queue.c ****                             }
1148:ThirdParty/FreeRTOS/queue.c ****                             else
1149:ThirdParty/FreeRTOS/queue.c ****                             {
1150:ThirdParty/FreeRTOS/queue.c ****                                 mtCOVERAGE_TEST_MARKER();
1151:ThirdParty/FreeRTOS/queue.c ****                             }
1152:ThirdParty/FreeRTOS/queue.c ****                         }
1153:ThirdParty/FreeRTOS/queue.c ****                         else
1154:ThirdParty/FreeRTOS/queue.c ****                         {
1155:ThirdParty/FreeRTOS/queue.c ****                             mtCOVERAGE_TEST_MARKER();
1156:ThirdParty/FreeRTOS/queue.c ****                         }
1157:ThirdParty/FreeRTOS/queue.c ****                     }
1158:ThirdParty/FreeRTOS/queue.c ****                 }
1159:ThirdParty/FreeRTOS/queue.c ****                 #else /* configUSE_QUEUE_SETS */
1160:ThirdParty/FreeRTOS/queue.c ****                 {
1161:ThirdParty/FreeRTOS/queue.c ****                     if( listLIST_IS_EMPTY( &( pxQueue->xTasksWaitingToReceive ) ) == pdFALSE )
 1432              		.loc 1 1161 25
 1433 00e0 3B6C     		ldr	r3, [r7, #64]
 1434 00e2 5B6A     		ldr	r3, [r3, #36]
 1435              		.loc 1 1161 23
 1436 00e4 002B     		cmp	r3, #0
 1437 00e6 2DD0     		beq	.L97
1162:ThirdParty/FreeRTOS/queue.c ****                     {
1163:ThirdParty/FreeRTOS/queue.c ****                         if( xTaskRemoveFromEventList( &( pxQueue->xTasksWaitingToReceive ) ) != pdF
 1438              		.loc 1 1163 55
 1439 00e8 3B6C     		ldr	r3, [r7, #64]
 1440 00ea 2433     		adds	r3, r3, #36
 1441              		.loc 1 1163 29
 1442 00ec 1846     		mov	r0, r3
 1443 00ee FFF7FEFF 		bl	xTaskRemoveFromEventList
 1444 00f2 0346     		mov	r3, r0
 1445              		.loc 1 1163 27
 1446 00f4 002B     		cmp	r3, #0
 1447 00f6 25D0     		beq	.L97
1164:ThirdParty/FreeRTOS/queue.c ****                         {
1165:ThirdParty/FreeRTOS/queue.c ****                             /* The task waiting has a higher priority so record that a
1166:ThirdParty/FreeRTOS/queue.c ****                              * context switch is required. */
1167:ThirdParty/FreeRTOS/queue.c ****                             if( pxHigherPriorityTaskWoken != NULL )
 1448              		.loc 1 1167 31
 1449 00f8 7B68     		ldr	r3, [r7, #4]
 1450 00fa 002B     		cmp	r3, #0
 1451 00fc 22D0     		beq	.L97
1168:ThirdParty/FreeRTOS/queue.c ****                             {
1169:ThirdParty/FreeRTOS/queue.c ****                                 *pxHigherPriorityTaskWoken = pdTRUE;
 1452              		.loc 1 1169 60
 1453 00fe 7B68     		ldr	r3, [r7, #4]
 1454 0100 0122     		movs	r2, #1
ARM GAS  C:\Users\Admin\AppData\Local\Temp\ccYAfxe2.s 			page 51


 1455 0102 1A60     		str	r2, [r3]
 1456 0104 1EE0     		b	.L97
 1457              	.L96:
 1458              	.LBB143:
1170:ThirdParty/FreeRTOS/queue.c ****                             }
1171:ThirdParty/FreeRTOS/queue.c ****                             else
1172:ThirdParty/FreeRTOS/queue.c ****                             {
1173:ThirdParty/FreeRTOS/queue.c ****                                 mtCOVERAGE_TEST_MARKER();
1174:ThirdParty/FreeRTOS/queue.c ****                             }
1175:ThirdParty/FreeRTOS/queue.c ****                         }
1176:ThirdParty/FreeRTOS/queue.c ****                         else
1177:ThirdParty/FreeRTOS/queue.c ****                         {
1178:ThirdParty/FreeRTOS/queue.c ****                             mtCOVERAGE_TEST_MARKER();
1179:ThirdParty/FreeRTOS/queue.c ****                         }
1180:ThirdParty/FreeRTOS/queue.c ****                     }
1181:ThirdParty/FreeRTOS/queue.c ****                     else
1182:ThirdParty/FreeRTOS/queue.c ****                     {
1183:ThirdParty/FreeRTOS/queue.c ****                         mtCOVERAGE_TEST_MARKER();
1184:ThirdParty/FreeRTOS/queue.c ****                     }
1185:ThirdParty/FreeRTOS/queue.c **** 
1186:ThirdParty/FreeRTOS/queue.c ****                     /* Not used in this path. */
1187:ThirdParty/FreeRTOS/queue.c ****                     ( void ) uxPreviousMessagesWaiting;
1188:ThirdParty/FreeRTOS/queue.c ****                 }
1189:ThirdParty/FreeRTOS/queue.c ****                 #endif /* configUSE_QUEUE_SETS */
1190:ThirdParty/FreeRTOS/queue.c ****             }
1191:ThirdParty/FreeRTOS/queue.c ****             else
1192:ThirdParty/FreeRTOS/queue.c ****             {
1193:ThirdParty/FreeRTOS/queue.c ****                 /* Increment the lock count so the task that unlocks the queue
1194:ThirdParty/FreeRTOS/queue.c ****                  * knows that data was posted while it was locked. */
1195:ThirdParty/FreeRTOS/queue.c ****                 prvIncrementQueueTxLock( pxQueue, cTxLock );
 1459              		.loc 1 1195 17
 1460 0106 FFF7FEFF 		bl	uxTaskGetNumberOfTasks
 1461 010a 3863     		str	r0, [r7, #48]
 1462 010c 97F93B30 		ldrsb	r3, [r7, #59]
 1463 0110 3A6B     		ldr	r2, [r7, #48]
 1464 0112 9A42     		cmp	r2, r3
 1465 0114 16D9     		bls	.L97
 1466              		.loc 1 1195 17 is_stmt 0 discriminator 1
 1467 0116 97F93B30 		ldrsb	r3, [r7, #59]
 1468 011a 7F2B     		cmp	r3, #127
 1469 011c 0AD1     		bne	.L98
 1470              	.LBB144:
 1471              	.LBB145:
 198:ThirdParty/FreeRTOS/portable/GCC/ARM_CM4F/portmacro.h ****         (
 1472              		.loc 2 198 9 is_stmt 1
 1473              		.syntax unified
 1474              	@ 198 "ThirdParty/FreeRTOS/portable/GCC/ARM_CM4F/portmacro.h" 1
 1475 011e 4FF05003 			mov r3, #80												
 1476 0122 83F31188 		msr basepri, r3											
 1477 0126 BFF36F8F 		isb														
 1478 012a BFF34F8F 		dsb														
 1479              	
 1480              	@ 0 "" 2
 1481              		.thumb
 1482              		.syntax unified
 1483 012e BB61     		str	r3, [r7, #24]
 206:ThirdParty/FreeRTOS/portable/GCC/ARM_CM4F/portmacro.h **** 
ARM GAS  C:\Users\Admin\AppData\Local\Temp\ccYAfxe2.s 			page 52


 1484              		.loc 2 206 5
 1485 0130 00BF     		nop
 1486              	.L99:
 1487              	.LBE145:
 1488              	.LBE144:
 1489              		.loc 1 1195 17 discriminator 6
 1490 0132 FEE7     		b	.L99
 1491              	.L98:
 1492              		.loc 1 1195 17 is_stmt 0 discriminator 3
 1493 0134 97F83B30 		ldrb	r3, [r7, #59]	@ zero_extendqisi2
 1494 0138 0133     		adds	r3, r3, #1
 1495 013a DBB2     		uxtb	r3, r3
 1496 013c 5AB2     		sxtb	r2, r3
 1497 013e 3B6C     		ldr	r3, [r7, #64]
 1498 0140 83F84520 		strb	r2, [r3, #69]
 1499              	.L97:
 1500              	.LBE143:
1196:ThirdParty/FreeRTOS/queue.c ****             }
1197:ThirdParty/FreeRTOS/queue.c **** 
1198:ThirdParty/FreeRTOS/queue.c ****             xReturn = pdPASS;
 1501              		.loc 1 1198 21 is_stmt 1
 1502 0144 0123     		movs	r3, #1
 1503 0146 7B64     		str	r3, [r7, #68]
 1504              	.LBE142:
1084:ThirdParty/FreeRTOS/queue.c ****             const int8_t cTxLock = pxQueue->cTxLock;
 1505              		.loc 1 1084 9
 1506 0148 01E0     		b	.L100
 1507              	.L95:
1199:ThirdParty/FreeRTOS/queue.c ****         }
1200:ThirdParty/FreeRTOS/queue.c ****         else
1201:ThirdParty/FreeRTOS/queue.c ****         {
1202:ThirdParty/FreeRTOS/queue.c ****             traceQUEUE_SEND_FROM_ISR_FAILED( pxQueue );
1203:ThirdParty/FreeRTOS/queue.c ****             xReturn = errQUEUE_FULL;
 1508              		.loc 1 1203 21
 1509 014a 0023     		movs	r3, #0
 1510 014c 7B64     		str	r3, [r7, #68]
 1511              	.L100:
 1512 014e FB6B     		ldr	r3, [r7, #60]
 1513 0150 7B61     		str	r3, [r7, #20]
 1514              	.LBB146:
 1515              	.LBB147:
 227:ThirdParty/FreeRTOS/portable/GCC/ARM_CM4F/portmacro.h ****     }
 228:ThirdParty/FreeRTOS/portable/GCC/ARM_CM4F/portmacro.h **** /*-----------------------------------------------------------*/
 229:ThirdParty/FreeRTOS/portable/GCC/ARM_CM4F/portmacro.h **** 
 230:ThirdParty/FreeRTOS/portable/GCC/ARM_CM4F/portmacro.h ****     portFORCE_INLINE static void vPortSetBASEPRI( uint32_t ulNewMaskValue )
 231:ThirdParty/FreeRTOS/portable/GCC/ARM_CM4F/portmacro.h ****     {
 232:ThirdParty/FreeRTOS/portable/GCC/ARM_CM4F/portmacro.h ****         __asm volatile
 1516              		.loc 2 232 9
 1517 0152 7B69     		ldr	r3, [r7, #20]
 1518              		.syntax unified
 1519              	@ 232 "ThirdParty/FreeRTOS/portable/GCC/ARM_CM4F/portmacro.h" 1
 1520 0154 83F31188 			msr basepri, r3	
 1521              	@ 0 "" 2
 233:ThirdParty/FreeRTOS/portable/GCC/ARM_CM4F/portmacro.h ****         (
 234:ThirdParty/FreeRTOS/portable/GCC/ARM_CM4F/portmacro.h ****             "	msr basepri, %0	"::"r" ( ulNewMaskValue ) : "memory"
 235:ThirdParty/FreeRTOS/portable/GCC/ARM_CM4F/portmacro.h ****         );
 236:ThirdParty/FreeRTOS/portable/GCC/ARM_CM4F/portmacro.h ****     }
ARM GAS  C:\Users\Admin\AppData\Local\Temp\ccYAfxe2.s 			page 53


 1522              		.loc 2 236 5
 1523              		.thumb
 1524              		.syntax unified
 1525 0158 00BF     		nop
 1526              	.LBE147:
 1527              	.LBE146:
1204:ThirdParty/FreeRTOS/queue.c ****         }
1205:ThirdParty/FreeRTOS/queue.c ****     }
1206:ThirdParty/FreeRTOS/queue.c ****     portCLEAR_INTERRUPT_MASK_FROM_ISR( uxSavedInterruptStatus );
1207:ThirdParty/FreeRTOS/queue.c **** 
1208:ThirdParty/FreeRTOS/queue.c ****     return xReturn;
 1528              		.loc 1 1208 12
 1529 015a 7B6C     		ldr	r3, [r7, #68]
1209:ThirdParty/FreeRTOS/queue.c **** }
 1530              		.loc 1 1209 1
 1531 015c 1846     		mov	r0, r3
 1532 015e 4837     		adds	r7, r7, #72
 1533              	.LCFI48:
 1534              		.cfi_def_cfa_offset 8
 1535 0160 BD46     		mov	sp, r7
 1536              	.LCFI49:
 1537              		.cfi_def_cfa_register 13
 1538              		@ sp needed
 1539 0162 80BD     		pop	{r7, pc}
 1540              		.cfi_endproc
 1541              	.LFE14:
 1543              		.section	.text.xQueueGiveFromISR,"ax",%progbits
 1544              		.align	1
 1545              		.global	xQueueGiveFromISR
 1546              		.syntax unified
 1547              		.thumb
 1548              		.thumb_func
 1550              	xQueueGiveFromISR:
 1551              	.LFB15:
1210:ThirdParty/FreeRTOS/queue.c **** /*-----------------------------------------------------------*/
1211:ThirdParty/FreeRTOS/queue.c **** 
1212:ThirdParty/FreeRTOS/queue.c **** BaseType_t xQueueGiveFromISR( QueueHandle_t xQueue,
1213:ThirdParty/FreeRTOS/queue.c ****                               BaseType_t * const pxHigherPriorityTaskWoken )
1214:ThirdParty/FreeRTOS/queue.c **** {
 1552              		.loc 1 1214 1
 1553              		.cfi_startproc
 1554              		@ args = 0, pretend = 0, frame = 64
 1555              		@ frame_needed = 1, uses_anonymous_args = 0
 1556 0000 80B5     		push	{r7, lr}
 1557              	.LCFI50:
 1558              		.cfi_def_cfa_offset 8
 1559              		.cfi_offset 7, -8
 1560              		.cfi_offset 14, -4
 1561 0002 90B0     		sub	sp, sp, #64
 1562              	.LCFI51:
 1563              		.cfi_def_cfa_offset 72
 1564 0004 00AF     		add	r7, sp, #0
 1565              	.LCFI52:
 1566              		.cfi_def_cfa_register 7
 1567 0006 7860     		str	r0, [r7, #4]
 1568 0008 3960     		str	r1, [r7]
1215:ThirdParty/FreeRTOS/queue.c ****     BaseType_t xReturn;
ARM GAS  C:\Users\Admin\AppData\Local\Temp\ccYAfxe2.s 			page 54


1216:ThirdParty/FreeRTOS/queue.c ****     UBaseType_t uxSavedInterruptStatus;
1217:ThirdParty/FreeRTOS/queue.c ****     Queue_t * const pxQueue = xQueue;
 1569              		.loc 1 1217 21
 1570 000a 7B68     		ldr	r3, [r7, #4]
 1571 000c BB63     		str	r3, [r7, #56]
1218:ThirdParty/FreeRTOS/queue.c **** 
1219:ThirdParty/FreeRTOS/queue.c ****     /* Similar to xQueueGenericSendFromISR() but used with semaphores where the
1220:ThirdParty/FreeRTOS/queue.c ****      * item size is 0.  Don't directly wake a task that was blocked on a queue
1221:ThirdParty/FreeRTOS/queue.c ****      * read, instead return a flag to say whether a context switch is required or
1222:ThirdParty/FreeRTOS/queue.c ****      * not (i.e. has a task with a higher priority than us been woken by this
1223:ThirdParty/FreeRTOS/queue.c ****      * post). */
1224:ThirdParty/FreeRTOS/queue.c **** 
1225:ThirdParty/FreeRTOS/queue.c ****     configASSERT( pxQueue );
 1572              		.loc 1 1225 5
 1573 000e BB6B     		ldr	r3, [r7, #56]
 1574 0010 002B     		cmp	r3, #0
 1575 0012 0AD1     		bne	.L103
 1576              	.LBB148:
 1577              	.LBB149:
 198:ThirdParty/FreeRTOS/portable/GCC/ARM_CM4F/portmacro.h ****         (
 1578              		.loc 2 198 9
 1579              		.syntax unified
 1580              	@ 198 "ThirdParty/FreeRTOS/portable/GCC/ARM_CM4F/portmacro.h" 1
 1581 0014 4FF05003 			mov r3, #80												
 1582 0018 83F31188 		msr basepri, r3											
 1583 001c BFF36F8F 		isb														
 1584 0020 BFF34F8F 		dsb														
 1585              	
 1586              	@ 0 "" 2
 1587              		.thumb
 1588              		.syntax unified
 1589 0024 7B62     		str	r3, [r7, #36]
 206:ThirdParty/FreeRTOS/portable/GCC/ARM_CM4F/portmacro.h **** 
 1590              		.loc 2 206 5
 1591 0026 00BF     		nop
 1592              	.L104:
 1593              	.LBE149:
 1594              	.LBE148:
 1595              		.loc 1 1225 5 discriminator 1
 1596 0028 FEE7     		b	.L104
 1597              	.L103:
1226:ThirdParty/FreeRTOS/queue.c **** 
1227:ThirdParty/FreeRTOS/queue.c ****     /* xQueueGenericSendFromISR() should be used instead of xQueueGiveFromISR()
1228:ThirdParty/FreeRTOS/queue.c ****      * if the item size is not 0. */
1229:ThirdParty/FreeRTOS/queue.c ****     configASSERT( pxQueue->uxItemSize == 0 );
 1598              		.loc 1 1229 5
 1599 002a BB6B     		ldr	r3, [r7, #56]
 1600 002c 1B6C     		ldr	r3, [r3, #64]
 1601 002e 002B     		cmp	r3, #0
 1602 0030 0AD0     		beq	.L105
 1603              	.LBB150:
 1604              	.LBB151:
 198:ThirdParty/FreeRTOS/portable/GCC/ARM_CM4F/portmacro.h ****         (
 1605              		.loc 2 198 9
 1606              		.syntax unified
 1607              	@ 198 "ThirdParty/FreeRTOS/portable/GCC/ARM_CM4F/portmacro.h" 1
 1608 0032 4FF05003 			mov r3, #80												
ARM GAS  C:\Users\Admin\AppData\Local\Temp\ccYAfxe2.s 			page 55


 1609 0036 83F31188 		msr basepri, r3											
 1610 003a BFF36F8F 		isb														
 1611 003e BFF34F8F 		dsb														
 1612              	
 1613              	@ 0 "" 2
 1614              		.thumb
 1615              		.syntax unified
 1616 0042 3B62     		str	r3, [r7, #32]
 206:ThirdParty/FreeRTOS/portable/GCC/ARM_CM4F/portmacro.h **** 
 1617              		.loc 2 206 5
 1618 0044 00BF     		nop
 1619              	.L106:
 1620              	.LBE151:
 1621              	.LBE150:
 1622              		.loc 1 1229 5 discriminator 2
 1623 0046 FEE7     		b	.L106
 1624              	.L105:
1230:ThirdParty/FreeRTOS/queue.c **** 
1231:ThirdParty/FreeRTOS/queue.c ****     /* Normally a mutex would not be given from an interrupt, especially if
1232:ThirdParty/FreeRTOS/queue.c ****      * there is a mutex holder, as priority inheritance makes no sense for an
1233:ThirdParty/FreeRTOS/queue.c ****      * interrupts, only tasks. */
1234:ThirdParty/FreeRTOS/queue.c ****     configASSERT( !( ( pxQueue->uxQueueType == queueQUEUE_IS_MUTEX ) && ( pxQueue->u.xSemaphore.xMu
 1625              		.loc 1 1234 5
 1626 0048 BB6B     		ldr	r3, [r7, #56]
 1627 004a 1B68     		ldr	r3, [r3]
 1628 004c 002B     		cmp	r3, #0
 1629 004e 03D1     		bne	.L107
 1630              		.loc 1 1234 5 is_stmt 0 discriminator 2
 1631 0050 BB6B     		ldr	r3, [r7, #56]
 1632 0052 9B68     		ldr	r3, [r3, #8]
 1633 0054 002B     		cmp	r3, #0
 1634 0056 01D1     		bne	.L108
 1635              	.L107:
 1636              		.loc 1 1234 5 discriminator 3
 1637 0058 0123     		movs	r3, #1
 1638 005a 00E0     		b	.L109
 1639              	.L108:
 1640              		.loc 1 1234 5 discriminator 4
 1641 005c 0023     		movs	r3, #0
 1642              	.L109:
 1643              		.loc 1 1234 5 discriminator 6
 1644 005e 002B     		cmp	r3, #0
 1645 0060 0AD1     		bne	.L110
 1646              	.LBB152:
 1647              	.LBB153:
 198:ThirdParty/FreeRTOS/portable/GCC/ARM_CM4F/portmacro.h ****         (
 1648              		.loc 2 198 9 is_stmt 1
 1649              		.syntax unified
 1650              	@ 198 "ThirdParty/FreeRTOS/portable/GCC/ARM_CM4F/portmacro.h" 1
 1651 0062 4FF05003 			mov r3, #80												
 1652 0066 83F31188 		msr basepri, r3											
 1653 006a BFF36F8F 		isb														
 1654 006e BFF34F8F 		dsb														
 1655              	
 1656              	@ 0 "" 2
 1657              		.thumb
 1658              		.syntax unified
ARM GAS  C:\Users\Admin\AppData\Local\Temp\ccYAfxe2.s 			page 56


 1659 0072 FB61     		str	r3, [r7, #28]
 206:ThirdParty/FreeRTOS/portable/GCC/ARM_CM4F/portmacro.h **** 
 1660              		.loc 2 206 5
 1661 0074 00BF     		nop
 1662              	.L111:
 1663              	.LBE153:
 1664              	.LBE152:
 1665              		.loc 1 1234 5 discriminator 3
 1666 0076 FEE7     		b	.L111
 1667              	.L110:
1235:ThirdParty/FreeRTOS/queue.c **** 
1236:ThirdParty/FreeRTOS/queue.c ****     /* RTOS ports that support interrupt nesting have the concept of a maximum
1237:ThirdParty/FreeRTOS/queue.c ****      * system call (or maximum API call) interrupt priority.  Interrupts that are
1238:ThirdParty/FreeRTOS/queue.c ****      * above the maximum system call priority are kept permanently enabled, even
1239:ThirdParty/FreeRTOS/queue.c ****      * when the RTOS kernel is in a critical section, but cannot make any calls to
1240:ThirdParty/FreeRTOS/queue.c ****      * FreeRTOS API functions.  If configASSERT() is defined in FreeRTOSConfig.h
1241:ThirdParty/FreeRTOS/queue.c ****      * then portASSERT_IF_INTERRUPT_PRIORITY_INVALID() will result in an assertion
1242:ThirdParty/FreeRTOS/queue.c ****      * failure if a FreeRTOS API function is called from an interrupt that has been
1243:ThirdParty/FreeRTOS/queue.c ****      * assigned a priority above the configured maximum system call priority.
1244:ThirdParty/FreeRTOS/queue.c ****      * Only FreeRTOS functions that end in FromISR can be called from interrupts
1245:ThirdParty/FreeRTOS/queue.c ****      * that have been assigned a priority at or (logically) below the maximum
1246:ThirdParty/FreeRTOS/queue.c ****      * system call interrupt priority.  FreeRTOS maintains a separate interrupt
1247:ThirdParty/FreeRTOS/queue.c ****      * safe API to ensure interrupt entry is as fast and as simple as possible.
1248:ThirdParty/FreeRTOS/queue.c ****      * More information (albeit Cortex-M specific) is provided on the following
1249:ThirdParty/FreeRTOS/queue.c ****      * link: https://www.FreeRTOS.org/RTOS-Cortex-M3-M4.html */
1250:ThirdParty/FreeRTOS/queue.c ****     portASSERT_IF_INTERRUPT_PRIORITY_INVALID();
 1668              		.loc 1 1250 5
 1669 0078 FFF7FEFF 		bl	vPortValidateInterruptPriority
 1670              	.LBB154:
 1671              	.LBB155:
 214:ThirdParty/FreeRTOS/portable/GCC/ARM_CM4F/portmacro.h ****         (
 1672              		.loc 2 214 9
 1673              		.syntax unified
 1674              	@ 214 "ThirdParty/FreeRTOS/portable/GCC/ARM_CM4F/portmacro.h" 1
 1675 007c EFF31182 			mrs r2, basepri											
 1676 0080 4FF05003 		mov r3, #80												
 1677 0084 83F31188 		msr basepri, r3											
 1678 0088 BFF36F8F 		isb														
 1679 008c BFF34F8F 		dsb														
 1680              	
 1681              	@ 0 "" 2
 1682              		.thumb
 1683              		.syntax unified
 1684 0090 BA61     		str	r2, [r7, #24]
 1685 0092 7B61     		str	r3, [r7, #20]
 226:ThirdParty/FreeRTOS/portable/GCC/ARM_CM4F/portmacro.h ****     }
 1686              		.loc 2 226 16
 1687 0094 BB69     		ldr	r3, [r7, #24]
 1688              	.LBE155:
 1689              	.LBE154:
1251:ThirdParty/FreeRTOS/queue.c **** 
1252:ThirdParty/FreeRTOS/queue.c ****     uxSavedInterruptStatus = portSET_INTERRUPT_MASK_FROM_ISR();
 1690              		.loc 1 1252 30
 1691 0096 7B63     		str	r3, [r7, #52]
 1692              	.LBB156:
1253:ThirdParty/FreeRTOS/queue.c ****     {
1254:ThirdParty/FreeRTOS/queue.c ****         const UBaseType_t uxMessagesWaiting = pxQueue->uxMessagesWaiting;
ARM GAS  C:\Users\Admin\AppData\Local\Temp\ccYAfxe2.s 			page 57


 1693              		.loc 1 1254 27
 1694 0098 BB6B     		ldr	r3, [r7, #56]
 1695 009a 9B6B     		ldr	r3, [r3, #56]
 1696 009c 3B63     		str	r3, [r7, #48]
1255:ThirdParty/FreeRTOS/queue.c **** 
1256:ThirdParty/FreeRTOS/queue.c ****         /* When the queue is used to implement a semaphore no data is ever
1257:ThirdParty/FreeRTOS/queue.c ****          * moved through the queue but it is still valid to see if the queue 'has
1258:ThirdParty/FreeRTOS/queue.c ****          * space'. */
1259:ThirdParty/FreeRTOS/queue.c ****         if( uxMessagesWaiting < pxQueue->uxLength )
 1697              		.loc 1 1259 40
 1698 009e BB6B     		ldr	r3, [r7, #56]
 1699 00a0 DB6B     		ldr	r3, [r3, #60]
 1700              		.loc 1 1259 11
 1701 00a2 3A6B     		ldr	r2, [r7, #48]
 1702 00a4 9A42     		cmp	r2, r3
 1703 00a6 42D2     		bcs	.L113
 1704              	.LBB157:
1260:ThirdParty/FreeRTOS/queue.c ****         {
1261:ThirdParty/FreeRTOS/queue.c ****             const int8_t cTxLock = pxQueue->cTxLock;
 1705              		.loc 1 1261 26
 1706 00a8 BB6B     		ldr	r3, [r7, #56]
 1707 00aa 93F84530 		ldrb	r3, [r3, #69]
 1708 00ae 87F82F30 		strb	r3, [r7, #47]
1262:ThirdParty/FreeRTOS/queue.c **** 
1263:ThirdParty/FreeRTOS/queue.c ****             traceQUEUE_SEND_FROM_ISR( pxQueue );
1264:ThirdParty/FreeRTOS/queue.c **** 
1265:ThirdParty/FreeRTOS/queue.c ****             /* A task can only have an inherited priority if it is a mutex
1266:ThirdParty/FreeRTOS/queue.c ****              * holder - and if there is a mutex holder then the mutex cannot be
1267:ThirdParty/FreeRTOS/queue.c ****              * given from an ISR.  As this is the ISR version of the function it
1268:ThirdParty/FreeRTOS/queue.c ****              * can be assumed there is no mutex holder and no need to determine if
1269:ThirdParty/FreeRTOS/queue.c ****              * priority disinheritance is needed.  Simply increase the count of
1270:ThirdParty/FreeRTOS/queue.c ****              * messages (semaphores) available. */
1271:ThirdParty/FreeRTOS/queue.c ****             pxQueue->uxMessagesWaiting = uxMessagesWaiting + ( UBaseType_t ) 1;
 1709              		.loc 1 1271 60
 1710 00b2 3B6B     		ldr	r3, [r7, #48]
 1711 00b4 5A1C     		adds	r2, r3, #1
 1712              		.loc 1 1271 40
 1713 00b6 BB6B     		ldr	r3, [r7, #56]
 1714 00b8 9A63     		str	r2, [r3, #56]
1272:ThirdParty/FreeRTOS/queue.c **** 
1273:ThirdParty/FreeRTOS/queue.c ****             /* The event list is not altered if the queue is locked.  This will
1274:ThirdParty/FreeRTOS/queue.c ****              * be done when the queue is unlocked later. */
1275:ThirdParty/FreeRTOS/queue.c ****             if( cTxLock == queueUNLOCKED )
 1715              		.loc 1 1275 15
 1716 00ba 97F92F30 		ldrsb	r3, [r7, #47]
 1717 00be B3F1FF3F 		cmp	r3, #-1
 1718 00c2 12D1     		bne	.L114
1276:ThirdParty/FreeRTOS/queue.c ****             {
1277:ThirdParty/FreeRTOS/queue.c ****                 #if ( configUSE_QUEUE_SETS == 1 )
1278:ThirdParty/FreeRTOS/queue.c ****                 {
1279:ThirdParty/FreeRTOS/queue.c ****                     if( pxQueue->pxQueueSetContainer != NULL )
1280:ThirdParty/FreeRTOS/queue.c ****                     {
1281:ThirdParty/FreeRTOS/queue.c ****                         if( prvNotifyQueueSetContainer( pxQueue ) != pdFALSE )
1282:ThirdParty/FreeRTOS/queue.c ****                         {
1283:ThirdParty/FreeRTOS/queue.c ****                             /* The semaphore is a member of a queue set, and
1284:ThirdParty/FreeRTOS/queue.c ****                              * posting to the queue set caused a higher priority
1285:ThirdParty/FreeRTOS/queue.c ****                              * task to unblock.  A context switch is required. */
ARM GAS  C:\Users\Admin\AppData\Local\Temp\ccYAfxe2.s 			page 58


1286:ThirdParty/FreeRTOS/queue.c ****                             if( pxHigherPriorityTaskWoken != NULL )
1287:ThirdParty/FreeRTOS/queue.c ****                             {
1288:ThirdParty/FreeRTOS/queue.c ****                                 *pxHigherPriorityTaskWoken = pdTRUE;
1289:ThirdParty/FreeRTOS/queue.c ****                             }
1290:ThirdParty/FreeRTOS/queue.c ****                             else
1291:ThirdParty/FreeRTOS/queue.c ****                             {
1292:ThirdParty/FreeRTOS/queue.c ****                                 mtCOVERAGE_TEST_MARKER();
1293:ThirdParty/FreeRTOS/queue.c ****                             }
1294:ThirdParty/FreeRTOS/queue.c ****                         }
1295:ThirdParty/FreeRTOS/queue.c ****                         else
1296:ThirdParty/FreeRTOS/queue.c ****                         {
1297:ThirdParty/FreeRTOS/queue.c ****                             mtCOVERAGE_TEST_MARKER();
1298:ThirdParty/FreeRTOS/queue.c ****                         }
1299:ThirdParty/FreeRTOS/queue.c ****                     }
1300:ThirdParty/FreeRTOS/queue.c ****                     else
1301:ThirdParty/FreeRTOS/queue.c ****                     {
1302:ThirdParty/FreeRTOS/queue.c ****                         if( listLIST_IS_EMPTY( &( pxQueue->xTasksWaitingToReceive ) ) == pdFALSE )
1303:ThirdParty/FreeRTOS/queue.c ****                         {
1304:ThirdParty/FreeRTOS/queue.c ****                             if( xTaskRemoveFromEventList( &( pxQueue->xTasksWaitingToReceive ) ) !=
1305:ThirdParty/FreeRTOS/queue.c ****                             {
1306:ThirdParty/FreeRTOS/queue.c ****                                 /* The task waiting has a higher priority so
1307:ThirdParty/FreeRTOS/queue.c ****                                  *  record that a context switch is required. */
1308:ThirdParty/FreeRTOS/queue.c ****                                 if( pxHigherPriorityTaskWoken != NULL )
1309:ThirdParty/FreeRTOS/queue.c ****                                 {
1310:ThirdParty/FreeRTOS/queue.c ****                                     *pxHigherPriorityTaskWoken = pdTRUE;
1311:ThirdParty/FreeRTOS/queue.c ****                                 }
1312:ThirdParty/FreeRTOS/queue.c ****                                 else
1313:ThirdParty/FreeRTOS/queue.c ****                                 {
1314:ThirdParty/FreeRTOS/queue.c ****                                     mtCOVERAGE_TEST_MARKER();
1315:ThirdParty/FreeRTOS/queue.c ****                                 }
1316:ThirdParty/FreeRTOS/queue.c ****                             }
1317:ThirdParty/FreeRTOS/queue.c ****                             else
1318:ThirdParty/FreeRTOS/queue.c ****                             {
1319:ThirdParty/FreeRTOS/queue.c ****                                 mtCOVERAGE_TEST_MARKER();
1320:ThirdParty/FreeRTOS/queue.c ****                             }
1321:ThirdParty/FreeRTOS/queue.c ****                         }
1322:ThirdParty/FreeRTOS/queue.c ****                         else
1323:ThirdParty/FreeRTOS/queue.c ****                         {
1324:ThirdParty/FreeRTOS/queue.c ****                             mtCOVERAGE_TEST_MARKER();
1325:ThirdParty/FreeRTOS/queue.c ****                         }
1326:ThirdParty/FreeRTOS/queue.c ****                     }
1327:ThirdParty/FreeRTOS/queue.c ****                 }
1328:ThirdParty/FreeRTOS/queue.c ****                 #else /* configUSE_QUEUE_SETS */
1329:ThirdParty/FreeRTOS/queue.c ****                 {
1330:ThirdParty/FreeRTOS/queue.c ****                     if( listLIST_IS_EMPTY( &( pxQueue->xTasksWaitingToReceive ) ) == pdFALSE )
 1719              		.loc 1 1330 25
 1720 00c4 BB6B     		ldr	r3, [r7, #56]
 1721 00c6 5B6A     		ldr	r3, [r3, #36]
 1722              		.loc 1 1330 23
 1723 00c8 002B     		cmp	r3, #0
 1724 00ca 2DD0     		beq	.L115
1331:ThirdParty/FreeRTOS/queue.c ****                     {
1332:ThirdParty/FreeRTOS/queue.c ****                         if( xTaskRemoveFromEventList( &( pxQueue->xTasksWaitingToReceive ) ) != pdF
 1725              		.loc 1 1332 55
 1726 00cc BB6B     		ldr	r3, [r7, #56]
 1727 00ce 2433     		adds	r3, r3, #36
 1728              		.loc 1 1332 29
ARM GAS  C:\Users\Admin\AppData\Local\Temp\ccYAfxe2.s 			page 59


 1729 00d0 1846     		mov	r0, r3
 1730 00d2 FFF7FEFF 		bl	xTaskRemoveFromEventList
 1731 00d6 0346     		mov	r3, r0
 1732              		.loc 1 1332 27
 1733 00d8 002B     		cmp	r3, #0
 1734 00da 25D0     		beq	.L115
1333:ThirdParty/FreeRTOS/queue.c ****                         {
1334:ThirdParty/FreeRTOS/queue.c ****                             /* The task waiting has a higher priority so record that a
1335:ThirdParty/FreeRTOS/queue.c ****                              * context switch is required. */
1336:ThirdParty/FreeRTOS/queue.c ****                             if( pxHigherPriorityTaskWoken != NULL )
 1735              		.loc 1 1336 31
 1736 00dc 3B68     		ldr	r3, [r7]
 1737 00de 002B     		cmp	r3, #0
 1738 00e0 22D0     		beq	.L115
1337:ThirdParty/FreeRTOS/queue.c ****                             {
1338:ThirdParty/FreeRTOS/queue.c ****                                 *pxHigherPriorityTaskWoken = pdTRUE;
 1739              		.loc 1 1338 60
 1740 00e2 3B68     		ldr	r3, [r7]
 1741 00e4 0122     		movs	r2, #1
 1742 00e6 1A60     		str	r2, [r3]
 1743 00e8 1EE0     		b	.L115
 1744              	.L114:
 1745              	.LBB158:
1339:ThirdParty/FreeRTOS/queue.c ****                             }
1340:ThirdParty/FreeRTOS/queue.c ****                             else
1341:ThirdParty/FreeRTOS/queue.c ****                             {
1342:ThirdParty/FreeRTOS/queue.c ****                                 mtCOVERAGE_TEST_MARKER();
1343:ThirdParty/FreeRTOS/queue.c ****                             }
1344:ThirdParty/FreeRTOS/queue.c ****                         }
1345:ThirdParty/FreeRTOS/queue.c ****                         else
1346:ThirdParty/FreeRTOS/queue.c ****                         {
1347:ThirdParty/FreeRTOS/queue.c ****                             mtCOVERAGE_TEST_MARKER();
1348:ThirdParty/FreeRTOS/queue.c ****                         }
1349:ThirdParty/FreeRTOS/queue.c ****                     }
1350:ThirdParty/FreeRTOS/queue.c ****                     else
1351:ThirdParty/FreeRTOS/queue.c ****                     {
1352:ThirdParty/FreeRTOS/queue.c ****                         mtCOVERAGE_TEST_MARKER();
1353:ThirdParty/FreeRTOS/queue.c ****                     }
1354:ThirdParty/FreeRTOS/queue.c ****                 }
1355:ThirdParty/FreeRTOS/queue.c ****                 #endif /* configUSE_QUEUE_SETS */
1356:ThirdParty/FreeRTOS/queue.c ****             }
1357:ThirdParty/FreeRTOS/queue.c ****             else
1358:ThirdParty/FreeRTOS/queue.c ****             {
1359:ThirdParty/FreeRTOS/queue.c ****                 /* Increment the lock count so the task that unlocks the queue
1360:ThirdParty/FreeRTOS/queue.c ****                  * knows that data was posted while it was locked. */
1361:ThirdParty/FreeRTOS/queue.c ****                 prvIncrementQueueTxLock( pxQueue, cTxLock );
 1746              		.loc 1 1361 17
 1747 00ea FFF7FEFF 		bl	uxTaskGetNumberOfTasks
 1748 00ee B862     		str	r0, [r7, #40]
 1749 00f0 97F92F30 		ldrsb	r3, [r7, #47]
 1750 00f4 BA6A     		ldr	r2, [r7, #40]
 1751 00f6 9A42     		cmp	r2, r3
 1752 00f8 16D9     		bls	.L115
 1753              		.loc 1 1361 17 is_stmt 0 discriminator 1
 1754 00fa 97F92F30 		ldrsb	r3, [r7, #47]
 1755 00fe 7F2B     		cmp	r3, #127
 1756 0100 0AD1     		bne	.L116
ARM GAS  C:\Users\Admin\AppData\Local\Temp\ccYAfxe2.s 			page 60


 1757              	.LBB159:
 1758              	.LBB160:
 198:ThirdParty/FreeRTOS/portable/GCC/ARM_CM4F/portmacro.h ****         (
 1759              		.loc 2 198 9 is_stmt 1
 1760              		.syntax unified
 1761              	@ 198 "ThirdParty/FreeRTOS/portable/GCC/ARM_CM4F/portmacro.h" 1
 1762 0102 4FF05003 			mov r3, #80												
 1763 0106 83F31188 		msr basepri, r3											
 1764 010a BFF36F8F 		isb														
 1765 010e BFF34F8F 		dsb														
 1766              	
 1767              	@ 0 "" 2
 1768              		.thumb
 1769              		.syntax unified
 1770 0112 3B61     		str	r3, [r7, #16]
 206:ThirdParty/FreeRTOS/portable/GCC/ARM_CM4F/portmacro.h **** 
 1771              		.loc 2 206 5
 1772 0114 00BF     		nop
 1773              	.L117:
 1774              	.LBE160:
 1775              	.LBE159:
 1776              		.loc 1 1361 17 discriminator 6
 1777 0116 FEE7     		b	.L117
 1778              	.L116:
 1779              		.loc 1 1361 17 is_stmt 0 discriminator 3
 1780 0118 97F82F30 		ldrb	r3, [r7, #47]	@ zero_extendqisi2
 1781 011c 0133     		adds	r3, r3, #1
 1782 011e DBB2     		uxtb	r3, r3
 1783 0120 5AB2     		sxtb	r2, r3
 1784 0122 BB6B     		ldr	r3, [r7, #56]
 1785 0124 83F84520 		strb	r2, [r3, #69]
 1786              	.L115:
 1787              	.LBE158:
1362:ThirdParty/FreeRTOS/queue.c ****             }
1363:ThirdParty/FreeRTOS/queue.c **** 
1364:ThirdParty/FreeRTOS/queue.c ****             xReturn = pdPASS;
 1788              		.loc 1 1364 21 is_stmt 1
 1789 0128 0123     		movs	r3, #1
 1790 012a FB63     		str	r3, [r7, #60]
 1791              	.LBE157:
 1792 012c 01E0     		b	.L118
 1793              	.L113:
1365:ThirdParty/FreeRTOS/queue.c ****         }
1366:ThirdParty/FreeRTOS/queue.c ****         else
1367:ThirdParty/FreeRTOS/queue.c ****         {
1368:ThirdParty/FreeRTOS/queue.c ****             traceQUEUE_SEND_FROM_ISR_FAILED( pxQueue );
1369:ThirdParty/FreeRTOS/queue.c ****             xReturn = errQUEUE_FULL;
 1794              		.loc 1 1369 21
 1795 012e 0023     		movs	r3, #0
 1796 0130 FB63     		str	r3, [r7, #60]
 1797              	.L118:
 1798 0132 7B6B     		ldr	r3, [r7, #52]
 1799 0134 FB60     		str	r3, [r7, #12]
 1800              	.LBE156:
 1801              	.LBB161:
 1802              	.LBB162:
 232:ThirdParty/FreeRTOS/portable/GCC/ARM_CM4F/portmacro.h ****         (
ARM GAS  C:\Users\Admin\AppData\Local\Temp\ccYAfxe2.s 			page 61


 1803              		.loc 2 232 9
 1804 0136 FB68     		ldr	r3, [r7, #12]
 1805              		.syntax unified
 1806              	@ 232 "ThirdParty/FreeRTOS/portable/GCC/ARM_CM4F/portmacro.h" 1
 1807 0138 83F31188 			msr basepri, r3	
 1808              	@ 0 "" 2
 1809              		.loc 2 236 5
 1810              		.thumb
 1811              		.syntax unified
 1812 013c 00BF     		nop
 1813              	.LBE162:
 1814              	.LBE161:
1370:ThirdParty/FreeRTOS/queue.c ****         }
1371:ThirdParty/FreeRTOS/queue.c ****     }
1372:ThirdParty/FreeRTOS/queue.c ****     portCLEAR_INTERRUPT_MASK_FROM_ISR( uxSavedInterruptStatus );
1373:ThirdParty/FreeRTOS/queue.c **** 
1374:ThirdParty/FreeRTOS/queue.c ****     return xReturn;
 1815              		.loc 1 1374 12
 1816 013e FB6B     		ldr	r3, [r7, #60]
1375:ThirdParty/FreeRTOS/queue.c **** }
 1817              		.loc 1 1375 1
 1818 0140 1846     		mov	r0, r3
 1819 0142 4037     		adds	r7, r7, #64
 1820              	.LCFI53:
 1821              		.cfi_def_cfa_offset 8
 1822 0144 BD46     		mov	sp, r7
 1823              	.LCFI54:
 1824              		.cfi_def_cfa_register 13
 1825              		@ sp needed
 1826 0146 80BD     		pop	{r7, pc}
 1827              		.cfi_endproc
 1828              	.LFE15:
 1830              		.section	.text.xQueueReceive,"ax",%progbits
 1831              		.align	1
 1832              		.global	xQueueReceive
 1833              		.syntax unified
 1834              		.thumb
 1835              		.thumb_func
 1837              	xQueueReceive:
 1838              	.LFB16:
1376:ThirdParty/FreeRTOS/queue.c **** /*-----------------------------------------------------------*/
1377:ThirdParty/FreeRTOS/queue.c **** 
1378:ThirdParty/FreeRTOS/queue.c **** BaseType_t xQueueReceive( QueueHandle_t xQueue,
1379:ThirdParty/FreeRTOS/queue.c ****                           void * const pvBuffer,
1380:ThirdParty/FreeRTOS/queue.c ****                           TickType_t xTicksToWait )
1381:ThirdParty/FreeRTOS/queue.c **** {
 1839              		.loc 1 1381 1
 1840              		.cfi_startproc
 1841              		@ args = 0, pretend = 0, frame = 48
 1842              		@ frame_needed = 1, uses_anonymous_args = 0
 1843 0000 80B5     		push	{r7, lr}
 1844              	.LCFI55:
 1845              		.cfi_def_cfa_offset 8
 1846              		.cfi_offset 7, -8
 1847              		.cfi_offset 14, -4
 1848 0002 8CB0     		sub	sp, sp, #48
 1849              	.LCFI56:
ARM GAS  C:\Users\Admin\AppData\Local\Temp\ccYAfxe2.s 			page 62


 1850              		.cfi_def_cfa_offset 56
 1851 0004 00AF     		add	r7, sp, #0
 1852              	.LCFI57:
 1853              		.cfi_def_cfa_register 7
 1854 0006 F860     		str	r0, [r7, #12]
 1855 0008 B960     		str	r1, [r7, #8]
 1856 000a 7A60     		str	r2, [r7, #4]
1382:ThirdParty/FreeRTOS/queue.c ****     BaseType_t xEntryTimeSet = pdFALSE;
 1857              		.loc 1 1382 16
 1858 000c 0023     		movs	r3, #0
 1859 000e FB62     		str	r3, [r7, #44]
1383:ThirdParty/FreeRTOS/queue.c ****     TimeOut_t xTimeOut;
1384:ThirdParty/FreeRTOS/queue.c ****     Queue_t * const pxQueue = xQueue;
 1860              		.loc 1 1384 21
 1861 0010 FB68     		ldr	r3, [r7, #12]
 1862 0012 BB62     		str	r3, [r7, #40]
1385:ThirdParty/FreeRTOS/queue.c **** 
1386:ThirdParty/FreeRTOS/queue.c ****     /* Check the pointer is not NULL. */
1387:ThirdParty/FreeRTOS/queue.c ****     configASSERT( ( pxQueue ) );
 1863              		.loc 1 1387 5
 1864 0014 BB6A     		ldr	r3, [r7, #40]
 1865 0016 002B     		cmp	r3, #0
 1866 0018 0AD1     		bne	.L121
 1867              	.LBB163:
 1868              	.LBB164:
 198:ThirdParty/FreeRTOS/portable/GCC/ARM_CM4F/portmacro.h ****         (
 1869              		.loc 2 198 9
 1870              		.syntax unified
 1871              	@ 198 "ThirdParty/FreeRTOS/portable/GCC/ARM_CM4F/portmacro.h" 1
 1872 001a 4FF05003 			mov r3, #80												
 1873 001e 83F31188 		msr basepri, r3											
 1874 0022 BFF36F8F 		isb														
 1875 0026 BFF34F8F 		dsb														
 1876              	
 1877              	@ 0 "" 2
 1878              		.thumb
 1879              		.syntax unified
 1880 002a 3B62     		str	r3, [r7, #32]
 206:ThirdParty/FreeRTOS/portable/GCC/ARM_CM4F/portmacro.h **** 
 1881              		.loc 2 206 5
 1882 002c 00BF     		nop
 1883              	.L122:
 1884              	.LBE164:
 1885              	.LBE163:
 1886              		.loc 1 1387 5 discriminator 1
 1887 002e FEE7     		b	.L122
 1888              	.L121:
1388:ThirdParty/FreeRTOS/queue.c **** 
1389:ThirdParty/FreeRTOS/queue.c ****     /* The buffer into which data is received can only be NULL if the data size
1390:ThirdParty/FreeRTOS/queue.c ****      * is zero (so no data is copied into the buffer). */
1391:ThirdParty/FreeRTOS/queue.c ****     configASSERT( !( ( ( pvBuffer ) == NULL ) && ( ( pxQueue )->uxItemSize != ( UBaseType_t ) 0U ) 
 1889              		.loc 1 1391 5
 1890 0030 BB68     		ldr	r3, [r7, #8]
 1891 0032 002B     		cmp	r3, #0
 1892 0034 03D1     		bne	.L123
 1893              		.loc 1 1391 5 is_stmt 0 discriminator 2
 1894 0036 BB6A     		ldr	r3, [r7, #40]
ARM GAS  C:\Users\Admin\AppData\Local\Temp\ccYAfxe2.s 			page 63


 1895 0038 1B6C     		ldr	r3, [r3, #64]
 1896 003a 002B     		cmp	r3, #0
 1897 003c 01D1     		bne	.L124
 1898              	.L123:
 1899              		.loc 1 1391 5 discriminator 3
 1900 003e 0123     		movs	r3, #1
 1901 0040 00E0     		b	.L125
 1902              	.L124:
 1903              		.loc 1 1391 5 discriminator 4
 1904 0042 0023     		movs	r3, #0
 1905              	.L125:
 1906              		.loc 1 1391 5 discriminator 6
 1907 0044 002B     		cmp	r3, #0
 1908 0046 0AD1     		bne	.L126
 1909              	.LBB165:
 1910              	.LBB166:
 198:ThirdParty/FreeRTOS/portable/GCC/ARM_CM4F/portmacro.h ****         (
 1911              		.loc 2 198 9 is_stmt 1
 1912              		.syntax unified
 1913              	@ 198 "ThirdParty/FreeRTOS/portable/GCC/ARM_CM4F/portmacro.h" 1
 1914 0048 4FF05003 			mov r3, #80												
 1915 004c 83F31188 		msr basepri, r3											
 1916 0050 BFF36F8F 		isb														
 1917 0054 BFF34F8F 		dsb														
 1918              	
 1919              	@ 0 "" 2
 1920              		.thumb
 1921              		.syntax unified
 1922 0058 FB61     		str	r3, [r7, #28]
 206:ThirdParty/FreeRTOS/portable/GCC/ARM_CM4F/portmacro.h **** 
 1923              		.loc 2 206 5
 1924 005a 00BF     		nop
 1925              	.L127:
 1926              	.LBE166:
 1927              	.LBE165:
 1928              		.loc 1 1391 5 discriminator 2
 1929 005c FEE7     		b	.L127
 1930              	.L126:
1392:ThirdParty/FreeRTOS/queue.c **** 
1393:ThirdParty/FreeRTOS/queue.c ****     /* Cannot block if the scheduler is suspended. */
1394:ThirdParty/FreeRTOS/queue.c ****     #if ( ( INCLUDE_xTaskGetSchedulerState == 1 ) || ( configUSE_TIMERS == 1 ) )
1395:ThirdParty/FreeRTOS/queue.c ****     {
1396:ThirdParty/FreeRTOS/queue.c ****         configASSERT( !( ( xTaskGetSchedulerState() == taskSCHEDULER_SUSPENDED ) && ( xTicksToWait 
 1931              		.loc 1 1396 9
 1932 005e FFF7FEFF 		bl	xTaskGetSchedulerState
 1933 0062 0346     		mov	r3, r0
 1934 0064 002B     		cmp	r3, #0
 1935 0066 02D1     		bne	.L128
 1936              		.loc 1 1396 9 is_stmt 0 discriminator 2
 1937 0068 7B68     		ldr	r3, [r7, #4]
 1938 006a 002B     		cmp	r3, #0
 1939 006c 01D1     		bne	.L129
 1940              	.L128:
 1941              		.loc 1 1396 9 discriminator 3
 1942 006e 0123     		movs	r3, #1
 1943 0070 00E0     		b	.L130
 1944              	.L129:
ARM GAS  C:\Users\Admin\AppData\Local\Temp\ccYAfxe2.s 			page 64


 1945              		.loc 1 1396 9 discriminator 4
 1946 0072 0023     		movs	r3, #0
 1947              	.L130:
 1948              		.loc 1 1396 9 discriminator 6
 1949 0074 002B     		cmp	r3, #0
 1950 0076 0AD1     		bne	.L131
 1951              	.LBB167:
 1952              	.LBB168:
 198:ThirdParty/FreeRTOS/portable/GCC/ARM_CM4F/portmacro.h ****         (
 1953              		.loc 2 198 9 is_stmt 1
 1954              		.syntax unified
 1955              	@ 198 "ThirdParty/FreeRTOS/portable/GCC/ARM_CM4F/portmacro.h" 1
 1956 0078 4FF05003 			mov r3, #80												
 1957 007c 83F31188 		msr basepri, r3											
 1958 0080 BFF36F8F 		isb														
 1959 0084 BFF34F8F 		dsb														
 1960              	
 1961              	@ 0 "" 2
 1962              		.thumb
 1963              		.syntax unified
 1964 0088 BB61     		str	r3, [r7, #24]
 206:ThirdParty/FreeRTOS/portable/GCC/ARM_CM4F/portmacro.h **** 
 1965              		.loc 2 206 5
 1966 008a 00BF     		nop
 1967              	.L132:
 1968              	.LBE168:
 1969              	.LBE167:
 1970              		.loc 1 1396 9 discriminator 3
 1971 008c FEE7     		b	.L132
 1972              	.L131:
1397:ThirdParty/FreeRTOS/queue.c ****     }
1398:ThirdParty/FreeRTOS/queue.c ****     #endif
1399:ThirdParty/FreeRTOS/queue.c **** 
1400:ThirdParty/FreeRTOS/queue.c ****     /*lint -save -e904  This function relaxes the coding standard somewhat to
1401:ThirdParty/FreeRTOS/queue.c ****      * allow return statements within the function itself.  This is done in the
1402:ThirdParty/FreeRTOS/queue.c ****      * interest of execution time efficiency. */
1403:ThirdParty/FreeRTOS/queue.c ****     for( ; ; )
1404:ThirdParty/FreeRTOS/queue.c ****     {
1405:ThirdParty/FreeRTOS/queue.c ****         taskENTER_CRITICAL();
 1973              		.loc 1 1405 9
 1974 008e FFF7FEFF 		bl	vPortEnterCritical
 1975              	.LBB169:
1406:ThirdParty/FreeRTOS/queue.c ****         {
1407:ThirdParty/FreeRTOS/queue.c ****             const UBaseType_t uxMessagesWaiting = pxQueue->uxMessagesWaiting;
 1976              		.loc 1 1407 31
 1977 0092 BB6A     		ldr	r3, [r7, #40]
 1978 0094 9B6B     		ldr	r3, [r3, #56]
 1979 0096 7B62     		str	r3, [r7, #36]
1408:ThirdParty/FreeRTOS/queue.c **** 
1409:ThirdParty/FreeRTOS/queue.c ****             /* Is there data in the queue now?  To be running the calling task
1410:ThirdParty/FreeRTOS/queue.c ****              * must be the highest priority task wanting to access the queue. */
1411:ThirdParty/FreeRTOS/queue.c ****             if( uxMessagesWaiting > ( UBaseType_t ) 0 )
 1980              		.loc 1 1411 15
 1981 0098 7B6A     		ldr	r3, [r7, #36]
 1982 009a 002B     		cmp	r3, #0
 1983 009c 14D0     		beq	.L133
1412:ThirdParty/FreeRTOS/queue.c ****             {
ARM GAS  C:\Users\Admin\AppData\Local\Temp\ccYAfxe2.s 			page 65


1413:ThirdParty/FreeRTOS/queue.c ****                 /* Data available, remove one item. */
1414:ThirdParty/FreeRTOS/queue.c ****                 prvCopyDataFromQueue( pxQueue, pvBuffer );
 1984              		.loc 1 1414 17
 1985 009e B968     		ldr	r1, [r7, #8]
 1986 00a0 B86A     		ldr	r0, [r7, #40]
 1987 00a2 FFF7FEFF 		bl	prvCopyDataFromQueue
1415:ThirdParty/FreeRTOS/queue.c ****                 traceQUEUE_RECEIVE( pxQueue );
1416:ThirdParty/FreeRTOS/queue.c ****                 pxQueue->uxMessagesWaiting = uxMessagesWaiting - ( UBaseType_t ) 1;
 1988              		.loc 1 1416 64
 1989 00a6 7B6A     		ldr	r3, [r7, #36]
 1990 00a8 5A1E     		subs	r2, r3, #1
 1991              		.loc 1 1416 44
 1992 00aa BB6A     		ldr	r3, [r7, #40]
 1993 00ac 9A63     		str	r2, [r3, #56]
1417:ThirdParty/FreeRTOS/queue.c **** 
1418:ThirdParty/FreeRTOS/queue.c ****                 /* There is now space in the queue, were any tasks waiting to
1419:ThirdParty/FreeRTOS/queue.c ****                  * post to the queue?  If so, unblock the highest priority waiting
1420:ThirdParty/FreeRTOS/queue.c ****                  * task. */
1421:ThirdParty/FreeRTOS/queue.c ****                 if( listLIST_IS_EMPTY( &( pxQueue->xTasksWaitingToSend ) ) == pdFALSE )
 1994              		.loc 1 1421 21
 1995 00ae BB6A     		ldr	r3, [r7, #40]
 1996 00b0 1B69     		ldr	r3, [r3, #16]
 1997              		.loc 1 1421 19
 1998 00b2 002B     		cmp	r3, #0
 1999 00b4 04D0     		beq	.L134
1422:ThirdParty/FreeRTOS/queue.c ****                 {
1423:ThirdParty/FreeRTOS/queue.c ****                     if( xTaskRemoveFromEventList( &( pxQueue->xTasksWaitingToSend ) ) != pdFALSE )
 2000              		.loc 1 1423 51
 2001 00b6 BB6A     		ldr	r3, [r7, #40]
 2002 00b8 1033     		adds	r3, r3, #16
 2003              		.loc 1 1423 25
 2004 00ba 1846     		mov	r0, r3
 2005 00bc FFF7FEFF 		bl	xTaskRemoveFromEventList
 2006              	.L134:
1424:ThirdParty/FreeRTOS/queue.c ****                     {
1425:ThirdParty/FreeRTOS/queue.c ****                         queueYIELD_IF_USING_PREEMPTION();
1426:ThirdParty/FreeRTOS/queue.c ****                     }
1427:ThirdParty/FreeRTOS/queue.c ****                     else
1428:ThirdParty/FreeRTOS/queue.c ****                     {
1429:ThirdParty/FreeRTOS/queue.c ****                         mtCOVERAGE_TEST_MARKER();
1430:ThirdParty/FreeRTOS/queue.c ****                     }
1431:ThirdParty/FreeRTOS/queue.c ****                 }
1432:ThirdParty/FreeRTOS/queue.c ****                 else
1433:ThirdParty/FreeRTOS/queue.c ****                 {
1434:ThirdParty/FreeRTOS/queue.c ****                     mtCOVERAGE_TEST_MARKER();
1435:ThirdParty/FreeRTOS/queue.c ****                 }
1436:ThirdParty/FreeRTOS/queue.c **** 
1437:ThirdParty/FreeRTOS/queue.c ****                 taskEXIT_CRITICAL();
 2007              		.loc 1 1437 17
 2008 00c0 FFF7FEFF 		bl	vPortExitCritical
1438:ThirdParty/FreeRTOS/queue.c ****                 return pdPASS;
 2009              		.loc 1 1438 24
 2010 00c4 0123     		movs	r3, #1
 2011 00c6 69E0     		b	.L143
 2012              	.L133:
1439:ThirdParty/FreeRTOS/queue.c ****             }
1440:ThirdParty/FreeRTOS/queue.c ****             else
ARM GAS  C:\Users\Admin\AppData\Local\Temp\ccYAfxe2.s 			page 66


1441:ThirdParty/FreeRTOS/queue.c ****             {
1442:ThirdParty/FreeRTOS/queue.c ****                 if( xTicksToWait == ( TickType_t ) 0 )
 2013              		.loc 1 1442 34
 2014 00c8 7B68     		ldr	r3, [r7, #4]
 2015              		.loc 1 1442 19
 2016 00ca 002B     		cmp	r3, #0
 2017 00cc 03D1     		bne	.L136
1443:ThirdParty/FreeRTOS/queue.c ****                 {
1444:ThirdParty/FreeRTOS/queue.c ****                     /* The queue was empty and no block time is specified (or
1445:ThirdParty/FreeRTOS/queue.c ****                      * the block time has expired) so leave now. */
1446:ThirdParty/FreeRTOS/queue.c ****                     taskEXIT_CRITICAL();
 2018              		.loc 1 1446 21
 2019 00ce FFF7FEFF 		bl	vPortExitCritical
1447:ThirdParty/FreeRTOS/queue.c ****                     traceQUEUE_RECEIVE_FAILED( pxQueue );
1448:ThirdParty/FreeRTOS/queue.c ****                     return errQUEUE_EMPTY;
 2020              		.loc 1 1448 28
 2021 00d2 0023     		movs	r3, #0
 2022 00d4 62E0     		b	.L143
 2023              	.L136:
1449:ThirdParty/FreeRTOS/queue.c ****                 }
1450:ThirdParty/FreeRTOS/queue.c ****                 else if( xEntryTimeSet == pdFALSE )
 2024              		.loc 1 1450 24
 2025 00d6 FB6A     		ldr	r3, [r7, #44]
 2026 00d8 002B     		cmp	r3, #0
 2027 00da 06D1     		bne	.L137
1451:ThirdParty/FreeRTOS/queue.c ****                 {
1452:ThirdParty/FreeRTOS/queue.c ****                     /* The queue was empty and a block time was specified so
1453:ThirdParty/FreeRTOS/queue.c ****                      * configure the timeout structure. */
1454:ThirdParty/FreeRTOS/queue.c ****                     vTaskInternalSetTimeOutState( &xTimeOut );
 2028              		.loc 1 1454 21
 2029 00dc 07F11003 		add	r3, r7, #16
 2030 00e0 1846     		mov	r0, r3
 2031 00e2 FFF7FEFF 		bl	vTaskInternalSetTimeOutState
1455:ThirdParty/FreeRTOS/queue.c ****                     xEntryTimeSet = pdTRUE;
 2032              		.loc 1 1455 35
 2033 00e6 0123     		movs	r3, #1
 2034 00e8 FB62     		str	r3, [r7, #44]
 2035              	.L137:
 2036              	.LBE169:
1456:ThirdParty/FreeRTOS/queue.c ****                 }
1457:ThirdParty/FreeRTOS/queue.c ****                 else
1458:ThirdParty/FreeRTOS/queue.c ****                 {
1459:ThirdParty/FreeRTOS/queue.c ****                     /* Entry time was already set. */
1460:ThirdParty/FreeRTOS/queue.c ****                     mtCOVERAGE_TEST_MARKER();
1461:ThirdParty/FreeRTOS/queue.c ****                 }
1462:ThirdParty/FreeRTOS/queue.c ****             }
1463:ThirdParty/FreeRTOS/queue.c ****         }
1464:ThirdParty/FreeRTOS/queue.c ****         taskEXIT_CRITICAL();
 2037              		.loc 1 1464 9
 2038 00ea FFF7FEFF 		bl	vPortExitCritical
1465:ThirdParty/FreeRTOS/queue.c **** 
1466:ThirdParty/FreeRTOS/queue.c ****         /* Interrupts and other tasks can send to and receive from the queue
1467:ThirdParty/FreeRTOS/queue.c ****          * now the critical section has been exited. */
1468:ThirdParty/FreeRTOS/queue.c **** 
1469:ThirdParty/FreeRTOS/queue.c ****         vTaskSuspendAll();
 2039              		.loc 1 1469 9
 2040 00ee FFF7FEFF 		bl	vTaskSuspendAll
ARM GAS  C:\Users\Admin\AppData\Local\Temp\ccYAfxe2.s 			page 67


1470:ThirdParty/FreeRTOS/queue.c ****         prvLockQueue( pxQueue );
 2041              		.loc 1 1470 9
 2042 00f2 FFF7FEFF 		bl	vPortEnterCritical
 2043 00f6 BB6A     		ldr	r3, [r7, #40]
 2044 00f8 93F84430 		ldrb	r3, [r3, #68]
 2045 00fc 5BB2     		sxtb	r3, r3
 2046 00fe B3F1FF3F 		cmp	r3, #-1
 2047 0102 03D1     		bne	.L138
 2048              		.loc 1 1470 9 is_stmt 0 discriminator 1
 2049 0104 BB6A     		ldr	r3, [r7, #40]
 2050 0106 0022     		movs	r2, #0
 2051 0108 83F84420 		strb	r2, [r3, #68]
 2052              	.L138:
 2053              		.loc 1 1470 9 discriminator 3
 2054 010c BB6A     		ldr	r3, [r7, #40]
 2055 010e 93F84530 		ldrb	r3, [r3, #69]
 2056 0112 5BB2     		sxtb	r3, r3
 2057 0114 B3F1FF3F 		cmp	r3, #-1
 2058 0118 03D1     		bne	.L139
 2059              		.loc 1 1470 9 discriminator 4
 2060 011a BB6A     		ldr	r3, [r7, #40]
 2061 011c 0022     		movs	r2, #0
 2062 011e 83F84520 		strb	r2, [r3, #69]
 2063              	.L139:
 2064              		.loc 1 1470 9 discriminator 6
 2065 0122 FFF7FEFF 		bl	vPortExitCritical
1471:ThirdParty/FreeRTOS/queue.c **** 
1472:ThirdParty/FreeRTOS/queue.c ****         /* Update the timeout state to see if it has expired yet. */
1473:ThirdParty/FreeRTOS/queue.c ****         if( xTaskCheckForTimeOut( &xTimeOut, &xTicksToWait ) == pdFALSE )
 2066              		.loc 1 1473 13 is_stmt 1 discriminator 6
 2067 0126 3A1D     		adds	r2, r7, #4
 2068 0128 07F11003 		add	r3, r7, #16
 2069 012c 1146     		mov	r1, r2
 2070 012e 1846     		mov	r0, r3
 2071 0130 FFF7FEFF 		bl	xTaskCheckForTimeOut
 2072 0134 0346     		mov	r3, r0
 2073              		.loc 1 1473 11 discriminator 6
 2074 0136 002B     		cmp	r3, #0
 2075 0138 23D1     		bne	.L140
1474:ThirdParty/FreeRTOS/queue.c ****         {
1475:ThirdParty/FreeRTOS/queue.c ****             /* The timeout has not expired.  If the queue is still empty place
1476:ThirdParty/FreeRTOS/queue.c ****              * the task on the list of tasks waiting to receive from the queue. */
1477:ThirdParty/FreeRTOS/queue.c ****             if( prvIsQueueEmpty( pxQueue ) != pdFALSE )
 2076              		.loc 1 1477 17
 2077 013a B86A     		ldr	r0, [r7, #40]
 2078 013c FFF7FEFF 		bl	prvIsQueueEmpty
 2079 0140 0346     		mov	r3, r0
 2080              		.loc 1 1477 15
 2081 0142 002B     		cmp	r3, #0
 2082 0144 17D0     		beq	.L141
1478:ThirdParty/FreeRTOS/queue.c ****             {
1479:ThirdParty/FreeRTOS/queue.c ****                 traceBLOCKING_ON_QUEUE_RECEIVE( pxQueue );
1480:ThirdParty/FreeRTOS/queue.c ****                 vTaskPlaceOnEventList( &( pxQueue->xTasksWaitingToReceive ), xTicksToWait );
 2083              		.loc 1 1480 17
 2084 0146 BB6A     		ldr	r3, [r7, #40]
 2085 0148 2433     		adds	r3, r3, #36
 2086 014a 7A68     		ldr	r2, [r7, #4]
ARM GAS  C:\Users\Admin\AppData\Local\Temp\ccYAfxe2.s 			page 68


 2087 014c 1146     		mov	r1, r2
 2088 014e 1846     		mov	r0, r3
 2089 0150 FFF7FEFF 		bl	vTaskPlaceOnEventList
1481:ThirdParty/FreeRTOS/queue.c ****                 prvUnlockQueue( pxQueue );
 2090              		.loc 1 1481 17
 2091 0154 B86A     		ldr	r0, [r7, #40]
 2092 0156 FFF7FEFF 		bl	prvUnlockQueue
1482:ThirdParty/FreeRTOS/queue.c **** 
1483:ThirdParty/FreeRTOS/queue.c ****                 if( xTaskResumeAll() == pdFALSE )
 2093              		.loc 1 1483 21
 2094 015a FFF7FEFF 		bl	xTaskResumeAll
 2095 015e 0346     		mov	r3, r0
 2096              		.loc 1 1483 19
 2097 0160 002B     		cmp	r3, #0
 2098 0162 94D1     		bne	.L131
1484:ThirdParty/FreeRTOS/queue.c ****                 {
1485:ThirdParty/FreeRTOS/queue.c ****                     portYIELD_WITHIN_API();
 2099              		.loc 1 1485 21
 2100 0164 0F4B     		ldr	r3, .L144
 2101 0166 4FF08052 		mov	r2, #268435456
 2102 016a 1A60     		str	r2, [r3]
 2103              		.syntax unified
 2104              	@ 1485 "ThirdParty/FreeRTOS/queue.c" 1
 2105 016c BFF34F8F 		dsb
 2106              	@ 0 "" 2
 2107              	@ 1485 "ThirdParty/FreeRTOS/queue.c" 1
 2108 0170 BFF36F8F 		isb
 2109              	@ 0 "" 2
 2110              		.thumb
 2111              		.syntax unified
 2112 0174 8BE7     		b	.L131
 2113              	.L141:
1486:ThirdParty/FreeRTOS/queue.c ****                 }
1487:ThirdParty/FreeRTOS/queue.c ****                 else
1488:ThirdParty/FreeRTOS/queue.c ****                 {
1489:ThirdParty/FreeRTOS/queue.c ****                     mtCOVERAGE_TEST_MARKER();
1490:ThirdParty/FreeRTOS/queue.c ****                 }
1491:ThirdParty/FreeRTOS/queue.c ****             }
1492:ThirdParty/FreeRTOS/queue.c ****             else
1493:ThirdParty/FreeRTOS/queue.c ****             {
1494:ThirdParty/FreeRTOS/queue.c ****                 /* The queue contains data again.  Loop back to try and read the
1495:ThirdParty/FreeRTOS/queue.c ****                  * data. */
1496:ThirdParty/FreeRTOS/queue.c ****                 prvUnlockQueue( pxQueue );
 2114              		.loc 1 1496 17
 2115 0176 B86A     		ldr	r0, [r7, #40]
 2116 0178 FFF7FEFF 		bl	prvUnlockQueue
1497:ThirdParty/FreeRTOS/queue.c ****                 ( void ) xTaskResumeAll();
 2117              		.loc 1 1497 26
 2118 017c FFF7FEFF 		bl	xTaskResumeAll
 2119 0180 85E7     		b	.L131
 2120              	.L140:
1498:ThirdParty/FreeRTOS/queue.c ****             }
1499:ThirdParty/FreeRTOS/queue.c ****         }
1500:ThirdParty/FreeRTOS/queue.c ****         else
1501:ThirdParty/FreeRTOS/queue.c ****         {
1502:ThirdParty/FreeRTOS/queue.c ****             /* Timed out.  If there is no data in the queue exit, otherwise loop
1503:ThirdParty/FreeRTOS/queue.c ****              * back and attempt to read the data. */
ARM GAS  C:\Users\Admin\AppData\Local\Temp\ccYAfxe2.s 			page 69


1504:ThirdParty/FreeRTOS/queue.c ****             prvUnlockQueue( pxQueue );
 2121              		.loc 1 1504 13
 2122 0182 B86A     		ldr	r0, [r7, #40]
 2123 0184 FFF7FEFF 		bl	prvUnlockQueue
1505:ThirdParty/FreeRTOS/queue.c ****             ( void ) xTaskResumeAll();
 2124              		.loc 1 1505 22
 2125 0188 FFF7FEFF 		bl	xTaskResumeAll
1506:ThirdParty/FreeRTOS/queue.c **** 
1507:ThirdParty/FreeRTOS/queue.c ****             if( prvIsQueueEmpty( pxQueue ) != pdFALSE )
 2126              		.loc 1 1507 17
 2127 018c B86A     		ldr	r0, [r7, #40]
 2128 018e FFF7FEFF 		bl	prvIsQueueEmpty
 2129 0192 0346     		mov	r3, r0
 2130              		.loc 1 1507 15
 2131 0194 002B     		cmp	r3, #0
 2132 0196 3FF47AAF 		beq	.L131
1508:ThirdParty/FreeRTOS/queue.c ****             {
1509:ThirdParty/FreeRTOS/queue.c ****                 traceQUEUE_RECEIVE_FAILED( pxQueue );
1510:ThirdParty/FreeRTOS/queue.c ****                 return errQUEUE_EMPTY;
 2133              		.loc 1 1510 24
 2134 019a 0023     		movs	r3, #0
 2135              	.L143:
1511:ThirdParty/FreeRTOS/queue.c ****             }
1512:ThirdParty/FreeRTOS/queue.c ****             else
1513:ThirdParty/FreeRTOS/queue.c ****             {
1514:ThirdParty/FreeRTOS/queue.c ****                 mtCOVERAGE_TEST_MARKER();
1515:ThirdParty/FreeRTOS/queue.c ****             }
1516:ThirdParty/FreeRTOS/queue.c ****         }
1517:ThirdParty/FreeRTOS/queue.c ****     } /*lint -restore */
1518:ThirdParty/FreeRTOS/queue.c **** }
 2136              		.loc 1 1518 1 discriminator 7
 2137 019c 1846     		mov	r0, r3
 2138 019e 3037     		adds	r7, r7, #48
 2139              	.LCFI58:
 2140              		.cfi_def_cfa_offset 8
 2141 01a0 BD46     		mov	sp, r7
 2142              	.LCFI59:
 2143              		.cfi_def_cfa_register 13
 2144              		@ sp needed
 2145 01a2 80BD     		pop	{r7, pc}
 2146              	.L145:
 2147              		.align	2
 2148              	.L144:
 2149 01a4 04ED00E0 		.word	-536810236
 2150              		.cfi_endproc
 2151              	.LFE16:
 2153              		.section	.text.xQueueSemaphoreTake,"ax",%progbits
 2154              		.align	1
 2155              		.global	xQueueSemaphoreTake
 2156              		.syntax unified
 2157              		.thumb
 2158              		.thumb_func
 2160              	xQueueSemaphoreTake:
 2161              	.LFB17:
1519:ThirdParty/FreeRTOS/queue.c **** /*-----------------------------------------------------------*/
1520:ThirdParty/FreeRTOS/queue.c **** 
1521:ThirdParty/FreeRTOS/queue.c **** BaseType_t xQueueSemaphoreTake( QueueHandle_t xQueue,
ARM GAS  C:\Users\Admin\AppData\Local\Temp\ccYAfxe2.s 			page 70


1522:ThirdParty/FreeRTOS/queue.c ****                                 TickType_t xTicksToWait )
1523:ThirdParty/FreeRTOS/queue.c **** {
 2162              		.loc 1 1523 1
 2163              		.cfi_startproc
 2164              		@ args = 0, pretend = 0, frame = 48
 2165              		@ frame_needed = 1, uses_anonymous_args = 0
 2166 0000 80B5     		push	{r7, lr}
 2167              	.LCFI60:
 2168              		.cfi_def_cfa_offset 8
 2169              		.cfi_offset 7, -8
 2170              		.cfi_offset 14, -4
 2171 0002 8CB0     		sub	sp, sp, #48
 2172              	.LCFI61:
 2173              		.cfi_def_cfa_offset 56
 2174 0004 00AF     		add	r7, sp, #0
 2175              	.LCFI62:
 2176              		.cfi_def_cfa_register 7
 2177 0006 7860     		str	r0, [r7, #4]
 2178 0008 3960     		str	r1, [r7]
1524:ThirdParty/FreeRTOS/queue.c ****     BaseType_t xEntryTimeSet = pdFALSE;
 2179              		.loc 1 1524 16
 2180 000a 0023     		movs	r3, #0
 2181 000c FB62     		str	r3, [r7, #44]
1525:ThirdParty/FreeRTOS/queue.c ****     TimeOut_t xTimeOut;
1526:ThirdParty/FreeRTOS/queue.c ****     Queue_t * const pxQueue = xQueue;
 2182              		.loc 1 1526 21
 2183 000e 7B68     		ldr	r3, [r7, #4]
 2184 0010 7B62     		str	r3, [r7, #36]
1527:ThirdParty/FreeRTOS/queue.c **** 
1528:ThirdParty/FreeRTOS/queue.c ****     #if ( configUSE_MUTEXES == 1 )
1529:ThirdParty/FreeRTOS/queue.c ****         BaseType_t xInheritanceOccurred = pdFALSE;
 2185              		.loc 1 1529 20
 2186 0012 0023     		movs	r3, #0
 2187 0014 BB62     		str	r3, [r7, #40]
1530:ThirdParty/FreeRTOS/queue.c ****     #endif
1531:ThirdParty/FreeRTOS/queue.c **** 
1532:ThirdParty/FreeRTOS/queue.c ****     /* Check the queue pointer is not NULL. */
1533:ThirdParty/FreeRTOS/queue.c ****     configASSERT( ( pxQueue ) );
 2188              		.loc 1 1533 5
 2189 0016 7B6A     		ldr	r3, [r7, #36]
 2190 0018 002B     		cmp	r3, #0
 2191 001a 0AD1     		bne	.L147
 2192              	.LBB170:
 2193              	.LBB171:
 198:ThirdParty/FreeRTOS/portable/GCC/ARM_CM4F/portmacro.h ****         (
 2194              		.loc 2 198 9
 2195              		.syntax unified
 2196              	@ 198 "ThirdParty/FreeRTOS/portable/GCC/ARM_CM4F/portmacro.h" 1
 2197 001c 4FF05003 			mov r3, #80												
 2198 0020 83F31188 		msr basepri, r3											
 2199 0024 BFF36F8F 		isb														
 2200 0028 BFF34F8F 		dsb														
 2201              	
 2202              	@ 0 "" 2
 2203              		.thumb
 2204              		.syntax unified
 2205 002c BB61     		str	r3, [r7, #24]
ARM GAS  C:\Users\Admin\AppData\Local\Temp\ccYAfxe2.s 			page 71


 206:ThirdParty/FreeRTOS/portable/GCC/ARM_CM4F/portmacro.h **** 
 2206              		.loc 2 206 5
 2207 002e 00BF     		nop
 2208              	.L148:
 2209              	.LBE171:
 2210              	.LBE170:
 2211              		.loc 1 1533 5 discriminator 1
 2212 0030 FEE7     		b	.L148
 2213              	.L147:
1534:ThirdParty/FreeRTOS/queue.c **** 
1535:ThirdParty/FreeRTOS/queue.c ****     /* Check this really is a semaphore, in which case the item size will be
1536:ThirdParty/FreeRTOS/queue.c ****      * 0. */
1537:ThirdParty/FreeRTOS/queue.c ****     configASSERT( pxQueue->uxItemSize == 0 );
 2214              		.loc 1 1537 5
 2215 0032 7B6A     		ldr	r3, [r7, #36]
 2216 0034 1B6C     		ldr	r3, [r3, #64]
 2217 0036 002B     		cmp	r3, #0
 2218 0038 0AD0     		beq	.L149
 2219              	.LBB172:
 2220              	.LBB173:
 198:ThirdParty/FreeRTOS/portable/GCC/ARM_CM4F/portmacro.h ****         (
 2221              		.loc 2 198 9
 2222              		.syntax unified
 2223              	@ 198 "ThirdParty/FreeRTOS/portable/GCC/ARM_CM4F/portmacro.h" 1
 2224 003a 4FF05003 			mov r3, #80												
 2225 003e 83F31188 		msr basepri, r3											
 2226 0042 BFF36F8F 		isb														
 2227 0046 BFF34F8F 		dsb														
 2228              	
 2229              	@ 0 "" 2
 2230              		.thumb
 2231              		.syntax unified
 2232 004a 7B61     		str	r3, [r7, #20]
 206:ThirdParty/FreeRTOS/portable/GCC/ARM_CM4F/portmacro.h **** 
 2233              		.loc 2 206 5
 2234 004c 00BF     		nop
 2235              	.L150:
 2236              	.LBE173:
 2237              	.LBE172:
 2238              		.loc 1 1537 5 discriminator 2
 2239 004e FEE7     		b	.L150
 2240              	.L149:
1538:ThirdParty/FreeRTOS/queue.c **** 
1539:ThirdParty/FreeRTOS/queue.c ****     /* Cannot block if the scheduler is suspended. */
1540:ThirdParty/FreeRTOS/queue.c ****     #if ( ( INCLUDE_xTaskGetSchedulerState == 1 ) || ( configUSE_TIMERS == 1 ) )
1541:ThirdParty/FreeRTOS/queue.c ****     {
1542:ThirdParty/FreeRTOS/queue.c ****         configASSERT( !( ( xTaskGetSchedulerState() == taskSCHEDULER_SUSPENDED ) && ( xTicksToWait 
 2241              		.loc 1 1542 9
 2242 0050 FFF7FEFF 		bl	xTaskGetSchedulerState
 2243 0054 0346     		mov	r3, r0
 2244 0056 002B     		cmp	r3, #0
 2245 0058 02D1     		bne	.L151
 2246              		.loc 1 1542 9 is_stmt 0 discriminator 2
 2247 005a 3B68     		ldr	r3, [r7]
 2248 005c 002B     		cmp	r3, #0
 2249 005e 01D1     		bne	.L152
 2250              	.L151:
ARM GAS  C:\Users\Admin\AppData\Local\Temp\ccYAfxe2.s 			page 72


 2251              		.loc 1 1542 9 discriminator 3
 2252 0060 0123     		movs	r3, #1
 2253 0062 00E0     		b	.L153
 2254              	.L152:
 2255              		.loc 1 1542 9 discriminator 4
 2256 0064 0023     		movs	r3, #0
 2257              	.L153:
 2258              		.loc 1 1542 9 discriminator 6
 2259 0066 002B     		cmp	r3, #0
 2260 0068 0AD1     		bne	.L154
 2261              	.LBB174:
 2262              	.LBB175:
 198:ThirdParty/FreeRTOS/portable/GCC/ARM_CM4F/portmacro.h ****         (
 2263              		.loc 2 198 9 is_stmt 1
 2264              		.syntax unified
 2265              	@ 198 "ThirdParty/FreeRTOS/portable/GCC/ARM_CM4F/portmacro.h" 1
 2266 006a 4FF05003 			mov r3, #80												
 2267 006e 83F31188 		msr basepri, r3											
 2268 0072 BFF36F8F 		isb														
 2269 0076 BFF34F8F 		dsb														
 2270              	
 2271              	@ 0 "" 2
 2272              		.thumb
 2273              		.syntax unified
 2274 007a 3B61     		str	r3, [r7, #16]
 206:ThirdParty/FreeRTOS/portable/GCC/ARM_CM4F/portmacro.h **** 
 2275              		.loc 2 206 5
 2276 007c 00BF     		nop
 2277              	.L155:
 2278              	.LBE175:
 2279              	.LBE174:
 2280              		.loc 1 1542 9 discriminator 3
 2281 007e FEE7     		b	.L155
 2282              	.L154:
1543:ThirdParty/FreeRTOS/queue.c ****     }
1544:ThirdParty/FreeRTOS/queue.c ****     #endif
1545:ThirdParty/FreeRTOS/queue.c **** 
1546:ThirdParty/FreeRTOS/queue.c ****     /*lint -save -e904 This function relaxes the coding standard somewhat to allow return
1547:ThirdParty/FreeRTOS/queue.c ****      * statements within the function itself.  This is done in the interest
1548:ThirdParty/FreeRTOS/queue.c ****      * of execution time efficiency. */
1549:ThirdParty/FreeRTOS/queue.c ****     for( ; ; )
1550:ThirdParty/FreeRTOS/queue.c ****     {
1551:ThirdParty/FreeRTOS/queue.c ****         taskENTER_CRITICAL();
 2283              		.loc 1 1551 9
 2284 0080 FFF7FEFF 		bl	vPortEnterCritical
 2285              	.LBB176:
1552:ThirdParty/FreeRTOS/queue.c ****         {
1553:ThirdParty/FreeRTOS/queue.c ****             /* Semaphores are queues with an item size of 0, and where the
1554:ThirdParty/FreeRTOS/queue.c ****              * number of messages in the queue is the semaphore's count value. */
1555:ThirdParty/FreeRTOS/queue.c ****             const UBaseType_t uxSemaphoreCount = pxQueue->uxMessagesWaiting;
 2286              		.loc 1 1555 31
 2287 0084 7B6A     		ldr	r3, [r7, #36]
 2288 0086 9B6B     		ldr	r3, [r3, #56]
 2289 0088 3B62     		str	r3, [r7, #32]
1556:ThirdParty/FreeRTOS/queue.c **** 
1557:ThirdParty/FreeRTOS/queue.c ****             /* Is there data in the queue now?  To be running the calling task
1558:ThirdParty/FreeRTOS/queue.c ****              * must be the highest priority task wanting to access the queue. */
ARM GAS  C:\Users\Admin\AppData\Local\Temp\ccYAfxe2.s 			page 73


1559:ThirdParty/FreeRTOS/queue.c ****             if( uxSemaphoreCount > ( UBaseType_t ) 0 )
 2290              		.loc 1 1559 15
 2291 008a 3B6A     		ldr	r3, [r7, #32]
 2292 008c 002B     		cmp	r3, #0
 2293 008e 19D0     		beq	.L156
1560:ThirdParty/FreeRTOS/queue.c ****             {
1561:ThirdParty/FreeRTOS/queue.c ****                 traceQUEUE_RECEIVE( pxQueue );
1562:ThirdParty/FreeRTOS/queue.c **** 
1563:ThirdParty/FreeRTOS/queue.c ****                 /* Semaphores are queues with a data size of zero and where the
1564:ThirdParty/FreeRTOS/queue.c ****                  * messages waiting is the semaphore's count.  Reduce the count. */
1565:ThirdParty/FreeRTOS/queue.c ****                 pxQueue->uxMessagesWaiting = uxSemaphoreCount - ( UBaseType_t ) 1;
 2294              		.loc 1 1565 63
 2295 0090 3B6A     		ldr	r3, [r7, #32]
 2296 0092 5A1E     		subs	r2, r3, #1
 2297              		.loc 1 1565 44
 2298 0094 7B6A     		ldr	r3, [r7, #36]
 2299 0096 9A63     		str	r2, [r3, #56]
1566:ThirdParty/FreeRTOS/queue.c **** 
1567:ThirdParty/FreeRTOS/queue.c ****                 #if ( configUSE_MUTEXES == 1 )
1568:ThirdParty/FreeRTOS/queue.c ****                 {
1569:ThirdParty/FreeRTOS/queue.c ****                     if( pxQueue->uxQueueType == queueQUEUE_IS_MUTEX )
 2300              		.loc 1 1569 32
 2301 0098 7B6A     		ldr	r3, [r7, #36]
 2302 009a 1B68     		ldr	r3, [r3]
 2303              		.loc 1 1569 23
 2304 009c 002B     		cmp	r3, #0
 2305 009e 04D1     		bne	.L157
1570:ThirdParty/FreeRTOS/queue.c ****                     {
1571:ThirdParty/FreeRTOS/queue.c ****                         /* Record the information required to implement
1572:ThirdParty/FreeRTOS/queue.c ****                          * priority inheritance should it become necessary. */
1573:ThirdParty/FreeRTOS/queue.c ****                         pxQueue->u.xSemaphore.xMutexHolder = pvTaskIncrementMutexHeldCount();
 2306              		.loc 1 1573 62
 2307 00a0 FFF7FEFF 		bl	pvTaskIncrementMutexHeldCount
 2308 00a4 0246     		mov	r2, r0
 2309              		.loc 1 1573 60
 2310 00a6 7B6A     		ldr	r3, [r7, #36]
 2311 00a8 9A60     		str	r2, [r3, #8]
 2312              	.L157:
1574:ThirdParty/FreeRTOS/queue.c ****                     }
1575:ThirdParty/FreeRTOS/queue.c ****                     else
1576:ThirdParty/FreeRTOS/queue.c ****                     {
1577:ThirdParty/FreeRTOS/queue.c ****                         mtCOVERAGE_TEST_MARKER();
1578:ThirdParty/FreeRTOS/queue.c ****                     }
1579:ThirdParty/FreeRTOS/queue.c ****                 }
1580:ThirdParty/FreeRTOS/queue.c ****                 #endif /* configUSE_MUTEXES */
1581:ThirdParty/FreeRTOS/queue.c **** 
1582:ThirdParty/FreeRTOS/queue.c ****                 /* Check to see if other tasks are blocked waiting to give the
1583:ThirdParty/FreeRTOS/queue.c ****                  * semaphore, and if so, unblock the highest priority such task. */
1584:ThirdParty/FreeRTOS/queue.c ****                 if( listLIST_IS_EMPTY( &( pxQueue->xTasksWaitingToSend ) ) == pdFALSE )
 2313              		.loc 1 1584 21
 2314 00aa 7B6A     		ldr	r3, [r7, #36]
 2315 00ac 1B69     		ldr	r3, [r3, #16]
 2316              		.loc 1 1584 19
 2317 00ae 002B     		cmp	r3, #0
 2318 00b0 04D0     		beq	.L158
1585:ThirdParty/FreeRTOS/queue.c ****                 {
1586:ThirdParty/FreeRTOS/queue.c ****                     if( xTaskRemoveFromEventList( &( pxQueue->xTasksWaitingToSend ) ) != pdFALSE )
ARM GAS  C:\Users\Admin\AppData\Local\Temp\ccYAfxe2.s 			page 74


 2319              		.loc 1 1586 51
 2320 00b2 7B6A     		ldr	r3, [r7, #36]
 2321 00b4 1033     		adds	r3, r3, #16
 2322              		.loc 1 1586 25
 2323 00b6 1846     		mov	r0, r3
 2324 00b8 FFF7FEFF 		bl	xTaskRemoveFromEventList
 2325              	.L158:
1587:ThirdParty/FreeRTOS/queue.c ****                     {
1588:ThirdParty/FreeRTOS/queue.c ****                         queueYIELD_IF_USING_PREEMPTION();
1589:ThirdParty/FreeRTOS/queue.c ****                     }
1590:ThirdParty/FreeRTOS/queue.c ****                     else
1591:ThirdParty/FreeRTOS/queue.c ****                     {
1592:ThirdParty/FreeRTOS/queue.c ****                         mtCOVERAGE_TEST_MARKER();
1593:ThirdParty/FreeRTOS/queue.c ****                     }
1594:ThirdParty/FreeRTOS/queue.c ****                 }
1595:ThirdParty/FreeRTOS/queue.c ****                 else
1596:ThirdParty/FreeRTOS/queue.c ****                 {
1597:ThirdParty/FreeRTOS/queue.c ****                     mtCOVERAGE_TEST_MARKER();
1598:ThirdParty/FreeRTOS/queue.c ****                 }
1599:ThirdParty/FreeRTOS/queue.c **** 
1600:ThirdParty/FreeRTOS/queue.c ****                 taskEXIT_CRITICAL();
 2326              		.loc 1 1600 17
 2327 00bc FFF7FEFF 		bl	vPortExitCritical
1601:ThirdParty/FreeRTOS/queue.c ****                 return pdPASS;
 2328              		.loc 1 1601 24
 2329 00c0 0123     		movs	r3, #1
 2330 00c2 88E0     		b	.L169
 2331              	.L156:
1602:ThirdParty/FreeRTOS/queue.c ****             }
1603:ThirdParty/FreeRTOS/queue.c ****             else
1604:ThirdParty/FreeRTOS/queue.c ****             {
1605:ThirdParty/FreeRTOS/queue.c ****                 if( xTicksToWait == ( TickType_t ) 0 )
 2332              		.loc 1 1605 34
 2333 00c4 3B68     		ldr	r3, [r7]
 2334              		.loc 1 1605 19
 2335 00c6 002B     		cmp	r3, #0
 2336 00c8 03D1     		bne	.L160
1606:ThirdParty/FreeRTOS/queue.c ****                 {
1607:ThirdParty/FreeRTOS/queue.c ****                     /* The semaphore count was 0 and no block time is specified
1608:ThirdParty/FreeRTOS/queue.c ****                      * (or the block time has expired) so exit now. */
1609:ThirdParty/FreeRTOS/queue.c ****                     taskEXIT_CRITICAL();
 2337              		.loc 1 1609 21
 2338 00ca FFF7FEFF 		bl	vPortExitCritical
1610:ThirdParty/FreeRTOS/queue.c ****                     traceQUEUE_RECEIVE_FAILED( pxQueue );
1611:ThirdParty/FreeRTOS/queue.c ****                     return errQUEUE_EMPTY;
 2339              		.loc 1 1611 28
 2340 00ce 0023     		movs	r3, #0
 2341 00d0 81E0     		b	.L169
 2342              	.L160:
1612:ThirdParty/FreeRTOS/queue.c ****                 }
1613:ThirdParty/FreeRTOS/queue.c ****                 else if( xEntryTimeSet == pdFALSE )
 2343              		.loc 1 1613 24
 2344 00d2 FB6A     		ldr	r3, [r7, #44]
 2345 00d4 002B     		cmp	r3, #0
 2346 00d6 06D1     		bne	.L161
1614:ThirdParty/FreeRTOS/queue.c ****                 {
1615:ThirdParty/FreeRTOS/queue.c ****                     /* The semaphore count was 0 and a block time was specified
ARM GAS  C:\Users\Admin\AppData\Local\Temp\ccYAfxe2.s 			page 75


1616:ThirdParty/FreeRTOS/queue.c ****                      * so configure the timeout structure ready to block. */
1617:ThirdParty/FreeRTOS/queue.c ****                     vTaskInternalSetTimeOutState( &xTimeOut );
 2347              		.loc 1 1617 21
 2348 00d8 07F10803 		add	r3, r7, #8
 2349 00dc 1846     		mov	r0, r3
 2350 00de FFF7FEFF 		bl	vTaskInternalSetTimeOutState
1618:ThirdParty/FreeRTOS/queue.c ****                     xEntryTimeSet = pdTRUE;
 2351              		.loc 1 1618 35
 2352 00e2 0123     		movs	r3, #1
 2353 00e4 FB62     		str	r3, [r7, #44]
 2354              	.L161:
 2355              	.LBE176:
1619:ThirdParty/FreeRTOS/queue.c ****                 }
1620:ThirdParty/FreeRTOS/queue.c ****                 else
1621:ThirdParty/FreeRTOS/queue.c ****                 {
1622:ThirdParty/FreeRTOS/queue.c ****                     /* Entry time was already set. */
1623:ThirdParty/FreeRTOS/queue.c ****                     mtCOVERAGE_TEST_MARKER();
1624:ThirdParty/FreeRTOS/queue.c ****                 }
1625:ThirdParty/FreeRTOS/queue.c ****             }
1626:ThirdParty/FreeRTOS/queue.c ****         }
1627:ThirdParty/FreeRTOS/queue.c ****         taskEXIT_CRITICAL();
 2356              		.loc 1 1627 9
 2357 00e6 FFF7FEFF 		bl	vPortExitCritical
1628:ThirdParty/FreeRTOS/queue.c **** 
1629:ThirdParty/FreeRTOS/queue.c ****         /* Interrupts and other tasks can give to and take from the semaphore
1630:ThirdParty/FreeRTOS/queue.c ****          * now the critical section has been exited. */
1631:ThirdParty/FreeRTOS/queue.c **** 
1632:ThirdParty/FreeRTOS/queue.c ****         vTaskSuspendAll();
 2358              		.loc 1 1632 9
 2359 00ea FFF7FEFF 		bl	vTaskSuspendAll
1633:ThirdParty/FreeRTOS/queue.c ****         prvLockQueue( pxQueue );
 2360              		.loc 1 1633 9
 2361 00ee FFF7FEFF 		bl	vPortEnterCritical
 2362 00f2 7B6A     		ldr	r3, [r7, #36]
 2363 00f4 93F84430 		ldrb	r3, [r3, #68]
 2364 00f8 5BB2     		sxtb	r3, r3
 2365 00fa B3F1FF3F 		cmp	r3, #-1
 2366 00fe 03D1     		bne	.L162
 2367              		.loc 1 1633 9 is_stmt 0 discriminator 1
 2368 0100 7B6A     		ldr	r3, [r7, #36]
 2369 0102 0022     		movs	r2, #0
 2370 0104 83F84420 		strb	r2, [r3, #68]
 2371              	.L162:
 2372              		.loc 1 1633 9 discriminator 3
 2373 0108 7B6A     		ldr	r3, [r7, #36]
 2374 010a 93F84530 		ldrb	r3, [r3, #69]
 2375 010e 5BB2     		sxtb	r3, r3
 2376 0110 B3F1FF3F 		cmp	r3, #-1
 2377 0114 03D1     		bne	.L163
 2378              		.loc 1 1633 9 discriminator 4
 2379 0116 7B6A     		ldr	r3, [r7, #36]
 2380 0118 0022     		movs	r2, #0
 2381 011a 83F84520 		strb	r2, [r3, #69]
 2382              	.L163:
 2383              		.loc 1 1633 9 discriminator 6
 2384 011e FFF7FEFF 		bl	vPortExitCritical
1634:ThirdParty/FreeRTOS/queue.c **** 
ARM GAS  C:\Users\Admin\AppData\Local\Temp\ccYAfxe2.s 			page 76


1635:ThirdParty/FreeRTOS/queue.c ****         /* Update the timeout state to see if it has expired yet. */
1636:ThirdParty/FreeRTOS/queue.c ****         if( xTaskCheckForTimeOut( &xTimeOut, &xTicksToWait ) == pdFALSE )
 2385              		.loc 1 1636 13 is_stmt 1 discriminator 6
 2386 0122 3A46     		mov	r2, r7
 2387 0124 07F10803 		add	r3, r7, #8
 2388 0128 1146     		mov	r1, r2
 2389 012a 1846     		mov	r0, r3
 2390 012c FFF7FEFF 		bl	xTaskCheckForTimeOut
 2391 0130 0346     		mov	r3, r0
 2392              		.loc 1 1636 11 discriminator 6
 2393 0132 002B     		cmp	r3, #0
 2394 0134 31D1     		bne	.L164
1637:ThirdParty/FreeRTOS/queue.c ****         {
1638:ThirdParty/FreeRTOS/queue.c ****             /* A block time is specified and not expired.  If the semaphore
1639:ThirdParty/FreeRTOS/queue.c ****              * count is 0 then enter the Blocked state to wait for a semaphore to
1640:ThirdParty/FreeRTOS/queue.c ****              * become available.  As semaphores are implemented with queues the
1641:ThirdParty/FreeRTOS/queue.c ****              * queue being empty is equivalent to the semaphore count being 0. */
1642:ThirdParty/FreeRTOS/queue.c ****             if( prvIsQueueEmpty( pxQueue ) != pdFALSE )
 2395              		.loc 1 1642 17
 2396 0136 786A     		ldr	r0, [r7, #36]
 2397 0138 FFF7FEFF 		bl	prvIsQueueEmpty
 2398 013c 0346     		mov	r3, r0
 2399              		.loc 1 1642 15
 2400 013e 002B     		cmp	r3, #0
