ARM GAS  C:\Users\Admin\AppData\Local\Temp\ccwOX7Bd.s 			page 1


   1              		.cpu cortex-m4
   2              		.arch armv7e-m
   3              		.fpu fpv4-sp-d16
   4              		.eabi_attribute 27, 1
   5              		.eabi_attribute 28, 1
   6              		.eabi_attribute 20, 1
   7              		.eabi_attribute 21, 1
   8              		.eabi_attribute 23, 3
   9              		.eabi_attribute 24, 1
  10              		.eabi_attribute 25, 1
  11              		.eabi_attribute 26, 1
  12              		.eabi_attribute 30, 6
  13              		.eabi_attribute 34, 1
  14              		.eabi_attribute 18, 4
  15              		.file	"stm32f4xx_tim.c"
  16              		.text
  17              	.Ltext0:
  18              		.cfi_sections	.debug_frame
  19              		.section	.text.TIM_DeInit,"ax",%progbits
  20              		.align	1
  21              		.global	TIM_DeInit
  22              		.syntax unified
  23              		.thumb
  24              		.thumb_func
  26              	TIM_DeInit:
  27              	.LFB130:
  28              		.file 1 "Drivers/STM32F4xx_StdPeriph_Driver/src/stm32f4xx_tim.c"
   1:Drivers/STM32F4xx_StdPeriph_Driver/src/stm32f4xx_tim.c **** /**
   2:Drivers/STM32F4xx_StdPeriph_Driver/src/stm32f4xx_tim.c ****   ******************************************************************************
   3:Drivers/STM32F4xx_StdPeriph_Driver/src/stm32f4xx_tim.c ****   * @file    stm32f4xx_tim.c
   4:Drivers/STM32F4xx_StdPeriph_Driver/src/stm32f4xx_tim.c ****   * @author  MCD Application Team
   5:Drivers/STM32F4xx_StdPeriph_Driver/src/stm32f4xx_tim.c ****   * @version V1.8.0
   6:Drivers/STM32F4xx_StdPeriph_Driver/src/stm32f4xx_tim.c ****   * @date    04-November-2016
   7:Drivers/STM32F4xx_StdPeriph_Driver/src/stm32f4xx_tim.c ****   * @brief   This file provides firmware functions to manage the following 
   8:Drivers/STM32F4xx_StdPeriph_Driver/src/stm32f4xx_tim.c ****   *          functionalities of the TIM peripheral:
   9:Drivers/STM32F4xx_StdPeriph_Driver/src/stm32f4xx_tim.c ****   *            + TimeBase management
  10:Drivers/STM32F4xx_StdPeriph_Driver/src/stm32f4xx_tim.c ****   *            + Output Compare management
  11:Drivers/STM32F4xx_StdPeriph_Driver/src/stm32f4xx_tim.c ****   *            + Input Capture management
  12:Drivers/STM32F4xx_StdPeriph_Driver/src/stm32f4xx_tim.c ****   *            + Advanced-control timers (TIM1 and TIM8) specific features  
  13:Drivers/STM32F4xx_StdPeriph_Driver/src/stm32f4xx_tim.c ****   *            + Interrupts, DMA and flags management
  14:Drivers/STM32F4xx_StdPeriph_Driver/src/stm32f4xx_tim.c ****   *            + Clocks management
  15:Drivers/STM32F4xx_StdPeriph_Driver/src/stm32f4xx_tim.c ****   *            + Synchronization management
  16:Drivers/STM32F4xx_StdPeriph_Driver/src/stm32f4xx_tim.c ****   *            + Specific interface management
  17:Drivers/STM32F4xx_StdPeriph_Driver/src/stm32f4xx_tim.c ****   *            + Specific remapping management      
  18:Drivers/STM32F4xx_StdPeriph_Driver/src/stm32f4xx_tim.c ****   *              
  19:Drivers/STM32F4xx_StdPeriph_Driver/src/stm32f4xx_tim.c ****   @verbatim   
  20:Drivers/STM32F4xx_StdPeriph_Driver/src/stm32f4xx_tim.c ****  ===============================================================================
  21:Drivers/STM32F4xx_StdPeriph_Driver/src/stm32f4xx_tim.c ****                    #####  How to use this driver #####
  22:Drivers/STM32F4xx_StdPeriph_Driver/src/stm32f4xx_tim.c ****  ===============================================================================
  23:Drivers/STM32F4xx_StdPeriph_Driver/src/stm32f4xx_tim.c ****     [..]
  24:Drivers/STM32F4xx_StdPeriph_Driver/src/stm32f4xx_tim.c ****     This driver provides functions to configure and program the TIM 
  25:Drivers/STM32F4xx_StdPeriph_Driver/src/stm32f4xx_tim.c ****     of all STM32F4xx devices.
  26:Drivers/STM32F4xx_StdPeriph_Driver/src/stm32f4xx_tim.c ****     These functions are split in 9 groups: 
  27:Drivers/STM32F4xx_StdPeriph_Driver/src/stm32f4xx_tim.c ****      
  28:Drivers/STM32F4xx_StdPeriph_Driver/src/stm32f4xx_tim.c ****       (#) TIM TimeBase management: this group includes all needed functions 
  29:Drivers/STM32F4xx_StdPeriph_Driver/src/stm32f4xx_tim.c ****           to configure the TM Timebase unit:
  30:Drivers/STM32F4xx_StdPeriph_Driver/src/stm32f4xx_tim.c ****         (++) Set/Get Prescaler
ARM GAS  C:\Users\Admin\AppData\Local\Temp\ccwOX7Bd.s 			page 2


  31:Drivers/STM32F4xx_StdPeriph_Driver/src/stm32f4xx_tim.c ****         (++) Set/Get Autoreload  
  32:Drivers/STM32F4xx_StdPeriph_Driver/src/stm32f4xx_tim.c ****         (++) Counter modes configuration
  33:Drivers/STM32F4xx_StdPeriph_Driver/src/stm32f4xx_tim.c ****         (++) Set Clock division  
  34:Drivers/STM32F4xx_StdPeriph_Driver/src/stm32f4xx_tim.c ****         (++) Select the One Pulse mode
  35:Drivers/STM32F4xx_StdPeriph_Driver/src/stm32f4xx_tim.c ****         (++) Update Request Configuration
  36:Drivers/STM32F4xx_StdPeriph_Driver/src/stm32f4xx_tim.c ****         (++) Update Disable Configuration
  37:Drivers/STM32F4xx_StdPeriph_Driver/src/stm32f4xx_tim.c ****         (++) Auto-Preload Configuration 
  38:Drivers/STM32F4xx_StdPeriph_Driver/src/stm32f4xx_tim.c ****         (++) Enable/Disable the counter     
  39:Drivers/STM32F4xx_StdPeriph_Driver/src/stm32f4xx_tim.c ****                    
  40:Drivers/STM32F4xx_StdPeriph_Driver/src/stm32f4xx_tim.c ****       (#) TIM Output Compare management: this group includes all needed 
  41:Drivers/STM32F4xx_StdPeriph_Driver/src/stm32f4xx_tim.c ****           functions to configure the Capture/Compare unit used in Output 
  42:Drivers/STM32F4xx_StdPeriph_Driver/src/stm32f4xx_tim.c ****           compare mode: 
  43:Drivers/STM32F4xx_StdPeriph_Driver/src/stm32f4xx_tim.c ****         (++) Configure each channel, independently, in Output Compare mode
  44:Drivers/STM32F4xx_StdPeriph_Driver/src/stm32f4xx_tim.c ****         (++) Select the output compare modes
  45:Drivers/STM32F4xx_StdPeriph_Driver/src/stm32f4xx_tim.c ****         (++) Select the Polarities of each channel
  46:Drivers/STM32F4xx_StdPeriph_Driver/src/stm32f4xx_tim.c ****         (++) Set/Get the Capture/Compare register values
  47:Drivers/STM32F4xx_StdPeriph_Driver/src/stm32f4xx_tim.c ****         (++) Select the Output Compare Fast mode 
  48:Drivers/STM32F4xx_StdPeriph_Driver/src/stm32f4xx_tim.c ****         (++) Select the Output Compare Forced mode  
  49:Drivers/STM32F4xx_StdPeriph_Driver/src/stm32f4xx_tim.c ****         (++) Output Compare-Preload Configuration 
  50:Drivers/STM32F4xx_StdPeriph_Driver/src/stm32f4xx_tim.c ****         (++) Clear Output Compare Reference
  51:Drivers/STM32F4xx_StdPeriph_Driver/src/stm32f4xx_tim.c ****         (++) Select the OCREF Clear signal
  52:Drivers/STM32F4xx_StdPeriph_Driver/src/stm32f4xx_tim.c ****         (++) Enable/Disable the Capture/Compare Channels    
  53:Drivers/STM32F4xx_StdPeriph_Driver/src/stm32f4xx_tim.c ****                      
  54:Drivers/STM32F4xx_StdPeriph_Driver/src/stm32f4xx_tim.c ****       (#) TIM Input Capture management: this group includes all needed 
  55:Drivers/STM32F4xx_StdPeriph_Driver/src/stm32f4xx_tim.c ****           functions to configure the Capture/Compare unit used in 
  56:Drivers/STM32F4xx_StdPeriph_Driver/src/stm32f4xx_tim.c ****           Input Capture mode:
  57:Drivers/STM32F4xx_StdPeriph_Driver/src/stm32f4xx_tim.c ****         (++) Configure each channel in input capture mode
  58:Drivers/STM32F4xx_StdPeriph_Driver/src/stm32f4xx_tim.c ****         (++) Configure Channel1/2 in PWM Input mode
  59:Drivers/STM32F4xx_StdPeriph_Driver/src/stm32f4xx_tim.c ****         (++) Set the Input Capture Prescaler
  60:Drivers/STM32F4xx_StdPeriph_Driver/src/stm32f4xx_tim.c ****         (++) Get the Capture/Compare values      
  61:Drivers/STM32F4xx_StdPeriph_Driver/src/stm32f4xx_tim.c ****                      
  62:Drivers/STM32F4xx_StdPeriph_Driver/src/stm32f4xx_tim.c ****       (#) Advanced-control timers (TIM1 and TIM8) specific features
  63:Drivers/STM32F4xx_StdPeriph_Driver/src/stm32f4xx_tim.c ****         (++) Configures the Break input, dead time, Lock level, the OSSI,
  64:Drivers/STM32F4xx_StdPeriph_Driver/src/stm32f4xx_tim.c ****              the OSSR State and the AOE(automatic output enable)
  65:Drivers/STM32F4xx_StdPeriph_Driver/src/stm32f4xx_tim.c ****         (++) Enable/Disable the TIM peripheral Main Outputs
  66:Drivers/STM32F4xx_StdPeriph_Driver/src/stm32f4xx_tim.c ****         (++) Select the Commutation event
  67:Drivers/STM32F4xx_StdPeriph_Driver/src/stm32f4xx_tim.c ****         (++) Set/Reset the Capture Compare Preload Control bit
  68:Drivers/STM32F4xx_StdPeriph_Driver/src/stm32f4xx_tim.c ****                                 
  69:Drivers/STM32F4xx_StdPeriph_Driver/src/stm32f4xx_tim.c ****       (#) TIM interrupts, DMA and flags management
  70:Drivers/STM32F4xx_StdPeriph_Driver/src/stm32f4xx_tim.c ****         (++) Enable/Disable interrupt sources
  71:Drivers/STM32F4xx_StdPeriph_Driver/src/stm32f4xx_tim.c ****         (++) Get flags status
  72:Drivers/STM32F4xx_StdPeriph_Driver/src/stm32f4xx_tim.c ****         (++) Clear flags/ Pending bits
  73:Drivers/STM32F4xx_StdPeriph_Driver/src/stm32f4xx_tim.c ****         (++) Enable/Disable DMA requests 
  74:Drivers/STM32F4xx_StdPeriph_Driver/src/stm32f4xx_tim.c ****         (++) Configure DMA burst mode
  75:Drivers/STM32F4xx_StdPeriph_Driver/src/stm32f4xx_tim.c ****         (++) Select CaptureCompare DMA request  
  76:Drivers/STM32F4xx_StdPeriph_Driver/src/stm32f4xx_tim.c ****                 
  77:Drivers/STM32F4xx_StdPeriph_Driver/src/stm32f4xx_tim.c ****       (#) TIM clocks management: this group includes all needed functions 
  78:Drivers/STM32F4xx_StdPeriph_Driver/src/stm32f4xx_tim.c ****           to configure the clock controller unit:
  79:Drivers/STM32F4xx_StdPeriph_Driver/src/stm32f4xx_tim.c ****         (++) Select internal/External clock
  80:Drivers/STM32F4xx_StdPeriph_Driver/src/stm32f4xx_tim.c ****         (++) Select the external clock mode: ETR(Mode1/Mode2), TIx or ITRx
  81:Drivers/STM32F4xx_StdPeriph_Driver/src/stm32f4xx_tim.c ****            
  82:Drivers/STM32F4xx_StdPeriph_Driver/src/stm32f4xx_tim.c ****       (#) TIM synchronization management: this group includes all needed 
  83:Drivers/STM32F4xx_StdPeriph_Driver/src/stm32f4xx_tim.c ****           functions to configure the Synchronization unit:
  84:Drivers/STM32F4xx_StdPeriph_Driver/src/stm32f4xx_tim.c ****         (++) Select Input Trigger  
  85:Drivers/STM32F4xx_StdPeriph_Driver/src/stm32f4xx_tim.c ****         (++) Select Output Trigger  
  86:Drivers/STM32F4xx_StdPeriph_Driver/src/stm32f4xx_tim.c ****         (++) Select Master Slave Mode 
  87:Drivers/STM32F4xx_StdPeriph_Driver/src/stm32f4xx_tim.c ****         (++) ETR Configuration when used as external trigger   
ARM GAS  C:\Users\Admin\AppData\Local\Temp\ccwOX7Bd.s 			page 3


  88:Drivers/STM32F4xx_StdPeriph_Driver/src/stm32f4xx_tim.c ****        
  89:Drivers/STM32F4xx_StdPeriph_Driver/src/stm32f4xx_tim.c ****       (#) TIM specific interface management, this group includes all 
  90:Drivers/STM32F4xx_StdPeriph_Driver/src/stm32f4xx_tim.c ****           needed functions to use the specific TIM interface:
  91:Drivers/STM32F4xx_StdPeriph_Driver/src/stm32f4xx_tim.c ****         (++) Encoder Interface Configuration
  92:Drivers/STM32F4xx_StdPeriph_Driver/src/stm32f4xx_tim.c ****         (++) Select Hall Sensor   
  93:Drivers/STM32F4xx_StdPeriph_Driver/src/stm32f4xx_tim.c ****            
  94:Drivers/STM32F4xx_StdPeriph_Driver/src/stm32f4xx_tim.c ****       (#) TIM specific remapping management includes the Remapping 
  95:Drivers/STM32F4xx_StdPeriph_Driver/src/stm32f4xx_tim.c ****           configuration of specific timers               
  96:Drivers/STM32F4xx_StdPeriph_Driver/src/stm32f4xx_tim.c ****      
  97:Drivers/STM32F4xx_StdPeriph_Driver/src/stm32f4xx_tim.c ****   @endverbatim    
  98:Drivers/STM32F4xx_StdPeriph_Driver/src/stm32f4xx_tim.c ****   ******************************************************************************
  99:Drivers/STM32F4xx_StdPeriph_Driver/src/stm32f4xx_tim.c ****   * @attention
 100:Drivers/STM32F4xx_StdPeriph_Driver/src/stm32f4xx_tim.c ****   *
 101:Drivers/STM32F4xx_StdPeriph_Driver/src/stm32f4xx_tim.c ****   * <h2><center>&copy; COPYRIGHT 2016 STMicroelectronics</center></h2>
 102:Drivers/STM32F4xx_StdPeriph_Driver/src/stm32f4xx_tim.c ****   *
 103:Drivers/STM32F4xx_StdPeriph_Driver/src/stm32f4xx_tim.c ****   * Licensed under MCD-ST Liberty SW License Agreement V2, (the "License");
 104:Drivers/STM32F4xx_StdPeriph_Driver/src/stm32f4xx_tim.c ****   * You may not use this file except in compliance with the License.
 105:Drivers/STM32F4xx_StdPeriph_Driver/src/stm32f4xx_tim.c ****   * You may obtain a copy of the License at:
 106:Drivers/STM32F4xx_StdPeriph_Driver/src/stm32f4xx_tim.c ****   *
 107:Drivers/STM32F4xx_StdPeriph_Driver/src/stm32f4xx_tim.c ****   *        http://www.st.com/software_license_agreement_liberty_v2
 108:Drivers/STM32F4xx_StdPeriph_Driver/src/stm32f4xx_tim.c ****   *
 109:Drivers/STM32F4xx_StdPeriph_Driver/src/stm32f4xx_tim.c ****   * Unless required by applicable law or agreed to in writing, software 
 110:Drivers/STM32F4xx_StdPeriph_Driver/src/stm32f4xx_tim.c ****   * distributed under the License is distributed on an "AS IS" BASIS, 
 111:Drivers/STM32F4xx_StdPeriph_Driver/src/stm32f4xx_tim.c ****   * WITHOUT WARRANTIES OR CONDITIONS OF ANY KIND, either express or implied.
 112:Drivers/STM32F4xx_StdPeriph_Driver/src/stm32f4xx_tim.c ****   * See the License for the specific language governing permissions and
 113:Drivers/STM32F4xx_StdPeriph_Driver/src/stm32f4xx_tim.c ****   * limitations under the License.
 114:Drivers/STM32F4xx_StdPeriph_Driver/src/stm32f4xx_tim.c ****   *
 115:Drivers/STM32F4xx_StdPeriph_Driver/src/stm32f4xx_tim.c ****   ******************************************************************************
 116:Drivers/STM32F4xx_StdPeriph_Driver/src/stm32f4xx_tim.c ****   */
 117:Drivers/STM32F4xx_StdPeriph_Driver/src/stm32f4xx_tim.c **** 
 118:Drivers/STM32F4xx_StdPeriph_Driver/src/stm32f4xx_tim.c **** /* Includes ------------------------------------------------------------------*/
 119:Drivers/STM32F4xx_StdPeriph_Driver/src/stm32f4xx_tim.c **** #include "stm32f4xx_tim.h"
 120:Drivers/STM32F4xx_StdPeriph_Driver/src/stm32f4xx_tim.c **** #include "stm32f4xx_rcc.h"
 121:Drivers/STM32F4xx_StdPeriph_Driver/src/stm32f4xx_tim.c **** 
 122:Drivers/STM32F4xx_StdPeriph_Driver/src/stm32f4xx_tim.c **** /** @addtogroup STM32F4xx_StdPeriph_Driver
 123:Drivers/STM32F4xx_StdPeriph_Driver/src/stm32f4xx_tim.c ****   * @{
 124:Drivers/STM32F4xx_StdPeriph_Driver/src/stm32f4xx_tim.c ****   */
 125:Drivers/STM32F4xx_StdPeriph_Driver/src/stm32f4xx_tim.c **** 
 126:Drivers/STM32F4xx_StdPeriph_Driver/src/stm32f4xx_tim.c **** /** @defgroup TIM 
 127:Drivers/STM32F4xx_StdPeriph_Driver/src/stm32f4xx_tim.c ****   * @brief TIM driver modules
 128:Drivers/STM32F4xx_StdPeriph_Driver/src/stm32f4xx_tim.c ****   * @{
 129:Drivers/STM32F4xx_StdPeriph_Driver/src/stm32f4xx_tim.c ****   */
 130:Drivers/STM32F4xx_StdPeriph_Driver/src/stm32f4xx_tim.c **** 
 131:Drivers/STM32F4xx_StdPeriph_Driver/src/stm32f4xx_tim.c **** /* Private typedef -----------------------------------------------------------*/
 132:Drivers/STM32F4xx_StdPeriph_Driver/src/stm32f4xx_tim.c **** /* Private define ------------------------------------------------------------*/
 133:Drivers/STM32F4xx_StdPeriph_Driver/src/stm32f4xx_tim.c **** 
 134:Drivers/STM32F4xx_StdPeriph_Driver/src/stm32f4xx_tim.c **** /* ---------------------- TIM registers bit mask ------------------------ */
 135:Drivers/STM32F4xx_StdPeriph_Driver/src/stm32f4xx_tim.c **** #define SMCR_ETR_MASK      ((uint16_t)0x00FF) 
 136:Drivers/STM32F4xx_StdPeriph_Driver/src/stm32f4xx_tim.c **** #define CCMR_OFFSET        ((uint16_t)0x0018)
 137:Drivers/STM32F4xx_StdPeriph_Driver/src/stm32f4xx_tim.c **** #define CCER_CCE_SET       ((uint16_t)0x0001)  
 138:Drivers/STM32F4xx_StdPeriph_Driver/src/stm32f4xx_tim.c **** #define	CCER_CCNE_SET      ((uint16_t)0x0004) 
 139:Drivers/STM32F4xx_StdPeriph_Driver/src/stm32f4xx_tim.c **** #define CCMR_OC13M_MASK    ((uint16_t)0xFF8F)
 140:Drivers/STM32F4xx_StdPeriph_Driver/src/stm32f4xx_tim.c **** #define CCMR_OC24M_MASK    ((uint16_t)0x8FFF) 
 141:Drivers/STM32F4xx_StdPeriph_Driver/src/stm32f4xx_tim.c **** 
 142:Drivers/STM32F4xx_StdPeriph_Driver/src/stm32f4xx_tim.c **** /* Private macro -------------------------------------------------------------*/
 143:Drivers/STM32F4xx_StdPeriph_Driver/src/stm32f4xx_tim.c **** /* Private variables ---------------------------------------------------------*/
 144:Drivers/STM32F4xx_StdPeriph_Driver/src/stm32f4xx_tim.c **** /* Private function prototypes -----------------------------------------------*/
ARM GAS  C:\Users\Admin\AppData\Local\Temp\ccwOX7Bd.s 			page 4


 145:Drivers/STM32F4xx_StdPeriph_Driver/src/stm32f4xx_tim.c **** static void TI1_Config(TIM_TypeDef* TIMx, uint16_t TIM_ICPolarity, uint16_t TIM_ICSelection,
 146:Drivers/STM32F4xx_StdPeriph_Driver/src/stm32f4xx_tim.c ****                        uint16_t TIM_ICFilter);
 147:Drivers/STM32F4xx_StdPeriph_Driver/src/stm32f4xx_tim.c **** static void TI2_Config(TIM_TypeDef* TIMx, uint16_t TIM_ICPolarity, uint16_t TIM_ICSelection,
 148:Drivers/STM32F4xx_StdPeriph_Driver/src/stm32f4xx_tim.c ****                        uint16_t TIM_ICFilter);
 149:Drivers/STM32F4xx_StdPeriph_Driver/src/stm32f4xx_tim.c **** static void TI3_Config(TIM_TypeDef* TIMx, uint16_t TIM_ICPolarity, uint16_t TIM_ICSelection,
 150:Drivers/STM32F4xx_StdPeriph_Driver/src/stm32f4xx_tim.c ****                        uint16_t TIM_ICFilter);
 151:Drivers/STM32F4xx_StdPeriph_Driver/src/stm32f4xx_tim.c **** static void TI4_Config(TIM_TypeDef* TIMx, uint16_t TIM_ICPolarity, uint16_t TIM_ICSelection,
 152:Drivers/STM32F4xx_StdPeriph_Driver/src/stm32f4xx_tim.c ****                        uint16_t TIM_ICFilter);
 153:Drivers/STM32F4xx_StdPeriph_Driver/src/stm32f4xx_tim.c **** 
 154:Drivers/STM32F4xx_StdPeriph_Driver/src/stm32f4xx_tim.c **** /* Private functions ---------------------------------------------------------*/
 155:Drivers/STM32F4xx_StdPeriph_Driver/src/stm32f4xx_tim.c **** 
 156:Drivers/STM32F4xx_StdPeriph_Driver/src/stm32f4xx_tim.c **** /** @defgroup TIM_Private_Functions
 157:Drivers/STM32F4xx_StdPeriph_Driver/src/stm32f4xx_tim.c ****   * @{
 158:Drivers/STM32F4xx_StdPeriph_Driver/src/stm32f4xx_tim.c ****   */
 159:Drivers/STM32F4xx_StdPeriph_Driver/src/stm32f4xx_tim.c **** 
 160:Drivers/STM32F4xx_StdPeriph_Driver/src/stm32f4xx_tim.c **** /** @defgroup TIM_Group1 TimeBase management functions
 161:Drivers/STM32F4xx_StdPeriph_Driver/src/stm32f4xx_tim.c ****  *  @brief   TimeBase management functions 
 162:Drivers/STM32F4xx_StdPeriph_Driver/src/stm32f4xx_tim.c ****  *
 163:Drivers/STM32F4xx_StdPeriph_Driver/src/stm32f4xx_tim.c **** @verbatim   
 164:Drivers/STM32F4xx_StdPeriph_Driver/src/stm32f4xx_tim.c ****  ===============================================================================
 165:Drivers/STM32F4xx_StdPeriph_Driver/src/stm32f4xx_tim.c ****                      ##### TimeBase management functions #####
 166:Drivers/STM32F4xx_StdPeriph_Driver/src/stm32f4xx_tim.c ****  ===============================================================================  
 167:Drivers/STM32F4xx_StdPeriph_Driver/src/stm32f4xx_tim.c ****   
 168:Drivers/STM32F4xx_StdPeriph_Driver/src/stm32f4xx_tim.c ****      
 169:Drivers/STM32F4xx_StdPeriph_Driver/src/stm32f4xx_tim.c ****             ##### TIM Driver: how to use it in Timing(Time base) Mode #####
 170:Drivers/STM32F4xx_StdPeriph_Driver/src/stm32f4xx_tim.c ****  ===============================================================================
 171:Drivers/STM32F4xx_StdPeriph_Driver/src/stm32f4xx_tim.c ****     [..] 
 172:Drivers/STM32F4xx_StdPeriph_Driver/src/stm32f4xx_tim.c ****     To use the Timer in Timing(Time base) mode, the following steps are mandatory:
 173:Drivers/STM32F4xx_StdPeriph_Driver/src/stm32f4xx_tim.c ****        
 174:Drivers/STM32F4xx_StdPeriph_Driver/src/stm32f4xx_tim.c ****       (#) Enable TIM clock using RCC_APBxPeriphClockCmd(RCC_APBxPeriph_TIMx, ENABLE) function
 175:Drivers/STM32F4xx_StdPeriph_Driver/src/stm32f4xx_tim.c ****                     
 176:Drivers/STM32F4xx_StdPeriph_Driver/src/stm32f4xx_tim.c ****       (#) Fill the TIM_TimeBaseInitStruct with the desired parameters.
 177:Drivers/STM32F4xx_StdPeriph_Driver/src/stm32f4xx_tim.c ****        
 178:Drivers/STM32F4xx_StdPeriph_Driver/src/stm32f4xx_tim.c ****       (#) Call TIM_TimeBaseInit(TIMx, &TIM_TimeBaseInitStruct) to configure the Time Base unit
 179:Drivers/STM32F4xx_StdPeriph_Driver/src/stm32f4xx_tim.c ****           with the corresponding configuration
 180:Drivers/STM32F4xx_StdPeriph_Driver/src/stm32f4xx_tim.c ****           
 181:Drivers/STM32F4xx_StdPeriph_Driver/src/stm32f4xx_tim.c ****       (#) Enable the NVIC if you need to generate the update interrupt. 
 182:Drivers/STM32F4xx_StdPeriph_Driver/src/stm32f4xx_tim.c ****           
 183:Drivers/STM32F4xx_StdPeriph_Driver/src/stm32f4xx_tim.c ****       (#) Enable the corresponding interrupt using the function TIM_ITConfig(TIMx, TIM_IT_Update) 
 184:Drivers/STM32F4xx_StdPeriph_Driver/src/stm32f4xx_tim.c ****        
 185:Drivers/STM32F4xx_StdPeriph_Driver/src/stm32f4xx_tim.c ****       (#) Call the TIM_Cmd(ENABLE) function to enable the TIM counter.
 186:Drivers/STM32F4xx_StdPeriph_Driver/src/stm32f4xx_tim.c ****              
 187:Drivers/STM32F4xx_StdPeriph_Driver/src/stm32f4xx_tim.c ****        -@- All other functions can be used separately to modify, if needed,
 188:Drivers/STM32F4xx_StdPeriph_Driver/src/stm32f4xx_tim.c ****            a specific feature of the Timer. 
 189:Drivers/STM32F4xx_StdPeriph_Driver/src/stm32f4xx_tim.c **** 
 190:Drivers/STM32F4xx_StdPeriph_Driver/src/stm32f4xx_tim.c **** @endverbatim
 191:Drivers/STM32F4xx_StdPeriph_Driver/src/stm32f4xx_tim.c ****   * @{
 192:Drivers/STM32F4xx_StdPeriph_Driver/src/stm32f4xx_tim.c ****   */
 193:Drivers/STM32F4xx_StdPeriph_Driver/src/stm32f4xx_tim.c ****   
 194:Drivers/STM32F4xx_StdPeriph_Driver/src/stm32f4xx_tim.c **** /**
 195:Drivers/STM32F4xx_StdPeriph_Driver/src/stm32f4xx_tim.c ****   * @brief  Deinitializes the TIMx peripheral registers to their default reset values.
 196:Drivers/STM32F4xx_StdPeriph_Driver/src/stm32f4xx_tim.c ****   * @param  TIMx: where x can be 1 to 14 to select the TIM peripheral.
 197:Drivers/STM32F4xx_StdPeriph_Driver/src/stm32f4xx_tim.c ****   * @retval None
 198:Drivers/STM32F4xx_StdPeriph_Driver/src/stm32f4xx_tim.c **** 
 199:Drivers/STM32F4xx_StdPeriph_Driver/src/stm32f4xx_tim.c ****   */
 200:Drivers/STM32F4xx_StdPeriph_Driver/src/stm32f4xx_tim.c **** void TIM_DeInit(TIM_TypeDef* TIMx)
 201:Drivers/STM32F4xx_StdPeriph_Driver/src/stm32f4xx_tim.c **** {
ARM GAS  C:\Users\Admin\AppData\Local\Temp\ccwOX7Bd.s 			page 5


  29              		.loc 1 201 1
  30              		.cfi_startproc
  31              		@ args = 0, pretend = 0, frame = 8
  32              		@ frame_needed = 1, uses_anonymous_args = 0
  33 0000 80B5     		push	{r7, lr}
  34              	.LCFI0:
  35              		.cfi_def_cfa_offset 8
  36              		.cfi_offset 7, -8
  37              		.cfi_offset 14, -4
  38 0002 82B0     		sub	sp, sp, #8
  39              	.LCFI1:
  40              		.cfi_def_cfa_offset 16
  41 0004 00AF     		add	r7, sp, #0
  42              	.LCFI2:
  43              		.cfi_def_cfa_register 7
  44 0006 7860     		str	r0, [r7, #4]
 202:Drivers/STM32F4xx_StdPeriph_Driver/src/stm32f4xx_tim.c ****   /* Check the parameters */
 203:Drivers/STM32F4xx_StdPeriph_Driver/src/stm32f4xx_tim.c ****   assert_param(IS_TIM_ALL_PERIPH(TIMx)); 
 204:Drivers/STM32F4xx_StdPeriph_Driver/src/stm32f4xx_tim.c ****  
 205:Drivers/STM32F4xx_StdPeriph_Driver/src/stm32f4xx_tim.c ****   if (TIMx == TIM1)
  45              		.loc 1 205 6
  46 0008 7B68     		ldr	r3, [r7, #4]
  47 000a 604A     		ldr	r2, .L17
  48 000c 9342     		cmp	r3, r2
  49 000e 08D1     		bne	.L2
 206:Drivers/STM32F4xx_StdPeriph_Driver/src/stm32f4xx_tim.c ****   {
 207:Drivers/STM32F4xx_StdPeriph_Driver/src/stm32f4xx_tim.c ****     RCC_APB2PeriphResetCmd(RCC_APB2Periph_TIM1, ENABLE);
  50              		.loc 1 207 5
  51 0010 0121     		movs	r1, #1
  52 0012 0120     		movs	r0, #1
  53 0014 FFF7FEFF 		bl	RCC_APB2PeriphResetCmd
 208:Drivers/STM32F4xx_StdPeriph_Driver/src/stm32f4xx_tim.c ****     RCC_APB2PeriphResetCmd(RCC_APB2Periph_TIM1, DISABLE);  
  54              		.loc 1 208 5
  55 0018 0021     		movs	r1, #0
  56 001a 0120     		movs	r0, #1
  57 001c FFF7FEFF 		bl	RCC_APB2PeriphResetCmd
 209:Drivers/STM32F4xx_StdPeriph_Driver/src/stm32f4xx_tim.c ****   } 
 210:Drivers/STM32F4xx_StdPeriph_Driver/src/stm32f4xx_tim.c ****   else if (TIMx == TIM2) 
 211:Drivers/STM32F4xx_StdPeriph_Driver/src/stm32f4xx_tim.c ****   {     
 212:Drivers/STM32F4xx_StdPeriph_Driver/src/stm32f4xx_tim.c ****     RCC_APB1PeriphResetCmd(RCC_APB1Periph_TIM2, ENABLE);
 213:Drivers/STM32F4xx_StdPeriph_Driver/src/stm32f4xx_tim.c ****     RCC_APB1PeriphResetCmd(RCC_APB1Periph_TIM2, DISABLE);
 214:Drivers/STM32F4xx_StdPeriph_Driver/src/stm32f4xx_tim.c ****   }  
 215:Drivers/STM32F4xx_StdPeriph_Driver/src/stm32f4xx_tim.c ****   else if (TIMx == TIM3)
 216:Drivers/STM32F4xx_StdPeriph_Driver/src/stm32f4xx_tim.c ****   { 
 217:Drivers/STM32F4xx_StdPeriph_Driver/src/stm32f4xx_tim.c ****     RCC_APB1PeriphResetCmd(RCC_APB1Periph_TIM3, ENABLE);
 218:Drivers/STM32F4xx_StdPeriph_Driver/src/stm32f4xx_tim.c ****     RCC_APB1PeriphResetCmd(RCC_APB1Periph_TIM3, DISABLE);
 219:Drivers/STM32F4xx_StdPeriph_Driver/src/stm32f4xx_tim.c ****   }  
 220:Drivers/STM32F4xx_StdPeriph_Driver/src/stm32f4xx_tim.c ****   else if (TIMx == TIM4)
 221:Drivers/STM32F4xx_StdPeriph_Driver/src/stm32f4xx_tim.c ****   { 
 222:Drivers/STM32F4xx_StdPeriph_Driver/src/stm32f4xx_tim.c ****     RCC_APB1PeriphResetCmd(RCC_APB1Periph_TIM4, ENABLE);
 223:Drivers/STM32F4xx_StdPeriph_Driver/src/stm32f4xx_tim.c ****     RCC_APB1PeriphResetCmd(RCC_APB1Periph_TIM4, DISABLE);
 224:Drivers/STM32F4xx_StdPeriph_Driver/src/stm32f4xx_tim.c ****   }  
 225:Drivers/STM32F4xx_StdPeriph_Driver/src/stm32f4xx_tim.c ****   else if (TIMx == TIM5)
 226:Drivers/STM32F4xx_StdPeriph_Driver/src/stm32f4xx_tim.c ****   {      
 227:Drivers/STM32F4xx_StdPeriph_Driver/src/stm32f4xx_tim.c ****     RCC_APB1PeriphResetCmd(RCC_APB1Periph_TIM5, ENABLE);
 228:Drivers/STM32F4xx_StdPeriph_Driver/src/stm32f4xx_tim.c ****     RCC_APB1PeriphResetCmd(RCC_APB1Periph_TIM5, DISABLE);
 229:Drivers/STM32F4xx_StdPeriph_Driver/src/stm32f4xx_tim.c ****   }  
ARM GAS  C:\Users\Admin\AppData\Local\Temp\ccwOX7Bd.s 			page 6


 230:Drivers/STM32F4xx_StdPeriph_Driver/src/stm32f4xx_tim.c ****   else if (TIMx == TIM6)  
 231:Drivers/STM32F4xx_StdPeriph_Driver/src/stm32f4xx_tim.c ****   {    
 232:Drivers/STM32F4xx_StdPeriph_Driver/src/stm32f4xx_tim.c ****     RCC_APB1PeriphResetCmd(RCC_APB1Periph_TIM6, ENABLE);
 233:Drivers/STM32F4xx_StdPeriph_Driver/src/stm32f4xx_tim.c ****     RCC_APB1PeriphResetCmd(RCC_APB1Periph_TIM6, DISABLE);
 234:Drivers/STM32F4xx_StdPeriph_Driver/src/stm32f4xx_tim.c ****   }  
 235:Drivers/STM32F4xx_StdPeriph_Driver/src/stm32f4xx_tim.c ****   else if (TIMx == TIM7)
 236:Drivers/STM32F4xx_StdPeriph_Driver/src/stm32f4xx_tim.c ****   {      
 237:Drivers/STM32F4xx_StdPeriph_Driver/src/stm32f4xx_tim.c ****     RCC_APB1PeriphResetCmd(RCC_APB1Periph_TIM7, ENABLE);
 238:Drivers/STM32F4xx_StdPeriph_Driver/src/stm32f4xx_tim.c ****     RCC_APB1PeriphResetCmd(RCC_APB1Periph_TIM7, DISABLE);
 239:Drivers/STM32F4xx_StdPeriph_Driver/src/stm32f4xx_tim.c ****   }  
 240:Drivers/STM32F4xx_StdPeriph_Driver/src/stm32f4xx_tim.c ****   else if (TIMx == TIM8)
 241:Drivers/STM32F4xx_StdPeriph_Driver/src/stm32f4xx_tim.c ****   {      
 242:Drivers/STM32F4xx_StdPeriph_Driver/src/stm32f4xx_tim.c ****     RCC_APB2PeriphResetCmd(RCC_APB2Periph_TIM8, ENABLE);
 243:Drivers/STM32F4xx_StdPeriph_Driver/src/stm32f4xx_tim.c ****     RCC_APB2PeriphResetCmd(RCC_APB2Periph_TIM8, DISABLE);  
 244:Drivers/STM32F4xx_StdPeriph_Driver/src/stm32f4xx_tim.c ****   }  
 245:Drivers/STM32F4xx_StdPeriph_Driver/src/stm32f4xx_tim.c ****   else if (TIMx == TIM9)
 246:Drivers/STM32F4xx_StdPeriph_Driver/src/stm32f4xx_tim.c ****   {      
 247:Drivers/STM32F4xx_StdPeriph_Driver/src/stm32f4xx_tim.c ****     RCC_APB2PeriphResetCmd(RCC_APB2Periph_TIM9, ENABLE);
 248:Drivers/STM32F4xx_StdPeriph_Driver/src/stm32f4xx_tim.c ****     RCC_APB2PeriphResetCmd(RCC_APB2Periph_TIM9, DISABLE);  
 249:Drivers/STM32F4xx_StdPeriph_Driver/src/stm32f4xx_tim.c ****    }  
 250:Drivers/STM32F4xx_StdPeriph_Driver/src/stm32f4xx_tim.c ****   else if (TIMx == TIM10)
 251:Drivers/STM32F4xx_StdPeriph_Driver/src/stm32f4xx_tim.c ****   {      
 252:Drivers/STM32F4xx_StdPeriph_Driver/src/stm32f4xx_tim.c ****     RCC_APB2PeriphResetCmd(RCC_APB2Periph_TIM10, ENABLE);
 253:Drivers/STM32F4xx_StdPeriph_Driver/src/stm32f4xx_tim.c ****     RCC_APB2PeriphResetCmd(RCC_APB2Periph_TIM10, DISABLE);  
 254:Drivers/STM32F4xx_StdPeriph_Driver/src/stm32f4xx_tim.c ****   }  
 255:Drivers/STM32F4xx_StdPeriph_Driver/src/stm32f4xx_tim.c ****   else if (TIMx == TIM11) 
 256:Drivers/STM32F4xx_StdPeriph_Driver/src/stm32f4xx_tim.c ****   {     
 257:Drivers/STM32F4xx_StdPeriph_Driver/src/stm32f4xx_tim.c ****     RCC_APB2PeriphResetCmd(RCC_APB2Periph_TIM11, ENABLE);
 258:Drivers/STM32F4xx_StdPeriph_Driver/src/stm32f4xx_tim.c ****     RCC_APB2PeriphResetCmd(RCC_APB2Periph_TIM11, DISABLE);  
 259:Drivers/STM32F4xx_StdPeriph_Driver/src/stm32f4xx_tim.c ****   }  
 260:Drivers/STM32F4xx_StdPeriph_Driver/src/stm32f4xx_tim.c ****   else if (TIMx == TIM12)
 261:Drivers/STM32F4xx_StdPeriph_Driver/src/stm32f4xx_tim.c ****   {      
 262:Drivers/STM32F4xx_StdPeriph_Driver/src/stm32f4xx_tim.c ****     RCC_APB1PeriphResetCmd(RCC_APB1Periph_TIM12, ENABLE);
 263:Drivers/STM32F4xx_StdPeriph_Driver/src/stm32f4xx_tim.c ****     RCC_APB1PeriphResetCmd(RCC_APB1Periph_TIM12, DISABLE);  
 264:Drivers/STM32F4xx_StdPeriph_Driver/src/stm32f4xx_tim.c ****   }  
 265:Drivers/STM32F4xx_StdPeriph_Driver/src/stm32f4xx_tim.c ****   else if (TIMx == TIM13) 
 266:Drivers/STM32F4xx_StdPeriph_Driver/src/stm32f4xx_tim.c ****   {       
 267:Drivers/STM32F4xx_StdPeriph_Driver/src/stm32f4xx_tim.c ****     RCC_APB1PeriphResetCmd(RCC_APB1Periph_TIM13, ENABLE);
 268:Drivers/STM32F4xx_StdPeriph_Driver/src/stm32f4xx_tim.c ****     RCC_APB1PeriphResetCmd(RCC_APB1Periph_TIM13, DISABLE);  
 269:Drivers/STM32F4xx_StdPeriph_Driver/src/stm32f4xx_tim.c ****   }  
 270:Drivers/STM32F4xx_StdPeriph_Driver/src/stm32f4xx_tim.c ****   else
 271:Drivers/STM32F4xx_StdPeriph_Driver/src/stm32f4xx_tim.c ****   { 
 272:Drivers/STM32F4xx_StdPeriph_Driver/src/stm32f4xx_tim.c ****     if (TIMx == TIM14) 
 273:Drivers/STM32F4xx_StdPeriph_Driver/src/stm32f4xx_tim.c ****     {     
 274:Drivers/STM32F4xx_StdPeriph_Driver/src/stm32f4xx_tim.c ****       RCC_APB1PeriphResetCmd(RCC_APB1Periph_TIM14, ENABLE);
 275:Drivers/STM32F4xx_StdPeriph_Driver/src/stm32f4xx_tim.c ****       RCC_APB1PeriphResetCmd(RCC_APB1Periph_TIM14, DISABLE); 
 276:Drivers/STM32F4xx_StdPeriph_Driver/src/stm32f4xx_tim.c ****     }   
 277:Drivers/STM32F4xx_StdPeriph_Driver/src/stm32f4xx_tim.c ****   }
 278:Drivers/STM32F4xx_StdPeriph_Driver/src/stm32f4xx_tim.c **** }
  58              		.loc 1 278 1
  59 0020 AFE0     		b	.L16
  60              	.L2:
 210:Drivers/STM32F4xx_StdPeriph_Driver/src/stm32f4xx_tim.c ****   {     
  61              		.loc 1 210 11
  62 0022 7B68     		ldr	r3, [r7, #4]
  63 0024 B3F1804F 		cmp	r3, #1073741824
  64 0028 08D1     		bne	.L4
ARM GAS  C:\Users\Admin\AppData\Local\Temp\ccwOX7Bd.s 			page 7


 212:Drivers/STM32F4xx_StdPeriph_Driver/src/stm32f4xx_tim.c ****     RCC_APB1PeriphResetCmd(RCC_APB1Periph_TIM2, DISABLE);
  65              		.loc 1 212 5
  66 002a 0121     		movs	r1, #1
  67 002c 0120     		movs	r0, #1
  68 002e FFF7FEFF 		bl	RCC_APB1PeriphResetCmd
 213:Drivers/STM32F4xx_StdPeriph_Driver/src/stm32f4xx_tim.c ****   }  
  69              		.loc 1 213 5
  70 0032 0021     		movs	r1, #0
  71 0034 0120     		movs	r0, #1
  72 0036 FFF7FEFF 		bl	RCC_APB1PeriphResetCmd
  73              		.loc 1 278 1
  74 003a A2E0     		b	.L16
  75              	.L4:
 215:Drivers/STM32F4xx_StdPeriph_Driver/src/stm32f4xx_tim.c ****   { 
  76              		.loc 1 215 11
  77 003c 7B68     		ldr	r3, [r7, #4]
  78 003e 544A     		ldr	r2, .L17+4
  79 0040 9342     		cmp	r3, r2
  80 0042 08D1     		bne	.L5
 217:Drivers/STM32F4xx_StdPeriph_Driver/src/stm32f4xx_tim.c ****     RCC_APB1PeriphResetCmd(RCC_APB1Periph_TIM3, DISABLE);
  81              		.loc 1 217 5
  82 0044 0121     		movs	r1, #1
  83 0046 0220     		movs	r0, #2
  84 0048 FFF7FEFF 		bl	RCC_APB1PeriphResetCmd
 218:Drivers/STM32F4xx_StdPeriph_Driver/src/stm32f4xx_tim.c ****   }  
  85              		.loc 1 218 5
  86 004c 0021     		movs	r1, #0
  87 004e 0220     		movs	r0, #2
  88 0050 FFF7FEFF 		bl	RCC_APB1PeriphResetCmd
  89              		.loc 1 278 1
  90 0054 95E0     		b	.L16
  91              	.L5:
 220:Drivers/STM32F4xx_StdPeriph_Driver/src/stm32f4xx_tim.c ****   { 
  92              		.loc 1 220 11
  93 0056 7B68     		ldr	r3, [r7, #4]
  94 0058 4E4A     		ldr	r2, .L17+8
  95 005a 9342     		cmp	r3, r2
  96 005c 08D1     		bne	.L6
 222:Drivers/STM32F4xx_StdPeriph_Driver/src/stm32f4xx_tim.c ****     RCC_APB1PeriphResetCmd(RCC_APB1Periph_TIM4, DISABLE);
  97              		.loc 1 222 5
  98 005e 0121     		movs	r1, #1
  99 0060 0420     		movs	r0, #4
 100 0062 FFF7FEFF 		bl	RCC_APB1PeriphResetCmd
 223:Drivers/STM32F4xx_StdPeriph_Driver/src/stm32f4xx_tim.c ****   }  
 101              		.loc 1 223 5
 102 0066 0021     		movs	r1, #0
 103 0068 0420     		movs	r0, #4
 104 006a FFF7FEFF 		bl	RCC_APB1PeriphResetCmd
 105              		.loc 1 278 1
 106 006e 88E0     		b	.L16
 107              	.L6:
 225:Drivers/STM32F4xx_StdPeriph_Driver/src/stm32f4xx_tim.c ****   {      
 108              		.loc 1 225 11
 109 0070 7B68     		ldr	r3, [r7, #4]
 110 0072 494A     		ldr	r2, .L17+12
 111 0074 9342     		cmp	r3, r2
 112 0076 08D1     		bne	.L7
ARM GAS  C:\Users\Admin\AppData\Local\Temp\ccwOX7Bd.s 			page 8


 227:Drivers/STM32F4xx_StdPeriph_Driver/src/stm32f4xx_tim.c ****     RCC_APB1PeriphResetCmd(RCC_APB1Periph_TIM5, DISABLE);
 113              		.loc 1 227 5
 114 0078 0121     		movs	r1, #1
 115 007a 0820     		movs	r0, #8
 116 007c FFF7FEFF 		bl	RCC_APB1PeriphResetCmd
 228:Drivers/STM32F4xx_StdPeriph_Driver/src/stm32f4xx_tim.c ****   }  
 117              		.loc 1 228 5
 118 0080 0021     		movs	r1, #0
 119 0082 0820     		movs	r0, #8
 120 0084 FFF7FEFF 		bl	RCC_APB1PeriphResetCmd
 121              		.loc 1 278 1
 122 0088 7BE0     		b	.L16
 123              	.L7:
 230:Drivers/STM32F4xx_StdPeriph_Driver/src/stm32f4xx_tim.c ****   {    
 124              		.loc 1 230 11
 125 008a 7B68     		ldr	r3, [r7, #4]
 126 008c 434A     		ldr	r2, .L17+16
 127 008e 9342     		cmp	r3, r2
 128 0090 08D1     		bne	.L8
 232:Drivers/STM32F4xx_StdPeriph_Driver/src/stm32f4xx_tim.c ****     RCC_APB1PeriphResetCmd(RCC_APB1Periph_TIM6, DISABLE);
 129              		.loc 1 232 5
 130 0092 0121     		movs	r1, #1
 131 0094 1020     		movs	r0, #16
 132 0096 FFF7FEFF 		bl	RCC_APB1PeriphResetCmd
 233:Drivers/STM32F4xx_StdPeriph_Driver/src/stm32f4xx_tim.c ****   }  
 133              		.loc 1 233 5
 134 009a 0021     		movs	r1, #0
 135 009c 1020     		movs	r0, #16
 136 009e FFF7FEFF 		bl	RCC_APB1PeriphResetCmd
 137              		.loc 1 278 1
 138 00a2 6EE0     		b	.L16
 139              	.L8:
 235:Drivers/STM32F4xx_StdPeriph_Driver/src/stm32f4xx_tim.c ****   {      
 140              		.loc 1 235 11
 141 00a4 7B68     		ldr	r3, [r7, #4]
 142 00a6 3E4A     		ldr	r2, .L17+20
 143 00a8 9342     		cmp	r3, r2
 144 00aa 08D1     		bne	.L9
 237:Drivers/STM32F4xx_StdPeriph_Driver/src/stm32f4xx_tim.c ****     RCC_APB1PeriphResetCmd(RCC_APB1Periph_TIM7, DISABLE);
 145              		.loc 1 237 5
 146 00ac 0121     		movs	r1, #1
 147 00ae 2020     		movs	r0, #32
 148 00b0 FFF7FEFF 		bl	RCC_APB1PeriphResetCmd
 238:Drivers/STM32F4xx_StdPeriph_Driver/src/stm32f4xx_tim.c ****   }  
 149              		.loc 1 238 5
 150 00b4 0021     		movs	r1, #0
 151 00b6 2020     		movs	r0, #32
 152 00b8 FFF7FEFF 		bl	RCC_APB1PeriphResetCmd
 153              		.loc 1 278 1
 154 00bc 61E0     		b	.L16
 155              	.L9:
 240:Drivers/STM32F4xx_StdPeriph_Driver/src/stm32f4xx_tim.c ****   {      
 156              		.loc 1 240 11
 157 00be 7B68     		ldr	r3, [r7, #4]
 158 00c0 384A     		ldr	r2, .L17+24
 159 00c2 9342     		cmp	r3, r2
 160 00c4 08D1     		bne	.L10
ARM GAS  C:\Users\Admin\AppData\Local\Temp\ccwOX7Bd.s 			page 9


 242:Drivers/STM32F4xx_StdPeriph_Driver/src/stm32f4xx_tim.c ****     RCC_APB2PeriphResetCmd(RCC_APB2Periph_TIM8, DISABLE);  
 161              		.loc 1 242 5
 162 00c6 0121     		movs	r1, #1
 163 00c8 0220     		movs	r0, #2
 164 00ca FFF7FEFF 		bl	RCC_APB2PeriphResetCmd
 243:Drivers/STM32F4xx_StdPeriph_Driver/src/stm32f4xx_tim.c ****   }  
 165              		.loc 1 243 5
 166 00ce 0021     		movs	r1, #0
 167 00d0 0220     		movs	r0, #2
 168 00d2 FFF7FEFF 		bl	RCC_APB2PeriphResetCmd
 169              		.loc 1 278 1
 170 00d6 54E0     		b	.L16
 171              	.L10:
 245:Drivers/STM32F4xx_StdPeriph_Driver/src/stm32f4xx_tim.c ****   {      
 172              		.loc 1 245 11
 173 00d8 7B68     		ldr	r3, [r7, #4]
 174 00da 334A     		ldr	r2, .L17+28
 175 00dc 9342     		cmp	r3, r2
 176 00de 0AD1     		bne	.L11
 247:Drivers/STM32F4xx_StdPeriph_Driver/src/stm32f4xx_tim.c ****     RCC_APB2PeriphResetCmd(RCC_APB2Periph_TIM9, DISABLE);  
 177              		.loc 1 247 5
 178 00e0 0121     		movs	r1, #1
 179 00e2 4FF48030 		mov	r0, #65536
 180 00e6 FFF7FEFF 		bl	RCC_APB2PeriphResetCmd
 248:Drivers/STM32F4xx_StdPeriph_Driver/src/stm32f4xx_tim.c ****    }  
 181              		.loc 1 248 5
 182 00ea 0021     		movs	r1, #0
 183 00ec 4FF48030 		mov	r0, #65536
 184 00f0 FFF7FEFF 		bl	RCC_APB2PeriphResetCmd
 185              		.loc 1 278 1
 186 00f4 45E0     		b	.L16
 187              	.L11:
 250:Drivers/STM32F4xx_StdPeriph_Driver/src/stm32f4xx_tim.c ****   {      
 188              		.loc 1 250 11
 189 00f6 7B68     		ldr	r3, [r7, #4]
 190 00f8 2C4A     		ldr	r2, .L17+32
 191 00fa 9342     		cmp	r3, r2
 192 00fc 0AD1     		bne	.L12
 252:Drivers/STM32F4xx_StdPeriph_Driver/src/stm32f4xx_tim.c ****     RCC_APB2PeriphResetCmd(RCC_APB2Periph_TIM10, DISABLE);  
 193              		.loc 1 252 5
 194 00fe 0121     		movs	r1, #1
 195 0100 4FF40030 		mov	r0, #131072
 196 0104 FFF7FEFF 		bl	RCC_APB2PeriphResetCmd
 253:Drivers/STM32F4xx_StdPeriph_Driver/src/stm32f4xx_tim.c ****   }  
 197              		.loc 1 253 5
 198 0108 0021     		movs	r1, #0
 199 010a 4FF40030 		mov	r0, #131072
 200 010e FFF7FEFF 		bl	RCC_APB2PeriphResetCmd
 201              		.loc 1 278 1
 202 0112 36E0     		b	.L16
 203              	.L12:
 255:Drivers/STM32F4xx_StdPeriph_Driver/src/stm32f4xx_tim.c ****   {     
 204              		.loc 1 255 11
 205 0114 7B68     		ldr	r3, [r7, #4]
 206 0116 264A     		ldr	r2, .L17+36
 207 0118 9342     		cmp	r3, r2
 208 011a 0AD1     		bne	.L13
ARM GAS  C:\Users\Admin\AppData\Local\Temp\ccwOX7Bd.s 			page 10


 257:Drivers/STM32F4xx_StdPeriph_Driver/src/stm32f4xx_tim.c ****     RCC_APB2PeriphResetCmd(RCC_APB2Periph_TIM11, DISABLE);  
 209              		.loc 1 257 5
 210 011c 0121     		movs	r1, #1
 211 011e 4FF48020 		mov	r0, #262144
 212 0122 FFF7FEFF 		bl	RCC_APB2PeriphResetCmd
 258:Drivers/STM32F4xx_StdPeriph_Driver/src/stm32f4xx_tim.c ****   }  
 213              		.loc 1 258 5
 214 0126 0021     		movs	r1, #0
 215 0128 4FF48020 		mov	r0, #262144
 216 012c FFF7FEFF 		bl	RCC_APB2PeriphResetCmd
 217              		.loc 1 278 1
 218 0130 27E0     		b	.L16
 219              	.L13:
 260:Drivers/STM32F4xx_StdPeriph_Driver/src/stm32f4xx_tim.c ****   {      
 220              		.loc 1 260 11
 221 0132 7B68     		ldr	r3, [r7, #4]
 222 0134 1F4A     		ldr	r2, .L17+40
 223 0136 9342     		cmp	r3, r2
 224 0138 08D1     		bne	.L14
 262:Drivers/STM32F4xx_StdPeriph_Driver/src/stm32f4xx_tim.c ****     RCC_APB1PeriphResetCmd(RCC_APB1Periph_TIM12, DISABLE);  
 225              		.loc 1 262 5
 226 013a 0121     		movs	r1, #1
 227 013c 4020     		movs	r0, #64
 228 013e FFF7FEFF 		bl	RCC_APB1PeriphResetCmd
 263:Drivers/STM32F4xx_StdPeriph_Driver/src/stm32f4xx_tim.c ****   }  
 229              		.loc 1 263 5
 230 0142 0021     		movs	r1, #0
 231 0144 4020     		movs	r0, #64
 232 0146 FFF7FEFF 		bl	RCC_APB1PeriphResetCmd
 233              		.loc 1 278 1
 234 014a 1AE0     		b	.L16
 235              	.L14:
 265:Drivers/STM32F4xx_StdPeriph_Driver/src/stm32f4xx_tim.c ****   {       
 236              		.loc 1 265 11
 237 014c 7B68     		ldr	r3, [r7, #4]
 238 014e 1A4A     		ldr	r2, .L17+44
 239 0150 9342     		cmp	r3, r2
 240 0152 08D1     		bne	.L15
 267:Drivers/STM32F4xx_StdPeriph_Driver/src/stm32f4xx_tim.c ****     RCC_APB1PeriphResetCmd(RCC_APB1Periph_TIM13, DISABLE);  
 241              		.loc 1 267 5
 242 0154 0121     		movs	r1, #1
 243 0156 8020     		movs	r0, #128
 244 0158 FFF7FEFF 		bl	RCC_APB1PeriphResetCmd
 268:Drivers/STM32F4xx_StdPeriph_Driver/src/stm32f4xx_tim.c ****   }  
 245              		.loc 1 268 5
 246 015c 0021     		movs	r1, #0
 247 015e 8020     		movs	r0, #128
 248 0160 FFF7FEFF 		bl	RCC_APB1PeriphResetCmd
 249              		.loc 1 278 1
 250 0164 0DE0     		b	.L16
 251              	.L15:
 272:Drivers/STM32F4xx_StdPeriph_Driver/src/stm32f4xx_tim.c ****     {     
 252              		.loc 1 272 8
 253 0166 7B68     		ldr	r3, [r7, #4]
 254 0168 144A     		ldr	r2, .L17+48
 255 016a 9342     		cmp	r3, r2
 256 016c 09D1     		bne	.L16
ARM GAS  C:\Users\Admin\AppData\Local\Temp\ccwOX7Bd.s 			page 11


 274:Drivers/STM32F4xx_StdPeriph_Driver/src/stm32f4xx_tim.c ****       RCC_APB1PeriphResetCmd(RCC_APB1Periph_TIM14, DISABLE); 
 257              		.loc 1 274 7
 258 016e 0121     		movs	r1, #1
 259 0170 4FF48070 		mov	r0, #256
 260 0174 FFF7FEFF 		bl	RCC_APB1PeriphResetCmd
 275:Drivers/STM32F4xx_StdPeriph_Driver/src/stm32f4xx_tim.c ****     }   
 261              		.loc 1 275 7
 262 0178 0021     		movs	r1, #0
 263 017a 4FF48070 		mov	r0, #256
 264 017e FFF7FEFF 		bl	RCC_APB1PeriphResetCmd
 265              	.L16:
 266              		.loc 1 278 1
 267 0182 00BF     		nop
 268 0184 0837     		adds	r7, r7, #8
 269              	.LCFI3:
 270              		.cfi_def_cfa_offset 8
 271 0186 BD46     		mov	sp, r7
 272              	.LCFI4:
 273              		.cfi_def_cfa_register 13
 274              		@ sp needed
 275 0188 80BD     		pop	{r7, pc}
 276              	.L18:
 277 018a 00BF     		.align	2
 278              	.L17:
 279 018c 00000140 		.word	1073807360
 280 0190 00040040 		.word	1073742848
 281 0194 00080040 		.word	1073743872
 282 0198 000C0040 		.word	1073744896
 283 019c 00100040 		.word	1073745920
 284 01a0 00140040 		.word	1073746944
 285 01a4 00040140 		.word	1073808384
 286 01a8 00400140 		.word	1073823744
 287 01ac 00440140 		.word	1073824768
 288 01b0 00480140 		.word	1073825792
 289 01b4 00180040 		.word	1073747968
 290 01b8 001C0040 		.word	1073748992
 291 01bc 00200040 		.word	1073750016
 292              		.cfi_endproc
 293              	.LFE130:
 295              		.section	.text.TIM_TimeBaseInit,"ax",%progbits
 296              		.align	1
 297              		.global	TIM_TimeBaseInit
 298              		.syntax unified
 299              		.thumb
 300              		.thumb_func
 302              	TIM_TimeBaseInit:
 303              	.LFB131:
 279:Drivers/STM32F4xx_StdPeriph_Driver/src/stm32f4xx_tim.c **** 
 280:Drivers/STM32F4xx_StdPeriph_Driver/src/stm32f4xx_tim.c **** /**
 281:Drivers/STM32F4xx_StdPeriph_Driver/src/stm32f4xx_tim.c ****   * @brief  Initializes the TIMx Time Base Unit peripheral according to 
 282:Drivers/STM32F4xx_StdPeriph_Driver/src/stm32f4xx_tim.c ****   *         the specified parameters in the TIM_TimeBaseInitStruct.
 283:Drivers/STM32F4xx_StdPeriph_Driver/src/stm32f4xx_tim.c ****   * @param  TIMx: where x can be  1 to 14 to select the TIM peripheral.
 284:Drivers/STM32F4xx_StdPeriph_Driver/src/stm32f4xx_tim.c ****   * @param  TIM_TimeBaseInitStruct: pointer to a TIM_TimeBaseInitTypeDef structure
 285:Drivers/STM32F4xx_StdPeriph_Driver/src/stm32f4xx_tim.c ****   *         that contains the configuration information for the specified TIM peripheral.
 286:Drivers/STM32F4xx_StdPeriph_Driver/src/stm32f4xx_tim.c ****   * @retval None
 287:Drivers/STM32F4xx_StdPeriph_Driver/src/stm32f4xx_tim.c ****   */
 288:Drivers/STM32F4xx_StdPeriph_Driver/src/stm32f4xx_tim.c **** void TIM_TimeBaseInit(TIM_TypeDef* TIMx, TIM_TimeBaseInitTypeDef* TIM_TimeBaseInitStruct)
ARM GAS  C:\Users\Admin\AppData\Local\Temp\ccwOX7Bd.s 			page 12


 289:Drivers/STM32F4xx_StdPeriph_Driver/src/stm32f4xx_tim.c **** {
 304              		.loc 1 289 1
 305              		.cfi_startproc
 306              		@ args = 0, pretend = 0, frame = 16
 307              		@ frame_needed = 1, uses_anonymous_args = 0
 308              		@ link register save eliminated.
 309 0000 80B4     		push	{r7}
 310              	.LCFI5:
 311              		.cfi_def_cfa_offset 4
 312              		.cfi_offset 7, -4
 313 0002 85B0     		sub	sp, sp, #20
 314              	.LCFI6:
 315              		.cfi_def_cfa_offset 24
 316 0004 00AF     		add	r7, sp, #0
 317              	.LCFI7:
 318              		.cfi_def_cfa_register 7
 319 0006 7860     		str	r0, [r7, #4]
 320 0008 3960     		str	r1, [r7]
 290:Drivers/STM32F4xx_StdPeriph_Driver/src/stm32f4xx_tim.c ****   uint16_t tmpcr1 = 0;
 321              		.loc 1 290 12
 322 000a 0023     		movs	r3, #0
 323 000c FB81     		strh	r3, [r7, #14]	@ movhi
 291:Drivers/STM32F4xx_StdPeriph_Driver/src/stm32f4xx_tim.c **** 
 292:Drivers/STM32F4xx_StdPeriph_Driver/src/stm32f4xx_tim.c ****   /* Check the parameters */
 293:Drivers/STM32F4xx_StdPeriph_Driver/src/stm32f4xx_tim.c ****   assert_param(IS_TIM_ALL_PERIPH(TIMx)); 
 294:Drivers/STM32F4xx_StdPeriph_Driver/src/stm32f4xx_tim.c ****   assert_param(IS_TIM_COUNTER_MODE(TIM_TimeBaseInitStruct->TIM_CounterMode));
 295:Drivers/STM32F4xx_StdPeriph_Driver/src/stm32f4xx_tim.c ****   assert_param(IS_TIM_CKD_DIV(TIM_TimeBaseInitStruct->TIM_ClockDivision));
 296:Drivers/STM32F4xx_StdPeriph_Driver/src/stm32f4xx_tim.c **** 
 297:Drivers/STM32F4xx_StdPeriph_Driver/src/stm32f4xx_tim.c ****   tmpcr1 = TIMx->CR1;  
 324              		.loc 1 297 10
 325 000e 7B68     		ldr	r3, [r7, #4]
 326 0010 1B88     		ldrh	r3, [r3]	@ movhi
 327 0012 FB81     		strh	r3, [r7, #14]	@ movhi
 298:Drivers/STM32F4xx_StdPeriph_Driver/src/stm32f4xx_tim.c **** 
 299:Drivers/STM32F4xx_StdPeriph_Driver/src/stm32f4xx_tim.c ****   if((TIMx == TIM1) || (TIMx == TIM8)||
 328              		.loc 1 299 5
 329 0014 7B68     		ldr	r3, [r7, #4]
 330 0016 294A     		ldr	r2, .L25
 331 0018 9342     		cmp	r3, r2
 332 001a 13D0     		beq	.L20
 333              		.loc 1 299 21 discriminator 1
 334 001c 7B68     		ldr	r3, [r7, #4]
 335 001e 284A     		ldr	r2, .L25+4
 336 0020 9342     		cmp	r3, r2
 337 0022 0FD0     		beq	.L20
 338              		.loc 1 299 38 discriminator 2
 339 0024 7B68     		ldr	r3, [r7, #4]
 340 0026 B3F1804F 		cmp	r3, #1073741824
 341 002a 0BD0     		beq	.L20
 300:Drivers/STM32F4xx_StdPeriph_Driver/src/stm32f4xx_tim.c ****      (TIMx == TIM2) || (TIMx == TIM3)||
 342              		.loc 1 300 21
 343 002c 7B68     		ldr	r3, [r7, #4]
 344 002e 254A     		ldr	r2, .L25+8
 345 0030 9342     		cmp	r3, r2
 346 0032 07D0     		beq	.L20
 347              		.loc 1 300 38 discriminator 1
 348 0034 7B68     		ldr	r3, [r7, #4]
ARM GAS  C:\Users\Admin\AppData\Local\Temp\ccwOX7Bd.s 			page 13


 349 0036 244A     		ldr	r2, .L25+12
 350 0038 9342     		cmp	r3, r2
 351 003a 03D0     		beq	.L20
 301:Drivers/STM32F4xx_StdPeriph_Driver/src/stm32f4xx_tim.c ****      (TIMx == TIM4) || (TIMx == TIM5)) 
 352              		.loc 1 301 21
 353 003c 7B68     		ldr	r3, [r7, #4]
 354 003e 234A     		ldr	r2, .L25+16
 355 0040 9342     		cmp	r3, r2
 356 0042 08D1     		bne	.L21
 357              	.L20:
 302:Drivers/STM32F4xx_StdPeriph_Driver/src/stm32f4xx_tim.c ****   {
 303:Drivers/STM32F4xx_StdPeriph_Driver/src/stm32f4xx_tim.c ****     /* Select the Counter Mode */
 304:Drivers/STM32F4xx_StdPeriph_Driver/src/stm32f4xx_tim.c ****     tmpcr1 &= (uint16_t)(~(TIM_CR1_DIR | TIM_CR1_CMS));
 358              		.loc 1 304 12
 359 0044 FB89     		ldrh	r3, [r7, #14]	@ movhi
 360 0046 23F07003 		bic	r3, r3, #112
 361 004a FB81     		strh	r3, [r7, #14]	@ movhi
 305:Drivers/STM32F4xx_StdPeriph_Driver/src/stm32f4xx_tim.c ****     tmpcr1 |= (uint32_t)TIM_TimeBaseInitStruct->TIM_CounterMode;
 362              		.loc 1 305 47
 363 004c 3B68     		ldr	r3, [r7]
 364 004e 5A88     		ldrh	r2, [r3, #2]
 365              		.loc 1 305 12
 366 0050 FB89     		ldrh	r3, [r7, #14]	@ movhi
 367 0052 1343     		orrs	r3, r3, r2
 368 0054 FB81     		strh	r3, [r7, #14]	@ movhi
 369              	.L21:
 306:Drivers/STM32F4xx_StdPeriph_Driver/src/stm32f4xx_tim.c ****   }
 307:Drivers/STM32F4xx_StdPeriph_Driver/src/stm32f4xx_tim.c ****  
 308:Drivers/STM32F4xx_StdPeriph_Driver/src/stm32f4xx_tim.c ****   if((TIMx != TIM6) && (TIMx != TIM7))
 370              		.loc 1 308 5
 371 0056 7B68     		ldr	r3, [r7, #4]
 372 0058 1D4A     		ldr	r2, .L25+20
 373 005a 9342     		cmp	r3, r2
 374 005c 0CD0     		beq	.L22
 375              		.loc 1 308 21 discriminator 1
 376 005e 7B68     		ldr	r3, [r7, #4]
 377 0060 1C4A     		ldr	r2, .L25+24
 378 0062 9342     		cmp	r3, r2
 379 0064 08D0     		beq	.L22
 309:Drivers/STM32F4xx_StdPeriph_Driver/src/stm32f4xx_tim.c ****   {
 310:Drivers/STM32F4xx_StdPeriph_Driver/src/stm32f4xx_tim.c ****     /* Set the clock division */
 311:Drivers/STM32F4xx_StdPeriph_Driver/src/stm32f4xx_tim.c ****     tmpcr1 &=  (uint16_t)(~TIM_CR1_CKD);
 380              		.loc 1 311 12
 381 0066 FB89     		ldrh	r3, [r7, #14]	@ movhi
 382 0068 23F44073 		bic	r3, r3, #768
 383 006c FB81     		strh	r3, [r7, #14]	@ movhi
 312:Drivers/STM32F4xx_StdPeriph_Driver/src/stm32f4xx_tim.c ****     tmpcr1 |= (uint32_t)TIM_TimeBaseInitStruct->TIM_ClockDivision;
 384              		.loc 1 312 47
 385 006e 3B68     		ldr	r3, [r7]
 386 0070 1A89     		ldrh	r2, [r3, #8]
 387              		.loc 1 312 12
 388 0072 FB89     		ldrh	r3, [r7, #14]	@ movhi
 389 0074 1343     		orrs	r3, r3, r2
 390 0076 FB81     		strh	r3, [r7, #14]	@ movhi
 391              	.L22:
 313:Drivers/STM32F4xx_StdPeriph_Driver/src/stm32f4xx_tim.c ****   }
 314:Drivers/STM32F4xx_StdPeriph_Driver/src/stm32f4xx_tim.c **** 
ARM GAS  C:\Users\Admin\AppData\Local\Temp\ccwOX7Bd.s 			page 14


 315:Drivers/STM32F4xx_StdPeriph_Driver/src/stm32f4xx_tim.c ****   TIMx->CR1 = tmpcr1;
 392              		.loc 1 315 13
 393 0078 7B68     		ldr	r3, [r7, #4]
 394 007a FA89     		ldrh	r2, [r7, #14]	@ movhi
 395 007c 1A80     		strh	r2, [r3]	@ movhi
 316:Drivers/STM32F4xx_StdPeriph_Driver/src/stm32f4xx_tim.c **** 
 317:Drivers/STM32F4xx_StdPeriph_Driver/src/stm32f4xx_tim.c ****   /* Set the Autoreload value */
 318:Drivers/STM32F4xx_StdPeriph_Driver/src/stm32f4xx_tim.c ****   TIMx->ARR = TIM_TimeBaseInitStruct->TIM_Period ;
 396              		.loc 1 318 37
 397 007e 3B68     		ldr	r3, [r7]
 398 0080 5A68     		ldr	r2, [r3, #4]
 399              		.loc 1 318 13
 400 0082 7B68     		ldr	r3, [r7, #4]
 401 0084 DA62     		str	r2, [r3, #44]
 319:Drivers/STM32F4xx_StdPeriph_Driver/src/stm32f4xx_tim.c ****  
 320:Drivers/STM32F4xx_StdPeriph_Driver/src/stm32f4xx_tim.c ****   /* Set the Prescaler value */
 321:Drivers/STM32F4xx_StdPeriph_Driver/src/stm32f4xx_tim.c ****   TIMx->PSC = TIM_TimeBaseInitStruct->TIM_Prescaler;
 402              		.loc 1 321 37
 403 0086 3B68     		ldr	r3, [r7]
 404 0088 1A88     		ldrh	r2, [r3]
 405              		.loc 1 321 13
 406 008a 7B68     		ldr	r3, [r7, #4]
 407 008c 1A85     		strh	r2, [r3, #40]	@ movhi
 322:Drivers/STM32F4xx_StdPeriph_Driver/src/stm32f4xx_tim.c ****     
 323:Drivers/STM32F4xx_StdPeriph_Driver/src/stm32f4xx_tim.c ****   if ((TIMx == TIM1) || (TIMx == TIM8))  
 408              		.loc 1 323 6
 409 008e 7B68     		ldr	r3, [r7, #4]
 410 0090 0A4A     		ldr	r2, .L25
 411 0092 9342     		cmp	r3, r2
 412 0094 03D0     		beq	.L23
 413              		.loc 1 323 22 discriminator 1
 414 0096 7B68     		ldr	r3, [r7, #4]
 415 0098 094A     		ldr	r2, .L25+4
 416 009a 9342     		cmp	r3, r2
 417 009c 04D1     		bne	.L24
 418              	.L23:
 324:Drivers/STM32F4xx_StdPeriph_Driver/src/stm32f4xx_tim.c ****   {
 325:Drivers/STM32F4xx_StdPeriph_Driver/src/stm32f4xx_tim.c ****     /* Set the Repetition Counter value */
 326:Drivers/STM32F4xx_StdPeriph_Driver/src/stm32f4xx_tim.c ****     TIMx->RCR = TIM_TimeBaseInitStruct->TIM_RepetitionCounter;
 419              		.loc 1 326 39
 420 009e 3B68     		ldr	r3, [r7]
 421 00a0 9B7A     		ldrb	r3, [r3, #10]	@ zero_extendqisi2
 422 00a2 9AB2     		uxth	r2, r3
 423              		.loc 1 326 15
 424 00a4 7B68     		ldr	r3, [r7, #4]
 425 00a6 1A86     		strh	r2, [r3, #48]	@ movhi
 426              	.L24:
 327:Drivers/STM32F4xx_StdPeriph_Driver/src/stm32f4xx_tim.c ****   }
 328:Drivers/STM32F4xx_StdPeriph_Driver/src/stm32f4xx_tim.c **** 
 329:Drivers/STM32F4xx_StdPeriph_Driver/src/stm32f4xx_tim.c ****   /* Generate an update event to reload the Prescaler 
 330:Drivers/STM32F4xx_StdPeriph_Driver/src/stm32f4xx_tim.c ****      and the repetition counter(only for TIM1 and TIM8) value immediately */
 331:Drivers/STM32F4xx_StdPeriph_Driver/src/stm32f4xx_tim.c ****   TIMx->EGR = TIM_PSCReloadMode_Immediate;          
 427              		.loc 1 331 13
 428 00a8 7B68     		ldr	r3, [r7, #4]
 429 00aa 0122     		movs	r2, #1
 430 00ac 9A82     		strh	r2, [r3, #20]	@ movhi
 332:Drivers/STM32F4xx_StdPeriph_Driver/src/stm32f4xx_tim.c **** }
ARM GAS  C:\Users\Admin\AppData\Local\Temp\ccwOX7Bd.s 			page 15


 431              		.loc 1 332 1
 432 00ae 00BF     		nop
 433 00b0 1437     		adds	r7, r7, #20
 434              	.LCFI8:
 435              		.cfi_def_cfa_offset 4
 436 00b2 BD46     		mov	sp, r7
 437              	.LCFI9:
 438              		.cfi_def_cfa_register 13
 439              		@ sp needed
 440 00b4 5DF8047B 		ldr	r7, [sp], #4
 441              	.LCFI10:
 442              		.cfi_restore 7
 443              		.cfi_def_cfa_offset 0
 444 00b8 7047     		bx	lr
 445              	.L26:
 446 00ba 00BF     		.align	2
 447              	.L25:
 448 00bc 00000140 		.word	1073807360
 449 00c0 00040140 		.word	1073808384
 450 00c4 00040040 		.word	1073742848
 451 00c8 00080040 		.word	1073743872
 452 00cc 000C0040 		.word	1073744896
 453 00d0 00100040 		.word	1073745920
 454 00d4 00140040 		.word	1073746944
 455              		.cfi_endproc
 456              	.LFE131:
 458              		.section	.text.TIM_TimeBaseStructInit,"ax",%progbits
 459              		.align	1
 460              		.global	TIM_TimeBaseStructInit
 461              		.syntax unified
 462              		.thumb
 463              		.thumb_func
 465              	TIM_TimeBaseStructInit:
 466              	.LFB132:
 333:Drivers/STM32F4xx_StdPeriph_Driver/src/stm32f4xx_tim.c **** 
 334:Drivers/STM32F4xx_StdPeriph_Driver/src/stm32f4xx_tim.c **** /**
 335:Drivers/STM32F4xx_StdPeriph_Driver/src/stm32f4xx_tim.c ****   * @brief  Fills each TIM_TimeBaseInitStruct member with its default value.
 336:Drivers/STM32F4xx_StdPeriph_Driver/src/stm32f4xx_tim.c ****   * @param  TIM_TimeBaseInitStruct : pointer to a TIM_TimeBaseInitTypeDef
 337:Drivers/STM32F4xx_StdPeriph_Driver/src/stm32f4xx_tim.c ****   *         structure which will be initialized.
 338:Drivers/STM32F4xx_StdPeriph_Driver/src/stm32f4xx_tim.c ****   * @retval None
 339:Drivers/STM32F4xx_StdPeriph_Driver/src/stm32f4xx_tim.c ****   */
 340:Drivers/STM32F4xx_StdPeriph_Driver/src/stm32f4xx_tim.c **** void TIM_TimeBaseStructInit(TIM_TimeBaseInitTypeDef* TIM_TimeBaseInitStruct)
 341:Drivers/STM32F4xx_StdPeriph_Driver/src/stm32f4xx_tim.c **** {
 467              		.loc 1 341 1
 468              		.cfi_startproc
 469              		@ args = 0, pretend = 0, frame = 8
 470              		@ frame_needed = 1, uses_anonymous_args = 0
 471              		@ link register save eliminated.
 472 0000 80B4     		push	{r7}
 473              	.LCFI11:
 474              		.cfi_def_cfa_offset 4
 475              		.cfi_offset 7, -4
 476 0002 83B0     		sub	sp, sp, #12
 477              	.LCFI12:
 478              		.cfi_def_cfa_offset 16
 479 0004 00AF     		add	r7, sp, #0
 480              	.LCFI13:
ARM GAS  C:\Users\Admin\AppData\Local\Temp\ccwOX7Bd.s 			page 16


 481              		.cfi_def_cfa_register 7
 482 0006 7860     		str	r0, [r7, #4]
 342:Drivers/STM32F4xx_StdPeriph_Driver/src/stm32f4xx_tim.c ****   /* Set the default configuration */
 343:Drivers/STM32F4xx_StdPeriph_Driver/src/stm32f4xx_tim.c ****   TIM_TimeBaseInitStruct->TIM_Period = 0xFFFFFFFF;
 483              		.loc 1 343 38
 484 0008 7B68     		ldr	r3, [r7, #4]
 485 000a 4FF0FF32 		mov	r2, #-1
 486 000e 5A60     		str	r2, [r3, #4]
 344:Drivers/STM32F4xx_StdPeriph_Driver/src/stm32f4xx_tim.c ****   TIM_TimeBaseInitStruct->TIM_Prescaler = 0x0000;
 487              		.loc 1 344 41
 488 0010 7B68     		ldr	r3, [r7, #4]
 489 0012 0022     		movs	r2, #0
 490 0014 1A80     		strh	r2, [r3]	@ movhi
 345:Drivers/STM32F4xx_StdPeriph_Driver/src/stm32f4xx_tim.c ****   TIM_TimeBaseInitStruct->TIM_ClockDivision = TIM_CKD_DIV1;
 491              		.loc 1 345 45
 492 0016 7B68     		ldr	r3, [r7, #4]
 493 0018 0022     		movs	r2, #0
 494 001a 1A81     		strh	r2, [r3, #8]	@ movhi
 346:Drivers/STM32F4xx_StdPeriph_Driver/src/stm32f4xx_tim.c ****   TIM_TimeBaseInitStruct->TIM_CounterMode = TIM_CounterMode_Up;
 495              		.loc 1 346 43
 496 001c 7B68     		ldr	r3, [r7, #4]
 497 001e 0022     		movs	r2, #0
 498 0020 5A80     		strh	r2, [r3, #2]	@ movhi
 347:Drivers/STM32F4xx_StdPeriph_Driver/src/stm32f4xx_tim.c ****   TIM_TimeBaseInitStruct->TIM_RepetitionCounter = 0x0000;
 499              		.loc 1 347 49
 500 0022 7B68     		ldr	r3, [r7, #4]
 501 0024 0022     		movs	r2, #0
 502 0026 9A72     		strb	r2, [r3, #10]
 348:Drivers/STM32F4xx_StdPeriph_Driver/src/stm32f4xx_tim.c **** }
 503              		.loc 1 348 1
 504 0028 00BF     		nop
 505 002a 0C37     		adds	r7, r7, #12
 506              	.LCFI14:
 507              		.cfi_def_cfa_offset 4
 508 002c BD46     		mov	sp, r7
 509              	.LCFI15:
 510              		.cfi_def_cfa_register 13
 511              		@ sp needed
 512 002e 5DF8047B 		ldr	r7, [sp], #4
 513              	.LCFI16:
 514              		.cfi_restore 7
 515              		.cfi_def_cfa_offset 0
 516 0032 7047     		bx	lr
 517              		.cfi_endproc
 518              	.LFE132:
 520              		.section	.text.TIM_PrescalerConfig,"ax",%progbits
 521              		.align	1
 522              		.global	TIM_PrescalerConfig
 523              		.syntax unified
 524              		.thumb
 525              		.thumb_func
 527              	TIM_PrescalerConfig:
 528              	.LFB133:
 349:Drivers/STM32F4xx_StdPeriph_Driver/src/stm32f4xx_tim.c **** 
 350:Drivers/STM32F4xx_StdPeriph_Driver/src/stm32f4xx_tim.c **** /**
 351:Drivers/STM32F4xx_StdPeriph_Driver/src/stm32f4xx_tim.c ****   * @brief  Configures the TIMx Prescaler.
 352:Drivers/STM32F4xx_StdPeriph_Driver/src/stm32f4xx_tim.c ****   * @param  TIMx: where x can be  1 to 14 to select the TIM peripheral.
ARM GAS  C:\Users\Admin\AppData\Local\Temp\ccwOX7Bd.s 			page 17


 353:Drivers/STM32F4xx_StdPeriph_Driver/src/stm32f4xx_tim.c ****   * @param  Prescaler: specifies the Prescaler Register value
 354:Drivers/STM32F4xx_StdPeriph_Driver/src/stm32f4xx_tim.c ****   * @param  TIM_PSCReloadMode: specifies the TIM Prescaler Reload mode
 355:Drivers/STM32F4xx_StdPeriph_Driver/src/stm32f4xx_tim.c ****   *          This parameter can be one of the following values:
 356:Drivers/STM32F4xx_StdPeriph_Driver/src/stm32f4xx_tim.c ****   *            @arg TIM_PSCReloadMode_Update: The Prescaler is loaded at the update event.
 357:Drivers/STM32F4xx_StdPeriph_Driver/src/stm32f4xx_tim.c ****   *            @arg TIM_PSCReloadMode_Immediate: The Prescaler is loaded immediately.
 358:Drivers/STM32F4xx_StdPeriph_Driver/src/stm32f4xx_tim.c ****   * @retval None
 359:Drivers/STM32F4xx_StdPeriph_Driver/src/stm32f4xx_tim.c ****   */
 360:Drivers/STM32F4xx_StdPeriph_Driver/src/stm32f4xx_tim.c **** void TIM_PrescalerConfig(TIM_TypeDef* TIMx, uint16_t Prescaler, uint16_t TIM_PSCReloadMode)
 361:Drivers/STM32F4xx_StdPeriph_Driver/src/stm32f4xx_tim.c **** {
 529              		.loc 1 361 1
 530              		.cfi_startproc
 531              		@ args = 0, pretend = 0, frame = 8
 532              		@ frame_needed = 1, uses_anonymous_args = 0
 533              		@ link register save eliminated.
 534 0000 80B4     		push	{r7}
 535              	.LCFI17:
 536              		.cfi_def_cfa_offset 4
 537              		.cfi_offset 7, -4
 538 0002 83B0     		sub	sp, sp, #12
 539              	.LCFI18:
 540              		.cfi_def_cfa_offset 16
 541 0004 00AF     		add	r7, sp, #0
 542              	.LCFI19:
 543              		.cfi_def_cfa_register 7
 544 0006 7860     		str	r0, [r7, #4]
 545 0008 0B46     		mov	r3, r1
 546 000a 7B80     		strh	r3, [r7, #2]	@ movhi
 547 000c 1346     		mov	r3, r2	@ movhi
 548 000e 3B80     		strh	r3, [r7]	@ movhi
 362:Drivers/STM32F4xx_StdPeriph_Driver/src/stm32f4xx_tim.c ****   /* Check the parameters */
 363:Drivers/STM32F4xx_StdPeriph_Driver/src/stm32f4xx_tim.c ****   assert_param(IS_TIM_ALL_PERIPH(TIMx));
 364:Drivers/STM32F4xx_StdPeriph_Driver/src/stm32f4xx_tim.c ****   assert_param(IS_TIM_PRESCALER_RELOAD(TIM_PSCReloadMode));
 365:Drivers/STM32F4xx_StdPeriph_Driver/src/stm32f4xx_tim.c ****   /* Set the Prescaler value */
 366:Drivers/STM32F4xx_StdPeriph_Driver/src/stm32f4xx_tim.c ****   TIMx->PSC = Prescaler;
 549              		.loc 1 366 13
 550 0010 7B68     		ldr	r3, [r7, #4]
 551 0012 7A88     		ldrh	r2, [r7, #2]	@ movhi
 552 0014 1A85     		strh	r2, [r3, #40]	@ movhi
 367:Drivers/STM32F4xx_StdPeriph_Driver/src/stm32f4xx_tim.c ****   /* Set or reset the UG Bit */
 368:Drivers/STM32F4xx_StdPeriph_Driver/src/stm32f4xx_tim.c ****   TIMx->EGR = TIM_PSCReloadMode;
 553              		.loc 1 368 13
 554 0016 7B68     		ldr	r3, [r7, #4]
 555 0018 3A88     		ldrh	r2, [r7]	@ movhi
 556 001a 9A82     		strh	r2, [r3, #20]	@ movhi
 369:Drivers/STM32F4xx_StdPeriph_Driver/src/stm32f4xx_tim.c **** }
 557              		.loc 1 369 1
 558 001c 00BF     		nop
 559 001e 0C37     		adds	r7, r7, #12
 560              	.LCFI20:
 561              		.cfi_def_cfa_offset 4
 562 0020 BD46     		mov	sp, r7
 563              	.LCFI21:
 564              		.cfi_def_cfa_register 13
 565              		@ sp needed
 566 0022 5DF8047B 		ldr	r7, [sp], #4
 567              	.LCFI22:
 568              		.cfi_restore 7
ARM GAS  C:\Users\Admin\AppData\Local\Temp\ccwOX7Bd.s 			page 18


 569              		.cfi_def_cfa_offset 0
 570 0026 7047     		bx	lr
 571              		.cfi_endproc
 572              	.LFE133:
 574              		.section	.text.TIM_CounterModeConfig,"ax",%progbits
 575              		.align	1
 576              		.global	TIM_CounterModeConfig
 577              		.syntax unified
 578              		.thumb
 579              		.thumb_func
 581              	TIM_CounterModeConfig:
 582              	.LFB134:
 370:Drivers/STM32F4xx_StdPeriph_Driver/src/stm32f4xx_tim.c **** 
 371:Drivers/STM32F4xx_StdPeriph_Driver/src/stm32f4xx_tim.c **** /**
 372:Drivers/STM32F4xx_StdPeriph_Driver/src/stm32f4xx_tim.c ****   * @brief  Specifies the TIMx Counter Mode to be used.
 373:Drivers/STM32F4xx_StdPeriph_Driver/src/stm32f4xx_tim.c ****   * @param  TIMx: where x can be  1, 2, 3, 4, 5 or 8 to select the TIM peripheral.
 374:Drivers/STM32F4xx_StdPeriph_Driver/src/stm32f4xx_tim.c ****   * @param  TIM_CounterMode: specifies the Counter Mode to be used
 375:Drivers/STM32F4xx_StdPeriph_Driver/src/stm32f4xx_tim.c ****   *          This parameter can be one of the following values:
 376:Drivers/STM32F4xx_StdPeriph_Driver/src/stm32f4xx_tim.c ****   *            @arg TIM_CounterMode_Up: TIM Up Counting Mode
 377:Drivers/STM32F4xx_StdPeriph_Driver/src/stm32f4xx_tim.c ****   *            @arg TIM_CounterMode_Down: TIM Down Counting Mode
 378:Drivers/STM32F4xx_StdPeriph_Driver/src/stm32f4xx_tim.c ****   *            @arg TIM_CounterMode_CenterAligned1: TIM Center Aligned Mode1
 379:Drivers/STM32F4xx_StdPeriph_Driver/src/stm32f4xx_tim.c ****   *            @arg TIM_CounterMode_CenterAligned2: TIM Center Aligned Mode2
 380:Drivers/STM32F4xx_StdPeriph_Driver/src/stm32f4xx_tim.c ****   *            @arg TIM_CounterMode_CenterAligned3: TIM Center Aligned Mode3
 381:Drivers/STM32F4xx_StdPeriph_Driver/src/stm32f4xx_tim.c ****   * @retval None
 382:Drivers/STM32F4xx_StdPeriph_Driver/src/stm32f4xx_tim.c ****   */
 383:Drivers/STM32F4xx_StdPeriph_Driver/src/stm32f4xx_tim.c **** void TIM_CounterModeConfig(TIM_TypeDef* TIMx, uint16_t TIM_CounterMode)
 384:Drivers/STM32F4xx_StdPeriph_Driver/src/stm32f4xx_tim.c **** {
 583              		.loc 1 384 1
 584              		.cfi_startproc
 585              		@ args = 0, pretend = 0, frame = 16
 586              		@ frame_needed = 1, uses_anonymous_args = 0
 587              		@ link register save eliminated.
 588 0000 80B4     		push	{r7}
 589              	.LCFI23:
 590              		.cfi_def_cfa_offset 4
 591              		.cfi_offset 7, -4
 592 0002 85B0     		sub	sp, sp, #20
 593              	.LCFI24:
 594              		.cfi_def_cfa_offset 24
 595 0004 00AF     		add	r7, sp, #0
 596              	.LCFI25:
 597              		.cfi_def_cfa_register 7
 598 0006 7860     		str	r0, [r7, #4]
 599 0008 0B46     		mov	r3, r1
 600 000a 7B80     		strh	r3, [r7, #2]	@ movhi
 385:Drivers/STM32F4xx_StdPeriph_Driver/src/stm32f4xx_tim.c ****   uint16_t tmpcr1 = 0;
 601              		.loc 1 385 12
 602 000c 0023     		movs	r3, #0
 603 000e FB81     		strh	r3, [r7, #14]	@ movhi
 386:Drivers/STM32F4xx_StdPeriph_Driver/src/stm32f4xx_tim.c **** 
 387:Drivers/STM32F4xx_StdPeriph_Driver/src/stm32f4xx_tim.c ****   /* Check the parameters */
 388:Drivers/STM32F4xx_StdPeriph_Driver/src/stm32f4xx_tim.c ****   assert_param(IS_TIM_LIST3_PERIPH(TIMx));
 389:Drivers/STM32F4xx_StdPeriph_Driver/src/stm32f4xx_tim.c ****   assert_param(IS_TIM_COUNTER_MODE(TIM_CounterMode));
 390:Drivers/STM32F4xx_StdPeriph_Driver/src/stm32f4xx_tim.c **** 
 391:Drivers/STM32F4xx_StdPeriph_Driver/src/stm32f4xx_tim.c ****   tmpcr1 = TIMx->CR1;
 604              		.loc 1 391 10
 605 0010 7B68     		ldr	r3, [r7, #4]
ARM GAS  C:\Users\Admin\AppData\Local\Temp\ccwOX7Bd.s 			page 19


 606 0012 1B88     		ldrh	r3, [r3]	@ movhi
 607 0014 FB81     		strh	r3, [r7, #14]	@ movhi
 392:Drivers/STM32F4xx_StdPeriph_Driver/src/stm32f4xx_tim.c **** 
 393:Drivers/STM32F4xx_StdPeriph_Driver/src/stm32f4xx_tim.c ****   /* Reset the CMS and DIR Bits */
 394:Drivers/STM32F4xx_StdPeriph_Driver/src/stm32f4xx_tim.c ****   tmpcr1 &= (uint16_t)~(TIM_CR1_DIR | TIM_CR1_CMS);
 608              		.loc 1 394 10
 609 0016 FB89     		ldrh	r3, [r7, #14]	@ movhi
 610 0018 23F07003 		bic	r3, r3, #112
 611 001c FB81     		strh	r3, [r7, #14]	@ movhi
 395:Drivers/STM32F4xx_StdPeriph_Driver/src/stm32f4xx_tim.c **** 
 396:Drivers/STM32F4xx_StdPeriph_Driver/src/stm32f4xx_tim.c ****   /* Set the Counter Mode */
 397:Drivers/STM32F4xx_StdPeriph_Driver/src/stm32f4xx_tim.c ****   tmpcr1 |= TIM_CounterMode;
 612              		.loc 1 397 10
 613 001e FA89     		ldrh	r2, [r7, #14]	@ movhi
 614 0020 7B88     		ldrh	r3, [r7, #2]	@ movhi
 615 0022 1343     		orrs	r3, r3, r2
 616 0024 FB81     		strh	r3, [r7, #14]	@ movhi
 398:Drivers/STM32F4xx_StdPeriph_Driver/src/stm32f4xx_tim.c **** 
 399:Drivers/STM32F4xx_StdPeriph_Driver/src/stm32f4xx_tim.c ****   /* Write to TIMx CR1 register */
 400:Drivers/STM32F4xx_StdPeriph_Driver/src/stm32f4xx_tim.c ****   TIMx->CR1 = tmpcr1;
 617              		.loc 1 400 13
 618 0026 7B68     		ldr	r3, [r7, #4]
 619 0028 FA89     		ldrh	r2, [r7, #14]	@ movhi
 620 002a 1A80     		strh	r2, [r3]	@ movhi
 401:Drivers/STM32F4xx_StdPeriph_Driver/src/stm32f4xx_tim.c **** }
 621              		.loc 1 401 1
 622 002c 00BF     		nop
 623 002e 1437     		adds	r7, r7, #20
 624              	.LCFI26:
 625              		.cfi_def_cfa_offset 4
 626 0030 BD46     		mov	sp, r7
 627              	.LCFI27:
 628              		.cfi_def_cfa_register 13
 629              		@ sp needed
 630 0032 5DF8047B 		ldr	r7, [sp], #4
 631              	.LCFI28:
 632              		.cfi_restore 7
 633              		.cfi_def_cfa_offset 0
 634 0036 7047     		bx	lr
 635              		.cfi_endproc
 636              	.LFE134:
 638              		.section	.text.TIM_SetCounter,"ax",%progbits
 639              		.align	1
 640              		.global	TIM_SetCounter
 641              		.syntax unified
 642              		.thumb
 643              		.thumb_func
 645              	TIM_SetCounter:
 646              	.LFB135:
 402:Drivers/STM32F4xx_StdPeriph_Driver/src/stm32f4xx_tim.c **** 
 403:Drivers/STM32F4xx_StdPeriph_Driver/src/stm32f4xx_tim.c **** /**
 404:Drivers/STM32F4xx_StdPeriph_Driver/src/stm32f4xx_tim.c ****   * @brief  Sets the TIMx Counter Register value
 405:Drivers/STM32F4xx_StdPeriph_Driver/src/stm32f4xx_tim.c ****   * @param  TIMx: where x can be 1 to 14 to select the TIM peripheral.
 406:Drivers/STM32F4xx_StdPeriph_Driver/src/stm32f4xx_tim.c ****   * @param  Counter: specifies the Counter register new value.
 407:Drivers/STM32F4xx_StdPeriph_Driver/src/stm32f4xx_tim.c ****   * @retval None
 408:Drivers/STM32F4xx_StdPeriph_Driver/src/stm32f4xx_tim.c ****   */
 409:Drivers/STM32F4xx_StdPeriph_Driver/src/stm32f4xx_tim.c **** void TIM_SetCounter(TIM_TypeDef* TIMx, uint32_t Counter)
ARM GAS  C:\Users\Admin\AppData\Local\Temp\ccwOX7Bd.s 			page 20


 410:Drivers/STM32F4xx_StdPeriph_Driver/src/stm32f4xx_tim.c **** {
 647              		.loc 1 410 1
 648              		.cfi_startproc
 649              		@ args = 0, pretend = 0, frame = 8
 650              		@ frame_needed = 1, uses_anonymous_args = 0
 651              		@ link register save eliminated.
 652 0000 80B4     		push	{r7}
 653              	.LCFI29:
 654              		.cfi_def_cfa_offset 4
 655              		.cfi_offset 7, -4
 656 0002 83B0     		sub	sp, sp, #12
 657              	.LCFI30:
 658              		.cfi_def_cfa_offset 16
 659 0004 00AF     		add	r7, sp, #0
 660              	.LCFI31:
 661              		.cfi_def_cfa_register 7
 662 0006 7860     		str	r0, [r7, #4]
 663 0008 3960     		str	r1, [r7]
 411:Drivers/STM32F4xx_StdPeriph_Driver/src/stm32f4xx_tim.c ****   /* Check the parameters */
 412:Drivers/STM32F4xx_StdPeriph_Driver/src/stm32f4xx_tim.c ****    assert_param(IS_TIM_ALL_PERIPH(TIMx));
 413:Drivers/STM32F4xx_StdPeriph_Driver/src/stm32f4xx_tim.c **** 
 414:Drivers/STM32F4xx_StdPeriph_Driver/src/stm32f4xx_tim.c ****   /* Set the Counter Register value */
 415:Drivers/STM32F4xx_StdPeriph_Driver/src/stm32f4xx_tim.c ****   TIMx->CNT = Counter;
 664              		.loc 1 415 13
 665 000a 7B68     		ldr	r3, [r7, #4]
 666 000c 3A68     		ldr	r2, [r7]
 667 000e 5A62     		str	r2, [r3, #36]
 416:Drivers/STM32F4xx_StdPeriph_Driver/src/stm32f4xx_tim.c **** }
 668              		.loc 1 416 1
 669 0010 00BF     		nop
 670 0012 0C37     		adds	r7, r7, #12
 671              	.LCFI32:
 672              		.cfi_def_cfa_offset 4
 673 0014 BD46     		mov	sp, r7
 674              	.LCFI33:
 675              		.cfi_def_cfa_register 13
 676              		@ sp needed
 677 0016 5DF8047B 		ldr	r7, [sp], #4
 678              	.LCFI34:
 679              		.cfi_restore 7
 680              		.cfi_def_cfa_offset 0
 681 001a 7047     		bx	lr
 682              		.cfi_endproc
 683              	.LFE135:
 685              		.section	.text.TIM_SetAutoreload,"ax",%progbits
 686              		.align	1
 687              		.global	TIM_SetAutoreload
 688              		.syntax unified
 689              		.thumb
 690              		.thumb_func
 692              	TIM_SetAutoreload:
 693              	.LFB136:
 417:Drivers/STM32F4xx_StdPeriph_Driver/src/stm32f4xx_tim.c **** 
 418:Drivers/STM32F4xx_StdPeriph_Driver/src/stm32f4xx_tim.c **** /**
 419:Drivers/STM32F4xx_StdPeriph_Driver/src/stm32f4xx_tim.c ****   * @brief  Sets the TIMx Autoreload Register value
 420:Drivers/STM32F4xx_StdPeriph_Driver/src/stm32f4xx_tim.c ****   * @param  TIMx: where x can be 1 to 14 to select the TIM peripheral.
 421:Drivers/STM32F4xx_StdPeriph_Driver/src/stm32f4xx_tim.c ****   * @param  Autoreload: specifies the Autoreload register new value.
ARM GAS  C:\Users\Admin\AppData\Local\Temp\ccwOX7Bd.s 			page 21


 422:Drivers/STM32F4xx_StdPeriph_Driver/src/stm32f4xx_tim.c ****   * @retval None
 423:Drivers/STM32F4xx_StdPeriph_Driver/src/stm32f4xx_tim.c ****   */
 424:Drivers/STM32F4xx_StdPeriph_Driver/src/stm32f4xx_tim.c **** void TIM_SetAutoreload(TIM_TypeDef* TIMx, uint32_t Autoreload)
 425:Drivers/STM32F4xx_StdPeriph_Driver/src/stm32f4xx_tim.c **** {
 694              		.loc 1 425 1
 695              		.cfi_startproc
 696              		@ args = 0, pretend = 0, frame = 8
 697              		@ frame_needed = 1, uses_anonymous_args = 0
 698              		@ link register save eliminated.
 699 0000 80B4     		push	{r7}
 700              	.LCFI35:
 701              		.cfi_def_cfa_offset 4
 702              		.cfi_offset 7, -4
 703 0002 83B0     		sub	sp, sp, #12
 704              	.LCFI36:
 705              		.cfi_def_cfa_offset 16
 706 0004 00AF     		add	r7, sp, #0
 707              	.LCFI37:
 708              		.cfi_def_cfa_register 7
 709 0006 7860     		str	r0, [r7, #4]
 710 0008 3960     		str	r1, [r7]
 426:Drivers/STM32F4xx_StdPeriph_Driver/src/stm32f4xx_tim.c ****   /* Check the parameters */
 427:Drivers/STM32F4xx_StdPeriph_Driver/src/stm32f4xx_tim.c ****   assert_param(IS_TIM_ALL_PERIPH(TIMx));
 428:Drivers/STM32F4xx_StdPeriph_Driver/src/stm32f4xx_tim.c ****   
 429:Drivers/STM32F4xx_StdPeriph_Driver/src/stm32f4xx_tim.c ****   /* Set the Autoreload Register value */
 430:Drivers/STM32F4xx_StdPeriph_Driver/src/stm32f4xx_tim.c ****   TIMx->ARR = Autoreload;
 711              		.loc 1 430 13
 712 000a 7B68     		ldr	r3, [r7, #4]
 713 000c 3A68     		ldr	r2, [r7]
 714 000e DA62     		str	r2, [r3, #44]
 431:Drivers/STM32F4xx_StdPeriph_Driver/src/stm32f4xx_tim.c **** }
 715              		.loc 1 431 1
 716 0010 00BF     		nop
 717 0012 0C37     		adds	r7, r7, #12
 718              	.LCFI38:
 719              		.cfi_def_cfa_offset 4
 720 0014 BD46     		mov	sp, r7
 721              	.LCFI39:
 722              		.cfi_def_cfa_register 13
 723              		@ sp needed
 724 0016 5DF8047B 		ldr	r7, [sp], #4
 725              	.LCFI40:
 726              		.cfi_restore 7
 727              		.cfi_def_cfa_offset 0
 728 001a 7047     		bx	lr
 729              		.cfi_endproc
 730              	.LFE136:
 732              		.section	.text.TIM_GetCounter,"ax",%progbits
 733              		.align	1
 734              		.global	TIM_GetCounter
 735              		.syntax unified
 736              		.thumb
 737              		.thumb_func
 739              	TIM_GetCounter:
 740              	.LFB137:
 432:Drivers/STM32F4xx_StdPeriph_Driver/src/stm32f4xx_tim.c **** 
 433:Drivers/STM32F4xx_StdPeriph_Driver/src/stm32f4xx_tim.c **** /**
ARM GAS  C:\Users\Admin\AppData\Local\Temp\ccwOX7Bd.s 			page 22


 434:Drivers/STM32F4xx_StdPeriph_Driver/src/stm32f4xx_tim.c ****   * @brief  Gets the TIMx Counter value.
 435:Drivers/STM32F4xx_StdPeriph_Driver/src/stm32f4xx_tim.c ****   * @param  TIMx: where x can be 1 to 14 to select the TIM peripheral.
 436:Drivers/STM32F4xx_StdPeriph_Driver/src/stm32f4xx_tim.c ****   * @retval Counter Register value
 437:Drivers/STM32F4xx_StdPeriph_Driver/src/stm32f4xx_tim.c ****   */
 438:Drivers/STM32F4xx_StdPeriph_Driver/src/stm32f4xx_tim.c **** uint32_t TIM_GetCounter(TIM_TypeDef* TIMx)
 439:Drivers/STM32F4xx_StdPeriph_Driver/src/stm32f4xx_tim.c **** {
 741              		.loc 1 439 1
 742              		.cfi_startproc
 743              		@ args = 0, pretend = 0, frame = 8
 744              		@ frame_needed = 1, uses_anonymous_args = 0
 745              		@ link register save eliminated.
 746 0000 80B4     		push	{r7}
 747              	.LCFI41:
 748              		.cfi_def_cfa_offset 4
 749              		.cfi_offset 7, -4
 750 0002 83B0     		sub	sp, sp, #12
 751              	.LCFI42:
 752              		.cfi_def_cfa_offset 16
 753 0004 00AF     		add	r7, sp, #0
 754              	.LCFI43:
 755              		.cfi_def_cfa_register 7
 756 0006 7860     		str	r0, [r7, #4]
 440:Drivers/STM32F4xx_StdPeriph_Driver/src/stm32f4xx_tim.c ****   /* Check the parameters */
 441:Drivers/STM32F4xx_StdPeriph_Driver/src/stm32f4xx_tim.c ****   assert_param(IS_TIM_ALL_PERIPH(TIMx));
 442:Drivers/STM32F4xx_StdPeriph_Driver/src/stm32f4xx_tim.c **** 
 443:Drivers/STM32F4xx_StdPeriph_Driver/src/stm32f4xx_tim.c ****   /* Get the Counter Register value */
 444:Drivers/STM32F4xx_StdPeriph_Driver/src/stm32f4xx_tim.c ****   return TIMx->CNT;
 757              		.loc 1 444 14
 758 0008 7B68     		ldr	r3, [r7, #4]
 759 000a 5B6A     		ldr	r3, [r3, #36]
 445:Drivers/STM32F4xx_StdPeriph_Driver/src/stm32f4xx_tim.c **** }
 760              		.loc 1 445 1
 761 000c 1846     		mov	r0, r3
 762 000e 0C37     		adds	r7, r7, #12
 763              	.LCFI44:
 764              		.cfi_def_cfa_offset 4
 765 0010 BD46     		mov	sp, r7
 766              	.LCFI45:
 767              		.cfi_def_cfa_register 13
 768              		@ sp needed
 769 0012 5DF8047B 		ldr	r7, [sp], #4
 770              	.LCFI46:
 771              		.cfi_restore 7
 772              		.cfi_def_cfa_offset 0
 773 0016 7047     		bx	lr
 774              		.cfi_endproc
 775              	.LFE137:
 777              		.section	.text.TIM_GetPrescaler,"ax",%progbits
 778              		.align	1
 779              		.global	TIM_GetPrescaler
 780              		.syntax unified
 781              		.thumb
 782              		.thumb_func
 784              	TIM_GetPrescaler:
 785              	.LFB138:
 446:Drivers/STM32F4xx_StdPeriph_Driver/src/stm32f4xx_tim.c **** 
 447:Drivers/STM32F4xx_StdPeriph_Driver/src/stm32f4xx_tim.c **** /**
ARM GAS  C:\Users\Admin\AppData\Local\Temp\ccwOX7Bd.s 			page 23


 448:Drivers/STM32F4xx_StdPeriph_Driver/src/stm32f4xx_tim.c ****   * @brief  Gets the TIMx Prescaler value.
 449:Drivers/STM32F4xx_StdPeriph_Driver/src/stm32f4xx_tim.c ****   * @param  TIMx: where x can be 1 to 14 to select the TIM peripheral.
 450:Drivers/STM32F4xx_StdPeriph_Driver/src/stm32f4xx_tim.c ****   * @retval Prescaler Register value.
 451:Drivers/STM32F4xx_StdPeriph_Driver/src/stm32f4xx_tim.c ****   */
 452:Drivers/STM32F4xx_StdPeriph_Driver/src/stm32f4xx_tim.c **** uint16_t TIM_GetPrescaler(TIM_TypeDef* TIMx)
 453:Drivers/STM32F4xx_StdPeriph_Driver/src/stm32f4xx_tim.c **** {
 786              		.loc 1 453 1
 787              		.cfi_startproc
 788              		@ args = 0, pretend = 0, frame = 8
 789              		@ frame_needed = 1, uses_anonymous_args = 0
 790              		@ link register save eliminated.
 791 0000 80B4     		push	{r7}
 792              	.LCFI47:
 793              		.cfi_def_cfa_offset 4
 794              		.cfi_offset 7, -4
 795 0002 83B0     		sub	sp, sp, #12
 796              	.LCFI48:
 797              		.cfi_def_cfa_offset 16
 798 0004 00AF     		add	r7, sp, #0
 799              	.LCFI49:
 800              		.cfi_def_cfa_register 7
 801 0006 7860     		str	r0, [r7, #4]
 454:Drivers/STM32F4xx_StdPeriph_Driver/src/stm32f4xx_tim.c ****   /* Check the parameters */
 455:Drivers/STM32F4xx_StdPeriph_Driver/src/stm32f4xx_tim.c ****   assert_param(IS_TIM_ALL_PERIPH(TIMx));
 456:Drivers/STM32F4xx_StdPeriph_Driver/src/stm32f4xx_tim.c **** 
 457:Drivers/STM32F4xx_StdPeriph_Driver/src/stm32f4xx_tim.c ****   /* Get the Prescaler Register value */
 458:Drivers/STM32F4xx_StdPeriph_Driver/src/stm32f4xx_tim.c ****   return TIMx->PSC;
 802              		.loc 1 458 14
 803 0008 7B68     		ldr	r3, [r7, #4]
 804 000a 1B8D     		ldrh	r3, [r3, #40]	@ movhi
 805 000c 9BB2     		uxth	r3, r3
 459:Drivers/STM32F4xx_StdPeriph_Driver/src/stm32f4xx_tim.c **** }
 806              		.loc 1 459 1
 807 000e 1846     		mov	r0, r3
 808 0010 0C37     		adds	r7, r7, #12
 809              	.LCFI50:
 810              		.cfi_def_cfa_offset 4
 811 0012 BD46     		mov	sp, r7
 812              	.LCFI51:
 813              		.cfi_def_cfa_register 13
 814              		@ sp needed
 815 0014 5DF8047B 		ldr	r7, [sp], #4
 816              	.LCFI52:
 817              		.cfi_restore 7
 818              		.cfi_def_cfa_offset 0
 819 0018 7047     		bx	lr
 820              		.cfi_endproc
 821              	.LFE138:
 823              		.section	.text.TIM_UpdateDisableConfig,"ax",%progbits
 824              		.align	1
 825              		.global	TIM_UpdateDisableConfig
 826              		.syntax unified
 827              		.thumb
 828              		.thumb_func
 830              	TIM_UpdateDisableConfig:
 831              	.LFB139:
 460:Drivers/STM32F4xx_StdPeriph_Driver/src/stm32f4xx_tim.c **** 
ARM GAS  C:\Users\Admin\AppData\Local\Temp\ccwOX7Bd.s 			page 24


 461:Drivers/STM32F4xx_StdPeriph_Driver/src/stm32f4xx_tim.c **** /**
 462:Drivers/STM32F4xx_StdPeriph_Driver/src/stm32f4xx_tim.c ****   * @brief  Enables or Disables the TIMx Update event.
 463:Drivers/STM32F4xx_StdPeriph_Driver/src/stm32f4xx_tim.c ****   * @param  TIMx: where x can be 1 to 14 to select the TIM peripheral.
 464:Drivers/STM32F4xx_StdPeriph_Driver/src/stm32f4xx_tim.c ****   * @param  NewState: new state of the TIMx UDIS bit
 465:Drivers/STM32F4xx_StdPeriph_Driver/src/stm32f4xx_tim.c ****   *          This parameter can be: ENABLE or DISABLE.
 466:Drivers/STM32F4xx_StdPeriph_Driver/src/stm32f4xx_tim.c ****   * @retval None
 467:Drivers/STM32F4xx_StdPeriph_Driver/src/stm32f4xx_tim.c ****   */
 468:Drivers/STM32F4xx_StdPeriph_Driver/src/stm32f4xx_tim.c **** void TIM_UpdateDisableConfig(TIM_TypeDef* TIMx, FunctionalState NewState)
 469:Drivers/STM32F4xx_StdPeriph_Driver/src/stm32f4xx_tim.c **** {
 832              		.loc 1 469 1
 833              		.cfi_startproc
 834              		@ args = 0, pretend = 0, frame = 8
 835              		@ frame_needed = 1, uses_anonymous_args = 0
 836              		@ link register save eliminated.
 837 0000 80B4     		push	{r7}
 838              	.LCFI53:
 839              		.cfi_def_cfa_offset 4
 840              		.cfi_offset 7, -4
 841 0002 83B0     		sub	sp, sp, #12
 842              	.LCFI54:
 843              		.cfi_def_cfa_offset 16
 844 0004 00AF     		add	r7, sp, #0
 845              	.LCFI55:
 846              		.cfi_def_cfa_register 7
 847 0006 7860     		str	r0, [r7, #4]
 848 0008 0B46     		mov	r3, r1
 849 000a FB70     		strb	r3, [r7, #3]
 470:Drivers/STM32F4xx_StdPeriph_Driver/src/stm32f4xx_tim.c ****   /* Check the parameters */
 471:Drivers/STM32F4xx_StdPeriph_Driver/src/stm32f4xx_tim.c ****   assert_param(IS_TIM_ALL_PERIPH(TIMx));
 472:Drivers/STM32F4xx_StdPeriph_Driver/src/stm32f4xx_tim.c ****   assert_param(IS_FUNCTIONAL_STATE(NewState));
 473:Drivers/STM32F4xx_StdPeriph_Driver/src/stm32f4xx_tim.c **** 
 474:Drivers/STM32F4xx_StdPeriph_Driver/src/stm32f4xx_tim.c ****   if (NewState != DISABLE)
 850              		.loc 1 474 6
 851 000c FB78     		ldrb	r3, [r7, #3]	@ zero_extendqisi2
 852 000e 002B     		cmp	r3, #0
 853 0010 08D0     		beq	.L37
 475:Drivers/STM32F4xx_StdPeriph_Driver/src/stm32f4xx_tim.c ****   {
 476:Drivers/STM32F4xx_StdPeriph_Driver/src/stm32f4xx_tim.c ****     /* Set the Update Disable Bit */
 477:Drivers/STM32F4xx_StdPeriph_Driver/src/stm32f4xx_tim.c ****     TIMx->CR1 |= TIM_CR1_UDIS;
 854              		.loc 1 477 15
 855 0012 7B68     		ldr	r3, [r7, #4]
 856 0014 1B88     		ldrh	r3, [r3]	@ movhi
 857 0016 9BB2     		uxth	r3, r3
 858 0018 43F00203 		orr	r3, r3, #2
 859 001c 9AB2     		uxth	r2, r3
 860 001e 7B68     		ldr	r3, [r7, #4]
 861 0020 1A80     		strh	r2, [r3]	@ movhi
 478:Drivers/STM32F4xx_StdPeriph_Driver/src/stm32f4xx_tim.c ****   }
 479:Drivers/STM32F4xx_StdPeriph_Driver/src/stm32f4xx_tim.c ****   else
 480:Drivers/STM32F4xx_StdPeriph_Driver/src/stm32f4xx_tim.c ****   {
 481:Drivers/STM32F4xx_StdPeriph_Driver/src/stm32f4xx_tim.c ****     /* Reset the Update Disable Bit */
 482:Drivers/STM32F4xx_StdPeriph_Driver/src/stm32f4xx_tim.c ****     TIMx->CR1 &= (uint16_t)~TIM_CR1_UDIS;
 483:Drivers/STM32F4xx_StdPeriph_Driver/src/stm32f4xx_tim.c ****   }
 484:Drivers/STM32F4xx_StdPeriph_Driver/src/stm32f4xx_tim.c **** }
 862              		.loc 1 484 1
 863 0022 07E0     		b	.L39
 864              	.L37:
ARM GAS  C:\Users\Admin\AppData\Local\Temp\ccwOX7Bd.s 			page 25


 482:Drivers/STM32F4xx_StdPeriph_Driver/src/stm32f4xx_tim.c ****   }
 865              		.loc 1 482 15
 866 0024 7B68     		ldr	r3, [r7, #4]
 867 0026 1B88     		ldrh	r3, [r3]	@ movhi
 868 0028 9BB2     		uxth	r3, r3
 869 002a 23F00203 		bic	r3, r3, #2
 870 002e 9AB2     		uxth	r2, r3
 871 0030 7B68     		ldr	r3, [r7, #4]
 872 0032 1A80     		strh	r2, [r3]	@ movhi
 873              	.L39:
 874              		.loc 1 484 1
 875 0034 00BF     		nop
 876 0036 0C37     		adds	r7, r7, #12
 877              	.LCFI56:
 878              		.cfi_def_cfa_offset 4
 879 0038 BD46     		mov	sp, r7
 880              	.LCFI57:
 881              		.cfi_def_cfa_register 13
 882              		@ sp needed
 883 003a 5DF8047B 		ldr	r7, [sp], #4
 884              	.LCFI58:
 885              		.cfi_restore 7
 886              		.cfi_def_cfa_offset 0
 887 003e 7047     		bx	lr
 888              		.cfi_endproc
 889              	.LFE139:
 891              		.section	.text.TIM_UpdateRequestConfig,"ax",%progbits
 892              		.align	1
 893              		.global	TIM_UpdateRequestConfig
 894              		.syntax unified
 895              		.thumb
 896              		.thumb_func
 898              	TIM_UpdateRequestConfig:
 899              	.LFB140:
 485:Drivers/STM32F4xx_StdPeriph_Driver/src/stm32f4xx_tim.c **** 
 486:Drivers/STM32F4xx_StdPeriph_Driver/src/stm32f4xx_tim.c **** /**
 487:Drivers/STM32F4xx_StdPeriph_Driver/src/stm32f4xx_tim.c ****   * @brief  Configures the TIMx Update Request Interrupt source.
 488:Drivers/STM32F4xx_StdPeriph_Driver/src/stm32f4xx_tim.c ****   * @param  TIMx: where x can be 1 to 14 to select the TIM peripheral.
 489:Drivers/STM32F4xx_StdPeriph_Driver/src/stm32f4xx_tim.c ****   * @param  TIM_UpdateSource: specifies the Update source.
 490:Drivers/STM32F4xx_StdPeriph_Driver/src/stm32f4xx_tim.c ****   *          This parameter can be one of the following values:
 491:Drivers/STM32F4xx_StdPeriph_Driver/src/stm32f4xx_tim.c ****   *            @arg TIM_UpdateSource_Global: Source of update is the counter
 492:Drivers/STM32F4xx_StdPeriph_Driver/src/stm32f4xx_tim.c ****   *                 overflow/underflow or the setting of UG bit, or an update
 493:Drivers/STM32F4xx_StdPeriph_Driver/src/stm32f4xx_tim.c ****   *                 generation through the slave mode controller.
 494:Drivers/STM32F4xx_StdPeriph_Driver/src/stm32f4xx_tim.c ****   *            @arg TIM_UpdateSource_Regular: Source of update is counter overflow/underflow.
 495:Drivers/STM32F4xx_StdPeriph_Driver/src/stm32f4xx_tim.c ****   * @retval None
 496:Drivers/STM32F4xx_StdPeriph_Driver/src/stm32f4xx_tim.c ****   */
 497:Drivers/STM32F4xx_StdPeriph_Driver/src/stm32f4xx_tim.c **** void TIM_UpdateRequestConfig(TIM_TypeDef* TIMx, uint16_t TIM_UpdateSource)
 498:Drivers/STM32F4xx_StdPeriph_Driver/src/stm32f4xx_tim.c **** {
 900              		.loc 1 498 1
 901              		.cfi_startproc
 902              		@ args = 0, pretend = 0, frame = 8
 903              		@ frame_needed = 1, uses_anonymous_args = 0
 904              		@ link register save eliminated.
 905 0000 80B4     		push	{r7}
 906              	.LCFI59:
 907              		.cfi_def_cfa_offset 4
 908              		.cfi_offset 7, -4
ARM GAS  C:\Users\Admin\AppData\Local\Temp\ccwOX7Bd.s 			page 26


 909 0002 83B0     		sub	sp, sp, #12
 910              	.LCFI60:
 911              		.cfi_def_cfa_offset 16
 912 0004 00AF     		add	r7, sp, #0
 913              	.LCFI61:
 914              		.cfi_def_cfa_register 7
 915 0006 7860     		str	r0, [r7, #4]
 916 0008 0B46     		mov	r3, r1
 917 000a 7B80     		strh	r3, [r7, #2]	@ movhi
 499:Drivers/STM32F4xx_StdPeriph_Driver/src/stm32f4xx_tim.c ****   /* Check the parameters */
 500:Drivers/STM32F4xx_StdPeriph_Driver/src/stm32f4xx_tim.c ****   assert_param(IS_TIM_ALL_PERIPH(TIMx));
 501:Drivers/STM32F4xx_StdPeriph_Driver/src/stm32f4xx_tim.c ****   assert_param(IS_TIM_UPDATE_SOURCE(TIM_UpdateSource));
 502:Drivers/STM32F4xx_StdPeriph_Driver/src/stm32f4xx_tim.c **** 
 503:Drivers/STM32F4xx_StdPeriph_Driver/src/stm32f4xx_tim.c ****   if (TIM_UpdateSource != TIM_UpdateSource_Global)
 918              		.loc 1 503 6
 919 000c 7B88     		ldrh	r3, [r7, #2]
 920 000e 002B     		cmp	r3, #0
 921 0010 08D0     		beq	.L41
 504:Drivers/STM32F4xx_StdPeriph_Driver/src/stm32f4xx_tim.c ****   {
 505:Drivers/STM32F4xx_StdPeriph_Driver/src/stm32f4xx_tim.c ****     /* Set the URS Bit */
 506:Drivers/STM32F4xx_StdPeriph_Driver/src/stm32f4xx_tim.c ****     TIMx->CR1 |= TIM_CR1_URS;
 922              		.loc 1 506 15
 923 0012 7B68     		ldr	r3, [r7, #4]
 924 0014 1B88     		ldrh	r3, [r3]	@ movhi
 925 0016 9BB2     		uxth	r3, r3
 926 0018 43F00403 		orr	r3, r3, #4
 927 001c 9AB2     		uxth	r2, r3
 928 001e 7B68     		ldr	r3, [r7, #4]
 929 0020 1A80     		strh	r2, [r3]	@ movhi
 507:Drivers/STM32F4xx_StdPeriph_Driver/src/stm32f4xx_tim.c ****   }
 508:Drivers/STM32F4xx_StdPeriph_Driver/src/stm32f4xx_tim.c ****   else
 509:Drivers/STM32F4xx_StdPeriph_Driver/src/stm32f4xx_tim.c ****   {
 510:Drivers/STM32F4xx_StdPeriph_Driver/src/stm32f4xx_tim.c ****     /* Reset the URS Bit */
 511:Drivers/STM32F4xx_StdPeriph_Driver/src/stm32f4xx_tim.c ****     TIMx->CR1 &= (uint16_t)~TIM_CR1_URS;
 512:Drivers/STM32F4xx_StdPeriph_Driver/src/stm32f4xx_tim.c ****   }
 513:Drivers/STM32F4xx_StdPeriph_Driver/src/stm32f4xx_tim.c **** }
 930              		.loc 1 513 1
 931 0022 07E0     		b	.L43
 932              	.L41:
 511:Drivers/STM32F4xx_StdPeriph_Driver/src/stm32f4xx_tim.c ****   }
 933              		.loc 1 511 15
 934 0024 7B68     		ldr	r3, [r7, #4]
 935 0026 1B88     		ldrh	r3, [r3]	@ movhi
 936 0028 9BB2     		uxth	r3, r3
 937 002a 23F00403 		bic	r3, r3, #4
 938 002e 9AB2     		uxth	r2, r3
 939 0030 7B68     		ldr	r3, [r7, #4]
 940 0032 1A80     		strh	r2, [r3]	@ movhi
 941              	.L43:
 942              		.loc 1 513 1
 943 0034 00BF     		nop
 944 0036 0C37     		adds	r7, r7, #12
 945              	.LCFI62:
 946              		.cfi_def_cfa_offset 4
 947 0038 BD46     		mov	sp, r7
 948              	.LCFI63:
 949              		.cfi_def_cfa_register 13
ARM GAS  C:\Users\Admin\AppData\Local\Temp\ccwOX7Bd.s 			page 27


 950              		@ sp needed
 951 003a 5DF8047B 		ldr	r7, [sp], #4
 952              	.LCFI64:
 953              		.cfi_restore 7
 954              		.cfi_def_cfa_offset 0
 955 003e 7047     		bx	lr
 956              		.cfi_endproc
 957              	.LFE140:
 959              		.section	.text.TIM_ARRPreloadConfig,"ax",%progbits
 960              		.align	1
 961              		.global	TIM_ARRPreloadConfig
 962              		.syntax unified
 963              		.thumb
 964              		.thumb_func
 966              	TIM_ARRPreloadConfig:
 967              	.LFB141:
 514:Drivers/STM32F4xx_StdPeriph_Driver/src/stm32f4xx_tim.c **** 
 515:Drivers/STM32F4xx_StdPeriph_Driver/src/stm32f4xx_tim.c **** /**
 516:Drivers/STM32F4xx_StdPeriph_Driver/src/stm32f4xx_tim.c ****   * @brief  Enables or disables TIMx peripheral Preload register on ARR.
 517:Drivers/STM32F4xx_StdPeriph_Driver/src/stm32f4xx_tim.c ****   * @param  TIMx: where x can be 1 to 14 to select the TIM peripheral.
 518:Drivers/STM32F4xx_StdPeriph_Driver/src/stm32f4xx_tim.c ****   * @param  NewState: new state of the TIMx peripheral Preload register
 519:Drivers/STM32F4xx_StdPeriph_Driver/src/stm32f4xx_tim.c ****   *          This parameter can be: ENABLE or DISABLE.
 520:Drivers/STM32F4xx_StdPeriph_Driver/src/stm32f4xx_tim.c ****   * @retval None
 521:Drivers/STM32F4xx_StdPeriph_Driver/src/stm32f4xx_tim.c ****   */
 522:Drivers/STM32F4xx_StdPeriph_Driver/src/stm32f4xx_tim.c **** void TIM_ARRPreloadConfig(TIM_TypeDef* TIMx, FunctionalState NewState)
 523:Drivers/STM32F4xx_StdPeriph_Driver/src/stm32f4xx_tim.c **** {
 968              		.loc 1 523 1
 969              		.cfi_startproc
 970              		@ args = 0, pretend = 0, frame = 8
 971              		@ frame_needed = 1, uses_anonymous_args = 0
 972              		@ link register save eliminated.
 973 0000 80B4     		push	{r7}
 974              	.LCFI65:
 975              		.cfi_def_cfa_offset 4
 976              		.cfi_offset 7, -4
 977 0002 83B0     		sub	sp, sp, #12
 978              	.LCFI66:
 979              		.cfi_def_cfa_offset 16
 980 0004 00AF     		add	r7, sp, #0
 981              	.LCFI67:
 982              		.cfi_def_cfa_register 7
 983 0006 7860     		str	r0, [r7, #4]
 984 0008 0B46     		mov	r3, r1
 985 000a FB70     		strb	r3, [r7, #3]
 524:Drivers/STM32F4xx_StdPeriph_Driver/src/stm32f4xx_tim.c ****   /* Check the parameters */
 525:Drivers/STM32F4xx_StdPeriph_Driver/src/stm32f4xx_tim.c ****   assert_param(IS_TIM_ALL_PERIPH(TIMx));
 526:Drivers/STM32F4xx_StdPeriph_Driver/src/stm32f4xx_tim.c ****   assert_param(IS_FUNCTIONAL_STATE(NewState));
 527:Drivers/STM32F4xx_StdPeriph_Driver/src/stm32f4xx_tim.c **** 
 528:Drivers/STM32F4xx_StdPeriph_Driver/src/stm32f4xx_tim.c ****   if (NewState != DISABLE)
 986              		.loc 1 528 6
 987 000c FB78     		ldrb	r3, [r7, #3]	@ zero_extendqisi2
 988 000e 002B     		cmp	r3, #0
 989 0010 08D0     		beq	.L45
 529:Drivers/STM32F4xx_StdPeriph_Driver/src/stm32f4xx_tim.c ****   {
 530:Drivers/STM32F4xx_StdPeriph_Driver/src/stm32f4xx_tim.c ****     /* Set the ARR Preload Bit */
 531:Drivers/STM32F4xx_StdPeriph_Driver/src/stm32f4xx_tim.c ****     TIMx->CR1 |= TIM_CR1_ARPE;
 990              		.loc 1 531 15
ARM GAS  C:\Users\Admin\AppData\Local\Temp\ccwOX7Bd.s 			page 28


 991 0012 7B68     		ldr	r3, [r7, #4]
 992 0014 1B88     		ldrh	r3, [r3]	@ movhi
 993 0016 9BB2     		uxth	r3, r3
 994 0018 43F08003 		orr	r3, r3, #128
 995 001c 9AB2     		uxth	r2, r3
 996 001e 7B68     		ldr	r3, [r7, #4]
 997 0020 1A80     		strh	r2, [r3]	@ movhi
 532:Drivers/STM32F4xx_StdPeriph_Driver/src/stm32f4xx_tim.c ****   }
 533:Drivers/STM32F4xx_StdPeriph_Driver/src/stm32f4xx_tim.c ****   else
 534:Drivers/STM32F4xx_StdPeriph_Driver/src/stm32f4xx_tim.c ****   {
 535:Drivers/STM32F4xx_StdPeriph_Driver/src/stm32f4xx_tim.c ****     /* Reset the ARR Preload Bit */
 536:Drivers/STM32F4xx_StdPeriph_Driver/src/stm32f4xx_tim.c ****     TIMx->CR1 &= (uint16_t)~TIM_CR1_ARPE;
 537:Drivers/STM32F4xx_StdPeriph_Driver/src/stm32f4xx_tim.c ****   }
 538:Drivers/STM32F4xx_StdPeriph_Driver/src/stm32f4xx_tim.c **** }
 998              		.loc 1 538 1
 999 0022 07E0     		b	.L47
 1000              	.L45:
 536:Drivers/STM32F4xx_StdPeriph_Driver/src/stm32f4xx_tim.c ****   }
 1001              		.loc 1 536 15
 1002 0024 7B68     		ldr	r3, [r7, #4]
 1003 0026 1B88     		ldrh	r3, [r3]	@ movhi
 1004 0028 9BB2     		uxth	r3, r3
 1005 002a 23F08003 		bic	r3, r3, #128
 1006 002e 9AB2     		uxth	r2, r3
 1007 0030 7B68     		ldr	r3, [r7, #4]
 1008 0032 1A80     		strh	r2, [r3]	@ movhi
 1009              	.L47:
 1010              		.loc 1 538 1
 1011 0034 00BF     		nop
 1012 0036 0C37     		adds	r7, r7, #12
 1013              	.LCFI68:
 1014              		.cfi_def_cfa_offset 4
 1015 0038 BD46     		mov	sp, r7
 1016              	.LCFI69:
 1017              		.cfi_def_cfa_register 13
 1018              		@ sp needed
 1019 003a 5DF8047B 		ldr	r7, [sp], #4
 1020              	.LCFI70:
 1021              		.cfi_restore 7
 1022              		.cfi_def_cfa_offset 0
 1023 003e 7047     		bx	lr
 1024              		.cfi_endproc
 1025              	.LFE141:
 1027              		.section	.text.TIM_SelectOnePulseMode,"ax",%progbits
 1028              		.align	1
 1029              		.global	TIM_SelectOnePulseMode
 1030              		.syntax unified
 1031              		.thumb
 1032              		.thumb_func
 1034              	TIM_SelectOnePulseMode:
 1035              	.LFB142:
 539:Drivers/STM32F4xx_StdPeriph_Driver/src/stm32f4xx_tim.c **** 
 540:Drivers/STM32F4xx_StdPeriph_Driver/src/stm32f4xx_tim.c **** /**
 541:Drivers/STM32F4xx_StdPeriph_Driver/src/stm32f4xx_tim.c ****   * @brief  Selects the TIMx's One Pulse Mode.
 542:Drivers/STM32F4xx_StdPeriph_Driver/src/stm32f4xx_tim.c ****   * @param  TIMx: where x can be 1 to 14 to select the TIM peripheral.
 543:Drivers/STM32F4xx_StdPeriph_Driver/src/stm32f4xx_tim.c ****   * @param  TIM_OPMode: specifies the OPM Mode to be used.
 544:Drivers/STM32F4xx_StdPeriph_Driver/src/stm32f4xx_tim.c ****   *          This parameter can be one of the following values:
ARM GAS  C:\Users\Admin\AppData\Local\Temp\ccwOX7Bd.s 			page 29


 545:Drivers/STM32F4xx_StdPeriph_Driver/src/stm32f4xx_tim.c ****   *            @arg TIM_OPMode_Single
 546:Drivers/STM32F4xx_StdPeriph_Driver/src/stm32f4xx_tim.c ****   *            @arg TIM_OPMode_Repetitive
 547:Drivers/STM32F4xx_StdPeriph_Driver/src/stm32f4xx_tim.c ****   * @retval None
 548:Drivers/STM32F4xx_StdPeriph_Driver/src/stm32f4xx_tim.c ****   */
 549:Drivers/STM32F4xx_StdPeriph_Driver/src/stm32f4xx_tim.c **** void TIM_SelectOnePulseMode(TIM_TypeDef* TIMx, uint16_t TIM_OPMode)
 550:Drivers/STM32F4xx_StdPeriph_Driver/src/stm32f4xx_tim.c **** {
 1036              		.loc 1 550 1
 1037              		.cfi_startproc
 1038              		@ args = 0, pretend = 0, frame = 8
 1039              		@ frame_needed = 1, uses_anonymous_args = 0
 1040              		@ link register save eliminated.
 1041 0000 80B4     		push	{r7}
 1042              	.LCFI71:
 1043              		.cfi_def_cfa_offset 4
 1044              		.cfi_offset 7, -4
 1045 0002 83B0     		sub	sp, sp, #12
 1046              	.LCFI72:
 1047              		.cfi_def_cfa_offset 16
 1048 0004 00AF     		add	r7, sp, #0
 1049              	.LCFI73:
 1050              		.cfi_def_cfa_register 7
 1051 0006 7860     		str	r0, [r7, #4]
 1052 0008 0B46     		mov	r3, r1
 1053 000a 7B80     		strh	r3, [r7, #2]	@ movhi
 551:Drivers/STM32F4xx_StdPeriph_Driver/src/stm32f4xx_tim.c ****   /* Check the parameters */
 552:Drivers/STM32F4xx_StdPeriph_Driver/src/stm32f4xx_tim.c ****   assert_param(IS_TIM_ALL_PERIPH(TIMx));
 553:Drivers/STM32F4xx_StdPeriph_Driver/src/stm32f4xx_tim.c ****   assert_param(IS_TIM_OPM_MODE(TIM_OPMode));
 554:Drivers/STM32F4xx_StdPeriph_Driver/src/stm32f4xx_tim.c **** 
 555:Drivers/STM32F4xx_StdPeriph_Driver/src/stm32f4xx_tim.c ****   /* Reset the OPM Bit */
 556:Drivers/STM32F4xx_StdPeriph_Driver/src/stm32f4xx_tim.c ****   TIMx->CR1 &= (uint16_t)~TIM_CR1_OPM;
 1054              		.loc 1 556 13
 1055 000c 7B68     		ldr	r3, [r7, #4]
 1056 000e 1B88     		ldrh	r3, [r3]	@ movhi
 1057 0010 9BB2     		uxth	r3, r3
 1058 0012 23F00803 		bic	r3, r3, #8
 1059 0016 9AB2     		uxth	r2, r3
 1060 0018 7B68     		ldr	r3, [r7, #4]
 1061 001a 1A80     		strh	r2, [r3]	@ movhi
 557:Drivers/STM32F4xx_StdPeriph_Driver/src/stm32f4xx_tim.c **** 
 558:Drivers/STM32F4xx_StdPeriph_Driver/src/stm32f4xx_tim.c ****   /* Configure the OPM Mode */
 559:Drivers/STM32F4xx_StdPeriph_Driver/src/stm32f4xx_tim.c ****   TIMx->CR1 |= TIM_OPMode;
 1062              		.loc 1 559 13
 1063 001c 7B68     		ldr	r3, [r7, #4]
 1064 001e 1B88     		ldrh	r3, [r3]	@ movhi
 1065 0020 9AB2     		uxth	r2, r3
 1066 0022 7B88     		ldrh	r3, [r7, #2]	@ movhi
 1067 0024 1343     		orrs	r3, r3, r2
 1068 0026 9AB2     		uxth	r2, r3
 1069 0028 7B68     		ldr	r3, [r7, #4]
 1070 002a 1A80     		strh	r2, [r3]	@ movhi
 560:Drivers/STM32F4xx_StdPeriph_Driver/src/stm32f4xx_tim.c **** }
 1071              		.loc 1 560 1
 1072 002c 00BF     		nop
 1073 002e 0C37     		adds	r7, r7, #12
 1074              	.LCFI74:
 1075              		.cfi_def_cfa_offset 4
 1076 0030 BD46     		mov	sp, r7
ARM GAS  C:\Users\Admin\AppData\Local\Temp\ccwOX7Bd.s 			page 30


 1077              	.LCFI75:
 1078              		.cfi_def_cfa_register 13
 1079              		@ sp needed
 1080 0032 5DF8047B 		ldr	r7, [sp], #4
 1081              	.LCFI76:
 1082              		.cfi_restore 7
 1083              		.cfi_def_cfa_offset 0
 1084 0036 7047     		bx	lr
 1085              		.cfi_endproc
 1086              	.LFE142:
 1088              		.section	.text.TIM_SetClockDivision,"ax",%progbits
 1089              		.align	1
 1090              		.global	TIM_SetClockDivision
 1091              		.syntax unified
 1092              		.thumb
 1093              		.thumb_func
 1095              	TIM_SetClockDivision:
 1096              	.LFB143:
 561:Drivers/STM32F4xx_StdPeriph_Driver/src/stm32f4xx_tim.c **** 
 562:Drivers/STM32F4xx_StdPeriph_Driver/src/stm32f4xx_tim.c **** /**
 563:Drivers/STM32F4xx_StdPeriph_Driver/src/stm32f4xx_tim.c ****   * @brief  Sets the TIMx Clock Division value.
 564:Drivers/STM32F4xx_StdPeriph_Driver/src/stm32f4xx_tim.c ****   * @param  TIMx: where x can be 1 to 14 except 6 and 7, to select the TIM peripheral.
 565:Drivers/STM32F4xx_StdPeriph_Driver/src/stm32f4xx_tim.c ****   * @param  TIM_CKD: specifies the clock division value.
 566:Drivers/STM32F4xx_StdPeriph_Driver/src/stm32f4xx_tim.c ****   *          This parameter can be one of the following value:
 567:Drivers/STM32F4xx_StdPeriph_Driver/src/stm32f4xx_tim.c ****   *            @arg TIM_CKD_DIV1: TDTS = Tck_tim
 568:Drivers/STM32F4xx_StdPeriph_Driver/src/stm32f4xx_tim.c ****   *            @arg TIM_CKD_DIV2: TDTS = 2*Tck_tim
 569:Drivers/STM32F4xx_StdPeriph_Driver/src/stm32f4xx_tim.c ****   *            @arg TIM_CKD_DIV4: TDTS = 4*Tck_tim
 570:Drivers/STM32F4xx_StdPeriph_Driver/src/stm32f4xx_tim.c ****   * @retval None
 571:Drivers/STM32F4xx_StdPeriph_Driver/src/stm32f4xx_tim.c ****   */
 572:Drivers/STM32F4xx_StdPeriph_Driver/src/stm32f4xx_tim.c **** void TIM_SetClockDivision(TIM_TypeDef* TIMx, uint16_t TIM_CKD)
 573:Drivers/STM32F4xx_StdPeriph_Driver/src/stm32f4xx_tim.c **** {
 1097              		.loc 1 573 1
 1098              		.cfi_startproc
 1099              		@ args = 0, pretend = 0, frame = 8
 1100              		@ frame_needed = 1, uses_anonymous_args = 0
 1101              		@ link register save eliminated.
 1102 0000 80B4     		push	{r7}
 1103              	.LCFI77:
 1104              		.cfi_def_cfa_offset 4
 1105              		.cfi_offset 7, -4
 1106 0002 83B0     		sub	sp, sp, #12
 1107              	.LCFI78:
 1108              		.cfi_def_cfa_offset 16
 1109 0004 00AF     		add	r7, sp, #0
 1110              	.LCFI79:
 1111              		.cfi_def_cfa_register 7
 1112 0006 7860     		str	r0, [r7, #4]
 1113 0008 0B46     		mov	r3, r1
 1114 000a 7B80     		strh	r3, [r7, #2]	@ movhi
 574:Drivers/STM32F4xx_StdPeriph_Driver/src/stm32f4xx_tim.c ****   /* Check the parameters */
 575:Drivers/STM32F4xx_StdPeriph_Driver/src/stm32f4xx_tim.c ****   assert_param(IS_TIM_LIST1_PERIPH(TIMx));
 576:Drivers/STM32F4xx_StdPeriph_Driver/src/stm32f4xx_tim.c ****   assert_param(IS_TIM_CKD_DIV(TIM_CKD));
 577:Drivers/STM32F4xx_StdPeriph_Driver/src/stm32f4xx_tim.c **** 
 578:Drivers/STM32F4xx_StdPeriph_Driver/src/stm32f4xx_tim.c ****   /* Reset the CKD Bits */
 579:Drivers/STM32F4xx_StdPeriph_Driver/src/stm32f4xx_tim.c ****   TIMx->CR1 &= (uint16_t)(~TIM_CR1_CKD);
 1115              		.loc 1 579 13
 1116 000c 7B68     		ldr	r3, [r7, #4]
ARM GAS  C:\Users\Admin\AppData\Local\Temp\ccwOX7Bd.s 			page 31


 1117 000e 1B88     		ldrh	r3, [r3]	@ movhi
 1118 0010 9BB2     		uxth	r3, r3
 1119 0012 23F44073 		bic	r3, r3, #768
 1120 0016 9AB2     		uxth	r2, r3
 1121 0018 7B68     		ldr	r3, [r7, #4]
 1122 001a 1A80     		strh	r2, [r3]	@ movhi
 580:Drivers/STM32F4xx_StdPeriph_Driver/src/stm32f4xx_tim.c **** 
 581:Drivers/STM32F4xx_StdPeriph_Driver/src/stm32f4xx_tim.c ****   /* Set the CKD value */
 582:Drivers/STM32F4xx_StdPeriph_Driver/src/stm32f4xx_tim.c ****   TIMx->CR1 |= TIM_CKD;
 1123              		.loc 1 582 13
 1124 001c 7B68     		ldr	r3, [r7, #4]
 1125 001e 1B88     		ldrh	r3, [r3]	@ movhi
 1126 0020 9AB2     		uxth	r2, r3
 1127 0022 7B88     		ldrh	r3, [r7, #2]	@ movhi
 1128 0024 1343     		orrs	r3, r3, r2
 1129 0026 9AB2     		uxth	r2, r3
 1130 0028 7B68     		ldr	r3, [r7, #4]
 1131 002a 1A80     		strh	r2, [r3]	@ movhi
 583:Drivers/STM32F4xx_StdPeriph_Driver/src/stm32f4xx_tim.c **** }
 1132              		.loc 1 583 1
 1133 002c 00BF     		nop
 1134 002e 0C37     		adds	r7, r7, #12
 1135              	.LCFI80:
 1136              		.cfi_def_cfa_offset 4
 1137 0030 BD46     		mov	sp, r7
 1138              	.LCFI81:
 1139              		.cfi_def_cfa_register 13
 1140              		@ sp needed
 1141 0032 5DF8047B 		ldr	r7, [sp], #4
 1142              	.LCFI82:
 1143              		.cfi_restore 7
 1144              		.cfi_def_cfa_offset 0
 1145 0036 7047     		bx	lr
 1146              		.cfi_endproc
 1147              	.LFE143:
 1149              		.section	.text.TIM_Cmd,"ax",%progbits
 1150              		.align	1
 1151              		.global	TIM_Cmd
 1152              		.syntax unified
 1153              		.thumb
 1154              		.thumb_func
 1156              	TIM_Cmd:
 1157              	.LFB144:
 584:Drivers/STM32F4xx_StdPeriph_Driver/src/stm32f4xx_tim.c **** 
 585:Drivers/STM32F4xx_StdPeriph_Driver/src/stm32f4xx_tim.c **** /**
 586:Drivers/STM32F4xx_StdPeriph_Driver/src/stm32f4xx_tim.c ****   * @brief  Enables or disables the specified TIM peripheral.
 587:Drivers/STM32F4xx_StdPeriph_Driver/src/stm32f4xx_tim.c ****   * @param  TIMx: where x can be 1 to 14 to select the TIMx peripheral.
 588:Drivers/STM32F4xx_StdPeriph_Driver/src/stm32f4xx_tim.c ****   * @param  NewState: new state of the TIMx peripheral.
 589:Drivers/STM32F4xx_StdPeriph_Driver/src/stm32f4xx_tim.c ****   *          This parameter can be: ENABLE or DISABLE.
 590:Drivers/STM32F4xx_StdPeriph_Driver/src/stm32f4xx_tim.c ****   * @retval None
 591:Drivers/STM32F4xx_StdPeriph_Driver/src/stm32f4xx_tim.c ****   */
 592:Drivers/STM32F4xx_StdPeriph_Driver/src/stm32f4xx_tim.c **** void TIM_Cmd(TIM_TypeDef* TIMx, FunctionalState NewState)
 593:Drivers/STM32F4xx_StdPeriph_Driver/src/stm32f4xx_tim.c **** {
 1158              		.loc 1 593 1
 1159              		.cfi_startproc
 1160              		@ args = 0, pretend = 0, frame = 8
 1161              		@ frame_needed = 1, uses_anonymous_args = 0
ARM GAS  C:\Users\Admin\AppData\Local\Temp\ccwOX7Bd.s 			page 32


 1162              		@ link register save eliminated.
 1163 0000 80B4     		push	{r7}
 1164              	.LCFI83:
 1165              		.cfi_def_cfa_offset 4
 1166              		.cfi_offset 7, -4
 1167 0002 83B0     		sub	sp, sp, #12
 1168              	.LCFI84:
 1169              		.cfi_def_cfa_offset 16
 1170 0004 00AF     		add	r7, sp, #0
 1171              	.LCFI85:
 1172              		.cfi_def_cfa_register 7
 1173 0006 7860     		str	r0, [r7, #4]
 1174 0008 0B46     		mov	r3, r1
 1175 000a FB70     		strb	r3, [r7, #3]
 594:Drivers/STM32F4xx_StdPeriph_Driver/src/stm32f4xx_tim.c ****   /* Check the parameters */
 595:Drivers/STM32F4xx_StdPeriph_Driver/src/stm32f4xx_tim.c ****   assert_param(IS_TIM_ALL_PERIPH(TIMx)); 
 596:Drivers/STM32F4xx_StdPeriph_Driver/src/stm32f4xx_tim.c ****   assert_param(IS_FUNCTIONAL_STATE(NewState));
 597:Drivers/STM32F4xx_StdPeriph_Driver/src/stm32f4xx_tim.c ****   
 598:Drivers/STM32F4xx_StdPeriph_Driver/src/stm32f4xx_tim.c ****   if (NewState != DISABLE)
 1176              		.loc 1 598 6
 1177 000c FB78     		ldrb	r3, [r7, #3]	@ zero_extendqisi2
 1178 000e 002B     		cmp	r3, #0
 1179 0010 08D0     		beq	.L51
 599:Drivers/STM32F4xx_StdPeriph_Driver/src/stm32f4xx_tim.c ****   {
 600:Drivers/STM32F4xx_StdPeriph_Driver/src/stm32f4xx_tim.c ****     /* Enable the TIM Counter */
 601:Drivers/STM32F4xx_StdPeriph_Driver/src/stm32f4xx_tim.c ****     TIMx->CR1 |= TIM_CR1_CEN;
 1180              		.loc 1 601 15
 1181 0012 7B68     		ldr	r3, [r7, #4]
 1182 0014 1B88     		ldrh	r3, [r3]	@ movhi
 1183 0016 9BB2     		uxth	r3, r3
 1184 0018 43F00103 		orr	r3, r3, #1
 1185 001c 9AB2     		uxth	r2, r3
 1186 001e 7B68     		ldr	r3, [r7, #4]
 1187 0020 1A80     		strh	r2, [r3]	@ movhi
 602:Drivers/STM32F4xx_StdPeriph_Driver/src/stm32f4xx_tim.c ****   }
 603:Drivers/STM32F4xx_StdPeriph_Driver/src/stm32f4xx_tim.c ****   else
 604:Drivers/STM32F4xx_StdPeriph_Driver/src/stm32f4xx_tim.c ****   {
 605:Drivers/STM32F4xx_StdPeriph_Driver/src/stm32f4xx_tim.c ****     /* Disable the TIM Counter */
 606:Drivers/STM32F4xx_StdPeriph_Driver/src/stm32f4xx_tim.c ****     TIMx->CR1 &= (uint16_t)~TIM_CR1_CEN;
 607:Drivers/STM32F4xx_StdPeriph_Driver/src/stm32f4xx_tim.c ****   }
 608:Drivers/STM32F4xx_StdPeriph_Driver/src/stm32f4xx_tim.c **** }
 1188              		.loc 1 608 1
 1189 0022 07E0     		b	.L53
 1190              	.L51:
 606:Drivers/STM32F4xx_StdPeriph_Driver/src/stm32f4xx_tim.c ****   }
 1191              		.loc 1 606 15
 1192 0024 7B68     		ldr	r3, [r7, #4]
 1193 0026 1B88     		ldrh	r3, [r3]	@ movhi
 1194 0028 9BB2     		uxth	r3, r3
 1195 002a 23F00103 		bic	r3, r3, #1
 1196 002e 9AB2     		uxth	r2, r3
 1197 0030 7B68     		ldr	r3, [r7, #4]
 1198 0032 1A80     		strh	r2, [r3]	@ movhi
 1199              	.L53:
 1200              		.loc 1 608 1
 1201 0034 00BF     		nop
 1202 0036 0C37     		adds	r7, r7, #12
ARM GAS  C:\Users\Admin\AppData\Local\Temp\ccwOX7Bd.s 			page 33


 1203              	.LCFI86:
 1204              		.cfi_def_cfa_offset 4
 1205 0038 BD46     		mov	sp, r7
 1206              	.LCFI87:
 1207              		.cfi_def_cfa_register 13
 1208              		@ sp needed
 1209 003a 5DF8047B 		ldr	r7, [sp], #4
 1210              	.LCFI88:
 1211              		.cfi_restore 7
 1212              		.cfi_def_cfa_offset 0
 1213 003e 7047     		bx	lr
 1214              		.cfi_endproc
 1215              	.LFE144:
 1217              		.section	.text.TIM_OC1Init,"ax",%progbits
 1218              		.align	1
 1219              		.global	TIM_OC1Init
 1220              		.syntax unified
 1221              		.thumb
 1222              		.thumb_func
 1224              	TIM_OC1Init:
 1225              	.LFB145:
 609:Drivers/STM32F4xx_StdPeriph_Driver/src/stm32f4xx_tim.c **** /**
 610:Drivers/STM32F4xx_StdPeriph_Driver/src/stm32f4xx_tim.c ****   * @}
 611:Drivers/STM32F4xx_StdPeriph_Driver/src/stm32f4xx_tim.c ****   */
 612:Drivers/STM32F4xx_StdPeriph_Driver/src/stm32f4xx_tim.c **** 
 613:Drivers/STM32F4xx_StdPeriph_Driver/src/stm32f4xx_tim.c **** /** @defgroup TIM_Group2 Output Compare management functions
 614:Drivers/STM32F4xx_StdPeriph_Driver/src/stm32f4xx_tim.c ****  *  @brief    Output Compare management functions 
 615:Drivers/STM32F4xx_StdPeriph_Driver/src/stm32f4xx_tim.c ****  *
 616:Drivers/STM32F4xx_StdPeriph_Driver/src/stm32f4xx_tim.c **** @verbatim   
 617:Drivers/STM32F4xx_StdPeriph_Driver/src/stm32f4xx_tim.c ****  ===============================================================================
 618:Drivers/STM32F4xx_StdPeriph_Driver/src/stm32f4xx_tim.c ****               ##### Output Compare management functions #####
 619:Drivers/STM32F4xx_StdPeriph_Driver/src/stm32f4xx_tim.c ****  ===============================================================================  
 620:Drivers/STM32F4xx_StdPeriph_Driver/src/stm32f4xx_tim.c ****    
 621:Drivers/STM32F4xx_StdPeriph_Driver/src/stm32f4xx_tim.c ****       
 622:Drivers/STM32F4xx_StdPeriph_Driver/src/stm32f4xx_tim.c ****         ##### TIM Driver: how to use it in Output Compare Mode #####
 623:Drivers/STM32F4xx_StdPeriph_Driver/src/stm32f4xx_tim.c ****  ===============================================================================
 624:Drivers/STM32F4xx_StdPeriph_Driver/src/stm32f4xx_tim.c ****     [..] 
 625:Drivers/STM32F4xx_StdPeriph_Driver/src/stm32f4xx_tim.c ****     To use the Timer in Output Compare mode, the following steps are mandatory:
 626:Drivers/STM32F4xx_StdPeriph_Driver/src/stm32f4xx_tim.c ****        
 627:Drivers/STM32F4xx_StdPeriph_Driver/src/stm32f4xx_tim.c ****       (#) Enable TIM clock using RCC_APBxPeriphClockCmd(RCC_APBxPeriph_TIMx, ENABLE) 
 628:Drivers/STM32F4xx_StdPeriph_Driver/src/stm32f4xx_tim.c ****           function
 629:Drivers/STM32F4xx_StdPeriph_Driver/src/stm32f4xx_tim.c ****        
 630:Drivers/STM32F4xx_StdPeriph_Driver/src/stm32f4xx_tim.c ****       (#) Configure the TIM pins by configuring the corresponding GPIO pins
 631:Drivers/STM32F4xx_StdPeriph_Driver/src/stm32f4xx_tim.c ****        
 632:Drivers/STM32F4xx_StdPeriph_Driver/src/stm32f4xx_tim.c ****       (#) Configure the Time base unit as described in the first part of this driver, 
 633:Drivers/STM32F4xx_StdPeriph_Driver/src/stm32f4xx_tim.c ****         (++) if needed, else the Timer will run with the default configuration:
 634:Drivers/STM32F4xx_StdPeriph_Driver/src/stm32f4xx_tim.c ****             Autoreload value = 0xFFFF
 635:Drivers/STM32F4xx_StdPeriph_Driver/src/stm32f4xx_tim.c ****         (++) Prescaler value = 0x0000
 636:Drivers/STM32F4xx_StdPeriph_Driver/src/stm32f4xx_tim.c ****         (++) Counter mode = Up counting
 637:Drivers/STM32F4xx_StdPeriph_Driver/src/stm32f4xx_tim.c ****         (++) Clock Division = TIM_CKD_DIV1
 638:Drivers/STM32F4xx_StdPeriph_Driver/src/stm32f4xx_tim.c ****           
 639:Drivers/STM32F4xx_StdPeriph_Driver/src/stm32f4xx_tim.c ****       (#) Fill the TIM_OCInitStruct with the desired parameters including:
 640:Drivers/STM32F4xx_StdPeriph_Driver/src/stm32f4xx_tim.c ****         (++) The TIM Output Compare mode: TIM_OCMode
 641:Drivers/STM32F4xx_StdPeriph_Driver/src/stm32f4xx_tim.c ****         (++) TIM Output State: TIM_OutputState
 642:Drivers/STM32F4xx_StdPeriph_Driver/src/stm32f4xx_tim.c ****         (++) TIM Pulse value: TIM_Pulse
 643:Drivers/STM32F4xx_StdPeriph_Driver/src/stm32f4xx_tim.c ****         (++) TIM Output Compare Polarity : TIM_OCPolarity
 644:Drivers/STM32F4xx_StdPeriph_Driver/src/stm32f4xx_tim.c ****        
ARM GAS  C:\Users\Admin\AppData\Local\Temp\ccwOX7Bd.s 			page 34


 645:Drivers/STM32F4xx_StdPeriph_Driver/src/stm32f4xx_tim.c ****       (#) Call TIM_OCxInit(TIMx, &TIM_OCInitStruct) to configure the desired 
 646:Drivers/STM32F4xx_StdPeriph_Driver/src/stm32f4xx_tim.c ****           channel with the corresponding configuration
 647:Drivers/STM32F4xx_StdPeriph_Driver/src/stm32f4xx_tim.c ****        
 648:Drivers/STM32F4xx_StdPeriph_Driver/src/stm32f4xx_tim.c ****       (#) Call the TIM_Cmd(ENABLE) function to enable the TIM counter.
 649:Drivers/STM32F4xx_StdPeriph_Driver/src/stm32f4xx_tim.c ****        
 650:Drivers/STM32F4xx_StdPeriph_Driver/src/stm32f4xx_tim.c ****       -@- All other functions can be used separately to modify, if needed,
 651:Drivers/STM32F4xx_StdPeriph_Driver/src/stm32f4xx_tim.c ****           a specific feature of the Timer. 
 652:Drivers/STM32F4xx_StdPeriph_Driver/src/stm32f4xx_tim.c ****           
 653:Drivers/STM32F4xx_StdPeriph_Driver/src/stm32f4xx_tim.c ****       -@- In case of PWM mode, this function is mandatory:
 654:Drivers/STM32F4xx_StdPeriph_Driver/src/stm32f4xx_tim.c ****           TIM_OCxPreloadConfig(TIMx, TIM_OCPreload_ENABLE); 
 655:Drivers/STM32F4xx_StdPeriph_Driver/src/stm32f4xx_tim.c ****               
 656:Drivers/STM32F4xx_StdPeriph_Driver/src/stm32f4xx_tim.c ****       -@- If the corresponding interrupt or DMA request are needed, the user should:
 657:Drivers/STM32F4xx_StdPeriph_Driver/src/stm32f4xx_tim.c ****         (+@) Enable the NVIC (or the DMA) to use the TIM interrupts (or DMA requests). 
 658:Drivers/STM32F4xx_StdPeriph_Driver/src/stm32f4xx_tim.c ****         (+@) Enable the corresponding interrupt (or DMA request) using the function 
 659:Drivers/STM32F4xx_StdPeriph_Driver/src/stm32f4xx_tim.c ****              TIM_ITConfig(TIMx, TIM_IT_CCx) (or TIM_DMA_Cmd(TIMx, TIM_DMA_CCx))   
 660:Drivers/STM32F4xx_StdPeriph_Driver/src/stm32f4xx_tim.c **** 
 661:Drivers/STM32F4xx_StdPeriph_Driver/src/stm32f4xx_tim.c **** @endverbatim
 662:Drivers/STM32F4xx_StdPeriph_Driver/src/stm32f4xx_tim.c ****   * @{
 663:Drivers/STM32F4xx_StdPeriph_Driver/src/stm32f4xx_tim.c ****   */
 664:Drivers/STM32F4xx_StdPeriph_Driver/src/stm32f4xx_tim.c **** 
 665:Drivers/STM32F4xx_StdPeriph_Driver/src/stm32f4xx_tim.c **** /**
 666:Drivers/STM32F4xx_StdPeriph_Driver/src/stm32f4xx_tim.c ****   * @brief  Initializes the TIMx Channel1 according to the specified parameters in
 667:Drivers/STM32F4xx_StdPeriph_Driver/src/stm32f4xx_tim.c ****   *         the TIM_OCInitStruct.
 668:Drivers/STM32F4xx_StdPeriph_Driver/src/stm32f4xx_tim.c ****   * @param  TIMx: where x can be 1 to 14 except 6 and 7, to select the TIM peripheral.
 669:Drivers/STM32F4xx_StdPeriph_Driver/src/stm32f4xx_tim.c ****   * @param  TIM_OCInitStruct: pointer to a TIM_OCInitTypeDef structure that contains
 670:Drivers/STM32F4xx_StdPeriph_Driver/src/stm32f4xx_tim.c ****   *         the configuration information for the specified TIM peripheral.
 671:Drivers/STM32F4xx_StdPeriph_Driver/src/stm32f4xx_tim.c ****   * @retval None
 672:Drivers/STM32F4xx_StdPeriph_Driver/src/stm32f4xx_tim.c ****   */
 673:Drivers/STM32F4xx_StdPeriph_Driver/src/stm32f4xx_tim.c **** void TIM_OC1Init(TIM_TypeDef* TIMx, TIM_OCInitTypeDef* TIM_OCInitStruct)
 674:Drivers/STM32F4xx_StdPeriph_Driver/src/stm32f4xx_tim.c **** {
 1226              		.loc 1 674 1
 1227              		.cfi_startproc
 1228              		@ args = 0, pretend = 0, frame = 16
 1229              		@ frame_needed = 1, uses_anonymous_args = 0
 1230              		@ link register save eliminated.
 1231 0000 80B4     		push	{r7}
 1232              	.LCFI89:
 1233              		.cfi_def_cfa_offset 4
 1234              		.cfi_offset 7, -4
 1235 0002 85B0     		sub	sp, sp, #20
 1236              	.LCFI90:
 1237              		.cfi_def_cfa_offset 24
 1238 0004 00AF     		add	r7, sp, #0
 1239              	.LCFI91:
 1240              		.cfi_def_cfa_register 7
 1241 0006 7860     		str	r0, [r7, #4]
 1242 0008 3960     		str	r1, [r7]
 675:Drivers/STM32F4xx_StdPeriph_Driver/src/stm32f4xx_tim.c ****   uint16_t tmpccmrx = 0, tmpccer = 0, tmpcr2 = 0;
 1243              		.loc 1 675 12
 1244 000a 0023     		movs	r3, #0
 1245 000c 7B81     		strh	r3, [r7, #10]	@ movhi
 1246              		.loc 1 675 26
 1247 000e 0023     		movs	r3, #0
 1248 0010 FB81     		strh	r3, [r7, #14]	@ movhi
 1249              		.loc 1 675 39
 1250 0012 0023     		movs	r3, #0
 1251 0014 BB81     		strh	r3, [r7, #12]	@ movhi
ARM GAS  C:\Users\Admin\AppData\Local\Temp\ccwOX7Bd.s 			page 35


 676:Drivers/STM32F4xx_StdPeriph_Driver/src/stm32f4xx_tim.c ****    
 677:Drivers/STM32F4xx_StdPeriph_Driver/src/stm32f4xx_tim.c ****   /* Check the parameters */
 678:Drivers/STM32F4xx_StdPeriph_Driver/src/stm32f4xx_tim.c ****   assert_param(IS_TIM_LIST1_PERIPH(TIMx)); 
 679:Drivers/STM32F4xx_StdPeriph_Driver/src/stm32f4xx_tim.c ****   assert_param(IS_TIM_OC_MODE(TIM_OCInitStruct->TIM_OCMode));
 680:Drivers/STM32F4xx_StdPeriph_Driver/src/stm32f4xx_tim.c ****   assert_param(IS_TIM_OUTPUT_STATE(TIM_OCInitStruct->TIM_OutputState));
 681:Drivers/STM32F4xx_StdPeriph_Driver/src/stm32f4xx_tim.c ****   assert_param(IS_TIM_OC_POLARITY(TIM_OCInitStruct->TIM_OCPolarity));   
 682:Drivers/STM32F4xx_StdPeriph_Driver/src/stm32f4xx_tim.c **** 
 683:Drivers/STM32F4xx_StdPeriph_Driver/src/stm32f4xx_tim.c ****   /* Disable the Channel 1: Reset the CC1E Bit */
 684:Drivers/STM32F4xx_StdPeriph_Driver/src/stm32f4xx_tim.c ****   TIMx->CCER &= (uint16_t)~TIM_CCER_CC1E;
 1252              		.loc 1 684 14
 1253 0016 7B68     		ldr	r3, [r7, #4]
 1254 0018 1B8C     		ldrh	r3, [r3, #32]	@ movhi
 1255 001a 9BB2     		uxth	r3, r3
 1256 001c 23F00103 		bic	r3, r3, #1
 1257 0020 9AB2     		uxth	r2, r3
 1258 0022 7B68     		ldr	r3, [r7, #4]
 1259 0024 1A84     		strh	r2, [r3, #32]	@ movhi
 685:Drivers/STM32F4xx_StdPeriph_Driver/src/stm32f4xx_tim.c ****   
 686:Drivers/STM32F4xx_StdPeriph_Driver/src/stm32f4xx_tim.c ****   /* Get the TIMx CCER register value */
 687:Drivers/STM32F4xx_StdPeriph_Driver/src/stm32f4xx_tim.c ****   tmpccer = TIMx->CCER;
 1260              		.loc 1 687 11
 1261 0026 7B68     		ldr	r3, [r7, #4]
 1262 0028 1B8C     		ldrh	r3, [r3, #32]	@ movhi
 1263 002a FB81     		strh	r3, [r7, #14]	@ movhi
 688:Drivers/STM32F4xx_StdPeriph_Driver/src/stm32f4xx_tim.c ****   /* Get the TIMx CR2 register value */
 689:Drivers/STM32F4xx_StdPeriph_Driver/src/stm32f4xx_tim.c ****   tmpcr2 =  TIMx->CR2;
 1264              		.loc 1 689 10
 1265 002c 7B68     		ldr	r3, [r7, #4]
 1266 002e 9B88     		ldrh	r3, [r3, #4]	@ movhi
 1267 0030 BB81     		strh	r3, [r7, #12]	@ movhi
 690:Drivers/STM32F4xx_StdPeriph_Driver/src/stm32f4xx_tim.c ****   
 691:Drivers/STM32F4xx_StdPeriph_Driver/src/stm32f4xx_tim.c ****   /* Get the TIMx CCMR1 register value */
 692:Drivers/STM32F4xx_StdPeriph_Driver/src/stm32f4xx_tim.c ****   tmpccmrx = TIMx->CCMR1;
 1268              		.loc 1 692 12
 1269 0032 7B68     		ldr	r3, [r7, #4]
 1270 0034 1B8B     		ldrh	r3, [r3, #24]	@ movhi
 1271 0036 7B81     		strh	r3, [r7, #10]	@ movhi
 693:Drivers/STM32F4xx_StdPeriph_Driver/src/stm32f4xx_tim.c ****     
 694:Drivers/STM32F4xx_StdPeriph_Driver/src/stm32f4xx_tim.c ****   /* Reset the Output Compare Mode Bits */
 695:Drivers/STM32F4xx_StdPeriph_Driver/src/stm32f4xx_tim.c ****   tmpccmrx &= (uint16_t)~TIM_CCMR1_OC1M;
 1272              		.loc 1 695 12
 1273 0038 7B89     		ldrh	r3, [r7, #10]	@ movhi
 1274 003a 23F07003 		bic	r3, r3, #112
 1275 003e 7B81     		strh	r3, [r7, #10]	@ movhi
 696:Drivers/STM32F4xx_StdPeriph_Driver/src/stm32f4xx_tim.c ****   tmpccmrx &= (uint16_t)~TIM_CCMR1_CC1S;
 1276              		.loc 1 696 12
 1277 0040 7B89     		ldrh	r3, [r7, #10]	@ movhi
 1278 0042 23F00303 		bic	r3, r3, #3
 1279 0046 7B81     		strh	r3, [r7, #10]	@ movhi
 697:Drivers/STM32F4xx_StdPeriph_Driver/src/stm32f4xx_tim.c ****   /* Select the Output Compare Mode */
 698:Drivers/STM32F4xx_StdPeriph_Driver/src/stm32f4xx_tim.c ****   tmpccmrx |= TIM_OCInitStruct->TIM_OCMode;
 1280              		.loc 1 698 31
 1281 0048 3B68     		ldr	r3, [r7]
 1282 004a 1A88     		ldrh	r2, [r3]
 1283              		.loc 1 698 12
 1284 004c 7B89     		ldrh	r3, [r7, #10]	@ movhi
 1285 004e 1343     		orrs	r3, r3, r2
ARM GAS  C:\Users\Admin\AppData\Local\Temp\ccwOX7Bd.s 			page 36


 1286 0050 7B81     		strh	r3, [r7, #10]	@ movhi
 699:Drivers/STM32F4xx_StdPeriph_Driver/src/stm32f4xx_tim.c ****   
 700:Drivers/STM32F4xx_StdPeriph_Driver/src/stm32f4xx_tim.c ****   /* Reset the Output Polarity level */
 701:Drivers/STM32F4xx_StdPeriph_Driver/src/stm32f4xx_tim.c ****   tmpccer &= (uint16_t)~TIM_CCER_CC1P;
 1287              		.loc 1 701 11
 1288 0052 FB89     		ldrh	r3, [r7, #14]	@ movhi
 1289 0054 23F00203 		bic	r3, r3, #2
 1290 0058 FB81     		strh	r3, [r7, #14]	@ movhi
 702:Drivers/STM32F4xx_StdPeriph_Driver/src/stm32f4xx_tim.c ****   /* Set the Output Compare Polarity */
 703:Drivers/STM32F4xx_StdPeriph_Driver/src/stm32f4xx_tim.c ****   tmpccer |= TIM_OCInitStruct->TIM_OCPolarity;
 1291              		.loc 1 703 30
 1292 005a 3B68     		ldr	r3, [r7]
 1293 005c 9A89     		ldrh	r2, [r3, #12]
 1294              		.loc 1 703 11
 1295 005e FB89     		ldrh	r3, [r7, #14]	@ movhi
 1296 0060 1343     		orrs	r3, r3, r2
 1297 0062 FB81     		strh	r3, [r7, #14]	@ movhi
 704:Drivers/STM32F4xx_StdPeriph_Driver/src/stm32f4xx_tim.c ****   
 705:Drivers/STM32F4xx_StdPeriph_Driver/src/stm32f4xx_tim.c ****   /* Set the Output State */
 706:Drivers/STM32F4xx_StdPeriph_Driver/src/stm32f4xx_tim.c ****   tmpccer |= TIM_OCInitStruct->TIM_OutputState;
 1298              		.loc 1 706 30
 1299 0064 3B68     		ldr	r3, [r7]
 1300 0066 5A88     		ldrh	r2, [r3, #2]
 1301              		.loc 1 706 11
 1302 0068 FB89     		ldrh	r3, [r7, #14]	@ movhi
 1303 006a 1343     		orrs	r3, r3, r2
 1304 006c FB81     		strh	r3, [r7, #14]	@ movhi
 707:Drivers/STM32F4xx_StdPeriph_Driver/src/stm32f4xx_tim.c ****     
 708:Drivers/STM32F4xx_StdPeriph_Driver/src/stm32f4xx_tim.c ****   if((TIMx == TIM1) || (TIMx == TIM8))
 1305              		.loc 1 708 5
 1306 006e 7B68     		ldr	r3, [r7, #4]
 1307 0070 1E4A     		ldr	r2, .L57
 1308 0072 9342     		cmp	r3, r2
 1309 0074 03D0     		beq	.L55
 1310              		.loc 1 708 21 discriminator 1
 1311 0076 7B68     		ldr	r3, [r7, #4]
 1312 0078 1D4A     		ldr	r2, .L57+4
 1313 007a 9342     		cmp	r3, r2
 1314 007c 23D1     		bne	.L56
 1315              	.L55:
 709:Drivers/STM32F4xx_StdPeriph_Driver/src/stm32f4xx_tim.c ****   {
 710:Drivers/STM32F4xx_StdPeriph_Driver/src/stm32f4xx_tim.c ****     assert_param(IS_TIM_OUTPUTN_STATE(TIM_OCInitStruct->TIM_OutputNState));
 711:Drivers/STM32F4xx_StdPeriph_Driver/src/stm32f4xx_tim.c ****     assert_param(IS_TIM_OCN_POLARITY(TIM_OCInitStruct->TIM_OCNPolarity));
 712:Drivers/STM32F4xx_StdPeriph_Driver/src/stm32f4xx_tim.c ****     assert_param(IS_TIM_OCNIDLE_STATE(TIM_OCInitStruct->TIM_OCNIdleState));
 713:Drivers/STM32F4xx_StdPeriph_Driver/src/stm32f4xx_tim.c ****     assert_param(IS_TIM_OCIDLE_STATE(TIM_OCInitStruct->TIM_OCIdleState));
 714:Drivers/STM32F4xx_StdPeriph_Driver/src/stm32f4xx_tim.c ****     
 715:Drivers/STM32F4xx_StdPeriph_Driver/src/stm32f4xx_tim.c ****     /* Reset the Output N Polarity level */
 716:Drivers/STM32F4xx_StdPeriph_Driver/src/stm32f4xx_tim.c ****     tmpccer &= (uint16_t)~TIM_CCER_CC1NP;
 1316              		.loc 1 716 13
 1317 007e FB89     		ldrh	r3, [r7, #14]	@ movhi
 1318 0080 23F00803 		bic	r3, r3, #8
 1319 0084 FB81     		strh	r3, [r7, #14]	@ movhi
 717:Drivers/STM32F4xx_StdPeriph_Driver/src/stm32f4xx_tim.c ****     /* Set the Output N Polarity */
 718:Drivers/STM32F4xx_StdPeriph_Driver/src/stm32f4xx_tim.c ****     tmpccer |= TIM_OCInitStruct->TIM_OCNPolarity;
 1320              		.loc 1 718 32
 1321 0086 3B68     		ldr	r3, [r7]
 1322 0088 DA89     		ldrh	r2, [r3, #14]
ARM GAS  C:\Users\Admin\AppData\Local\Temp\ccwOX7Bd.s 			page 37


 1323              		.loc 1 718 13
 1324 008a FB89     		ldrh	r3, [r7, #14]	@ movhi
 1325 008c 1343     		orrs	r3, r3, r2
 1326 008e FB81     		strh	r3, [r7, #14]	@ movhi
 719:Drivers/STM32F4xx_StdPeriph_Driver/src/stm32f4xx_tim.c ****     /* Reset the Output N State */
 720:Drivers/STM32F4xx_StdPeriph_Driver/src/stm32f4xx_tim.c ****     tmpccer &= (uint16_t)~TIM_CCER_CC1NE;
 1327              		.loc 1 720 13
 1328 0090 FB89     		ldrh	r3, [r7, #14]	@ movhi
 1329 0092 23F00403 		bic	r3, r3, #4
 1330 0096 FB81     		strh	r3, [r7, #14]	@ movhi
 721:Drivers/STM32F4xx_StdPeriph_Driver/src/stm32f4xx_tim.c ****     
 722:Drivers/STM32F4xx_StdPeriph_Driver/src/stm32f4xx_tim.c ****     /* Set the Output N State */
 723:Drivers/STM32F4xx_StdPeriph_Driver/src/stm32f4xx_tim.c ****     tmpccer |= TIM_OCInitStruct->TIM_OutputNState;
 1331              		.loc 1 723 32
 1332 0098 3B68     		ldr	r3, [r7]
 1333 009a 9A88     		ldrh	r2, [r3, #4]
 1334              		.loc 1 723 13
 1335 009c FB89     		ldrh	r3, [r7, #14]	@ movhi
 1336 009e 1343     		orrs	r3, r3, r2
 1337 00a0 FB81     		strh	r3, [r7, #14]	@ movhi
 724:Drivers/STM32F4xx_StdPeriph_Driver/src/stm32f4xx_tim.c ****     /* Reset the Output Compare and Output Compare N IDLE State */
 725:Drivers/STM32F4xx_StdPeriph_Driver/src/stm32f4xx_tim.c ****     tmpcr2 &= (uint16_t)~TIM_CR2_OIS1;
 1338              		.loc 1 725 12
 1339 00a2 BB89     		ldrh	r3, [r7, #12]	@ movhi
 1340 00a4 23F48073 		bic	r3, r3, #256
 1341 00a8 BB81     		strh	r3, [r7, #12]	@ movhi
 726:Drivers/STM32F4xx_StdPeriph_Driver/src/stm32f4xx_tim.c ****     tmpcr2 &= (uint16_t)~TIM_CR2_OIS1N;
 1342              		.loc 1 726 12
 1343 00aa BB89     		ldrh	r3, [r7, #12]	@ movhi
 1344 00ac 23F40073 		bic	r3, r3, #512
 1345 00b0 BB81     		strh	r3, [r7, #12]	@ movhi
 727:Drivers/STM32F4xx_StdPeriph_Driver/src/stm32f4xx_tim.c ****     /* Set the Output Idle state */
 728:Drivers/STM32F4xx_StdPeriph_Driver/src/stm32f4xx_tim.c ****     tmpcr2 |= TIM_OCInitStruct->TIM_OCIdleState;
 1346              		.loc 1 728 31
 1347 00b2 3B68     		ldr	r3, [r7]
 1348 00b4 1A8A     		ldrh	r2, [r3, #16]
 1349              		.loc 1 728 12
 1350 00b6 BB89     		ldrh	r3, [r7, #12]	@ movhi
 1351 00b8 1343     		orrs	r3, r3, r2
 1352 00ba BB81     		strh	r3, [r7, #12]	@ movhi
 729:Drivers/STM32F4xx_StdPeriph_Driver/src/stm32f4xx_tim.c ****     /* Set the Output N Idle state */
 730:Drivers/STM32F4xx_StdPeriph_Driver/src/stm32f4xx_tim.c ****     tmpcr2 |= TIM_OCInitStruct->TIM_OCNIdleState;
 1353              		.loc 1 730 31
 1354 00bc 3B68     		ldr	r3, [r7]
 1355 00be 5A8A     		ldrh	r2, [r3, #18]
 1356              		.loc 1 730 12
 1357 00c0 BB89     		ldrh	r3, [r7, #12]	@ movhi
 1358 00c2 1343     		orrs	r3, r3, r2
 1359 00c4 BB81     		strh	r3, [r7, #12]	@ movhi
 1360              	.L56:
 731:Drivers/STM32F4xx_StdPeriph_Driver/src/stm32f4xx_tim.c ****   }
 732:Drivers/STM32F4xx_StdPeriph_Driver/src/stm32f4xx_tim.c ****   /* Write to TIMx CR2 */
 733:Drivers/STM32F4xx_StdPeriph_Driver/src/stm32f4xx_tim.c ****   TIMx->CR2 = tmpcr2;
 1361              		.loc 1 733 13
 1362 00c6 7B68     		ldr	r3, [r7, #4]
 1363 00c8 BA89     		ldrh	r2, [r7, #12]	@ movhi
 1364 00ca 9A80     		strh	r2, [r3, #4]	@ movhi
ARM GAS  C:\Users\Admin\AppData\Local\Temp\ccwOX7Bd.s 			page 38


 734:Drivers/STM32F4xx_StdPeriph_Driver/src/stm32f4xx_tim.c ****   
 735:Drivers/STM32F4xx_StdPeriph_Driver/src/stm32f4xx_tim.c ****   /* Write to TIMx CCMR1 */
 736:Drivers/STM32F4xx_StdPeriph_Driver/src/stm32f4xx_tim.c ****   TIMx->CCMR1 = tmpccmrx;
 1365              		.loc 1 736 15
 1366 00cc 7B68     		ldr	r3, [r7, #4]
 1367 00ce 7A89     		ldrh	r2, [r7, #10]	@ movhi
 1368 00d0 1A83     		strh	r2, [r3, #24]	@ movhi
 737:Drivers/STM32F4xx_StdPeriph_Driver/src/stm32f4xx_tim.c ****   
 738:Drivers/STM32F4xx_StdPeriph_Driver/src/stm32f4xx_tim.c ****   /* Set the Capture Compare Register value */
 739:Drivers/STM32F4xx_StdPeriph_Driver/src/stm32f4xx_tim.c ****   TIMx->CCR1 = TIM_OCInitStruct->TIM_Pulse;
 1369              		.loc 1 739 32
 1370 00d2 3B68     		ldr	r3, [r7]
 1371 00d4 9A68     		ldr	r2, [r3, #8]
 1372              		.loc 1 739 14
 1373 00d6 7B68     		ldr	r3, [r7, #4]
 1374 00d8 5A63     		str	r2, [r3, #52]
 740:Drivers/STM32F4xx_StdPeriph_Driver/src/stm32f4xx_tim.c ****   
 741:Drivers/STM32F4xx_StdPeriph_Driver/src/stm32f4xx_tim.c ****   /* Write to TIMx CCER */
 742:Drivers/STM32F4xx_StdPeriph_Driver/src/stm32f4xx_tim.c ****   TIMx->CCER = tmpccer;
 1375              		.loc 1 742 14
 1376 00da 7B68     		ldr	r3, [r7, #4]
 1377 00dc FA89     		ldrh	r2, [r7, #14]	@ movhi
 1378 00de 1A84     		strh	r2, [r3, #32]	@ movhi
 743:Drivers/STM32F4xx_StdPeriph_Driver/src/stm32f4xx_tim.c **** }
 1379              		.loc 1 743 1
 1380 00e0 00BF     		nop
 1381 00e2 1437     		adds	r7, r7, #20
 1382              	.LCFI92:
 1383              		.cfi_def_cfa_offset 4
 1384 00e4 BD46     		mov	sp, r7
 1385              	.LCFI93:
 1386              		.cfi_def_cfa_register 13
 1387              		@ sp needed
 1388 00e6 5DF8047B 		ldr	r7, [sp], #4
 1389              	.LCFI94:
 1390              		.cfi_restore 7
 1391              		.cfi_def_cfa_offset 0
 1392 00ea 7047     		bx	lr
 1393              	.L58:
 1394              		.align	2
 1395              	.L57:
 1396 00ec 00000140 		.word	1073807360
 1397 00f0 00040140 		.word	1073808384
 1398              		.cfi_endproc
 1399              	.LFE145:
 1401              		.section	.text.TIM_OC2Init,"ax",%progbits
 1402              		.align	1
 1403              		.global	TIM_OC2Init
 1404              		.syntax unified
 1405              		.thumb
 1406              		.thumb_func
 1408              	TIM_OC2Init:
 1409              	.LFB146:
 744:Drivers/STM32F4xx_StdPeriph_Driver/src/stm32f4xx_tim.c **** 
 745:Drivers/STM32F4xx_StdPeriph_Driver/src/stm32f4xx_tim.c **** /**
 746:Drivers/STM32F4xx_StdPeriph_Driver/src/stm32f4xx_tim.c ****   * @brief  Initializes the TIMx Channel2 according to the specified parameters 
 747:Drivers/STM32F4xx_StdPeriph_Driver/src/stm32f4xx_tim.c ****   *         in the TIM_OCInitStruct.
ARM GAS  C:\Users\Admin\AppData\Local\Temp\ccwOX7Bd.s 			page 39


 748:Drivers/STM32F4xx_StdPeriph_Driver/src/stm32f4xx_tim.c ****   * @param  TIMx: where x can be 1, 2, 3, 4, 5, 8, 9 or 12 to select the TIM 
 749:Drivers/STM32F4xx_StdPeriph_Driver/src/stm32f4xx_tim.c ****   *         peripheral.
 750:Drivers/STM32F4xx_StdPeriph_Driver/src/stm32f4xx_tim.c ****   * @param  TIM_OCInitStruct: pointer to a TIM_OCInitTypeDef structure that contains
 751:Drivers/STM32F4xx_StdPeriph_Driver/src/stm32f4xx_tim.c ****   *         the configuration information for the specified TIM peripheral.
 752:Drivers/STM32F4xx_StdPeriph_Driver/src/stm32f4xx_tim.c ****   * @retval None
 753:Drivers/STM32F4xx_StdPeriph_Driver/src/stm32f4xx_tim.c ****   */
 754:Drivers/STM32F4xx_StdPeriph_Driver/src/stm32f4xx_tim.c **** void TIM_OC2Init(TIM_TypeDef* TIMx, TIM_OCInitTypeDef* TIM_OCInitStruct)
 755:Drivers/STM32F4xx_StdPeriph_Driver/src/stm32f4xx_tim.c **** {
 1410              		.loc 1 755 1
 1411              		.cfi_startproc
 1412              		@ args = 0, pretend = 0, frame = 16
 1413              		@ frame_needed = 1, uses_anonymous_args = 0
 1414              		@ link register save eliminated.
 1415 0000 80B4     		push	{r7}
 1416              	.LCFI95:
 1417              		.cfi_def_cfa_offset 4
 1418              		.cfi_offset 7, -4
 1419 0002 85B0     		sub	sp, sp, #20
 1420              	.LCFI96:
 1421              		.cfi_def_cfa_offset 24
 1422 0004 00AF     		add	r7, sp, #0
 1423              	.LCFI97:
 1424              		.cfi_def_cfa_register 7
 1425 0006 7860     		str	r0, [r7, #4]
 1426 0008 3960     		str	r1, [r7]
 756:Drivers/STM32F4xx_StdPeriph_Driver/src/stm32f4xx_tim.c ****   uint16_t tmpccmrx = 0, tmpccer = 0, tmpcr2 = 0;
 1427              		.loc 1 756 12
 1428 000a 0023     		movs	r3, #0
 1429 000c 7B81     		strh	r3, [r7, #10]	@ movhi
 1430              		.loc 1 756 26
 1431 000e 0023     		movs	r3, #0
 1432 0010 FB81     		strh	r3, [r7, #14]	@ movhi
 1433              		.loc 1 756 39
 1434 0012 0023     		movs	r3, #0
 1435 0014 BB81     		strh	r3, [r7, #12]	@ movhi
 757:Drivers/STM32F4xx_StdPeriph_Driver/src/stm32f4xx_tim.c ****    
 758:Drivers/STM32F4xx_StdPeriph_Driver/src/stm32f4xx_tim.c ****   /* Check the parameters */
 759:Drivers/STM32F4xx_StdPeriph_Driver/src/stm32f4xx_tim.c ****   assert_param(IS_TIM_LIST2_PERIPH(TIMx)); 
 760:Drivers/STM32F4xx_StdPeriph_Driver/src/stm32f4xx_tim.c ****   assert_param(IS_TIM_OC_MODE(TIM_OCInitStruct->TIM_OCMode));
 761:Drivers/STM32F4xx_StdPeriph_Driver/src/stm32f4xx_tim.c ****   assert_param(IS_TIM_OUTPUT_STATE(TIM_OCInitStruct->TIM_OutputState));
 762:Drivers/STM32F4xx_StdPeriph_Driver/src/stm32f4xx_tim.c ****   assert_param(IS_TIM_OC_POLARITY(TIM_OCInitStruct->TIM_OCPolarity));   
 763:Drivers/STM32F4xx_StdPeriph_Driver/src/stm32f4xx_tim.c **** 
 764:Drivers/STM32F4xx_StdPeriph_Driver/src/stm32f4xx_tim.c ****   /* Disable the Channel 2: Reset the CC2E Bit */
 765:Drivers/STM32F4xx_StdPeriph_Driver/src/stm32f4xx_tim.c ****   TIMx->CCER &= (uint16_t)~TIM_CCER_CC2E;
 1436              		.loc 1 765 14
 1437 0016 7B68     		ldr	r3, [r7, #4]
 1438 0018 1B8C     		ldrh	r3, [r3, #32]	@ movhi
 1439 001a 9BB2     		uxth	r3, r3
 1440 001c 23F01003 		bic	r3, r3, #16
 1441 0020 9AB2     		uxth	r2, r3
 1442 0022 7B68     		ldr	r3, [r7, #4]
 1443 0024 1A84     		strh	r2, [r3, #32]	@ movhi
 766:Drivers/STM32F4xx_StdPeriph_Driver/src/stm32f4xx_tim.c ****   
 767:Drivers/STM32F4xx_StdPeriph_Driver/src/stm32f4xx_tim.c ****   /* Get the TIMx CCER register value */  
 768:Drivers/STM32F4xx_StdPeriph_Driver/src/stm32f4xx_tim.c ****   tmpccer = TIMx->CCER;
 1444              		.loc 1 768 11
 1445 0026 7B68     		ldr	r3, [r7, #4]
ARM GAS  C:\Users\Admin\AppData\Local\Temp\ccwOX7Bd.s 			page 40


 1446 0028 1B8C     		ldrh	r3, [r3, #32]	@ movhi
 1447 002a FB81     		strh	r3, [r7, #14]	@ movhi
 769:Drivers/STM32F4xx_StdPeriph_Driver/src/stm32f4xx_tim.c ****   /* Get the TIMx CR2 register value */
 770:Drivers/STM32F4xx_StdPeriph_Driver/src/stm32f4xx_tim.c ****   tmpcr2 =  TIMx->CR2;
 1448              		.loc 1 770 10
 1449 002c 7B68     		ldr	r3, [r7, #4]
 1450 002e 9B88     		ldrh	r3, [r3, #4]	@ movhi
 1451 0030 BB81     		strh	r3, [r7, #12]	@ movhi
 771:Drivers/STM32F4xx_StdPeriph_Driver/src/stm32f4xx_tim.c ****   
 772:Drivers/STM32F4xx_StdPeriph_Driver/src/stm32f4xx_tim.c ****   /* Get the TIMx CCMR1 register value */
 773:Drivers/STM32F4xx_StdPeriph_Driver/src/stm32f4xx_tim.c ****   tmpccmrx = TIMx->CCMR1;
 1452              		.loc 1 773 12
 1453 0032 7B68     		ldr	r3, [r7, #4]
 1454 0034 1B8B     		ldrh	r3, [r3, #24]	@ movhi
 1455 0036 7B81     		strh	r3, [r7, #10]	@ movhi
 774:Drivers/STM32F4xx_StdPeriph_Driver/src/stm32f4xx_tim.c ****     
 775:Drivers/STM32F4xx_StdPeriph_Driver/src/stm32f4xx_tim.c ****   /* Reset the Output Compare mode and Capture/Compare selection Bits */
 776:Drivers/STM32F4xx_StdPeriph_Driver/src/stm32f4xx_tim.c ****   tmpccmrx &= (uint16_t)~TIM_CCMR1_OC2M;
 1456              		.loc 1 776 12
 1457 0038 7B89     		ldrh	r3, [r7, #10]	@ movhi
 1458 003a 23F4E043 		bic	r3, r3, #28672
 1459 003e 7B81     		strh	r3, [r7, #10]	@ movhi
 777:Drivers/STM32F4xx_StdPeriph_Driver/src/stm32f4xx_tim.c ****   tmpccmrx &= (uint16_t)~TIM_CCMR1_CC2S;
 1460              		.loc 1 777 12
 1461 0040 7B89     		ldrh	r3, [r7, #10]	@ movhi
 1462 0042 23F44073 		bic	r3, r3, #768
 1463 0046 7B81     		strh	r3, [r7, #10]	@ movhi
 778:Drivers/STM32F4xx_StdPeriph_Driver/src/stm32f4xx_tim.c ****   
 779:Drivers/STM32F4xx_StdPeriph_Driver/src/stm32f4xx_tim.c ****   /* Select the Output Compare Mode */
 780:Drivers/STM32F4xx_StdPeriph_Driver/src/stm32f4xx_tim.c ****   tmpccmrx |= (uint16_t)(TIM_OCInitStruct->TIM_OCMode << 8);
 1464              		.loc 1 780 42
 1465 0048 3B68     		ldr	r3, [r7]
 1466 004a 1B88     		ldrh	r3, [r3]
 1467              		.loc 1 780 15
 1468 004c 1B02     		lsls	r3, r3, #8
 1469 004e 9AB2     		uxth	r2, r3
 1470              		.loc 1 780 12
 1471 0050 7B89     		ldrh	r3, [r7, #10]	@ movhi
 1472 0052 1343     		orrs	r3, r3, r2
 1473 0054 7B81     		strh	r3, [r7, #10]	@ movhi
 781:Drivers/STM32F4xx_StdPeriph_Driver/src/stm32f4xx_tim.c ****   
 782:Drivers/STM32F4xx_StdPeriph_Driver/src/stm32f4xx_tim.c ****   /* Reset the Output Polarity level */
 783:Drivers/STM32F4xx_StdPeriph_Driver/src/stm32f4xx_tim.c ****   tmpccer &= (uint16_t)~TIM_CCER_CC2P;
 1474              		.loc 1 783 11
 1475 0056 FB89     		ldrh	r3, [r7, #14]	@ movhi
 1476 0058 23F02003 		bic	r3, r3, #32
 1477 005c FB81     		strh	r3, [r7, #14]	@ movhi
 784:Drivers/STM32F4xx_StdPeriph_Driver/src/stm32f4xx_tim.c ****   /* Set the Output Compare Polarity */
 785:Drivers/STM32F4xx_StdPeriph_Driver/src/stm32f4xx_tim.c ****   tmpccer |= (uint16_t)(TIM_OCInitStruct->TIM_OCPolarity << 4);
 1478              		.loc 1 785 41
 1479 005e 3B68     		ldr	r3, [r7]
 1480 0060 9B89     		ldrh	r3, [r3, #12]
 1481              		.loc 1 785 14
 1482 0062 1B01     		lsls	r3, r3, #4
 1483 0064 9AB2     		uxth	r2, r3
 1484              		.loc 1 785 11
 1485 0066 FB89     		ldrh	r3, [r7, #14]	@ movhi
ARM GAS  C:\Users\Admin\AppData\Local\Temp\ccwOX7Bd.s 			page 41


 1486 0068 1343     		orrs	r3, r3, r2
 1487 006a FB81     		strh	r3, [r7, #14]	@ movhi
 786:Drivers/STM32F4xx_StdPeriph_Driver/src/stm32f4xx_tim.c ****   
 787:Drivers/STM32F4xx_StdPeriph_Driver/src/stm32f4xx_tim.c ****   /* Set the Output State */
 788:Drivers/STM32F4xx_StdPeriph_Driver/src/stm32f4xx_tim.c ****   tmpccer |= (uint16_t)(TIM_OCInitStruct->TIM_OutputState << 4);
 1488              		.loc 1 788 41
 1489 006c 3B68     		ldr	r3, [r7]
 1490 006e 5B88     		ldrh	r3, [r3, #2]
 1491              		.loc 1 788 14
 1492 0070 1B01     		lsls	r3, r3, #4
 1493 0072 9AB2     		uxth	r2, r3
 1494              		.loc 1 788 11
 1495 0074 FB89     		ldrh	r3, [r7, #14]	@ movhi
 1496 0076 1343     		orrs	r3, r3, r2
 1497 0078 FB81     		strh	r3, [r7, #14]	@ movhi
 789:Drivers/STM32F4xx_StdPeriph_Driver/src/stm32f4xx_tim.c ****     
 790:Drivers/STM32F4xx_StdPeriph_Driver/src/stm32f4xx_tim.c ****   if((TIMx == TIM1) || (TIMx == TIM8))
 1498              		.loc 1 790 5
 1499 007a 7B68     		ldr	r3, [r7, #4]
 1500 007c 224A     		ldr	r2, .L62
 1501 007e 9342     		cmp	r3, r2
 1502 0080 03D0     		beq	.L60
 1503              		.loc 1 790 21 discriminator 1
 1504 0082 7B68     		ldr	r3, [r7, #4]
 1505 0084 214A     		ldr	r2, .L62+4
 1506 0086 9342     		cmp	r3, r2
 1507 0088 2BD1     		bne	.L61
 1508              	.L60:
 791:Drivers/STM32F4xx_StdPeriph_Driver/src/stm32f4xx_tim.c ****   {
 792:Drivers/STM32F4xx_StdPeriph_Driver/src/stm32f4xx_tim.c ****     assert_param(IS_TIM_OUTPUTN_STATE(TIM_OCInitStruct->TIM_OutputNState));
 793:Drivers/STM32F4xx_StdPeriph_Driver/src/stm32f4xx_tim.c ****     assert_param(IS_TIM_OCN_POLARITY(TIM_OCInitStruct->TIM_OCNPolarity));
 794:Drivers/STM32F4xx_StdPeriph_Driver/src/stm32f4xx_tim.c ****     assert_param(IS_TIM_OCNIDLE_STATE(TIM_OCInitStruct->TIM_OCNIdleState));
 795:Drivers/STM32F4xx_StdPeriph_Driver/src/stm32f4xx_tim.c ****     assert_param(IS_TIM_OCIDLE_STATE(TIM_OCInitStruct->TIM_OCIdleState));
 796:Drivers/STM32F4xx_StdPeriph_Driver/src/stm32f4xx_tim.c ****     
 797:Drivers/STM32F4xx_StdPeriph_Driver/src/stm32f4xx_tim.c ****     /* Reset the Output N Polarity level */
 798:Drivers/STM32F4xx_StdPeriph_Driver/src/stm32f4xx_tim.c ****     tmpccer &= (uint16_t)~TIM_CCER_CC2NP;
 1509              		.loc 1 798 13
 1510 008a FB89     		ldrh	r3, [r7, #14]	@ movhi
 1511 008c 23F08003 		bic	r3, r3, #128
 1512 0090 FB81     		strh	r3, [r7, #14]	@ movhi
 799:Drivers/STM32F4xx_StdPeriph_Driver/src/stm32f4xx_tim.c ****     /* Set the Output N Polarity */
 800:Drivers/STM32F4xx_StdPeriph_Driver/src/stm32f4xx_tim.c ****     tmpccer |= (uint16_t)(TIM_OCInitStruct->TIM_OCNPolarity << 4);
 1513              		.loc 1 800 43
 1514 0092 3B68     		ldr	r3, [r7]
 1515 0094 DB89     		ldrh	r3, [r3, #14]
 1516              		.loc 1 800 16
 1517 0096 1B01     		lsls	r3, r3, #4
 1518 0098 9AB2     		uxth	r2, r3
 1519              		.loc 1 800 13
 1520 009a FB89     		ldrh	r3, [r7, #14]	@ movhi
 1521 009c 1343     		orrs	r3, r3, r2
 1522 009e FB81     		strh	r3, [r7, #14]	@ movhi
 801:Drivers/STM32F4xx_StdPeriph_Driver/src/stm32f4xx_tim.c ****     /* Reset the Output N State */
 802:Drivers/STM32F4xx_StdPeriph_Driver/src/stm32f4xx_tim.c ****     tmpccer &= (uint16_t)~TIM_CCER_CC2NE;
 1523              		.loc 1 802 13
 1524 00a0 FB89     		ldrh	r3, [r7, #14]	@ movhi
 1525 00a2 23F04003 		bic	r3, r3, #64
ARM GAS  C:\Users\Admin\AppData\Local\Temp\ccwOX7Bd.s 			page 42


 1526 00a6 FB81     		strh	r3, [r7, #14]	@ movhi
 803:Drivers/STM32F4xx_StdPeriph_Driver/src/stm32f4xx_tim.c ****     
 804:Drivers/STM32F4xx_StdPeriph_Driver/src/stm32f4xx_tim.c ****     /* Set the Output N State */
 805:Drivers/STM32F4xx_StdPeriph_Driver/src/stm32f4xx_tim.c ****     tmpccer |= (uint16_t)(TIM_OCInitStruct->TIM_OutputNState << 4);
 1527              		.loc 1 805 43
 1528 00a8 3B68     		ldr	r3, [r7]
 1529 00aa 9B88     		ldrh	r3, [r3, #4]
 1530              		.loc 1 805 16
 1531 00ac 1B01     		lsls	r3, r3, #4
 1532 00ae 9AB2     		uxth	r2, r3
 1533              		.loc 1 805 13
 1534 00b0 FB89     		ldrh	r3, [r7, #14]	@ movhi
 1535 00b2 1343     		orrs	r3, r3, r2
 1536 00b4 FB81     		strh	r3, [r7, #14]	@ movhi
 806:Drivers/STM32F4xx_StdPeriph_Driver/src/stm32f4xx_tim.c ****     /* Reset the Output Compare and Output Compare N IDLE State */
 807:Drivers/STM32F4xx_StdPeriph_Driver/src/stm32f4xx_tim.c ****     tmpcr2 &= (uint16_t)~TIM_CR2_OIS2;
 1537              		.loc 1 807 12
 1538 00b6 BB89     		ldrh	r3, [r7, #12]	@ movhi
 1539 00b8 23F48063 		bic	r3, r3, #1024
 1540 00bc BB81     		strh	r3, [r7, #12]	@ movhi
 808:Drivers/STM32F4xx_StdPeriph_Driver/src/stm32f4xx_tim.c ****     tmpcr2 &= (uint16_t)~TIM_CR2_OIS2N;
 1541              		.loc 1 808 12
 1542 00be BB89     		ldrh	r3, [r7, #12]	@ movhi
 1543 00c0 23F40063 		bic	r3, r3, #2048
 1544 00c4 BB81     		strh	r3, [r7, #12]	@ movhi
 809:Drivers/STM32F4xx_StdPeriph_Driver/src/stm32f4xx_tim.c ****     /* Set the Output Idle state */
 810:Drivers/STM32F4xx_StdPeriph_Driver/src/stm32f4xx_tim.c ****     tmpcr2 |= (uint16_t)(TIM_OCInitStruct->TIM_OCIdleState << 2);
 1545              		.loc 1 810 42
 1546 00c6 3B68     		ldr	r3, [r7]
 1547 00c8 1B8A     		ldrh	r3, [r3, #16]
 1548              		.loc 1 810 15
 1549 00ca 9B00     		lsls	r3, r3, #2
 1550 00cc 9AB2     		uxth	r2, r3
 1551              		.loc 1 810 12
 1552 00ce BB89     		ldrh	r3, [r7, #12]	@ movhi
 1553 00d0 1343     		orrs	r3, r3, r2
 1554 00d2 BB81     		strh	r3, [r7, #12]	@ movhi
 811:Drivers/STM32F4xx_StdPeriph_Driver/src/stm32f4xx_tim.c ****     /* Set the Output N Idle state */
 812:Drivers/STM32F4xx_StdPeriph_Driver/src/stm32f4xx_tim.c ****     tmpcr2 |= (uint16_t)(TIM_OCInitStruct->TIM_OCNIdleState << 2);
 1555              		.loc 1 812 42
 1556 00d4 3B68     		ldr	r3, [r7]
 1557 00d6 5B8A     		ldrh	r3, [r3, #18]
 1558              		.loc 1 812 15
 1559 00d8 9B00     		lsls	r3, r3, #2
 1560 00da 9AB2     		uxth	r2, r3
 1561              		.loc 1 812 12
 1562 00dc BB89     		ldrh	r3, [r7, #12]	@ movhi
 1563 00de 1343     		orrs	r3, r3, r2
 1564 00e0 BB81     		strh	r3, [r7, #12]	@ movhi
 1565              	.L61:
 813:Drivers/STM32F4xx_StdPeriph_Driver/src/stm32f4xx_tim.c ****   }
 814:Drivers/STM32F4xx_StdPeriph_Driver/src/stm32f4xx_tim.c ****   /* Write to TIMx CR2 */
 815:Drivers/STM32F4xx_StdPeriph_Driver/src/stm32f4xx_tim.c ****   TIMx->CR2 = tmpcr2;
 1566              		.loc 1 815 13
 1567 00e2 7B68     		ldr	r3, [r7, #4]
 1568 00e4 BA89     		ldrh	r2, [r7, #12]	@ movhi
 1569 00e6 9A80     		strh	r2, [r3, #4]	@ movhi
ARM GAS  C:\Users\Admin\AppData\Local\Temp\ccwOX7Bd.s 			page 43


 816:Drivers/STM32F4xx_StdPeriph_Driver/src/stm32f4xx_tim.c ****   
 817:Drivers/STM32F4xx_StdPeriph_Driver/src/stm32f4xx_tim.c ****   /* Write to TIMx CCMR1 */
 818:Drivers/STM32F4xx_StdPeriph_Driver/src/stm32f4xx_tim.c ****   TIMx->CCMR1 = tmpccmrx;
 1570              		.loc 1 818 15
 1571 00e8 7B68     		ldr	r3, [r7, #4]
 1572 00ea 7A89     		ldrh	r2, [r7, #10]	@ movhi
 1573 00ec 1A83     		strh	r2, [r3, #24]	@ movhi
 819:Drivers/STM32F4xx_StdPeriph_Driver/src/stm32f4xx_tim.c ****   
 820:Drivers/STM32F4xx_StdPeriph_Driver/src/stm32f4xx_tim.c ****   /* Set the Capture Compare Register value */
 821:Drivers/STM32F4xx_StdPeriph_Driver/src/stm32f4xx_tim.c ****   TIMx->CCR2 = TIM_OCInitStruct->TIM_Pulse;
 1574              		.loc 1 821 32
 1575 00ee 3B68     		ldr	r3, [r7]
 1576 00f0 9A68     		ldr	r2, [r3, #8]
 1577              		.loc 1 821 14
 1578 00f2 7B68     		ldr	r3, [r7, #4]
 1579 00f4 9A63     		str	r2, [r3, #56]
 822:Drivers/STM32F4xx_StdPeriph_Driver/src/stm32f4xx_tim.c ****   
 823:Drivers/STM32F4xx_StdPeriph_Driver/src/stm32f4xx_tim.c ****   /* Write to TIMx CCER */
 824:Drivers/STM32F4xx_StdPeriph_Driver/src/stm32f4xx_tim.c ****   TIMx->CCER = tmpccer;
 1580              		.loc 1 824 14
 1581 00f6 7B68     		ldr	r3, [r7, #4]
 1582 00f8 FA89     		ldrh	r2, [r7, #14]	@ movhi
 1583 00fa 1A84     		strh	r2, [r3, #32]	@ movhi
 825:Drivers/STM32F4xx_StdPeriph_Driver/src/stm32f4xx_tim.c **** }
 1584              		.loc 1 825 1
 1585 00fc 00BF     		nop
 1586 00fe 1437     		adds	r7, r7, #20
 1587              	.LCFI98:
 1588              		.cfi_def_cfa_offset 4
 1589 0100 BD46     		mov	sp, r7
 1590              	.LCFI99:
 1591              		.cfi_def_cfa_register 13
 1592              		@ sp needed
 1593 0102 5DF8047B 		ldr	r7, [sp], #4
 1594              	.LCFI100:
 1595              		.cfi_restore 7
 1596              		.cfi_def_cfa_offset 0
 1597 0106 7047     		bx	lr
 1598              	.L63:
 1599              		.align	2
 1600              	.L62:
 1601 0108 00000140 		.word	1073807360
 1602 010c 00040140 		.word	1073808384
 1603              		.cfi_endproc
 1604              	.LFE146:
 1606              		.section	.text.TIM_OC3Init,"ax",%progbits
 1607              		.align	1
 1608              		.global	TIM_OC3Init
 1609              		.syntax unified
 1610              		.thumb
 1611              		.thumb_func
 1613              	TIM_OC3Init:
 1614              	.LFB147:
 826:Drivers/STM32F4xx_StdPeriph_Driver/src/stm32f4xx_tim.c **** 
 827:Drivers/STM32F4xx_StdPeriph_Driver/src/stm32f4xx_tim.c **** /**
 828:Drivers/STM32F4xx_StdPeriph_Driver/src/stm32f4xx_tim.c ****   * @brief  Initializes the TIMx Channel3 according to the specified parameters
 829:Drivers/STM32F4xx_StdPeriph_Driver/src/stm32f4xx_tim.c ****   *         in the TIM_OCInitStruct.
ARM GAS  C:\Users\Admin\AppData\Local\Temp\ccwOX7Bd.s 			page 44


 830:Drivers/STM32F4xx_StdPeriph_Driver/src/stm32f4xx_tim.c ****   * @param  TIMx: where x can be 1, 2, 3, 4, 5 or 8 to select the TIM peripheral.
 831:Drivers/STM32F4xx_StdPeriph_Driver/src/stm32f4xx_tim.c ****   * @param  TIM_OCInitStruct: pointer to a TIM_OCInitTypeDef structure that contains
 832:Drivers/STM32F4xx_StdPeriph_Driver/src/stm32f4xx_tim.c ****   *         the configuration information for the specified TIM peripheral.
 833:Drivers/STM32F4xx_StdPeriph_Driver/src/stm32f4xx_tim.c ****   * @retval None
 834:Drivers/STM32F4xx_StdPeriph_Driver/src/stm32f4xx_tim.c ****   */
 835:Drivers/STM32F4xx_StdPeriph_Driver/src/stm32f4xx_tim.c **** void TIM_OC3Init(TIM_TypeDef* TIMx, TIM_OCInitTypeDef* TIM_OCInitStruct)
 836:Drivers/STM32F4xx_StdPeriph_Driver/src/stm32f4xx_tim.c **** {
 1615              		.loc 1 836 1
 1616              		.cfi_startproc
 1617              		@ args = 0, pretend = 0, frame = 16
 1618              		@ frame_needed = 1, uses_anonymous_args = 0
 1619              		@ link register save eliminated.
 1620 0000 80B4     		push	{r7}
 1621              	.LCFI101:
 1622              		.cfi_def_cfa_offset 4
 1623              		.cfi_offset 7, -4
 1624 0002 85B0     		sub	sp, sp, #20
 1625              	.LCFI102:
 1626              		.cfi_def_cfa_offset 24
 1627 0004 00AF     		add	r7, sp, #0
 1628              	.LCFI103:
 1629              		.cfi_def_cfa_register 7
 1630 0006 7860     		str	r0, [r7, #4]
 1631 0008 3960     		str	r1, [r7]
 837:Drivers/STM32F4xx_StdPeriph_Driver/src/stm32f4xx_tim.c ****   uint16_t tmpccmrx = 0, tmpccer = 0, tmpcr2 = 0;
 1632              		.loc 1 837 12
 1633 000a 0023     		movs	r3, #0
 1634 000c 7B81     		strh	r3, [r7, #10]	@ movhi
 1635              		.loc 1 837 26
 1636 000e 0023     		movs	r3, #0
 1637 0010 FB81     		strh	r3, [r7, #14]	@ movhi
 1638              		.loc 1 837 39
 1639 0012 0023     		movs	r3, #0
 1640 0014 BB81     		strh	r3, [r7, #12]	@ movhi
 838:Drivers/STM32F4xx_StdPeriph_Driver/src/stm32f4xx_tim.c ****    
 839:Drivers/STM32F4xx_StdPeriph_Driver/src/stm32f4xx_tim.c ****   /* Check the parameters */
 840:Drivers/STM32F4xx_StdPeriph_Driver/src/stm32f4xx_tim.c ****   assert_param(IS_TIM_LIST3_PERIPH(TIMx)); 
 841:Drivers/STM32F4xx_StdPeriph_Driver/src/stm32f4xx_tim.c ****   assert_param(IS_TIM_OC_MODE(TIM_OCInitStruct->TIM_OCMode));
 842:Drivers/STM32F4xx_StdPeriph_Driver/src/stm32f4xx_tim.c ****   assert_param(IS_TIM_OUTPUT_STATE(TIM_OCInitStruct->TIM_OutputState));
 843:Drivers/STM32F4xx_StdPeriph_Driver/src/stm32f4xx_tim.c ****   assert_param(IS_TIM_OC_POLARITY(TIM_OCInitStruct->TIM_OCPolarity));   
 844:Drivers/STM32F4xx_StdPeriph_Driver/src/stm32f4xx_tim.c **** 
 845:Drivers/STM32F4xx_StdPeriph_Driver/src/stm32f4xx_tim.c ****   /* Disable the Channel 3: Reset the CC2E Bit */
 846:Drivers/STM32F4xx_StdPeriph_Driver/src/stm32f4xx_tim.c ****   TIMx->CCER &= (uint16_t)~TIM_CCER_CC3E;
 1641              		.loc 1 846 14
 1642 0016 7B68     		ldr	r3, [r7, #4]
 1643 0018 1B8C     		ldrh	r3, [r3, #32]	@ movhi
 1644 001a 9BB2     		uxth	r3, r3
 1645 001c 23F48073 		bic	r3, r3, #256
 1646 0020 9AB2     		uxth	r2, r3
 1647 0022 7B68     		ldr	r3, [r7, #4]
 1648 0024 1A84     		strh	r2, [r3, #32]	@ movhi
 847:Drivers/STM32F4xx_StdPeriph_Driver/src/stm32f4xx_tim.c ****   
 848:Drivers/STM32F4xx_StdPeriph_Driver/src/stm32f4xx_tim.c ****   /* Get the TIMx CCER register value */
 849:Drivers/STM32F4xx_StdPeriph_Driver/src/stm32f4xx_tim.c ****   tmpccer = TIMx->CCER;
 1649              		.loc 1 849 11
 1650 0026 7B68     		ldr	r3, [r7, #4]
 1651 0028 1B8C     		ldrh	r3, [r3, #32]	@ movhi
ARM GAS  C:\Users\Admin\AppData\Local\Temp\ccwOX7Bd.s 			page 45


 1652 002a FB81     		strh	r3, [r7, #14]	@ movhi
 850:Drivers/STM32F4xx_StdPeriph_Driver/src/stm32f4xx_tim.c ****   /* Get the TIMx CR2 register value */
 851:Drivers/STM32F4xx_StdPeriph_Driver/src/stm32f4xx_tim.c ****   tmpcr2 =  TIMx->CR2;
 1653              		.loc 1 851 10
 1654 002c 7B68     		ldr	r3, [r7, #4]
 1655 002e 9B88     		ldrh	r3, [r3, #4]	@ movhi
 1656 0030 BB81     		strh	r3, [r7, #12]	@ movhi
 852:Drivers/STM32F4xx_StdPeriph_Driver/src/stm32f4xx_tim.c ****   
 853:Drivers/STM32F4xx_StdPeriph_Driver/src/stm32f4xx_tim.c ****   /* Get the TIMx CCMR2 register value */
 854:Drivers/STM32F4xx_StdPeriph_Driver/src/stm32f4xx_tim.c ****   tmpccmrx = TIMx->CCMR2;
 1657              		.loc 1 854 12
 1658 0032 7B68     		ldr	r3, [r7, #4]
 1659 0034 9B8B     		ldrh	r3, [r3, #28]	@ movhi
 1660 0036 7B81     		strh	r3, [r7, #10]	@ movhi
 855:Drivers/STM32F4xx_StdPeriph_Driver/src/stm32f4xx_tim.c ****     
 856:Drivers/STM32F4xx_StdPeriph_Driver/src/stm32f4xx_tim.c ****   /* Reset the Output Compare mode and Capture/Compare selection Bits */
 857:Drivers/STM32F4xx_StdPeriph_Driver/src/stm32f4xx_tim.c ****   tmpccmrx &= (uint16_t)~TIM_CCMR2_OC3M;
 1661              		.loc 1 857 12
 1662 0038 7B89     		ldrh	r3, [r7, #10]	@ movhi
 1663 003a 23F07003 		bic	r3, r3, #112
 1664 003e 7B81     		strh	r3, [r7, #10]	@ movhi
 858:Drivers/STM32F4xx_StdPeriph_Driver/src/stm32f4xx_tim.c ****   tmpccmrx &= (uint16_t)~TIM_CCMR2_CC3S;  
 1665              		.loc 1 858 12
 1666 0040 7B89     		ldrh	r3, [r7, #10]	@ movhi
 1667 0042 23F00303 		bic	r3, r3, #3
 1668 0046 7B81     		strh	r3, [r7, #10]	@ movhi
 859:Drivers/STM32F4xx_StdPeriph_Driver/src/stm32f4xx_tim.c ****   /* Select the Output Compare Mode */
 860:Drivers/STM32F4xx_StdPeriph_Driver/src/stm32f4xx_tim.c ****   tmpccmrx |= TIM_OCInitStruct->TIM_OCMode;
 1669              		.loc 1 860 31
 1670 0048 3B68     		ldr	r3, [r7]
 1671 004a 1A88     		ldrh	r2, [r3]
 1672              		.loc 1 860 12
 1673 004c 7B89     		ldrh	r3, [r7, #10]	@ movhi
 1674 004e 1343     		orrs	r3, r3, r2
 1675 0050 7B81     		strh	r3, [r7, #10]	@ movhi
 861:Drivers/STM32F4xx_StdPeriph_Driver/src/stm32f4xx_tim.c ****   
 862:Drivers/STM32F4xx_StdPeriph_Driver/src/stm32f4xx_tim.c ****   /* Reset the Output Polarity level */
 863:Drivers/STM32F4xx_StdPeriph_Driver/src/stm32f4xx_tim.c ****   tmpccer &= (uint16_t)~TIM_CCER_CC3P;
 1676              		.loc 1 863 11
 1677 0052 FB89     		ldrh	r3, [r7, #14]	@ movhi
 1678 0054 23F40073 		bic	r3, r3, #512
 1679 0058 FB81     		strh	r3, [r7, #14]	@ movhi
 864:Drivers/STM32F4xx_StdPeriph_Driver/src/stm32f4xx_tim.c ****   /* Set the Output Compare Polarity */
 865:Drivers/STM32F4xx_StdPeriph_Driver/src/stm32f4xx_tim.c ****   tmpccer |= (uint16_t)(TIM_OCInitStruct->TIM_OCPolarity << 8);
 1680              		.loc 1 865 41
 1681 005a 3B68     		ldr	r3, [r7]
 1682 005c 9B89     		ldrh	r3, [r3, #12]
 1683              		.loc 1 865 14
 1684 005e 1B02     		lsls	r3, r3, #8
 1685 0060 9AB2     		uxth	r2, r3
 1686              		.loc 1 865 11
 1687 0062 FB89     		ldrh	r3, [r7, #14]	@ movhi
 1688 0064 1343     		orrs	r3, r3, r2
 1689 0066 FB81     		strh	r3, [r7, #14]	@ movhi
 866:Drivers/STM32F4xx_StdPeriph_Driver/src/stm32f4xx_tim.c ****   
 867:Drivers/STM32F4xx_StdPeriph_Driver/src/stm32f4xx_tim.c ****   /* Set the Output State */
 868:Drivers/STM32F4xx_StdPeriph_Driver/src/stm32f4xx_tim.c ****   tmpccer |= (uint16_t)(TIM_OCInitStruct->TIM_OutputState << 8);
ARM GAS  C:\Users\Admin\AppData\Local\Temp\ccwOX7Bd.s 			page 46


 1690              		.loc 1 868 41
 1691 0068 3B68     		ldr	r3, [r7]
 1692 006a 5B88     		ldrh	r3, [r3, #2]
 1693              		.loc 1 868 14
 1694 006c 1B02     		lsls	r3, r3, #8
 1695 006e 9AB2     		uxth	r2, r3
 1696              		.loc 1 868 11
 1697 0070 FB89     		ldrh	r3, [r7, #14]	@ movhi
 1698 0072 1343     		orrs	r3, r3, r2
 1699 0074 FB81     		strh	r3, [r7, #14]	@ movhi
 869:Drivers/STM32F4xx_StdPeriph_Driver/src/stm32f4xx_tim.c ****     
 870:Drivers/STM32F4xx_StdPeriph_Driver/src/stm32f4xx_tim.c ****   if((TIMx == TIM1) || (TIMx == TIM8))
 1700              		.loc 1 870 5
 1701 0076 7B68     		ldr	r3, [r7, #4]
 1702 0078 224A     		ldr	r2, .L67
 1703 007a 9342     		cmp	r3, r2
 1704 007c 03D0     		beq	.L65
 1705              		.loc 1 870 21 discriminator 1
 1706 007e 7B68     		ldr	r3, [r7, #4]
 1707 0080 214A     		ldr	r2, .L67+4
 1708 0082 9342     		cmp	r3, r2
 1709 0084 2BD1     		bne	.L66
 1710              	.L65:
 871:Drivers/STM32F4xx_StdPeriph_Driver/src/stm32f4xx_tim.c ****   {
 872:Drivers/STM32F4xx_StdPeriph_Driver/src/stm32f4xx_tim.c ****     assert_param(IS_TIM_OUTPUTN_STATE(TIM_OCInitStruct->TIM_OutputNState));
 873:Drivers/STM32F4xx_StdPeriph_Driver/src/stm32f4xx_tim.c ****     assert_param(IS_TIM_OCN_POLARITY(TIM_OCInitStruct->TIM_OCNPolarity));
 874:Drivers/STM32F4xx_StdPeriph_Driver/src/stm32f4xx_tim.c ****     assert_param(IS_TIM_OCNIDLE_STATE(TIM_OCInitStruct->TIM_OCNIdleState));
 875:Drivers/STM32F4xx_StdPeriph_Driver/src/stm32f4xx_tim.c ****     assert_param(IS_TIM_OCIDLE_STATE(TIM_OCInitStruct->TIM_OCIdleState));
 876:Drivers/STM32F4xx_StdPeriph_Driver/src/stm32f4xx_tim.c ****     
 877:Drivers/STM32F4xx_StdPeriph_Driver/src/stm32f4xx_tim.c ****     /* Reset the Output N Polarity level */
 878:Drivers/STM32F4xx_StdPeriph_Driver/src/stm32f4xx_tim.c ****     tmpccer &= (uint16_t)~TIM_CCER_CC3NP;
 1711              		.loc 1 878 13
 1712 0086 FB89     		ldrh	r3, [r7, #14]	@ movhi
 1713 0088 23F40063 		bic	r3, r3, #2048
 1714 008c FB81     		strh	r3, [r7, #14]	@ movhi
 879:Drivers/STM32F4xx_StdPeriph_Driver/src/stm32f4xx_tim.c ****     /* Set the Output N Polarity */
 880:Drivers/STM32F4xx_StdPeriph_Driver/src/stm32f4xx_tim.c ****     tmpccer |= (uint16_t)(TIM_OCInitStruct->TIM_OCNPolarity << 8);
 1715              		.loc 1 880 43
 1716 008e 3B68     		ldr	r3, [r7]
 1717 0090 DB89     		ldrh	r3, [r3, #14]
 1718              		.loc 1 880 16
 1719 0092 1B02     		lsls	r3, r3, #8
 1720 0094 9AB2     		uxth	r2, r3
 1721              		.loc 1 880 13
 1722 0096 FB89     		ldrh	r3, [r7, #14]	@ movhi
 1723 0098 1343     		orrs	r3, r3, r2
 1724 009a FB81     		strh	r3, [r7, #14]	@ movhi
 881:Drivers/STM32F4xx_StdPeriph_Driver/src/stm32f4xx_tim.c ****     /* Reset the Output N State */
 882:Drivers/STM32F4xx_StdPeriph_Driver/src/stm32f4xx_tim.c ****     tmpccer &= (uint16_t)~TIM_CCER_CC3NE;
 1725              		.loc 1 882 13
 1726 009c FB89     		ldrh	r3, [r7, #14]	@ movhi
 1727 009e 23F48063 		bic	r3, r3, #1024
 1728 00a2 FB81     		strh	r3, [r7, #14]	@ movhi
 883:Drivers/STM32F4xx_StdPeriph_Driver/src/stm32f4xx_tim.c ****     
 884:Drivers/STM32F4xx_StdPeriph_Driver/src/stm32f4xx_tim.c ****     /* Set the Output N State */
 885:Drivers/STM32F4xx_StdPeriph_Driver/src/stm32f4xx_tim.c ****     tmpccer |= (uint16_t)(TIM_OCInitStruct->TIM_OutputNState << 8);
 1729              		.loc 1 885 43
ARM GAS  C:\Users\Admin\AppData\Local\Temp\ccwOX7Bd.s 			page 47


 1730 00a4 3B68     		ldr	r3, [r7]
 1731 00a6 9B88     		ldrh	r3, [r3, #4]
 1732              		.loc 1 885 16
 1733 00a8 1B02     		lsls	r3, r3, #8
 1734 00aa 9AB2     		uxth	r2, r3
 1735              		.loc 1 885 13
 1736 00ac FB89     		ldrh	r3, [r7, #14]	@ movhi
 1737 00ae 1343     		orrs	r3, r3, r2
 1738 00b0 FB81     		strh	r3, [r7, #14]	@ movhi
 886:Drivers/STM32F4xx_StdPeriph_Driver/src/stm32f4xx_tim.c ****     /* Reset the Output Compare and Output Compare N IDLE State */
 887:Drivers/STM32F4xx_StdPeriph_Driver/src/stm32f4xx_tim.c ****     tmpcr2 &= (uint16_t)~TIM_CR2_OIS3;
 1739              		.loc 1 887 12
 1740 00b2 BB89     		ldrh	r3, [r7, #12]	@ movhi
 1741 00b4 23F48053 		bic	r3, r3, #4096
 1742 00b8 BB81     		strh	r3, [r7, #12]	@ movhi
 888:Drivers/STM32F4xx_StdPeriph_Driver/src/stm32f4xx_tim.c ****     tmpcr2 &= (uint16_t)~TIM_CR2_OIS3N;
 1743              		.loc 1 888 12
 1744 00ba BB89     		ldrh	r3, [r7, #12]	@ movhi
 1745 00bc 23F40053 		bic	r3, r3, #8192
 1746 00c0 BB81     		strh	r3, [r7, #12]	@ movhi
 889:Drivers/STM32F4xx_StdPeriph_Driver/src/stm32f4xx_tim.c ****     /* Set the Output Idle state */
 890:Drivers/STM32F4xx_StdPeriph_Driver/src/stm32f4xx_tim.c ****     tmpcr2 |= (uint16_t)(TIM_OCInitStruct->TIM_OCIdleState << 4);
 1747              		.loc 1 890 42
 1748 00c2 3B68     		ldr	r3, [r7]
 1749 00c4 1B8A     		ldrh	r3, [r3, #16]
 1750              		.loc 1 890 15
 1751 00c6 1B01     		lsls	r3, r3, #4
 1752 00c8 9AB2     		uxth	r2, r3
 1753              		.loc 1 890 12
 1754 00ca BB89     		ldrh	r3, [r7, #12]	@ movhi
 1755 00cc 1343     		orrs	r3, r3, r2
 1756 00ce BB81     		strh	r3, [r7, #12]	@ movhi
 891:Drivers/STM32F4xx_StdPeriph_Driver/src/stm32f4xx_tim.c ****     /* Set the Output N Idle state */
 892:Drivers/STM32F4xx_StdPeriph_Driver/src/stm32f4xx_tim.c ****     tmpcr2 |= (uint16_t)(TIM_OCInitStruct->TIM_OCNIdleState << 4);
 1757              		.loc 1 892 42
 1758 00d0 3B68     		ldr	r3, [r7]
 1759 00d2 5B8A     		ldrh	r3, [r3, #18]
 1760              		.loc 1 892 15
 1761 00d4 1B01     		lsls	r3, r3, #4
 1762 00d6 9AB2     		uxth	r2, r3
 1763              		.loc 1 892 12
 1764 00d8 BB89     		ldrh	r3, [r7, #12]	@ movhi
 1765 00da 1343     		orrs	r3, r3, r2
 1766 00dc BB81     		strh	r3, [r7, #12]	@ movhi
 1767              	.L66:
 893:Drivers/STM32F4xx_StdPeriph_Driver/src/stm32f4xx_tim.c ****   }
 894:Drivers/STM32F4xx_StdPeriph_Driver/src/stm32f4xx_tim.c ****   /* Write to TIMx CR2 */
 895:Drivers/STM32F4xx_StdPeriph_Driver/src/stm32f4xx_tim.c ****   TIMx->CR2 = tmpcr2;
 1768              		.loc 1 895 13
 1769 00de 7B68     		ldr	r3, [r7, #4]
 1770 00e0 BA89     		ldrh	r2, [r7, #12]	@ movhi
 1771 00e2 9A80     		strh	r2, [r3, #4]	@ movhi
 896:Drivers/STM32F4xx_StdPeriph_Driver/src/stm32f4xx_tim.c ****   
 897:Drivers/STM32F4xx_StdPeriph_Driver/src/stm32f4xx_tim.c ****   /* Write to TIMx CCMR2 */
 898:Drivers/STM32F4xx_StdPeriph_Driver/src/stm32f4xx_tim.c ****   TIMx->CCMR2 = tmpccmrx;
 1772              		.loc 1 898 15
 1773 00e4 7B68     		ldr	r3, [r7, #4]
ARM GAS  C:\Users\Admin\AppData\Local\Temp\ccwOX7Bd.s 			page 48


 1774 00e6 7A89     		ldrh	r2, [r7, #10]	@ movhi
 1775 00e8 9A83     		strh	r2, [r3, #28]	@ movhi
 899:Drivers/STM32F4xx_StdPeriph_Driver/src/stm32f4xx_tim.c ****   
 900:Drivers/STM32F4xx_StdPeriph_Driver/src/stm32f4xx_tim.c ****   /* Set the Capture Compare Register value */
 901:Drivers/STM32F4xx_StdPeriph_Driver/src/stm32f4xx_tim.c ****   TIMx->CCR3 = TIM_OCInitStruct->TIM_Pulse;
 1776              		.loc 1 901 32
 1777 00ea 3B68     		ldr	r3, [r7]
 1778 00ec 9A68     		ldr	r2, [r3, #8]
 1779              		.loc 1 901 14
 1780 00ee 7B68     		ldr	r3, [r7, #4]
 1781 00f0 DA63     		str	r2, [r3, #60]
 902:Drivers/STM32F4xx_StdPeriph_Driver/src/stm32f4xx_tim.c ****   
 903:Drivers/STM32F4xx_StdPeriph_Driver/src/stm32f4xx_tim.c ****   /* Write to TIMx CCER */
 904:Drivers/STM32F4xx_StdPeriph_Driver/src/stm32f4xx_tim.c ****   TIMx->CCER = tmpccer;
 1782              		.loc 1 904 14
 1783 00f2 7B68     		ldr	r3, [r7, #4]
 1784 00f4 FA89     		ldrh	r2, [r7, #14]	@ movhi
 1785 00f6 1A84     		strh	r2, [r3, #32]	@ movhi
 905:Drivers/STM32F4xx_StdPeriph_Driver/src/stm32f4xx_tim.c **** }
 1786              		.loc 1 905 1
 1787 00f8 00BF     		nop
 1788 00fa 1437     		adds	r7, r7, #20
 1789              	.LCFI104:
 1790              		.cfi_def_cfa_offset 4
 1791 00fc BD46     		mov	sp, r7
 1792              	.LCFI105:
 1793              		.cfi_def_cfa_register 13
 1794              		@ sp needed
 1795 00fe 5DF8047B 		ldr	r7, [sp], #4
 1796              	.LCFI106:
 1797              		.cfi_restore 7
 1798              		.cfi_def_cfa_offset 0
 1799 0102 7047     		bx	lr
 1800              	.L68:
 1801              		.align	2
 1802              	.L67:
 1803 0104 00000140 		.word	1073807360
 1804 0108 00040140 		.word	1073808384
 1805              		.cfi_endproc
 1806              	.LFE147:
 1808              		.section	.text.TIM_OC4Init,"ax",%progbits
 1809              		.align	1
 1810              		.global	TIM_OC4Init
 1811              		.syntax unified
 1812              		.thumb
 1813              		.thumb_func
 1815              	TIM_OC4Init:
 1816              	.LFB148:
 906:Drivers/STM32F4xx_StdPeriph_Driver/src/stm32f4xx_tim.c **** 
 907:Drivers/STM32F4xx_StdPeriph_Driver/src/stm32f4xx_tim.c **** /**
 908:Drivers/STM32F4xx_StdPeriph_Driver/src/stm32f4xx_tim.c ****   * @brief  Initializes the TIMx Channel4 according to the specified parameters
 909:Drivers/STM32F4xx_StdPeriph_Driver/src/stm32f4xx_tim.c ****   *         in the TIM_OCInitStruct.
 910:Drivers/STM32F4xx_StdPeriph_Driver/src/stm32f4xx_tim.c ****   * @param  TIMx: where x can be 1, 2, 3, 4, 5 or 8 to select the TIM peripheral.
 911:Drivers/STM32F4xx_StdPeriph_Driver/src/stm32f4xx_tim.c ****   * @param  TIM_OCInitStruct: pointer to a TIM_OCInitTypeDef structure that contains
 912:Drivers/STM32F4xx_StdPeriph_Driver/src/stm32f4xx_tim.c ****   *         the configuration information for the specified TIM peripheral.
 913:Drivers/STM32F4xx_StdPeriph_Driver/src/stm32f4xx_tim.c ****   * @retval None
 914:Drivers/STM32F4xx_StdPeriph_Driver/src/stm32f4xx_tim.c ****   */
ARM GAS  C:\Users\Admin\AppData\Local\Temp\ccwOX7Bd.s 			page 49


 915:Drivers/STM32F4xx_StdPeriph_Driver/src/stm32f4xx_tim.c **** void TIM_OC4Init(TIM_TypeDef* TIMx, TIM_OCInitTypeDef* TIM_OCInitStruct)
 916:Drivers/STM32F4xx_StdPeriph_Driver/src/stm32f4xx_tim.c **** {
 1817              		.loc 1 916 1
 1818              		.cfi_startproc
 1819              		@ args = 0, pretend = 0, frame = 16
 1820              		@ frame_needed = 1, uses_anonymous_args = 0
 1821              		@ link register save eliminated.
 1822 0000 80B4     		push	{r7}
 1823              	.LCFI107:
 1824              		.cfi_def_cfa_offset 4
 1825              		.cfi_offset 7, -4
 1826 0002 85B0     		sub	sp, sp, #20
 1827              	.LCFI108:
 1828              		.cfi_def_cfa_offset 24
 1829 0004 00AF     		add	r7, sp, #0
 1830              	.LCFI109:
 1831              		.cfi_def_cfa_register 7
 1832 0006 7860     		str	r0, [r7, #4]
 1833 0008 3960     		str	r1, [r7]
 917:Drivers/STM32F4xx_StdPeriph_Driver/src/stm32f4xx_tim.c ****   uint16_t tmpccmrx = 0, tmpccer = 0, tmpcr2 = 0;
 1834              		.loc 1 917 12
 1835 000a 0023     		movs	r3, #0
 1836 000c BB81     		strh	r3, [r7, #12]	@ movhi
 1837              		.loc 1 917 26
 1838 000e 0023     		movs	r3, #0
 1839 0010 7B81     		strh	r3, [r7, #10]	@ movhi
 1840              		.loc 1 917 39
 1841 0012 0023     		movs	r3, #0
 1842 0014 FB81     		strh	r3, [r7, #14]	@ movhi
 918:Drivers/STM32F4xx_StdPeriph_Driver/src/stm32f4xx_tim.c ****    
 919:Drivers/STM32F4xx_StdPeriph_Driver/src/stm32f4xx_tim.c ****   /* Check the parameters */
 920:Drivers/STM32F4xx_StdPeriph_Driver/src/stm32f4xx_tim.c ****   assert_param(IS_TIM_LIST3_PERIPH(TIMx)); 
 921:Drivers/STM32F4xx_StdPeriph_Driver/src/stm32f4xx_tim.c ****   assert_param(IS_TIM_OC_MODE(TIM_OCInitStruct->TIM_OCMode));
 922:Drivers/STM32F4xx_StdPeriph_Driver/src/stm32f4xx_tim.c ****   assert_param(IS_TIM_OUTPUT_STATE(TIM_OCInitStruct->TIM_OutputState));
 923:Drivers/STM32F4xx_StdPeriph_Driver/src/stm32f4xx_tim.c ****   assert_param(IS_TIM_OC_POLARITY(TIM_OCInitStruct->TIM_OCPolarity));   
 924:Drivers/STM32F4xx_StdPeriph_Driver/src/stm32f4xx_tim.c **** 
 925:Drivers/STM32F4xx_StdPeriph_Driver/src/stm32f4xx_tim.c ****   /* Disable the Channel 4: Reset the CC4E Bit */
 926:Drivers/STM32F4xx_StdPeriph_Driver/src/stm32f4xx_tim.c ****   TIMx->CCER &= (uint16_t)~TIM_CCER_CC4E;
 1843              		.loc 1 926 14
 1844 0016 7B68     		ldr	r3, [r7, #4]
 1845 0018 1B8C     		ldrh	r3, [r3, #32]	@ movhi
 1846 001a 9BB2     		uxth	r3, r3
 1847 001c 23F48053 		bic	r3, r3, #4096
 1848 0020 9AB2     		uxth	r2, r3
 1849 0022 7B68     		ldr	r3, [r7, #4]
 1850 0024 1A84     		strh	r2, [r3, #32]	@ movhi
 927:Drivers/STM32F4xx_StdPeriph_Driver/src/stm32f4xx_tim.c ****   
 928:Drivers/STM32F4xx_StdPeriph_Driver/src/stm32f4xx_tim.c ****   /* Get the TIMx CCER register value */
 929:Drivers/STM32F4xx_StdPeriph_Driver/src/stm32f4xx_tim.c ****   tmpccer = TIMx->CCER;
 1851              		.loc 1 929 11
 1852 0026 7B68     		ldr	r3, [r7, #4]
 1853 0028 1B8C     		ldrh	r3, [r3, #32]	@ movhi
 1854 002a 7B81     		strh	r3, [r7, #10]	@ movhi
 930:Drivers/STM32F4xx_StdPeriph_Driver/src/stm32f4xx_tim.c ****   /* Get the TIMx CR2 register value */
 931:Drivers/STM32F4xx_StdPeriph_Driver/src/stm32f4xx_tim.c ****   tmpcr2 =  TIMx->CR2;
 1855              		.loc 1 931 10
 1856 002c 7B68     		ldr	r3, [r7, #4]
ARM GAS  C:\Users\Admin\AppData\Local\Temp\ccwOX7Bd.s 			page 50


 1857 002e 9B88     		ldrh	r3, [r3, #4]	@ movhi
 1858 0030 FB81     		strh	r3, [r7, #14]	@ movhi
 932:Drivers/STM32F4xx_StdPeriph_Driver/src/stm32f4xx_tim.c ****   
 933:Drivers/STM32F4xx_StdPeriph_Driver/src/stm32f4xx_tim.c ****   /* Get the TIMx CCMR2 register value */
 934:Drivers/STM32F4xx_StdPeriph_Driver/src/stm32f4xx_tim.c ****   tmpccmrx = TIMx->CCMR2;
 1859              		.loc 1 934 12
 1860 0032 7B68     		ldr	r3, [r7, #4]
 1861 0034 9B8B     		ldrh	r3, [r3, #28]	@ movhi
 1862 0036 BB81     		strh	r3, [r7, #12]	@ movhi
 935:Drivers/STM32F4xx_StdPeriph_Driver/src/stm32f4xx_tim.c ****     
 936:Drivers/STM32F4xx_StdPeriph_Driver/src/stm32f4xx_tim.c ****   /* Reset the Output Compare mode and Capture/Compare selection Bits */
 937:Drivers/STM32F4xx_StdPeriph_Driver/src/stm32f4xx_tim.c ****   tmpccmrx &= (uint16_t)~TIM_CCMR2_OC4M;
 1863              		.loc 1 937 12
 1864 0038 BB89     		ldrh	r3, [r7, #12]	@ movhi
 1865 003a 23F4E043 		bic	r3, r3, #28672
 1866 003e BB81     		strh	r3, [r7, #12]	@ movhi
 938:Drivers/STM32F4xx_StdPeriph_Driver/src/stm32f4xx_tim.c ****   tmpccmrx &= (uint16_t)~TIM_CCMR2_CC4S;
 1867              		.loc 1 938 12
 1868 0040 BB89     		ldrh	r3, [r7, #12]	@ movhi
 1869 0042 23F44073 		bic	r3, r3, #768
 1870 0046 BB81     		strh	r3, [r7, #12]	@ movhi
 939:Drivers/STM32F4xx_StdPeriph_Driver/src/stm32f4xx_tim.c ****   
 940:Drivers/STM32F4xx_StdPeriph_Driver/src/stm32f4xx_tim.c ****   /* Select the Output Compare Mode */
 941:Drivers/STM32F4xx_StdPeriph_Driver/src/stm32f4xx_tim.c ****   tmpccmrx |= (uint16_t)(TIM_OCInitStruct->TIM_OCMode << 8);
 1871              		.loc 1 941 42
 1872 0048 3B68     		ldr	r3, [r7]
 1873 004a 1B88     		ldrh	r3, [r3]
 1874              		.loc 1 941 15
 1875 004c 1B02     		lsls	r3, r3, #8
 1876 004e 9AB2     		uxth	r2, r3
 1877              		.loc 1 941 12
 1878 0050 BB89     		ldrh	r3, [r7, #12]	@ movhi
 1879 0052 1343     		orrs	r3, r3, r2
 1880 0054 BB81     		strh	r3, [r7, #12]	@ movhi
 942:Drivers/STM32F4xx_StdPeriph_Driver/src/stm32f4xx_tim.c ****   
 943:Drivers/STM32F4xx_StdPeriph_Driver/src/stm32f4xx_tim.c ****   /* Reset the Output Polarity level */
 944:Drivers/STM32F4xx_StdPeriph_Driver/src/stm32f4xx_tim.c ****   tmpccer &= (uint16_t)~TIM_CCER_CC4P;
 1881              		.loc 1 944 11
 1882 0056 7B89     		ldrh	r3, [r7, #10]	@ movhi
 1883 0058 23F40053 		bic	r3, r3, #8192
 1884 005c 7B81     		strh	r3, [r7, #10]	@ movhi
 945:Drivers/STM32F4xx_StdPeriph_Driver/src/stm32f4xx_tim.c ****   /* Set the Output Compare Polarity */
 946:Drivers/STM32F4xx_StdPeriph_Driver/src/stm32f4xx_tim.c ****   tmpccer |= (uint16_t)(TIM_OCInitStruct->TIM_OCPolarity << 12);
 1885              		.loc 1 946 41
 1886 005e 3B68     		ldr	r3, [r7]
 1887 0060 9B89     		ldrh	r3, [r3, #12]
 1888              		.loc 1 946 14
 1889 0062 1B03     		lsls	r3, r3, #12
 1890 0064 9AB2     		uxth	r2, r3
 1891              		.loc 1 946 11
 1892 0066 7B89     		ldrh	r3, [r7, #10]	@ movhi
 1893 0068 1343     		orrs	r3, r3, r2
 1894 006a 7B81     		strh	r3, [r7, #10]	@ movhi
 947:Drivers/STM32F4xx_StdPeriph_Driver/src/stm32f4xx_tim.c ****   
 948:Drivers/STM32F4xx_StdPeriph_Driver/src/stm32f4xx_tim.c ****   /* Set the Output State */
 949:Drivers/STM32F4xx_StdPeriph_Driver/src/stm32f4xx_tim.c ****   tmpccer |= (uint16_t)(TIM_OCInitStruct->TIM_OutputState << 12);
 1895              		.loc 1 949 41
ARM GAS  C:\Users\Admin\AppData\Local\Temp\ccwOX7Bd.s 			page 51


 1896 006c 3B68     		ldr	r3, [r7]
 1897 006e 5B88     		ldrh	r3, [r3, #2]
 1898              		.loc 1 949 14
 1899 0070 1B03     		lsls	r3, r3, #12
 1900 0072 9AB2     		uxth	r2, r3
 1901              		.loc 1 949 11
 1902 0074 7B89     		ldrh	r3, [r7, #10]	@ movhi
 1903 0076 1343     		orrs	r3, r3, r2
 1904 0078 7B81     		strh	r3, [r7, #10]	@ movhi
 950:Drivers/STM32F4xx_StdPeriph_Driver/src/stm32f4xx_tim.c ****   
 951:Drivers/STM32F4xx_StdPeriph_Driver/src/stm32f4xx_tim.c ****   if((TIMx == TIM1) || (TIMx == TIM8))
 1905              		.loc 1 951 5
 1906 007a 7B68     		ldr	r3, [r7, #4]
 1907 007c 124A     		ldr	r2, .L72
 1908 007e 9342     		cmp	r3, r2
 1909 0080 03D0     		beq	.L70
 1910              		.loc 1 951 21 discriminator 1
 1911 0082 7B68     		ldr	r3, [r7, #4]
 1912 0084 114A     		ldr	r2, .L72+4
 1913 0086 9342     		cmp	r3, r2
 1914 0088 0AD1     		bne	.L71
 1915              	.L70:
 952:Drivers/STM32F4xx_StdPeriph_Driver/src/stm32f4xx_tim.c ****   {
 953:Drivers/STM32F4xx_StdPeriph_Driver/src/stm32f4xx_tim.c ****     assert_param(IS_TIM_OCIDLE_STATE(TIM_OCInitStruct->TIM_OCIdleState));
 954:Drivers/STM32F4xx_StdPeriph_Driver/src/stm32f4xx_tim.c ****     /* Reset the Output Compare IDLE State */
 955:Drivers/STM32F4xx_StdPeriph_Driver/src/stm32f4xx_tim.c ****     tmpcr2 &=(uint16_t) ~TIM_CR2_OIS4;
 1916              		.loc 1 955 12
 1917 008a FB89     		ldrh	r3, [r7, #14]	@ movhi
 1918 008c 23F48043 		bic	r3, r3, #16384
 1919 0090 FB81     		strh	r3, [r7, #14]	@ movhi
 956:Drivers/STM32F4xx_StdPeriph_Driver/src/stm32f4xx_tim.c ****     /* Set the Output Idle state */
 957:Drivers/STM32F4xx_StdPeriph_Driver/src/stm32f4xx_tim.c ****     tmpcr2 |= (uint16_t)(TIM_OCInitStruct->TIM_OCIdleState << 6);
 1920              		.loc 1 957 42
 1921 0092 3B68     		ldr	r3, [r7]
 1922 0094 1B8A     		ldrh	r3, [r3, #16]
 1923              		.loc 1 957 15
 1924 0096 9B01     		lsls	r3, r3, #6
 1925 0098 9AB2     		uxth	r2, r3
 1926              		.loc 1 957 12
 1927 009a FB89     		ldrh	r3, [r7, #14]	@ movhi
 1928 009c 1343     		orrs	r3, r3, r2
 1929 009e FB81     		strh	r3, [r7, #14]	@ movhi
 1930              	.L71:
 958:Drivers/STM32F4xx_StdPeriph_Driver/src/stm32f4xx_tim.c ****   }
 959:Drivers/STM32F4xx_StdPeriph_Driver/src/stm32f4xx_tim.c ****   /* Write to TIMx CR2 */
 960:Drivers/STM32F4xx_StdPeriph_Driver/src/stm32f4xx_tim.c ****   TIMx->CR2 = tmpcr2;
 1931              		.loc 1 960 13
 1932 00a0 7B68     		ldr	r3, [r7, #4]
 1933 00a2 FA89     		ldrh	r2, [r7, #14]	@ movhi
 1934 00a4 9A80     		strh	r2, [r3, #4]	@ movhi
 961:Drivers/STM32F4xx_StdPeriph_Driver/src/stm32f4xx_tim.c ****   
 962:Drivers/STM32F4xx_StdPeriph_Driver/src/stm32f4xx_tim.c ****   /* Write to TIMx CCMR2 */  
 963:Drivers/STM32F4xx_StdPeriph_Driver/src/stm32f4xx_tim.c ****   TIMx->CCMR2 = tmpccmrx;
 1935              		.loc 1 963 15
 1936 00a6 7B68     		ldr	r3, [r7, #4]
 1937 00a8 BA89     		ldrh	r2, [r7, #12]	@ movhi
 1938 00aa 9A83     		strh	r2, [r3, #28]	@ movhi
ARM GAS  C:\Users\Admin\AppData\Local\Temp\ccwOX7Bd.s 			page 52


 964:Drivers/STM32F4xx_StdPeriph_Driver/src/stm32f4xx_tim.c ****     
 965:Drivers/STM32F4xx_StdPeriph_Driver/src/stm32f4xx_tim.c ****   /* Set the Capture Compare Register value */
 966:Drivers/STM32F4xx_StdPeriph_Driver/src/stm32f4xx_tim.c ****   TIMx->CCR4 = TIM_OCInitStruct->TIM_Pulse;
 1939              		.loc 1 966 32
 1940 00ac 3B68     		ldr	r3, [r7]
 1941 00ae 9A68     		ldr	r2, [r3, #8]
 1942              		.loc 1 966 14
 1943 00b0 7B68     		ldr	r3, [r7, #4]
 1944 00b2 1A64     		str	r2, [r3, #64]
 967:Drivers/STM32F4xx_StdPeriph_Driver/src/stm32f4xx_tim.c ****   
 968:Drivers/STM32F4xx_StdPeriph_Driver/src/stm32f4xx_tim.c ****   /* Write to TIMx CCER */
 969:Drivers/STM32F4xx_StdPeriph_Driver/src/stm32f4xx_tim.c ****   TIMx->CCER = tmpccer;
 1945              		.loc 1 969 14
 1946 00b4 7B68     		ldr	r3, [r7, #4]
 1947 00b6 7A89     		ldrh	r2, [r7, #10]	@ movhi
 1948 00b8 1A84     		strh	r2, [r3, #32]	@ movhi
 970:Drivers/STM32F4xx_StdPeriph_Driver/src/stm32f4xx_tim.c **** }
 1949              		.loc 1 970 1
 1950 00ba 00BF     		nop
 1951 00bc 1437     		adds	r7, r7, #20
 1952              	.LCFI110:
 1953              		.cfi_def_cfa_offset 4
 1954 00be BD46     		mov	sp, r7
 1955              	.LCFI111:
 1956              		.cfi_def_cfa_register 13
 1957              		@ sp needed
 1958 00c0 5DF8047B 		ldr	r7, [sp], #4
 1959              	.LCFI112:
 1960              		.cfi_restore 7
 1961              		.cfi_def_cfa_offset 0
 1962 00c4 7047     		bx	lr
 1963              	.L73:
 1964 00c6 00BF     		.align	2
 1965              	.L72:
 1966 00c8 00000140 		.word	1073807360
 1967 00cc 00040140 		.word	1073808384
 1968              		.cfi_endproc
 1969              	.LFE148:
 1971              		.section	.text.TIM_OCStructInit,"ax",%progbits
 1972              		.align	1
 1973              		.global	TIM_OCStructInit
 1974              		.syntax unified
 1975              		.thumb
 1976              		.thumb_func
 1978              	TIM_OCStructInit:
 1979              	.LFB149:
 971:Drivers/STM32F4xx_StdPeriph_Driver/src/stm32f4xx_tim.c **** 
 972:Drivers/STM32F4xx_StdPeriph_Driver/src/stm32f4xx_tim.c **** /**
 973:Drivers/STM32F4xx_StdPeriph_Driver/src/stm32f4xx_tim.c ****   * @brief  Fills each TIM_OCInitStruct member with its default value.
 974:Drivers/STM32F4xx_StdPeriph_Driver/src/stm32f4xx_tim.c ****   * @param  TIM_OCInitStruct: pointer to a TIM_OCInitTypeDef structure which will
 975:Drivers/STM32F4xx_StdPeriph_Driver/src/stm32f4xx_tim.c ****   *         be initialized.
 976:Drivers/STM32F4xx_StdPeriph_Driver/src/stm32f4xx_tim.c ****   * @retval None
 977:Drivers/STM32F4xx_StdPeriph_Driver/src/stm32f4xx_tim.c ****   */
 978:Drivers/STM32F4xx_StdPeriph_Driver/src/stm32f4xx_tim.c **** void TIM_OCStructInit(TIM_OCInitTypeDef* TIM_OCInitStruct)
 979:Drivers/STM32F4xx_StdPeriph_Driver/src/stm32f4xx_tim.c **** {
 1980              		.loc 1 979 1
 1981              		.cfi_startproc
ARM GAS  C:\Users\Admin\AppData\Local\Temp\ccwOX7Bd.s 			page 53


 1982              		@ args = 0, pretend = 0, frame = 8
 1983              		@ frame_needed = 1, uses_anonymous_args = 0
 1984              		@ link register save eliminated.
 1985 0000 80B4     		push	{r7}
 1986              	.LCFI113:
 1987              		.cfi_def_cfa_offset 4
 1988              		.cfi_offset 7, -4
 1989 0002 83B0     		sub	sp, sp, #12
 1990              	.LCFI114:
 1991              		.cfi_def_cfa_offset 16
 1992 0004 00AF     		add	r7, sp, #0
 1993              	.LCFI115:
 1994              		.cfi_def_cfa_register 7
 1995 0006 7860     		str	r0, [r7, #4]
 980:Drivers/STM32F4xx_StdPeriph_Driver/src/stm32f4xx_tim.c ****   /* Set the default configuration */
 981:Drivers/STM32F4xx_StdPeriph_Driver/src/stm32f4xx_tim.c ****   TIM_OCInitStruct->TIM_OCMode = TIM_OCMode_Timing;
 1996              		.loc 1 981 32
 1997 0008 7B68     		ldr	r3, [r7, #4]
 1998 000a 0022     		movs	r2, #0
 1999 000c 1A80     		strh	r2, [r3]	@ movhi
 982:Drivers/STM32F4xx_StdPeriph_Driver/src/stm32f4xx_tim.c ****   TIM_OCInitStruct->TIM_OutputState = TIM_OutputState_Disable;
 2000              		.loc 1 982 37
 2001 000e 7B68     		ldr	r3, [r7, #4]
 2002 0010 0022     		movs	r2, #0
 2003 0012 5A80     		strh	r2, [r3, #2]	@ movhi
 983:Drivers/STM32F4xx_StdPeriph_Driver/src/stm32f4xx_tim.c ****   TIM_OCInitStruct->TIM_OutputNState = TIM_OutputNState_Disable;
 2004              		.loc 1 983 38
 2005 0014 7B68     		ldr	r3, [r7, #4]
 2006 0016 0022     		movs	r2, #0
 2007 0018 9A80     		strh	r2, [r3, #4]	@ movhi
 984:Drivers/STM32F4xx_StdPeriph_Driver/src/stm32f4xx_tim.c ****   TIM_OCInitStruct->TIM_Pulse = 0x00000000;
 2008              		.loc 1 984 31
 2009 001a 7B68     		ldr	r3, [r7, #4]
 2010 001c 0022     		movs	r2, #0
 2011 001e 9A60     		str	r2, [r3, #8]
 985:Drivers/STM32F4xx_StdPeriph_Driver/src/stm32f4xx_tim.c ****   TIM_OCInitStruct->TIM_OCPolarity = TIM_OCPolarity_High;
 2012              		.loc 1 985 36
 2013 0020 7B68     		ldr	r3, [r7, #4]
 2014 0022 0022     		movs	r2, #0
 2015 0024 9A81     		strh	r2, [r3, #12]	@ movhi
 986:Drivers/STM32F4xx_StdPeriph_Driver/src/stm32f4xx_tim.c ****   TIM_OCInitStruct->TIM_OCNPolarity = TIM_OCPolarity_High;
 2016              		.loc 1 986 37
 2017 0026 7B68     		ldr	r3, [r7, #4]
 2018 0028 0022     		movs	r2, #0
 2019 002a DA81     		strh	r2, [r3, #14]	@ movhi
 987:Drivers/STM32F4xx_StdPeriph_Driver/src/stm32f4xx_tim.c ****   TIM_OCInitStruct->TIM_OCIdleState = TIM_OCIdleState_Reset;
 2020              		.loc 1 987 37
 2021 002c 7B68     		ldr	r3, [r7, #4]
 2022 002e 0022     		movs	r2, #0
 2023 0030 1A82     		strh	r2, [r3, #16]	@ movhi
 988:Drivers/STM32F4xx_StdPeriph_Driver/src/stm32f4xx_tim.c ****   TIM_OCInitStruct->TIM_OCNIdleState = TIM_OCNIdleState_Reset;
 2024              		.loc 1 988 38
 2025 0032 7B68     		ldr	r3, [r7, #4]
 2026 0034 0022     		movs	r2, #0
 2027 0036 5A82     		strh	r2, [r3, #18]	@ movhi
 989:Drivers/STM32F4xx_StdPeriph_Driver/src/stm32f4xx_tim.c **** }
 2028              		.loc 1 989 1
ARM GAS  C:\Users\Admin\AppData\Local\Temp\ccwOX7Bd.s 			page 54


 2029 0038 00BF     		nop
 2030 003a 0C37     		adds	r7, r7, #12
 2031              	.LCFI116:
 2032              		.cfi_def_cfa_offset 4
 2033 003c BD46     		mov	sp, r7
 2034              	.LCFI117:
 2035              		.cfi_def_cfa_register 13
 2036              		@ sp needed
 2037 003e 5DF8047B 		ldr	r7, [sp], #4
 2038              	.LCFI118:
 2039              		.cfi_restore 7
 2040              		.cfi_def_cfa_offset 0
 2041 0042 7047     		bx	lr
 2042              		.cfi_endproc
 2043              	.LFE149:
 2045              		.section	.text.TIM_SelectOCxM,"ax",%progbits
 2046              		.align	1
 2047              		.global	TIM_SelectOCxM
 2048              		.syntax unified
 2049              		.thumb
 2050              		.thumb_func
 2052              	TIM_SelectOCxM:
 2053              	.LFB150:
 990:Drivers/STM32F4xx_StdPeriph_Driver/src/stm32f4xx_tim.c **** 
 991:Drivers/STM32F4xx_StdPeriph_Driver/src/stm32f4xx_tim.c **** /**
 992:Drivers/STM32F4xx_StdPeriph_Driver/src/stm32f4xx_tim.c ****   * @brief  Selects the TIM Output Compare Mode.
 993:Drivers/STM32F4xx_StdPeriph_Driver/src/stm32f4xx_tim.c ****   * @note   This function disables the selected channel before changing the Output
 994:Drivers/STM32F4xx_StdPeriph_Driver/src/stm32f4xx_tim.c ****   *         Compare Mode. If needed, user has to enable this channel using
 995:Drivers/STM32F4xx_StdPeriph_Driver/src/stm32f4xx_tim.c ****   *         TIM_CCxCmd() and TIM_CCxNCmd() functions.
 996:Drivers/STM32F4xx_StdPeriph_Driver/src/stm32f4xx_tim.c ****   * @param  TIMx: where x can be 1 to 14 except 6 and 7, to select the TIM peripheral.
 997:Drivers/STM32F4xx_StdPeriph_Driver/src/stm32f4xx_tim.c ****   * @param  TIM_Channel: specifies the TIM Channel
 998:Drivers/STM32F4xx_StdPeriph_Driver/src/stm32f4xx_tim.c ****   *          This parameter can be one of the following values:
 999:Drivers/STM32F4xx_StdPeriph_Driver/src/stm32f4xx_tim.c ****   *            @arg TIM_Channel_1: TIM Channel 1
1000:Drivers/STM32F4xx_StdPeriph_Driver/src/stm32f4xx_tim.c ****   *            @arg TIM_Channel_2: TIM Channel 2
1001:Drivers/STM32F4xx_StdPeriph_Driver/src/stm32f4xx_tim.c ****   *            @arg TIM_Channel_3: TIM Channel 3
1002:Drivers/STM32F4xx_StdPeriph_Driver/src/stm32f4xx_tim.c ****   *            @arg TIM_Channel_4: TIM Channel 4
1003:Drivers/STM32F4xx_StdPeriph_Driver/src/stm32f4xx_tim.c ****   * @param  TIM_OCMode: specifies the TIM Output Compare Mode.
1004:Drivers/STM32F4xx_StdPeriph_Driver/src/stm32f4xx_tim.c ****   *           This parameter can be one of the following values:
1005:Drivers/STM32F4xx_StdPeriph_Driver/src/stm32f4xx_tim.c ****   *            @arg TIM_OCMode_Timing
1006:Drivers/STM32F4xx_StdPeriph_Driver/src/stm32f4xx_tim.c ****   *            @arg TIM_OCMode_Active
1007:Drivers/STM32F4xx_StdPeriph_Driver/src/stm32f4xx_tim.c ****   *            @arg TIM_OCMode_Toggle
1008:Drivers/STM32F4xx_StdPeriph_Driver/src/stm32f4xx_tim.c ****   *            @arg TIM_OCMode_PWM1
1009:Drivers/STM32F4xx_StdPeriph_Driver/src/stm32f4xx_tim.c ****   *            @arg TIM_OCMode_PWM2
1010:Drivers/STM32F4xx_StdPeriph_Driver/src/stm32f4xx_tim.c ****   *            @arg TIM_ForcedAction_Active
1011:Drivers/STM32F4xx_StdPeriph_Driver/src/stm32f4xx_tim.c ****   *            @arg TIM_ForcedAction_InActive
1012:Drivers/STM32F4xx_StdPeriph_Driver/src/stm32f4xx_tim.c ****   * @retval None
1013:Drivers/STM32F4xx_StdPeriph_Driver/src/stm32f4xx_tim.c ****   */
1014:Drivers/STM32F4xx_StdPeriph_Driver/src/stm32f4xx_tim.c **** void TIM_SelectOCxM(TIM_TypeDef* TIMx, uint16_t TIM_Channel, uint16_t TIM_OCMode)
1015:Drivers/STM32F4xx_StdPeriph_Driver/src/stm32f4xx_tim.c **** {
 2054              		.loc 1 1015 1
 2055              		.cfi_startproc
 2056              		@ args = 0, pretend = 0, frame = 16
 2057              		@ frame_needed = 1, uses_anonymous_args = 0
 2058              		@ link register save eliminated.
 2059 0000 80B4     		push	{r7}
 2060              	.LCFI119:
 2061              		.cfi_def_cfa_offset 4
ARM GAS  C:\Users\Admin\AppData\Local\Temp\ccwOX7Bd.s 			page 55


 2062              		.cfi_offset 7, -4
 2063 0002 85B0     		sub	sp, sp, #20
 2064              	.LCFI120:
 2065              		.cfi_def_cfa_offset 24
 2066 0004 00AF     		add	r7, sp, #0
 2067              	.LCFI121:
 2068              		.cfi_def_cfa_register 7
 2069 0006 7860     		str	r0, [r7, #4]
 2070 0008 0B46     		mov	r3, r1
 2071 000a 7B80     		strh	r3, [r7, #2]	@ movhi
 2072 000c 1346     		mov	r3, r2	@ movhi
 2073 000e 3B80     		strh	r3, [r7]	@ movhi
1016:Drivers/STM32F4xx_StdPeriph_Driver/src/stm32f4xx_tim.c ****   uint32_t tmp = 0;
 2074              		.loc 1 1016 12
 2075 0010 0023     		movs	r3, #0
 2076 0012 FB60     		str	r3, [r7, #12]
1017:Drivers/STM32F4xx_StdPeriph_Driver/src/stm32f4xx_tim.c ****   uint16_t tmp1 = 0;
 2077              		.loc 1 1017 12
 2078 0014 0023     		movs	r3, #0
 2079 0016 7B81     		strh	r3, [r7, #10]	@ movhi
1018:Drivers/STM32F4xx_StdPeriph_Driver/src/stm32f4xx_tim.c **** 
1019:Drivers/STM32F4xx_StdPeriph_Driver/src/stm32f4xx_tim.c ****   /* Check the parameters */
1020:Drivers/STM32F4xx_StdPeriph_Driver/src/stm32f4xx_tim.c ****   assert_param(IS_TIM_LIST1_PERIPH(TIMx));
1021:Drivers/STM32F4xx_StdPeriph_Driver/src/stm32f4xx_tim.c ****   assert_param(IS_TIM_CHANNEL(TIM_Channel));
1022:Drivers/STM32F4xx_StdPeriph_Driver/src/stm32f4xx_tim.c ****   assert_param(IS_TIM_OCM(TIM_OCMode));
1023:Drivers/STM32F4xx_StdPeriph_Driver/src/stm32f4xx_tim.c **** 
1024:Drivers/STM32F4xx_StdPeriph_Driver/src/stm32f4xx_tim.c ****   tmp = (uint32_t) TIMx;
 2080              		.loc 1 1024 7
 2081 0018 7B68     		ldr	r3, [r7, #4]
 2082 001a FB60     		str	r3, [r7, #12]
1025:Drivers/STM32F4xx_StdPeriph_Driver/src/stm32f4xx_tim.c ****   tmp += CCMR_OFFSET;
 2083              		.loc 1 1025 7
 2084 001c FB68     		ldr	r3, [r7, #12]
 2085 001e 1833     		adds	r3, r3, #24
 2086 0020 FB60     		str	r3, [r7, #12]
1026:Drivers/STM32F4xx_StdPeriph_Driver/src/stm32f4xx_tim.c **** 
1027:Drivers/STM32F4xx_StdPeriph_Driver/src/stm32f4xx_tim.c ****   tmp1 = CCER_CCE_SET << (uint16_t)TIM_Channel;
 2087              		.loc 1 1027 26
 2088 0022 7B88     		ldrh	r3, [r7, #2]
 2089              		.loc 1 1027 23
 2090 0024 0122     		movs	r2, #1
 2091 0026 02FA03F3 		lsl	r3, r2, r3
 2092              		.loc 1 1027 8
 2093 002a 7B81     		strh	r3, [r7, #10]	@ movhi
1028:Drivers/STM32F4xx_StdPeriph_Driver/src/stm32f4xx_tim.c **** 
1029:Drivers/STM32F4xx_StdPeriph_Driver/src/stm32f4xx_tim.c ****   /* Disable the Channel: Reset the CCxE Bit */
1030:Drivers/STM32F4xx_StdPeriph_Driver/src/stm32f4xx_tim.c ****   TIMx->CCER &= (uint16_t) ~tmp1;
 2094              		.loc 1 1030 14
 2095 002c 7B68     		ldr	r3, [r7, #4]
 2096 002e 1B8C     		ldrh	r3, [r3, #32]	@ movhi
 2097 0030 9AB2     		uxth	r2, r3
 2098              		.loc 1 1030 17
 2099 0032 7B89     		ldrh	r3, [r7, #10]	@ movhi
 2100 0034 DB43     		mvns	r3, r3
 2101 0036 9BB2     		uxth	r3, r3
 2102              		.loc 1 1030 14
 2103 0038 1340     		ands	r3, r3, r2
ARM GAS  C:\Users\Admin\AppData\Local\Temp\ccwOX7Bd.s 			page 56


 2104 003a 9AB2     		uxth	r2, r3
 2105 003c 7B68     		ldr	r3, [r7, #4]
 2106 003e 1A84     		strh	r2, [r3, #32]	@ movhi
1031:Drivers/STM32F4xx_StdPeriph_Driver/src/stm32f4xx_tim.c **** 
1032:Drivers/STM32F4xx_StdPeriph_Driver/src/stm32f4xx_tim.c ****   if((TIM_Channel == TIM_Channel_1) ||(TIM_Channel == TIM_Channel_3))
 2107              		.loc 1 1032 5
 2108 0040 7B88     		ldrh	r3, [r7, #2]
 2109 0042 002B     		cmp	r3, #0
 2110 0044 02D0     		beq	.L76
 2111              		.loc 1 1032 37 discriminator 1
 2112 0046 7B88     		ldrh	r3, [r7, #2]
 2113 0048 082B     		cmp	r3, #8
 2114 004a 14D1     		bne	.L77
 2115              	.L76:
1033:Drivers/STM32F4xx_StdPeriph_Driver/src/stm32f4xx_tim.c ****   {
1034:Drivers/STM32F4xx_StdPeriph_Driver/src/stm32f4xx_tim.c ****     tmp += (TIM_Channel>>1);
 2116              		.loc 1 1034 24
 2117 004c 7B88     		ldrh	r3, [r7, #2]
 2118 004e 5B08     		lsrs	r3, r3, #1
 2119 0050 9BB2     		uxth	r3, r3
 2120 0052 1A46     		mov	r2, r3
 2121              		.loc 1 1034 9
 2122 0054 FB68     		ldr	r3, [r7, #12]
 2123 0056 1344     		add	r3, r3, r2
 2124 0058 FB60     		str	r3, [r7, #12]
1035:Drivers/STM32F4xx_StdPeriph_Driver/src/stm32f4xx_tim.c **** 
1036:Drivers/STM32F4xx_StdPeriph_Driver/src/stm32f4xx_tim.c ****     /* Reset the OCxM bits in the CCMRx register */
1037:Drivers/STM32F4xx_StdPeriph_Driver/src/stm32f4xx_tim.c ****     *(__IO uint32_t *) tmp &= CCMR_OC13M_MASK;
 2125              		.loc 1 1037 28
 2126 005a FB68     		ldr	r3, [r7, #12]
 2127 005c 1968     		ldr	r1, [r3]
 2128 005e FA68     		ldr	r2, [r7, #12]
 2129 0060 4FF68F73 		movw	r3, #65423
 2130 0064 0B40     		ands	r3, r3, r1
 2131 0066 1360     		str	r3, [r2]
1038:Drivers/STM32F4xx_StdPeriph_Driver/src/stm32f4xx_tim.c ****    
1039:Drivers/STM32F4xx_StdPeriph_Driver/src/stm32f4xx_tim.c ****     /* Configure the OCxM bits in the CCMRx register */
1040:Drivers/STM32F4xx_StdPeriph_Driver/src/stm32f4xx_tim.c ****     *(__IO uint32_t *) tmp |= TIM_OCMode;
 2132              		.loc 1 1040 28
 2133 0068 FB68     		ldr	r3, [r7, #12]
 2134 006a 1968     		ldr	r1, [r3]
 2135 006c 3A88     		ldrh	r2, [r7]
 2136 006e FB68     		ldr	r3, [r7, #12]
 2137 0070 0A43     		orrs	r2, r2, r1
 2138 0072 1A60     		str	r2, [r3]
 2139 0074 19E0     		b	.L78
 2140              	.L77:
1041:Drivers/STM32F4xx_StdPeriph_Driver/src/stm32f4xx_tim.c ****   }
1042:Drivers/STM32F4xx_StdPeriph_Driver/src/stm32f4xx_tim.c ****   else
1043:Drivers/STM32F4xx_StdPeriph_Driver/src/stm32f4xx_tim.c ****   {
1044:Drivers/STM32F4xx_StdPeriph_Driver/src/stm32f4xx_tim.c ****     tmp += (uint16_t)(TIM_Channel - (uint16_t)4)>> (uint16_t)1;
 2141              		.loc 1 1044 12
 2142 0076 7B88     		ldrh	r3, [r7, #2]	@ movhi
 2143 0078 043B     		subs	r3, r3, #4
 2144 007a 9BB2     		uxth	r3, r3
 2145              		.loc 1 1044 49
 2146 007c 5B08     		lsrs	r3, r3, #1
ARM GAS  C:\Users\Admin\AppData\Local\Temp\ccwOX7Bd.s 			page 57


 2147 007e 9BB2     		uxth	r3, r3
 2148 0080 1A46     		mov	r2, r3
 2149              		.loc 1 1044 9
 2150 0082 FB68     		ldr	r3, [r7, #12]
 2151 0084 1344     		add	r3, r3, r2
 2152 0086 FB60     		str	r3, [r7, #12]
1045:Drivers/STM32F4xx_StdPeriph_Driver/src/stm32f4xx_tim.c **** 
1046:Drivers/STM32F4xx_StdPeriph_Driver/src/stm32f4xx_tim.c ****     /* Reset the OCxM bits in the CCMRx register */
1047:Drivers/STM32F4xx_StdPeriph_Driver/src/stm32f4xx_tim.c ****     *(__IO uint32_t *) tmp &= CCMR_OC24M_MASK;
 2153              		.loc 1 1047 28
 2154 0088 FB68     		ldr	r3, [r7, #12]
 2155 008a 1968     		ldr	r1, [r3]
 2156 008c FA68     		ldr	r2, [r7, #12]
 2157 008e 48F6FF73 		movw	r3, #36863
 2158 0092 0B40     		ands	r3, r3, r1
 2159 0094 1360     		str	r3, [r2]
1048:Drivers/STM32F4xx_StdPeriph_Driver/src/stm32f4xx_tim.c ****     
1049:Drivers/STM32F4xx_StdPeriph_Driver/src/stm32f4xx_tim.c ****     /* Configure the OCxM bits in the CCMRx register */
1050:Drivers/STM32F4xx_StdPeriph_Driver/src/stm32f4xx_tim.c ****     *(__IO uint32_t *) tmp |= (uint16_t)(TIM_OCMode << 8);
 2160              		.loc 1 1050 28
 2161 0096 FB68     		ldr	r3, [r7, #12]
 2162 0098 1A68     		ldr	r2, [r3]
 2163              		.loc 1 1050 31
 2164 009a 3B88     		ldrh	r3, [r7]	@ movhi
 2165 009c 1B02     		lsls	r3, r3, #8
 2166 009e 9BB2     		uxth	r3, r3
 2167 00a0 1946     		mov	r1, r3
 2168              		.loc 1 1050 28
 2169 00a2 FB68     		ldr	r3, [r7, #12]
 2170 00a4 0A43     		orrs	r2, r2, r1
 2171 00a6 1A60     		str	r2, [r3]
1051:Drivers/STM32F4xx_StdPeriph_Driver/src/stm32f4xx_tim.c ****   }
1052:Drivers/STM32F4xx_StdPeriph_Driver/src/stm32f4xx_tim.c **** }
 2172              		.loc 1 1052 1
 2173 00a8 00BF     		nop
 2174              	.L78:
 2175 00aa 00BF     		nop
 2176 00ac 1437     		adds	r7, r7, #20
 2177              	.LCFI122:
 2178              		.cfi_def_cfa_offset 4
 2179 00ae BD46     		mov	sp, r7
 2180              	.LCFI123:
 2181              		.cfi_def_cfa_register 13
 2182              		@ sp needed
 2183 00b0 5DF8047B 		ldr	r7, [sp], #4
 2184              	.LCFI124:
 2185              		.cfi_restore 7
 2186              		.cfi_def_cfa_offset 0
 2187 00b4 7047     		bx	lr
 2188              		.cfi_endproc
 2189              	.LFE150:
 2191              		.section	.text.TIM_SetCompare1,"ax",%progbits
 2192              		.align	1
 2193              		.global	TIM_SetCompare1
 2194              		.syntax unified
 2195              		.thumb
 2196              		.thumb_func
ARM GAS  C:\Users\Admin\AppData\Local\Temp\ccwOX7Bd.s 			page 58


 2198              	TIM_SetCompare1:
 2199              	.LFB151:
1053:Drivers/STM32F4xx_StdPeriph_Driver/src/stm32f4xx_tim.c **** 
1054:Drivers/STM32F4xx_StdPeriph_Driver/src/stm32f4xx_tim.c **** /**
1055:Drivers/STM32F4xx_StdPeriph_Driver/src/stm32f4xx_tim.c ****   * @brief  Sets the TIMx Capture Compare1 Register value
1056:Drivers/STM32F4xx_StdPeriph_Driver/src/stm32f4xx_tim.c ****   * @param  TIMx: where x can be 1 to 14 except 6 and 7, to select the TIM peripheral.
1057:Drivers/STM32F4xx_StdPeriph_Driver/src/stm32f4xx_tim.c ****   * @param  Compare1: specifies the Capture Compare1 register new value.
1058:Drivers/STM32F4xx_StdPeriph_Driver/src/stm32f4xx_tim.c ****   * @retval None
1059:Drivers/STM32F4xx_StdPeriph_Driver/src/stm32f4xx_tim.c ****   */
1060:Drivers/STM32F4xx_StdPeriph_Driver/src/stm32f4xx_tim.c **** void TIM_SetCompare1(TIM_TypeDef* TIMx, uint32_t Compare1)
1061:Drivers/STM32F4xx_StdPeriph_Driver/src/stm32f4xx_tim.c **** {
 2200              		.loc 1 1061 1
 2201              		.cfi_startproc
 2202              		@ args = 0, pretend = 0, frame = 8
 2203              		@ frame_needed = 1, uses_anonymous_args = 0
 2204              		@ link register save eliminated.
 2205 0000 80B4     		push	{r7}
 2206              	.LCFI125:
 2207              		.cfi_def_cfa_offset 4
 2208              		.cfi_offset 7, -4
 2209 0002 83B0     		sub	sp, sp, #12
 2210              	.LCFI126:
 2211              		.cfi_def_cfa_offset 16
 2212 0004 00AF     		add	r7, sp, #0
 2213              	.LCFI127:
 2214              		.cfi_def_cfa_register 7
 2215 0006 7860     		str	r0, [r7, #4]
 2216 0008 3960     		str	r1, [r7]
1062:Drivers/STM32F4xx_StdPeriph_Driver/src/stm32f4xx_tim.c ****   /* Check the parameters */
1063:Drivers/STM32F4xx_StdPeriph_Driver/src/stm32f4xx_tim.c ****   assert_param(IS_TIM_LIST1_PERIPH(TIMx));
1064:Drivers/STM32F4xx_StdPeriph_Driver/src/stm32f4xx_tim.c **** 
1065:Drivers/STM32F4xx_StdPeriph_Driver/src/stm32f4xx_tim.c ****   /* Set the Capture Compare1 Register value */
1066:Drivers/STM32F4xx_StdPeriph_Driver/src/stm32f4xx_tim.c ****   TIMx->CCR1 = Compare1;
 2217              		.loc 1 1066 14
 2218 000a 7B68     		ldr	r3, [r7, #4]
 2219 000c 3A68     		ldr	r2, [r7]
 2220 000e 5A63     		str	r2, [r3, #52]
1067:Drivers/STM32F4xx_StdPeriph_Driver/src/stm32f4xx_tim.c **** }
 2221              		.loc 1 1067 1
 2222 0010 00BF     		nop
 2223 0012 0C37     		adds	r7, r7, #12
 2224              	.LCFI128:
 2225              		.cfi_def_cfa_offset 4
 2226 0014 BD46     		mov	sp, r7
 2227              	.LCFI129:
 2228              		.cfi_def_cfa_register 13
 2229              		@ sp needed
 2230 0016 5DF8047B 		ldr	r7, [sp], #4
 2231              	.LCFI130:
 2232              		.cfi_restore 7
 2233              		.cfi_def_cfa_offset 0
 2234 001a 7047     		bx	lr
 2235              		.cfi_endproc
 2236              	.LFE151:
 2238              		.section	.text.TIM_SetCompare2,"ax",%progbits
 2239              		.align	1
 2240              		.global	TIM_SetCompare2
ARM GAS  C:\Users\Admin\AppData\Local\Temp\ccwOX7Bd.s 			page 59


 2241              		.syntax unified
 2242              		.thumb
 2243              		.thumb_func
 2245              	TIM_SetCompare2:
 2246              	.LFB152:
1068:Drivers/STM32F4xx_StdPeriph_Driver/src/stm32f4xx_tim.c **** 
1069:Drivers/STM32F4xx_StdPeriph_Driver/src/stm32f4xx_tim.c **** /**
1070:Drivers/STM32F4xx_StdPeriph_Driver/src/stm32f4xx_tim.c ****   * @brief  Sets the TIMx Capture Compare2 Register value
1071:Drivers/STM32F4xx_StdPeriph_Driver/src/stm32f4xx_tim.c ****   * @param  TIMx: where x can be 1, 2, 3, 4, 5, 8, 9 or 12 to select the TIM 
1072:Drivers/STM32F4xx_StdPeriph_Driver/src/stm32f4xx_tim.c ****   *         peripheral.
1073:Drivers/STM32F4xx_StdPeriph_Driver/src/stm32f4xx_tim.c ****   * @param  Compare2: specifies the Capture Compare2 register new value.
1074:Drivers/STM32F4xx_StdPeriph_Driver/src/stm32f4xx_tim.c ****   * @retval None
1075:Drivers/STM32F4xx_StdPeriph_Driver/src/stm32f4xx_tim.c ****   */
1076:Drivers/STM32F4xx_StdPeriph_Driver/src/stm32f4xx_tim.c **** void TIM_SetCompare2(TIM_TypeDef* TIMx, uint32_t Compare2)
1077:Drivers/STM32F4xx_StdPeriph_Driver/src/stm32f4xx_tim.c **** {
 2247              		.loc 1 1077 1
 2248              		.cfi_startproc
 2249              		@ args = 0, pretend = 0, frame = 8
 2250              		@ frame_needed = 1, uses_anonymous_args = 0
 2251              		@ link register save eliminated.
 2252 0000 80B4     		push	{r7}
 2253              	.LCFI131:
 2254              		.cfi_def_cfa_offset 4
 2255              		.cfi_offset 7, -4
 2256 0002 83B0     		sub	sp, sp, #12
 2257              	.LCFI132:
 2258              		.cfi_def_cfa_offset 16
 2259 0004 00AF     		add	r7, sp, #0
 2260              	.LCFI133:
 2261              		.cfi_def_cfa_register 7
 2262 0006 7860     		str	r0, [r7, #4]
 2263 0008 3960     		str	r1, [r7]
1078:Drivers/STM32F4xx_StdPeriph_Driver/src/stm32f4xx_tim.c ****   /* Check the parameters */
1079:Drivers/STM32F4xx_StdPeriph_Driver/src/stm32f4xx_tim.c ****   assert_param(IS_TIM_LIST2_PERIPH(TIMx));
1080:Drivers/STM32F4xx_StdPeriph_Driver/src/stm32f4xx_tim.c **** 
1081:Drivers/STM32F4xx_StdPeriph_Driver/src/stm32f4xx_tim.c ****   /* Set the Capture Compare2 Register value */
1082:Drivers/STM32F4xx_StdPeriph_Driver/src/stm32f4xx_tim.c ****   TIMx->CCR2 = Compare2;
 2264              		.loc 1 1082 14
 2265 000a 7B68     		ldr	r3, [r7, #4]
 2266 000c 3A68     		ldr	r2, [r7]
 2267 000e 9A63     		str	r2, [r3, #56]
1083:Drivers/STM32F4xx_StdPeriph_Driver/src/stm32f4xx_tim.c **** }
 2268              		.loc 1 1083 1
 2269 0010 00BF     		nop
 2270 0012 0C37     		adds	r7, r7, #12
 2271              	.LCFI134:
 2272              		.cfi_def_cfa_offset 4
 2273 0014 BD46     		mov	sp, r7
 2274              	.LCFI135:
 2275              		.cfi_def_cfa_register 13
 2276              		@ sp needed
 2277 0016 5DF8047B 		ldr	r7, [sp], #4
 2278              	.LCFI136:
 2279              		.cfi_restore 7
 2280              		.cfi_def_cfa_offset 0
 2281 001a 7047     		bx	lr
 2282              		.cfi_endproc
ARM GAS  C:\Users\Admin\AppData\Local\Temp\ccwOX7Bd.s 			page 60


 2283              	.LFE152:
 2285              		.section	.text.TIM_SetCompare3,"ax",%progbits
 2286              		.align	1
 2287              		.global	TIM_SetCompare3
 2288              		.syntax unified
 2289              		.thumb
 2290              		.thumb_func
 2292              	TIM_SetCompare3:
 2293              	.LFB153:
1084:Drivers/STM32F4xx_StdPeriph_Driver/src/stm32f4xx_tim.c **** 
1085:Drivers/STM32F4xx_StdPeriph_Driver/src/stm32f4xx_tim.c **** /**
1086:Drivers/STM32F4xx_StdPeriph_Driver/src/stm32f4xx_tim.c ****   * @brief  Sets the TIMx Capture Compare3 Register value
1087:Drivers/STM32F4xx_StdPeriph_Driver/src/stm32f4xx_tim.c ****   * @param  TIMx: where x can be 1, 2, 3, 4, 5 or 8 to select the TIM peripheral.
1088:Drivers/STM32F4xx_StdPeriph_Driver/src/stm32f4xx_tim.c ****   * @param  Compare3: specifies the Capture Compare3 register new value.
1089:Drivers/STM32F4xx_StdPeriph_Driver/src/stm32f4xx_tim.c ****   * @retval None
1090:Drivers/STM32F4xx_StdPeriph_Driver/src/stm32f4xx_tim.c ****   */
1091:Drivers/STM32F4xx_StdPeriph_Driver/src/stm32f4xx_tim.c **** void TIM_SetCompare3(TIM_TypeDef* TIMx, uint32_t Compare3)
1092:Drivers/STM32F4xx_StdPeriph_Driver/src/stm32f4xx_tim.c **** {
 2294              		.loc 1 1092 1
 2295              		.cfi_startproc
 2296              		@ args = 0, pretend = 0, frame = 8
 2297              		@ frame_needed = 1, uses_anonymous_args = 0
 2298              		@ link register save eliminated.
 2299 0000 80B4     		push	{r7}
 2300              	.LCFI137:
 2301              		.cfi_def_cfa_offset 4
 2302              		.cfi_offset 7, -4
 2303 0002 83B0     		sub	sp, sp, #12
 2304              	.LCFI138:
 2305              		.cfi_def_cfa_offset 16
 2306 0004 00AF     		add	r7, sp, #0
 2307              	.LCFI139:
 2308              		.cfi_def_cfa_register 7
 2309 0006 7860     		str	r0, [r7, #4]
 2310 0008 3960     		str	r1, [r7]
1093:Drivers/STM32F4xx_StdPeriph_Driver/src/stm32f4xx_tim.c ****   /* Check the parameters */
1094:Drivers/STM32F4xx_StdPeriph_Driver/src/stm32f4xx_tim.c ****   assert_param(IS_TIM_LIST3_PERIPH(TIMx));
1095:Drivers/STM32F4xx_StdPeriph_Driver/src/stm32f4xx_tim.c **** 
1096:Drivers/STM32F4xx_StdPeriph_Driver/src/stm32f4xx_tim.c ****   /* Set the Capture Compare3 Register value */
1097:Drivers/STM32F4xx_StdPeriph_Driver/src/stm32f4xx_tim.c ****   TIMx->CCR3 = Compare3;
 2311              		.loc 1 1097 14
 2312 000a 7B68     		ldr	r3, [r7, #4]
 2313 000c 3A68     		ldr	r2, [r7]
 2314 000e DA63     		str	r2, [r3, #60]
1098:Drivers/STM32F4xx_StdPeriph_Driver/src/stm32f4xx_tim.c **** }
 2315              		.loc 1 1098 1
 2316 0010 00BF     		nop
 2317 0012 0C37     		adds	r7, r7, #12
 2318              	.LCFI140:
 2319              		.cfi_def_cfa_offset 4
 2320 0014 BD46     		mov	sp, r7
 2321              	.LCFI141:
 2322              		.cfi_def_cfa_register 13
 2323              		@ sp needed
 2324 0016 5DF8047B 		ldr	r7, [sp], #4
 2325              	.LCFI142:
 2326              		.cfi_restore 7
ARM GAS  C:\Users\Admin\AppData\Local\Temp\ccwOX7Bd.s 			page 61


 2327              		.cfi_def_cfa_offset 0
 2328 001a 7047     		bx	lr
 2329              		.cfi_endproc
 2330              	.LFE153:
 2332              		.section	.text.TIM_SetCompare4,"ax",%progbits
 2333              		.align	1
 2334              		.global	TIM_SetCompare4
 2335              		.syntax unified
 2336              		.thumb
 2337              		.thumb_func
 2339              	TIM_SetCompare4:
 2340              	.LFB154:
1099:Drivers/STM32F4xx_StdPeriph_Driver/src/stm32f4xx_tim.c **** 
1100:Drivers/STM32F4xx_StdPeriph_Driver/src/stm32f4xx_tim.c **** /**
1101:Drivers/STM32F4xx_StdPeriph_Driver/src/stm32f4xx_tim.c ****   * @brief  Sets the TIMx Capture Compare4 Register value
1102:Drivers/STM32F4xx_StdPeriph_Driver/src/stm32f4xx_tim.c ****   * @param  TIMx: where x can be 1, 2, 3, 4, 5 or 8 to select the TIM peripheral.
1103:Drivers/STM32F4xx_StdPeriph_Driver/src/stm32f4xx_tim.c ****   * @param  Compare4: specifies the Capture Compare4 register new value.
1104:Drivers/STM32F4xx_StdPeriph_Driver/src/stm32f4xx_tim.c ****   * @retval None
1105:Drivers/STM32F4xx_StdPeriph_Driver/src/stm32f4xx_tim.c ****   */
1106:Drivers/STM32F4xx_StdPeriph_Driver/src/stm32f4xx_tim.c **** void TIM_SetCompare4(TIM_TypeDef* TIMx, uint32_t Compare4)
1107:Drivers/STM32F4xx_StdPeriph_Driver/src/stm32f4xx_tim.c **** {
 2341              		.loc 1 1107 1
 2342              		.cfi_startproc
 2343              		@ args = 0, pretend = 0, frame = 8
 2344              		@ frame_needed = 1, uses_anonymous_args = 0
 2345              		@ link register save eliminated.
 2346 0000 80B4     		push	{r7}
 2347              	.LCFI143:
 2348              		.cfi_def_cfa_offset 4
 2349              		.cfi_offset 7, -4
 2350 0002 83B0     		sub	sp, sp, #12
 2351              	.LCFI144:
 2352              		.cfi_def_cfa_offset 16
 2353 0004 00AF     		add	r7, sp, #0
 2354              	.LCFI145:
 2355              		.cfi_def_cfa_register 7
 2356 0006 7860     		str	r0, [r7, #4]
 2357 0008 3960     		str	r1, [r7]
1108:Drivers/STM32F4xx_StdPeriph_Driver/src/stm32f4xx_tim.c ****   /* Check the parameters */
1109:Drivers/STM32F4xx_StdPeriph_Driver/src/stm32f4xx_tim.c ****   assert_param(IS_TIM_LIST3_PERIPH(TIMx));
1110:Drivers/STM32F4xx_StdPeriph_Driver/src/stm32f4xx_tim.c **** 
1111:Drivers/STM32F4xx_StdPeriph_Driver/src/stm32f4xx_tim.c ****   /* Set the Capture Compare4 Register value */
1112:Drivers/STM32F4xx_StdPeriph_Driver/src/stm32f4xx_tim.c ****   TIMx->CCR4 = Compare4;
 2358              		.loc 1 1112 14
 2359 000a 7B68     		ldr	r3, [r7, #4]
 2360 000c 3A68     		ldr	r2, [r7]
 2361 000e 1A64     		str	r2, [r3, #64]
1113:Drivers/STM32F4xx_StdPeriph_Driver/src/stm32f4xx_tim.c **** }
 2362              		.loc 1 1113 1
 2363 0010 00BF     		nop
 2364 0012 0C37     		adds	r7, r7, #12
 2365              	.LCFI146:
 2366              		.cfi_def_cfa_offset 4
 2367 0014 BD46     		mov	sp, r7
 2368              	.LCFI147:
 2369              		.cfi_def_cfa_register 13
 2370              		@ sp needed
ARM GAS  C:\Users\Admin\AppData\Local\Temp\ccwOX7Bd.s 			page 62


 2371 0016 5DF8047B 		ldr	r7, [sp], #4
 2372              	.LCFI148:
 2373              		.cfi_restore 7
 2374              		.cfi_def_cfa_offset 0
 2375 001a 7047     		bx	lr
 2376              		.cfi_endproc
 2377              	.LFE154:
 2379              		.section	.text.TIM_ForcedOC1Config,"ax",%progbits
 2380              		.align	1
 2381              		.global	TIM_ForcedOC1Config
 2382              		.syntax unified
 2383              		.thumb
 2384              		.thumb_func
 2386              	TIM_ForcedOC1Config:
 2387              	.LFB155:
1114:Drivers/STM32F4xx_StdPeriph_Driver/src/stm32f4xx_tim.c **** 
1115:Drivers/STM32F4xx_StdPeriph_Driver/src/stm32f4xx_tim.c **** /**
1116:Drivers/STM32F4xx_StdPeriph_Driver/src/stm32f4xx_tim.c ****   * @brief  Forces the TIMx output 1 waveform to active or inactive level.
1117:Drivers/STM32F4xx_StdPeriph_Driver/src/stm32f4xx_tim.c ****   * @param  TIMx: where x can be 1 to 14 except 6 and 7, to select the TIM peripheral.
1118:Drivers/STM32F4xx_StdPeriph_Driver/src/stm32f4xx_tim.c ****   * @param  TIM_ForcedAction: specifies the forced Action to be set to the output waveform.
1119:Drivers/STM32F4xx_StdPeriph_Driver/src/stm32f4xx_tim.c ****   *          This parameter can be one of the following values:
1120:Drivers/STM32F4xx_StdPeriph_Driver/src/stm32f4xx_tim.c ****   *            @arg TIM_ForcedAction_Active: Force active level on OC1REF
1121:Drivers/STM32F4xx_StdPeriph_Driver/src/stm32f4xx_tim.c ****   *            @arg TIM_ForcedAction_InActive: Force inactive level on OC1REF.
1122:Drivers/STM32F4xx_StdPeriph_Driver/src/stm32f4xx_tim.c ****   * @retval None
1123:Drivers/STM32F4xx_StdPeriph_Driver/src/stm32f4xx_tim.c ****   */
1124:Drivers/STM32F4xx_StdPeriph_Driver/src/stm32f4xx_tim.c **** void TIM_ForcedOC1Config(TIM_TypeDef* TIMx, uint16_t TIM_ForcedAction)
1125:Drivers/STM32F4xx_StdPeriph_Driver/src/stm32f4xx_tim.c **** {
 2388              		.loc 1 1125 1
 2389              		.cfi_startproc
 2390              		@ args = 0, pretend = 0, frame = 16
 2391              		@ frame_needed = 1, uses_anonymous_args = 0
 2392              		@ link register save eliminated.
 2393 0000 80B4     		push	{r7}
 2394              	.LCFI149:
 2395              		.cfi_def_cfa_offset 4
 2396              		.cfi_offset 7, -4
 2397 0002 85B0     		sub	sp, sp, #20
 2398              	.LCFI150:
 2399              		.cfi_def_cfa_offset 24
 2400 0004 00AF     		add	r7, sp, #0
 2401              	.LCFI151:
 2402              		.cfi_def_cfa_register 7
 2403 0006 7860     		str	r0, [r7, #4]
 2404 0008 0B46     		mov	r3, r1
 2405 000a 7B80     		strh	r3, [r7, #2]	@ movhi
1126:Drivers/STM32F4xx_StdPeriph_Driver/src/stm32f4xx_tim.c ****   uint16_t tmpccmr1 = 0;
 2406              		.loc 1 1126 12
 2407 000c 0023     		movs	r3, #0
 2408 000e FB81     		strh	r3, [r7, #14]	@ movhi
1127:Drivers/STM32F4xx_StdPeriph_Driver/src/stm32f4xx_tim.c **** 
1128:Drivers/STM32F4xx_StdPeriph_Driver/src/stm32f4xx_tim.c ****   /* Check the parameters */
1129:Drivers/STM32F4xx_StdPeriph_Driver/src/stm32f4xx_tim.c ****   assert_param(IS_TIM_LIST1_PERIPH(TIMx));
1130:Drivers/STM32F4xx_StdPeriph_Driver/src/stm32f4xx_tim.c ****   assert_param(IS_TIM_FORCED_ACTION(TIM_ForcedAction));
1131:Drivers/STM32F4xx_StdPeriph_Driver/src/stm32f4xx_tim.c ****   tmpccmr1 = TIMx->CCMR1;
 2409              		.loc 1 1131 12
 2410 0010 7B68     		ldr	r3, [r7, #4]
 2411 0012 1B8B     		ldrh	r3, [r3, #24]	@ movhi
ARM GAS  C:\Users\Admin\AppData\Local\Temp\ccwOX7Bd.s 			page 63


 2412 0014 FB81     		strh	r3, [r7, #14]	@ movhi
1132:Drivers/STM32F4xx_StdPeriph_Driver/src/stm32f4xx_tim.c **** 
1133:Drivers/STM32F4xx_StdPeriph_Driver/src/stm32f4xx_tim.c ****   /* Reset the OC1M Bits */
1134:Drivers/STM32F4xx_StdPeriph_Driver/src/stm32f4xx_tim.c ****   tmpccmr1 &= (uint16_t)~TIM_CCMR1_OC1M;
 2413              		.loc 1 1134 12
 2414 0016 FB89     		ldrh	r3, [r7, #14]	@ movhi
 2415 0018 23F07003 		bic	r3, r3, #112
 2416 001c FB81     		strh	r3, [r7, #14]	@ movhi
1135:Drivers/STM32F4xx_StdPeriph_Driver/src/stm32f4xx_tim.c **** 
1136:Drivers/STM32F4xx_StdPeriph_Driver/src/stm32f4xx_tim.c ****   /* Configure The Forced output Mode */
1137:Drivers/STM32F4xx_StdPeriph_Driver/src/stm32f4xx_tim.c ****   tmpccmr1 |= TIM_ForcedAction;
 2417              		.loc 1 1137 12
 2418 001e FA89     		ldrh	r2, [r7, #14]	@ movhi
 2419 0020 7B88     		ldrh	r3, [r7, #2]	@ movhi
 2420 0022 1343     		orrs	r3, r3, r2
 2421 0024 FB81     		strh	r3, [r7, #14]	@ movhi
1138:Drivers/STM32F4xx_StdPeriph_Driver/src/stm32f4xx_tim.c **** 
1139:Drivers/STM32F4xx_StdPeriph_Driver/src/stm32f4xx_tim.c ****   /* Write to TIMx CCMR1 register */
1140:Drivers/STM32F4xx_StdPeriph_Driver/src/stm32f4xx_tim.c ****   TIMx->CCMR1 = tmpccmr1;
 2422              		.loc 1 1140 15
 2423 0026 7B68     		ldr	r3, [r7, #4]
 2424 0028 FA89     		ldrh	r2, [r7, #14]	@ movhi
 2425 002a 1A83     		strh	r2, [r3, #24]	@ movhi
1141:Drivers/STM32F4xx_StdPeriph_Driver/src/stm32f4xx_tim.c **** }
 2426              		.loc 1 1141 1
 2427 002c 00BF     		nop
 2428 002e 1437     		adds	r7, r7, #20
 2429              	.LCFI152:
 2430              		.cfi_def_cfa_offset 4
 2431 0030 BD46     		mov	sp, r7
 2432              	.LCFI153:
 2433              		.cfi_def_cfa_register 13
 2434              		@ sp needed
 2435 0032 5DF8047B 		ldr	r7, [sp], #4
 2436              	.LCFI154:
 2437              		.cfi_restore 7
 2438              		.cfi_def_cfa_offset 0
 2439 0036 7047     		bx	lr
 2440              		.cfi_endproc
 2441              	.LFE155:
 2443              		.section	.text.TIM_ForcedOC2Config,"ax",%progbits
 2444              		.align	1
 2445              		.global	TIM_ForcedOC2Config
 2446              		.syntax unified
 2447              		.thumb
 2448              		.thumb_func
 2450              	TIM_ForcedOC2Config:
 2451              	.LFB156:
1142:Drivers/STM32F4xx_StdPeriph_Driver/src/stm32f4xx_tim.c **** 
1143:Drivers/STM32F4xx_StdPeriph_Driver/src/stm32f4xx_tim.c **** /**
1144:Drivers/STM32F4xx_StdPeriph_Driver/src/stm32f4xx_tim.c ****   * @brief  Forces the TIMx output 2 waveform to active or inactive level.
1145:Drivers/STM32F4xx_StdPeriph_Driver/src/stm32f4xx_tim.c ****   * @param  TIMx: where x can be  1, 2, 3, 4, 5, 8, 9 or 12 to select the TIM 
1146:Drivers/STM32F4xx_StdPeriph_Driver/src/stm32f4xx_tim.c ****   *         peripheral.
1147:Drivers/STM32F4xx_StdPeriph_Driver/src/stm32f4xx_tim.c ****   * @param  TIM_ForcedAction: specifies the forced Action to be set to the output waveform.
1148:Drivers/STM32F4xx_StdPeriph_Driver/src/stm32f4xx_tim.c ****   *          This parameter can be one of the following values:
1149:Drivers/STM32F4xx_StdPeriph_Driver/src/stm32f4xx_tim.c ****   *            @arg TIM_ForcedAction_Active: Force active level on OC2REF
1150:Drivers/STM32F4xx_StdPeriph_Driver/src/stm32f4xx_tim.c ****   *            @arg TIM_ForcedAction_InActive: Force inactive level on OC2REF.
ARM GAS  C:\Users\Admin\AppData\Local\Temp\ccwOX7Bd.s 			page 64


1151:Drivers/STM32F4xx_StdPeriph_Driver/src/stm32f4xx_tim.c ****   * @retval None
1152:Drivers/STM32F4xx_StdPeriph_Driver/src/stm32f4xx_tim.c ****   */
1153:Drivers/STM32F4xx_StdPeriph_Driver/src/stm32f4xx_tim.c **** void TIM_ForcedOC2Config(TIM_TypeDef* TIMx, uint16_t TIM_ForcedAction)
1154:Drivers/STM32F4xx_StdPeriph_Driver/src/stm32f4xx_tim.c **** {
 2452              		.loc 1 1154 1
 2453              		.cfi_startproc
 2454              		@ args = 0, pretend = 0, frame = 16
 2455              		@ frame_needed = 1, uses_anonymous_args = 0
 2456              		@ link register save eliminated.
 2457 0000 80B4     		push	{r7}
 2458              	.LCFI155:
 2459              		.cfi_def_cfa_offset 4
 2460              		.cfi_offset 7, -4
 2461 0002 85B0     		sub	sp, sp, #20
 2462              	.LCFI156:
 2463              		.cfi_def_cfa_offset 24
 2464 0004 00AF     		add	r7, sp, #0
 2465              	.LCFI157:
 2466              		.cfi_def_cfa_register 7
 2467 0006 7860     		str	r0, [r7, #4]
 2468 0008 0B46     		mov	r3, r1
 2469 000a 7B80     		strh	r3, [r7, #2]	@ movhi
1155:Drivers/STM32F4xx_StdPeriph_Driver/src/stm32f4xx_tim.c ****   uint16_t tmpccmr1 = 0;
 2470              		.loc 1 1155 12
 2471 000c 0023     		movs	r3, #0
 2472 000e FB81     		strh	r3, [r7, #14]	@ movhi
1156:Drivers/STM32F4xx_StdPeriph_Driver/src/stm32f4xx_tim.c **** 
1157:Drivers/STM32F4xx_StdPeriph_Driver/src/stm32f4xx_tim.c ****   /* Check the parameters */
1158:Drivers/STM32F4xx_StdPeriph_Driver/src/stm32f4xx_tim.c ****   assert_param(IS_TIM_LIST2_PERIPH(TIMx));
1159:Drivers/STM32F4xx_StdPeriph_Driver/src/stm32f4xx_tim.c ****   assert_param(IS_TIM_FORCED_ACTION(TIM_ForcedAction));
1160:Drivers/STM32F4xx_StdPeriph_Driver/src/stm32f4xx_tim.c ****   tmpccmr1 = TIMx->CCMR1;
 2473              		.loc 1 1160 12
 2474 0010 7B68     		ldr	r3, [r7, #4]
 2475 0012 1B8B     		ldrh	r3, [r3, #24]	@ movhi
 2476 0014 FB81     		strh	r3, [r7, #14]	@ movhi
1161:Drivers/STM32F4xx_StdPeriph_Driver/src/stm32f4xx_tim.c **** 
1162:Drivers/STM32F4xx_StdPeriph_Driver/src/stm32f4xx_tim.c ****   /* Reset the OC2M Bits */
1163:Drivers/STM32F4xx_StdPeriph_Driver/src/stm32f4xx_tim.c ****   tmpccmr1 &= (uint16_t)~TIM_CCMR1_OC2M;
 2477              		.loc 1 1163 12
 2478 0016 FB89     		ldrh	r3, [r7, #14]	@ movhi
 2479 0018 23F4E043 		bic	r3, r3, #28672
 2480 001c FB81     		strh	r3, [r7, #14]	@ movhi
1164:Drivers/STM32F4xx_StdPeriph_Driver/src/stm32f4xx_tim.c **** 
1165:Drivers/STM32F4xx_StdPeriph_Driver/src/stm32f4xx_tim.c ****   /* Configure The Forced output Mode */
1166:Drivers/STM32F4xx_StdPeriph_Driver/src/stm32f4xx_tim.c ****   tmpccmr1 |= (uint16_t)(TIM_ForcedAction << 8);
 2481              		.loc 1 1166 15
 2482 001e 7B88     		ldrh	r3, [r7, #2]	@ movhi
 2483 0020 1B02     		lsls	r3, r3, #8
 2484 0022 9AB2     		uxth	r2, r3
 2485              		.loc 1 1166 12
 2486 0024 FB89     		ldrh	r3, [r7, #14]	@ movhi
 2487 0026 1343     		orrs	r3, r3, r2
 2488 0028 FB81     		strh	r3, [r7, #14]	@ movhi
1167:Drivers/STM32F4xx_StdPeriph_Driver/src/stm32f4xx_tim.c **** 
1168:Drivers/STM32F4xx_StdPeriph_Driver/src/stm32f4xx_tim.c ****   /* Write to TIMx CCMR1 register */
1169:Drivers/STM32F4xx_StdPeriph_Driver/src/stm32f4xx_tim.c ****   TIMx->CCMR1 = tmpccmr1;
 2489              		.loc 1 1169 15
ARM GAS  C:\Users\Admin\AppData\Local\Temp\ccwOX7Bd.s 			page 65


 2490 002a 7B68     		ldr	r3, [r7, #4]
 2491 002c FA89     		ldrh	r2, [r7, #14]	@ movhi
 2492 002e 1A83     		strh	r2, [r3, #24]	@ movhi
1170:Drivers/STM32F4xx_StdPeriph_Driver/src/stm32f4xx_tim.c **** }
 2493              		.loc 1 1170 1
 2494 0030 00BF     		nop
 2495 0032 1437     		adds	r7, r7, #20
 2496              	.LCFI158:
 2497              		.cfi_def_cfa_offset 4
 2498 0034 BD46     		mov	sp, r7
 2499              	.LCFI159:
 2500              		.cfi_def_cfa_register 13
 2501              		@ sp needed
 2502 0036 5DF8047B 		ldr	r7, [sp], #4
 2503              	.LCFI160:
 2504              		.cfi_restore 7
 2505              		.cfi_def_cfa_offset 0
 2506 003a 7047     		bx	lr
 2507              		.cfi_endproc
 2508              	.LFE156:
 2510              		.section	.text.TIM_ForcedOC3Config,"ax",%progbits
 2511              		.align	1
 2512              		.global	TIM_ForcedOC3Config
 2513              		.syntax unified
 2514              		.thumb
 2515              		.thumb_func
 2517              	TIM_ForcedOC3Config:
 2518              	.LFB157:
1171:Drivers/STM32F4xx_StdPeriph_Driver/src/stm32f4xx_tim.c **** 
1172:Drivers/STM32F4xx_StdPeriph_Driver/src/stm32f4xx_tim.c **** /**
1173:Drivers/STM32F4xx_StdPeriph_Driver/src/stm32f4xx_tim.c ****   * @brief  Forces the TIMx output 3 waveform to active or inactive level.
1174:Drivers/STM32F4xx_StdPeriph_Driver/src/stm32f4xx_tim.c ****   * @param  TIMx: where x can be  1, 2, 3, 4, 5 or 8 to select the TIM peripheral.
1175:Drivers/STM32F4xx_StdPeriph_Driver/src/stm32f4xx_tim.c ****   * @param  TIM_ForcedAction: specifies the forced Action to be set to the output waveform.
1176:Drivers/STM32F4xx_StdPeriph_Driver/src/stm32f4xx_tim.c ****   *          This parameter can be one of the following values:
1177:Drivers/STM32F4xx_StdPeriph_Driver/src/stm32f4xx_tim.c ****   *            @arg TIM_ForcedAction_Active: Force active level on OC3REF
1178:Drivers/STM32F4xx_StdPeriph_Driver/src/stm32f4xx_tim.c ****   *            @arg TIM_ForcedAction_InActive: Force inactive level on OC3REF.
1179:Drivers/STM32F4xx_StdPeriph_Driver/src/stm32f4xx_tim.c ****   * @retval None
1180:Drivers/STM32F4xx_StdPeriph_Driver/src/stm32f4xx_tim.c ****   */
1181:Drivers/STM32F4xx_StdPeriph_Driver/src/stm32f4xx_tim.c **** void TIM_ForcedOC3Config(TIM_TypeDef* TIMx, uint16_t TIM_ForcedAction)
1182:Drivers/STM32F4xx_StdPeriph_Driver/src/stm32f4xx_tim.c **** {
 2519              		.loc 1 1182 1
 2520              		.cfi_startproc
 2521              		@ args = 0, pretend = 0, frame = 16
 2522              		@ frame_needed = 1, uses_anonymous_args = 0
 2523              		@ link register save eliminated.
 2524 0000 80B4     		push	{r7}
 2525              	.LCFI161:
 2526              		.cfi_def_cfa_offset 4
 2527              		.cfi_offset 7, -4
 2528 0002 85B0     		sub	sp, sp, #20
 2529              	.LCFI162:
 2530              		.cfi_def_cfa_offset 24
 2531 0004 00AF     		add	r7, sp, #0
 2532              	.LCFI163:
 2533              		.cfi_def_cfa_register 7
 2534 0006 7860     		str	r0, [r7, #4]
 2535 0008 0B46     		mov	r3, r1
ARM GAS  C:\Users\Admin\AppData\Local\Temp\ccwOX7Bd.s 			page 66


 2536 000a 7B80     		strh	r3, [r7, #2]	@ movhi
1183:Drivers/STM32F4xx_StdPeriph_Driver/src/stm32f4xx_tim.c ****   uint16_t tmpccmr2 = 0;
 2537              		.loc 1 1183 12
 2538 000c 0023     		movs	r3, #0
 2539 000e FB81     		strh	r3, [r7, #14]	@ movhi
1184:Drivers/STM32F4xx_StdPeriph_Driver/src/stm32f4xx_tim.c **** 
1185:Drivers/STM32F4xx_StdPeriph_Driver/src/stm32f4xx_tim.c ****   /* Check the parameters */
1186:Drivers/STM32F4xx_StdPeriph_Driver/src/stm32f4xx_tim.c ****   assert_param(IS_TIM_LIST3_PERIPH(TIMx));
1187:Drivers/STM32F4xx_StdPeriph_Driver/src/stm32f4xx_tim.c ****   assert_param(IS_TIM_FORCED_ACTION(TIM_ForcedAction));
1188:Drivers/STM32F4xx_StdPeriph_Driver/src/stm32f4xx_tim.c **** 
1189:Drivers/STM32F4xx_StdPeriph_Driver/src/stm32f4xx_tim.c ****   tmpccmr2 = TIMx->CCMR2;
 2540              		.loc 1 1189 12
 2541 0010 7B68     		ldr	r3, [r7, #4]
 2542 0012 9B8B     		ldrh	r3, [r3, #28]	@ movhi
 2543 0014 FB81     		strh	r3, [r7, #14]	@ movhi
1190:Drivers/STM32F4xx_StdPeriph_Driver/src/stm32f4xx_tim.c **** 
1191:Drivers/STM32F4xx_StdPeriph_Driver/src/stm32f4xx_tim.c ****   /* Reset the OC1M Bits */
1192:Drivers/STM32F4xx_StdPeriph_Driver/src/stm32f4xx_tim.c ****   tmpccmr2 &= (uint16_t)~TIM_CCMR2_OC3M;
 2544              		.loc 1 1192 12
 2545 0016 FB89     		ldrh	r3, [r7, #14]	@ movhi
 2546 0018 23F07003 		bic	r3, r3, #112
 2547 001c FB81     		strh	r3, [r7, #14]	@ movhi
1193:Drivers/STM32F4xx_StdPeriph_Driver/src/stm32f4xx_tim.c **** 
1194:Drivers/STM32F4xx_StdPeriph_Driver/src/stm32f4xx_tim.c ****   /* Configure The Forced output Mode */
1195:Drivers/STM32F4xx_StdPeriph_Driver/src/stm32f4xx_tim.c ****   tmpccmr2 |= TIM_ForcedAction;
 2548              		.loc 1 1195 12
 2549 001e FA89     		ldrh	r2, [r7, #14]	@ movhi
 2550 0020 7B88     		ldrh	r3, [r7, #2]	@ movhi
 2551 0022 1343     		orrs	r3, r3, r2
 2552 0024 FB81     		strh	r3, [r7, #14]	@ movhi
1196:Drivers/STM32F4xx_StdPeriph_Driver/src/stm32f4xx_tim.c **** 
1197:Drivers/STM32F4xx_StdPeriph_Driver/src/stm32f4xx_tim.c ****   /* Write to TIMx CCMR2 register */
1198:Drivers/STM32F4xx_StdPeriph_Driver/src/stm32f4xx_tim.c ****   TIMx->CCMR2 = tmpccmr2;
 2553              		.loc 1 1198 15
 2554 0026 7B68     		ldr	r3, [r7, #4]
 2555 0028 FA89     		ldrh	r2, [r7, #14]	@ movhi
 2556 002a 9A83     		strh	r2, [r3, #28]	@ movhi
1199:Drivers/STM32F4xx_StdPeriph_Driver/src/stm32f4xx_tim.c **** }
 2557              		.loc 1 1199 1
 2558 002c 00BF     		nop
 2559 002e 1437     		adds	r7, r7, #20
 2560              	.LCFI164:
 2561              		.cfi_def_cfa_offset 4
 2562 0030 BD46     		mov	sp, r7
 2563              	.LCFI165:
 2564              		.cfi_def_cfa_register 13
 2565              		@ sp needed
 2566 0032 5DF8047B 		ldr	r7, [sp], #4
 2567              	.LCFI166:
 2568              		.cfi_restore 7
 2569              		.cfi_def_cfa_offset 0
 2570 0036 7047     		bx	lr
 2571              		.cfi_endproc
 2572              	.LFE157:
 2574              		.section	.text.TIM_ForcedOC4Config,"ax",%progbits
 2575              		.align	1
 2576              		.global	TIM_ForcedOC4Config
ARM GAS  C:\Users\Admin\AppData\Local\Temp\ccwOX7Bd.s 			page 67


 2577              		.syntax unified
 2578              		.thumb
 2579              		.thumb_func
 2581              	TIM_ForcedOC4Config:
 2582              	.LFB158:
1200:Drivers/STM32F4xx_StdPeriph_Driver/src/stm32f4xx_tim.c **** 
1201:Drivers/STM32F4xx_StdPeriph_Driver/src/stm32f4xx_tim.c **** /**
1202:Drivers/STM32F4xx_StdPeriph_Driver/src/stm32f4xx_tim.c ****   * @brief  Forces the TIMx output 4 waveform to active or inactive level.
1203:Drivers/STM32F4xx_StdPeriph_Driver/src/stm32f4xx_tim.c ****   * @param  TIMx: where x can be  1, 2, 3, 4, 5 or 8 to select the TIM peripheral.
1204:Drivers/STM32F4xx_StdPeriph_Driver/src/stm32f4xx_tim.c ****   * @param  TIM_ForcedAction: specifies the forced Action to be set to the output waveform.
1205:Drivers/STM32F4xx_StdPeriph_Driver/src/stm32f4xx_tim.c ****   *          This parameter can be one of the following values:
1206:Drivers/STM32F4xx_StdPeriph_Driver/src/stm32f4xx_tim.c ****   *            @arg TIM_ForcedAction_Active: Force active level on OC4REF
1207:Drivers/STM32F4xx_StdPeriph_Driver/src/stm32f4xx_tim.c ****   *            @arg TIM_ForcedAction_InActive: Force inactive level on OC4REF.
1208:Drivers/STM32F4xx_StdPeriph_Driver/src/stm32f4xx_tim.c ****   * @retval None
1209:Drivers/STM32F4xx_StdPeriph_Driver/src/stm32f4xx_tim.c ****   */
1210:Drivers/STM32F4xx_StdPeriph_Driver/src/stm32f4xx_tim.c **** void TIM_ForcedOC4Config(TIM_TypeDef* TIMx, uint16_t TIM_ForcedAction)
1211:Drivers/STM32F4xx_StdPeriph_Driver/src/stm32f4xx_tim.c **** {
 2583              		.loc 1 1211 1
 2584              		.cfi_startproc
 2585              		@ args = 0, pretend = 0, frame = 16
 2586              		@ frame_needed = 1, uses_anonymous_args = 0
 2587              		@ link register save eliminated.
 2588 0000 80B4     		push	{r7}
 2589              	.LCFI167:
 2590              		.cfi_def_cfa_offset 4
 2591              		.cfi_offset 7, -4
 2592 0002 85B0     		sub	sp, sp, #20
 2593              	.LCFI168:
 2594              		.cfi_def_cfa_offset 24
 2595 0004 00AF     		add	r7, sp, #0
 2596              	.LCFI169:
 2597              		.cfi_def_cfa_register 7
 2598 0006 7860     		str	r0, [r7, #4]
 2599 0008 0B46     		mov	r3, r1
 2600 000a 7B80     		strh	r3, [r7, #2]	@ movhi
1212:Drivers/STM32F4xx_StdPeriph_Driver/src/stm32f4xx_tim.c ****   uint16_t tmpccmr2 = 0;
 2601              		.loc 1 1212 12
 2602 000c 0023     		movs	r3, #0
 2603 000e FB81     		strh	r3, [r7, #14]	@ movhi
1213:Drivers/STM32F4xx_StdPeriph_Driver/src/stm32f4xx_tim.c **** 
1214:Drivers/STM32F4xx_StdPeriph_Driver/src/stm32f4xx_tim.c ****   /* Check the parameters */
1215:Drivers/STM32F4xx_StdPeriph_Driver/src/stm32f4xx_tim.c ****   assert_param(IS_TIM_LIST3_PERIPH(TIMx));
1216:Drivers/STM32F4xx_StdPeriph_Driver/src/stm32f4xx_tim.c ****   assert_param(IS_TIM_FORCED_ACTION(TIM_ForcedAction));
1217:Drivers/STM32F4xx_StdPeriph_Driver/src/stm32f4xx_tim.c ****   tmpccmr2 = TIMx->CCMR2;
 2604              		.loc 1 1217 12
 2605 0010 7B68     		ldr	r3, [r7, #4]
 2606 0012 9B8B     		ldrh	r3, [r3, #28]	@ movhi
 2607 0014 FB81     		strh	r3, [r7, #14]	@ movhi
1218:Drivers/STM32F4xx_StdPeriph_Driver/src/stm32f4xx_tim.c **** 
1219:Drivers/STM32F4xx_StdPeriph_Driver/src/stm32f4xx_tim.c ****   /* Reset the OC2M Bits */
1220:Drivers/STM32F4xx_StdPeriph_Driver/src/stm32f4xx_tim.c ****   tmpccmr2 &= (uint16_t)~TIM_CCMR2_OC4M;
 2608              		.loc 1 1220 12
 2609 0016 FB89     		ldrh	r3, [r7, #14]	@ movhi
 2610 0018 23F4E043 		bic	r3, r3, #28672
 2611 001c FB81     		strh	r3, [r7, #14]	@ movhi
1221:Drivers/STM32F4xx_StdPeriph_Driver/src/stm32f4xx_tim.c **** 
1222:Drivers/STM32F4xx_StdPeriph_Driver/src/stm32f4xx_tim.c ****   /* Configure The Forced output Mode */
ARM GAS  C:\Users\Admin\AppData\Local\Temp\ccwOX7Bd.s 			page 68


1223:Drivers/STM32F4xx_StdPeriph_Driver/src/stm32f4xx_tim.c ****   tmpccmr2 |= (uint16_t)(TIM_ForcedAction << 8);
 2612              		.loc 1 1223 15
 2613 001e 7B88     		ldrh	r3, [r7, #2]	@ movhi
 2614 0020 1B02     		lsls	r3, r3, #8
 2615 0022 9AB2     		uxth	r2, r3
 2616              		.loc 1 1223 12
 2617 0024 FB89     		ldrh	r3, [r7, #14]	@ movhi
 2618 0026 1343     		orrs	r3, r3, r2
 2619 0028 FB81     		strh	r3, [r7, #14]	@ movhi
1224:Drivers/STM32F4xx_StdPeriph_Driver/src/stm32f4xx_tim.c **** 
1225:Drivers/STM32F4xx_StdPeriph_Driver/src/stm32f4xx_tim.c ****   /* Write to TIMx CCMR2 register */
1226:Drivers/STM32F4xx_StdPeriph_Driver/src/stm32f4xx_tim.c ****   TIMx->CCMR2 = tmpccmr2;
 2620              		.loc 1 1226 15
 2621 002a 7B68     		ldr	r3, [r7, #4]
 2622 002c FA89     		ldrh	r2, [r7, #14]	@ movhi
 2623 002e 9A83     		strh	r2, [r3, #28]	@ movhi
1227:Drivers/STM32F4xx_StdPeriph_Driver/src/stm32f4xx_tim.c **** }
 2624              		.loc 1 1227 1
 2625 0030 00BF     		nop
 2626 0032 1437     		adds	r7, r7, #20
 2627              	.LCFI170:
 2628              		.cfi_def_cfa_offset 4
 2629 0034 BD46     		mov	sp, r7
 2630              	.LCFI171:
 2631              		.cfi_def_cfa_register 13
 2632              		@ sp needed
 2633 0036 5DF8047B 		ldr	r7, [sp], #4
 2634              	.LCFI172:
 2635              		.cfi_restore 7
 2636              		.cfi_def_cfa_offset 0
 2637 003a 7047     		bx	lr
 2638              		.cfi_endproc
 2639              	.LFE158:
 2641              		.section	.text.TIM_OC1PreloadConfig,"ax",%progbits
 2642              		.align	1
 2643              		.global	TIM_OC1PreloadConfig
 2644              		.syntax unified
 2645              		.thumb
 2646              		.thumb_func
 2648              	TIM_OC1PreloadConfig:
 2649              	.LFB159:
1228:Drivers/STM32F4xx_StdPeriph_Driver/src/stm32f4xx_tim.c **** 
1229:Drivers/STM32F4xx_StdPeriph_Driver/src/stm32f4xx_tim.c **** /**
1230:Drivers/STM32F4xx_StdPeriph_Driver/src/stm32f4xx_tim.c ****   * @brief  Enables or disables the TIMx peripheral Preload register on CCR1.
1231:Drivers/STM32F4xx_StdPeriph_Driver/src/stm32f4xx_tim.c ****   * @param  TIMx: where x can be 1 to 14 except 6 and 7, to select the TIM peripheral.
1232:Drivers/STM32F4xx_StdPeriph_Driver/src/stm32f4xx_tim.c ****   * @param  TIM_OCPreload: new state of the TIMx peripheral Preload register
1233:Drivers/STM32F4xx_StdPeriph_Driver/src/stm32f4xx_tim.c ****   *          This parameter can be one of the following values:
1234:Drivers/STM32F4xx_StdPeriph_Driver/src/stm32f4xx_tim.c ****   *            @arg TIM_OCPreload_Enable
1235:Drivers/STM32F4xx_StdPeriph_Driver/src/stm32f4xx_tim.c ****   *            @arg TIM_OCPreload_Disable
1236:Drivers/STM32F4xx_StdPeriph_Driver/src/stm32f4xx_tim.c ****   * @retval None
1237:Drivers/STM32F4xx_StdPeriph_Driver/src/stm32f4xx_tim.c ****   */
1238:Drivers/STM32F4xx_StdPeriph_Driver/src/stm32f4xx_tim.c **** void TIM_OC1PreloadConfig(TIM_TypeDef* TIMx, uint16_t TIM_OCPreload)
1239:Drivers/STM32F4xx_StdPeriph_Driver/src/stm32f4xx_tim.c **** {
 2650              		.loc 1 1239 1
 2651              		.cfi_startproc
 2652              		@ args = 0, pretend = 0, frame = 16
 2653              		@ frame_needed = 1, uses_anonymous_args = 0
ARM GAS  C:\Users\Admin\AppData\Local\Temp\ccwOX7Bd.s 			page 69


 2654              		@ link register save eliminated.
 2655 0000 80B4     		push	{r7}
 2656              	.LCFI173:
 2657              		.cfi_def_cfa_offset 4
 2658              		.cfi_offset 7, -4
 2659 0002 85B0     		sub	sp, sp, #20
 2660              	.LCFI174:
 2661              		.cfi_def_cfa_offset 24
 2662 0004 00AF     		add	r7, sp, #0
 2663              	.LCFI175:
 2664              		.cfi_def_cfa_register 7
 2665 0006 7860     		str	r0, [r7, #4]
 2666 0008 0B46     		mov	r3, r1
 2667 000a 7B80     		strh	r3, [r7, #2]	@ movhi
1240:Drivers/STM32F4xx_StdPeriph_Driver/src/stm32f4xx_tim.c ****   uint16_t tmpccmr1 = 0;
 2668              		.loc 1 1240 12
 2669 000c 0023     		movs	r3, #0
 2670 000e FB81     		strh	r3, [r7, #14]	@ movhi
1241:Drivers/STM32F4xx_StdPeriph_Driver/src/stm32f4xx_tim.c **** 
1242:Drivers/STM32F4xx_StdPeriph_Driver/src/stm32f4xx_tim.c ****   /* Check the parameters */
1243:Drivers/STM32F4xx_StdPeriph_Driver/src/stm32f4xx_tim.c ****   assert_param(IS_TIM_LIST1_PERIPH(TIMx));
1244:Drivers/STM32F4xx_StdPeriph_Driver/src/stm32f4xx_tim.c ****   assert_param(IS_TIM_OCPRELOAD_STATE(TIM_OCPreload));
1245:Drivers/STM32F4xx_StdPeriph_Driver/src/stm32f4xx_tim.c **** 
1246:Drivers/STM32F4xx_StdPeriph_Driver/src/stm32f4xx_tim.c ****   tmpccmr1 = TIMx->CCMR1;
 2671              		.loc 1 1246 12
 2672 0010 7B68     		ldr	r3, [r7, #4]
 2673 0012 1B8B     		ldrh	r3, [r3, #24]	@ movhi
 2674 0014 FB81     		strh	r3, [r7, #14]	@ movhi
1247:Drivers/STM32F4xx_StdPeriph_Driver/src/stm32f4xx_tim.c **** 
1248:Drivers/STM32F4xx_StdPeriph_Driver/src/stm32f4xx_tim.c ****   /* Reset the OC1PE Bit */
1249:Drivers/STM32F4xx_StdPeriph_Driver/src/stm32f4xx_tim.c ****   tmpccmr1 &= (uint16_t)(~TIM_CCMR1_OC1PE);
 2675              		.loc 1 1249 12
 2676 0016 FB89     		ldrh	r3, [r7, #14]	@ movhi
 2677 0018 23F00803 		bic	r3, r3, #8
 2678 001c FB81     		strh	r3, [r7, #14]	@ movhi
1250:Drivers/STM32F4xx_StdPeriph_Driver/src/stm32f4xx_tim.c **** 
1251:Drivers/STM32F4xx_StdPeriph_Driver/src/stm32f4xx_tim.c ****   /* Enable or Disable the Output Compare Preload feature */
1252:Drivers/STM32F4xx_StdPeriph_Driver/src/stm32f4xx_tim.c ****   tmpccmr1 |= TIM_OCPreload;
 2679              		.loc 1 1252 12
 2680 001e FA89     		ldrh	r2, [r7, #14]	@ movhi
 2681 0020 7B88     		ldrh	r3, [r7, #2]	@ movhi
 2682 0022 1343     		orrs	r3, r3, r2
 2683 0024 FB81     		strh	r3, [r7, #14]	@ movhi
1253:Drivers/STM32F4xx_StdPeriph_Driver/src/stm32f4xx_tim.c **** 
1254:Drivers/STM32F4xx_StdPeriph_Driver/src/stm32f4xx_tim.c ****   /* Write to TIMx CCMR1 register */
1255:Drivers/STM32F4xx_StdPeriph_Driver/src/stm32f4xx_tim.c ****   TIMx->CCMR1 = tmpccmr1;
 2684              		.loc 1 1255 15
 2685 0026 7B68     		ldr	r3, [r7, #4]
 2686 0028 FA89     		ldrh	r2, [r7, #14]	@ movhi
 2687 002a 1A83     		strh	r2, [r3, #24]	@ movhi
1256:Drivers/STM32F4xx_StdPeriph_Driver/src/stm32f4xx_tim.c **** }
 2688              		.loc 1 1256 1
 2689 002c 00BF     		nop
 2690 002e 1437     		adds	r7, r7, #20
 2691              	.LCFI176:
 2692              		.cfi_def_cfa_offset 4
 2693 0030 BD46     		mov	sp, r7
ARM GAS  C:\Users\Admin\AppData\Local\Temp\ccwOX7Bd.s 			page 70


 2694              	.LCFI177:
 2695              		.cfi_def_cfa_register 13
 2696              		@ sp needed
 2697 0032 5DF8047B 		ldr	r7, [sp], #4
 2698              	.LCFI178:
 2699              		.cfi_restore 7
 2700              		.cfi_def_cfa_offset 0
 2701 0036 7047     		bx	lr
 2702              		.cfi_endproc
 2703              	.LFE159:
 2705              		.section	.text.TIM_OC2PreloadConfig,"ax",%progbits
 2706              		.align	1
 2707              		.global	TIM_OC2PreloadConfig
 2708              		.syntax unified
 2709              		.thumb
 2710              		.thumb_func
 2712              	TIM_OC2PreloadConfig:
 2713              	.LFB160:
1257:Drivers/STM32F4xx_StdPeriph_Driver/src/stm32f4xx_tim.c **** 
1258:Drivers/STM32F4xx_StdPeriph_Driver/src/stm32f4xx_tim.c **** /**
1259:Drivers/STM32F4xx_StdPeriph_Driver/src/stm32f4xx_tim.c ****   * @brief  Enables or disables the TIMx peripheral Preload register on CCR2.
1260:Drivers/STM32F4xx_StdPeriph_Driver/src/stm32f4xx_tim.c ****   * @param  TIMx: where x can be  1, 2, 3, 4, 5, 8, 9 or 12 to select the TIM 
1261:Drivers/STM32F4xx_StdPeriph_Driver/src/stm32f4xx_tim.c ****   *         peripheral.
1262:Drivers/STM32F4xx_StdPeriph_Driver/src/stm32f4xx_tim.c ****   * @param  TIM_OCPreload: new state of the TIMx peripheral Preload register
1263:Drivers/STM32F4xx_StdPeriph_Driver/src/stm32f4xx_tim.c ****   *          This parameter can be one of the following values:
1264:Drivers/STM32F4xx_StdPeriph_Driver/src/stm32f4xx_tim.c ****   *            @arg TIM_OCPreload_Enable
1265:Drivers/STM32F4xx_StdPeriph_Driver/src/stm32f4xx_tim.c ****   *            @arg TIM_OCPreload_Disable
1266:Drivers/STM32F4xx_StdPeriph_Driver/src/stm32f4xx_tim.c ****   * @retval None
1267:Drivers/STM32F4xx_StdPeriph_Driver/src/stm32f4xx_tim.c ****   */
1268:Drivers/STM32F4xx_StdPeriph_Driver/src/stm32f4xx_tim.c **** void TIM_OC2PreloadConfig(TIM_TypeDef* TIMx, uint16_t TIM_OCPreload)
1269:Drivers/STM32F4xx_StdPeriph_Driver/src/stm32f4xx_tim.c **** {
 2714              		.loc 1 1269 1
 2715              		.cfi_startproc
 2716              		@ args = 0, pretend = 0, frame = 16
 2717              		@ frame_needed = 1, uses_anonymous_args = 0
 2718              		@ link register save eliminated.
 2719 0000 80B4     		push	{r7}
 2720              	.LCFI179:
 2721              		.cfi_def_cfa_offset 4
 2722              		.cfi_offset 7, -4
 2723 0002 85B0     		sub	sp, sp, #20
 2724              	.LCFI180:
 2725              		.cfi_def_cfa_offset 24
 2726 0004 00AF     		add	r7, sp, #0
 2727              	.LCFI181:
 2728              		.cfi_def_cfa_register 7
 2729 0006 7860     		str	r0, [r7, #4]
 2730 0008 0B46     		mov	r3, r1
 2731 000a 7B80     		strh	r3, [r7, #2]	@ movhi
1270:Drivers/STM32F4xx_StdPeriph_Driver/src/stm32f4xx_tim.c ****   uint16_t tmpccmr1 = 0;
 2732              		.loc 1 1270 12
 2733 000c 0023     		movs	r3, #0
 2734 000e FB81     		strh	r3, [r7, #14]	@ movhi
1271:Drivers/STM32F4xx_StdPeriph_Driver/src/stm32f4xx_tim.c **** 
1272:Drivers/STM32F4xx_StdPeriph_Driver/src/stm32f4xx_tim.c ****   /* Check the parameters */
1273:Drivers/STM32F4xx_StdPeriph_Driver/src/stm32f4xx_tim.c ****   assert_param(IS_TIM_LIST2_PERIPH(TIMx));
1274:Drivers/STM32F4xx_StdPeriph_Driver/src/stm32f4xx_tim.c ****   assert_param(IS_TIM_OCPRELOAD_STATE(TIM_OCPreload));
ARM GAS  C:\Users\Admin\AppData\Local\Temp\ccwOX7Bd.s 			page 71


1275:Drivers/STM32F4xx_StdPeriph_Driver/src/stm32f4xx_tim.c **** 
1276:Drivers/STM32F4xx_StdPeriph_Driver/src/stm32f4xx_tim.c ****   tmpccmr1 = TIMx->CCMR1;
 2735              		.loc 1 1276 12
 2736 0010 7B68     		ldr	r3, [r7, #4]
 2737 0012 1B8B     		ldrh	r3, [r3, #24]	@ movhi
 2738 0014 FB81     		strh	r3, [r7, #14]	@ movhi
1277:Drivers/STM32F4xx_StdPeriph_Driver/src/stm32f4xx_tim.c **** 
1278:Drivers/STM32F4xx_StdPeriph_Driver/src/stm32f4xx_tim.c ****   /* Reset the OC2PE Bit */
1279:Drivers/STM32F4xx_StdPeriph_Driver/src/stm32f4xx_tim.c ****   tmpccmr1 &= (uint16_t)(~TIM_CCMR1_OC2PE);
 2739              		.loc 1 1279 12
 2740 0016 FB89     		ldrh	r3, [r7, #14]	@ movhi
 2741 0018 23F40063 		bic	r3, r3, #2048
 2742 001c FB81     		strh	r3, [r7, #14]	@ movhi
1280:Drivers/STM32F4xx_StdPeriph_Driver/src/stm32f4xx_tim.c **** 
1281:Drivers/STM32F4xx_StdPeriph_Driver/src/stm32f4xx_tim.c ****   /* Enable or Disable the Output Compare Preload feature */
1282:Drivers/STM32F4xx_StdPeriph_Driver/src/stm32f4xx_tim.c ****   tmpccmr1 |= (uint16_t)(TIM_OCPreload << 8);
 2743              		.loc 1 1282 15
 2744 001e 7B88     		ldrh	r3, [r7, #2]	@ movhi
 2745 0020 1B02     		lsls	r3, r3, #8
 2746 0022 9AB2     		uxth	r2, r3
 2747              		.loc 1 1282 12
 2748 0024 FB89     		ldrh	r3, [r7, #14]	@ movhi
 2749 0026 1343     		orrs	r3, r3, r2
 2750 0028 FB81     		strh	r3, [r7, #14]	@ movhi
1283:Drivers/STM32F4xx_StdPeriph_Driver/src/stm32f4xx_tim.c **** 
1284:Drivers/STM32F4xx_StdPeriph_Driver/src/stm32f4xx_tim.c ****   /* Write to TIMx CCMR1 register */
1285:Drivers/STM32F4xx_StdPeriph_Driver/src/stm32f4xx_tim.c ****   TIMx->CCMR1 = tmpccmr1;
 2751              		.loc 1 1285 15
 2752 002a 7B68     		ldr	r3, [r7, #4]
 2753 002c FA89     		ldrh	r2, [r7, #14]	@ movhi
 2754 002e 1A83     		strh	r2, [r3, #24]	@ movhi
1286:Drivers/STM32F4xx_StdPeriph_Driver/src/stm32f4xx_tim.c **** }
 2755              		.loc 1 1286 1
 2756 0030 00BF     		nop
 2757 0032 1437     		adds	r7, r7, #20
 2758              	.LCFI182:
 2759              		.cfi_def_cfa_offset 4
 2760 0034 BD46     		mov	sp, r7
 2761              	.LCFI183:
 2762              		.cfi_def_cfa_register 13
 2763              		@ sp needed
 2764 0036 5DF8047B 		ldr	r7, [sp], #4
 2765              	.LCFI184:
 2766              		.cfi_restore 7
 2767              		.cfi_def_cfa_offset 0
 2768 003a 7047     		bx	lr
 2769              		.cfi_endproc
 2770              	.LFE160:
 2772              		.section	.text.TIM_OC3PreloadConfig,"ax",%progbits
 2773              		.align	1
 2774              		.global	TIM_OC3PreloadConfig
 2775              		.syntax unified
 2776              		.thumb
 2777              		.thumb_func
 2779              	TIM_OC3PreloadConfig:
 2780              	.LFB161:
1287:Drivers/STM32F4xx_StdPeriph_Driver/src/stm32f4xx_tim.c **** 
ARM GAS  C:\Users\Admin\AppData\Local\Temp\ccwOX7Bd.s 			page 72


1288:Drivers/STM32F4xx_StdPeriph_Driver/src/stm32f4xx_tim.c **** /**
1289:Drivers/STM32F4xx_StdPeriph_Driver/src/stm32f4xx_tim.c ****   * @brief  Enables or disables the TIMx peripheral Preload register on CCR3.
1290:Drivers/STM32F4xx_StdPeriph_Driver/src/stm32f4xx_tim.c ****   * @param  TIMx: where x can be  1, 2, 3, 4, 5 or 8 to select the TIM peripheral.
1291:Drivers/STM32F4xx_StdPeriph_Driver/src/stm32f4xx_tim.c ****   * @param  TIM_OCPreload: new state of the TIMx peripheral Preload register
1292:Drivers/STM32F4xx_StdPeriph_Driver/src/stm32f4xx_tim.c ****   *          This parameter can be one of the following values:
1293:Drivers/STM32F4xx_StdPeriph_Driver/src/stm32f4xx_tim.c ****   *            @arg TIM_OCPreload_Enable
1294:Drivers/STM32F4xx_StdPeriph_Driver/src/stm32f4xx_tim.c ****   *            @arg TIM_OCPreload_Disable
1295:Drivers/STM32F4xx_StdPeriph_Driver/src/stm32f4xx_tim.c ****   * @retval None
1296:Drivers/STM32F4xx_StdPeriph_Driver/src/stm32f4xx_tim.c ****   */
1297:Drivers/STM32F4xx_StdPeriph_Driver/src/stm32f4xx_tim.c **** void TIM_OC3PreloadConfig(TIM_TypeDef* TIMx, uint16_t TIM_OCPreload)
1298:Drivers/STM32F4xx_StdPeriph_Driver/src/stm32f4xx_tim.c **** {
 2781              		.loc 1 1298 1
 2782              		.cfi_startproc
 2783              		@ args = 0, pretend = 0, frame = 16
 2784              		@ frame_needed = 1, uses_anonymous_args = 0
 2785              		@ link register save eliminated.
 2786 0000 80B4     		push	{r7}
 2787              	.LCFI185:
 2788              		.cfi_def_cfa_offset 4
 2789              		.cfi_offset 7, -4
 2790 0002 85B0     		sub	sp, sp, #20
 2791              	.LCFI186:
 2792              		.cfi_def_cfa_offset 24
 2793 0004 00AF     		add	r7, sp, #0
 2794              	.LCFI187:
 2795              		.cfi_def_cfa_register 7
 2796 0006 7860     		str	r0, [r7, #4]
 2797 0008 0B46     		mov	r3, r1
 2798 000a 7B80     		strh	r3, [r7, #2]	@ movhi
1299:Drivers/STM32F4xx_StdPeriph_Driver/src/stm32f4xx_tim.c ****   uint16_t tmpccmr2 = 0;
 2799              		.loc 1 1299 12
 2800 000c 0023     		movs	r3, #0
 2801 000e FB81     		strh	r3, [r7, #14]	@ movhi
1300:Drivers/STM32F4xx_StdPeriph_Driver/src/stm32f4xx_tim.c **** 
1301:Drivers/STM32F4xx_StdPeriph_Driver/src/stm32f4xx_tim.c ****   /* Check the parameters */
1302:Drivers/STM32F4xx_StdPeriph_Driver/src/stm32f4xx_tim.c ****   assert_param(IS_TIM_LIST3_PERIPH(TIMx));
1303:Drivers/STM32F4xx_StdPeriph_Driver/src/stm32f4xx_tim.c ****   assert_param(IS_TIM_OCPRELOAD_STATE(TIM_OCPreload));
1304:Drivers/STM32F4xx_StdPeriph_Driver/src/stm32f4xx_tim.c **** 
1305:Drivers/STM32F4xx_StdPeriph_Driver/src/stm32f4xx_tim.c ****   tmpccmr2 = TIMx->CCMR2;
 2802              		.loc 1 1305 12
 2803 0010 7B68     		ldr	r3, [r7, #4]
 2804 0012 9B8B     		ldrh	r3, [r3, #28]	@ movhi
 2805 0014 FB81     		strh	r3, [r7, #14]	@ movhi
1306:Drivers/STM32F4xx_StdPeriph_Driver/src/stm32f4xx_tim.c **** 
1307:Drivers/STM32F4xx_StdPeriph_Driver/src/stm32f4xx_tim.c ****   /* Reset the OC3PE Bit */
1308:Drivers/STM32F4xx_StdPeriph_Driver/src/stm32f4xx_tim.c ****   tmpccmr2 &= (uint16_t)(~TIM_CCMR2_OC3PE);
 2806              		.loc 1 1308 12
 2807 0016 FB89     		ldrh	r3, [r7, #14]	@ movhi
 2808 0018 23F00803 		bic	r3, r3, #8
 2809 001c FB81     		strh	r3, [r7, #14]	@ movhi
1309:Drivers/STM32F4xx_StdPeriph_Driver/src/stm32f4xx_tim.c **** 
1310:Drivers/STM32F4xx_StdPeriph_Driver/src/stm32f4xx_tim.c ****   /* Enable or Disable the Output Compare Preload feature */
1311:Drivers/STM32F4xx_StdPeriph_Driver/src/stm32f4xx_tim.c ****   tmpccmr2 |= TIM_OCPreload;
 2810              		.loc 1 1311 12
 2811 001e FA89     		ldrh	r2, [r7, #14]	@ movhi
 2812 0020 7B88     		ldrh	r3, [r7, #2]	@ movhi
 2813 0022 1343     		orrs	r3, r3, r2
ARM GAS  C:\Users\Admin\AppData\Local\Temp\ccwOX7Bd.s 			page 73


 2814 0024 FB81     		strh	r3, [r7, #14]	@ movhi
1312:Drivers/STM32F4xx_StdPeriph_Driver/src/stm32f4xx_tim.c **** 
1313:Drivers/STM32F4xx_StdPeriph_Driver/src/stm32f4xx_tim.c ****   /* Write to TIMx CCMR2 register */
1314:Drivers/STM32F4xx_StdPeriph_Driver/src/stm32f4xx_tim.c ****   TIMx->CCMR2 = tmpccmr2;
 2815              		.loc 1 1314 15
 2816 0026 7B68     		ldr	r3, [r7, #4]
 2817 0028 FA89     		ldrh	r2, [r7, #14]	@ movhi
 2818 002a 9A83     		strh	r2, [r3, #28]	@ movhi
1315:Drivers/STM32F4xx_StdPeriph_Driver/src/stm32f4xx_tim.c **** }
 2819              		.loc 1 1315 1
 2820 002c 00BF     		nop
 2821 002e 1437     		adds	r7, r7, #20
 2822              	.LCFI188:
 2823              		.cfi_def_cfa_offset 4
 2824 0030 BD46     		mov	sp, r7
 2825              	.LCFI189:
 2826              		.cfi_def_cfa_register 13
 2827              		@ sp needed
 2828 0032 5DF8047B 		ldr	r7, [sp], #4
 2829              	.LCFI190:
 2830              		.cfi_restore 7
 2831              		.cfi_def_cfa_offset 0
 2832 0036 7047     		bx	lr
 2833              		.cfi_endproc
 2834              	.LFE161:
 2836              		.section	.text.TIM_OC4PreloadConfig,"ax",%progbits
 2837              		.align	1
 2838              		.global	TIM_OC4PreloadConfig
 2839              		.syntax unified
 2840              		.thumb
 2841              		.thumb_func
 2843              	TIM_OC4PreloadConfig:
 2844              	.LFB162:
1316:Drivers/STM32F4xx_StdPeriph_Driver/src/stm32f4xx_tim.c **** 
1317:Drivers/STM32F4xx_StdPeriph_Driver/src/stm32f4xx_tim.c **** /**
1318:Drivers/STM32F4xx_StdPeriph_Driver/src/stm32f4xx_tim.c ****   * @brief  Enables or disables the TIMx peripheral Preload register on CCR4.
1319:Drivers/STM32F4xx_StdPeriph_Driver/src/stm32f4xx_tim.c ****   * @param  TIMx: where x can be  1, 2, 3, 4, 5 or 8 to select the TIM peripheral.
1320:Drivers/STM32F4xx_StdPeriph_Driver/src/stm32f4xx_tim.c ****   * @param  TIM_OCPreload: new state of the TIMx peripheral Preload register
1321:Drivers/STM32F4xx_StdPeriph_Driver/src/stm32f4xx_tim.c ****   *          This parameter can be one of the following values:
1322:Drivers/STM32F4xx_StdPeriph_Driver/src/stm32f4xx_tim.c ****   *            @arg TIM_OCPreload_Enable
1323:Drivers/STM32F4xx_StdPeriph_Driver/src/stm32f4xx_tim.c ****   *            @arg TIM_OCPreload_Disable
1324:Drivers/STM32F4xx_StdPeriph_Driver/src/stm32f4xx_tim.c ****   * @retval None
1325:Drivers/STM32F4xx_StdPeriph_Driver/src/stm32f4xx_tim.c ****   */
1326:Drivers/STM32F4xx_StdPeriph_Driver/src/stm32f4xx_tim.c **** void TIM_OC4PreloadConfig(TIM_TypeDef* TIMx, uint16_t TIM_OCPreload)
1327:Drivers/STM32F4xx_StdPeriph_Driver/src/stm32f4xx_tim.c **** {
 2845              		.loc 1 1327 1
 2846              		.cfi_startproc
 2847              		@ args = 0, pretend = 0, frame = 16
 2848              		@ frame_needed = 1, uses_anonymous_args = 0
 2849              		@ link register save eliminated.
 2850 0000 80B4     		push	{r7}
 2851              	.LCFI191:
 2852              		.cfi_def_cfa_offset 4
 2853              		.cfi_offset 7, -4
 2854 0002 85B0     		sub	sp, sp, #20
 2855              	.LCFI192:
 2856              		.cfi_def_cfa_offset 24
ARM GAS  C:\Users\Admin\AppData\Local\Temp\ccwOX7Bd.s 			page 74


 2857 0004 00AF     		add	r7, sp, #0
 2858              	.LCFI193:
 2859              		.cfi_def_cfa_register 7
 2860 0006 7860     		str	r0, [r7, #4]
 2861 0008 0B46     		mov	r3, r1
 2862 000a 7B80     		strh	r3, [r7, #2]	@ movhi
1328:Drivers/STM32F4xx_StdPeriph_Driver/src/stm32f4xx_tim.c ****   uint16_t tmpccmr2 = 0;
 2863              		.loc 1 1328 12
 2864 000c 0023     		movs	r3, #0
 2865 000e FB81     		strh	r3, [r7, #14]	@ movhi
1329:Drivers/STM32F4xx_StdPeriph_Driver/src/stm32f4xx_tim.c **** 
1330:Drivers/STM32F4xx_StdPeriph_Driver/src/stm32f4xx_tim.c ****   /* Check the parameters */
1331:Drivers/STM32F4xx_StdPeriph_Driver/src/stm32f4xx_tim.c ****   assert_param(IS_TIM_LIST3_PERIPH(TIMx));
1332:Drivers/STM32F4xx_StdPeriph_Driver/src/stm32f4xx_tim.c ****   assert_param(IS_TIM_OCPRELOAD_STATE(TIM_OCPreload));
1333:Drivers/STM32F4xx_StdPeriph_Driver/src/stm32f4xx_tim.c **** 
1334:Drivers/STM32F4xx_StdPeriph_Driver/src/stm32f4xx_tim.c ****   tmpccmr2 = TIMx->CCMR2;
 2866              		.loc 1 1334 12
 2867 0010 7B68     		ldr	r3, [r7, #4]
 2868 0012 9B8B     		ldrh	r3, [r3, #28]	@ movhi
 2869 0014 FB81     		strh	r3, [r7, #14]	@ movhi
1335:Drivers/STM32F4xx_StdPeriph_Driver/src/stm32f4xx_tim.c **** 
1336:Drivers/STM32F4xx_StdPeriph_Driver/src/stm32f4xx_tim.c ****   /* Reset the OC4PE Bit */
1337:Drivers/STM32F4xx_StdPeriph_Driver/src/stm32f4xx_tim.c ****   tmpccmr2 &= (uint16_t)(~TIM_CCMR2_OC4PE);
 2870              		.loc 1 1337 12
 2871 0016 FB89     		ldrh	r3, [r7, #14]	@ movhi
 2872 0018 23F40063 		bic	r3, r3, #2048
 2873 001c FB81     		strh	r3, [r7, #14]	@ movhi
1338:Drivers/STM32F4xx_StdPeriph_Driver/src/stm32f4xx_tim.c **** 
1339:Drivers/STM32F4xx_StdPeriph_Driver/src/stm32f4xx_tim.c ****   /* Enable or Disable the Output Compare Preload feature */
1340:Drivers/STM32F4xx_StdPeriph_Driver/src/stm32f4xx_tim.c ****   tmpccmr2 |= (uint16_t)(TIM_OCPreload << 8);
 2874              		.loc 1 1340 15
 2875 001e 7B88     		ldrh	r3, [r7, #2]	@ movhi
 2876 0020 1B02     		lsls	r3, r3, #8
 2877 0022 9AB2     		uxth	r2, r3
 2878              		.loc 1 1340 12
 2879 0024 FB89     		ldrh	r3, [r7, #14]	@ movhi
 2880 0026 1343     		orrs	r3, r3, r2
 2881 0028 FB81     		strh	r3, [r7, #14]	@ movhi
1341:Drivers/STM32F4xx_StdPeriph_Driver/src/stm32f4xx_tim.c **** 
1342:Drivers/STM32F4xx_StdPeriph_Driver/src/stm32f4xx_tim.c ****   /* Write to TIMx CCMR2 register */
1343:Drivers/STM32F4xx_StdPeriph_Driver/src/stm32f4xx_tim.c ****   TIMx->CCMR2 = tmpccmr2;
 2882              		.loc 1 1343 15
 2883 002a 7B68     		ldr	r3, [r7, #4]
 2884 002c FA89     		ldrh	r2, [r7, #14]	@ movhi
 2885 002e 9A83     		strh	r2, [r3, #28]	@ movhi
1344:Drivers/STM32F4xx_StdPeriph_Driver/src/stm32f4xx_tim.c **** }
 2886              		.loc 1 1344 1
 2887 0030 00BF     		nop
 2888 0032 1437     		adds	r7, r7, #20
 2889              	.LCFI194:
 2890              		.cfi_def_cfa_offset 4
 2891 0034 BD46     		mov	sp, r7
 2892              	.LCFI195:
 2893              		.cfi_def_cfa_register 13
 2894              		@ sp needed
 2895 0036 5DF8047B 		ldr	r7, [sp], #4
 2896              	.LCFI196:
ARM GAS  C:\Users\Admin\AppData\Local\Temp\ccwOX7Bd.s 			page 75


 2897              		.cfi_restore 7
 2898              		.cfi_def_cfa_offset 0
 2899 003a 7047     		bx	lr
 2900              		.cfi_endproc
 2901              	.LFE162:
 2903              		.section	.text.TIM_OC1FastConfig,"ax",%progbits
 2904              		.align	1
 2905              		.global	TIM_OC1FastConfig
 2906              		.syntax unified
 2907              		.thumb
 2908              		.thumb_func
 2910              	TIM_OC1FastConfig:
 2911              	.LFB163:
1345:Drivers/STM32F4xx_StdPeriph_Driver/src/stm32f4xx_tim.c **** 
1346:Drivers/STM32F4xx_StdPeriph_Driver/src/stm32f4xx_tim.c **** /**
1347:Drivers/STM32F4xx_StdPeriph_Driver/src/stm32f4xx_tim.c ****   * @brief  Configures the TIMx Output Compare 1 Fast feature.
1348:Drivers/STM32F4xx_StdPeriph_Driver/src/stm32f4xx_tim.c ****   * @param  TIMx: where x can be 1 to 14 except 6 and 7, to select the TIM peripheral.
1349:Drivers/STM32F4xx_StdPeriph_Driver/src/stm32f4xx_tim.c ****   * @param  TIM_OCFast: new state of the Output Compare Fast Enable Bit.
1350:Drivers/STM32F4xx_StdPeriph_Driver/src/stm32f4xx_tim.c ****   *          This parameter can be one of the following values:
1351:Drivers/STM32F4xx_StdPeriph_Driver/src/stm32f4xx_tim.c ****   *            @arg TIM_OCFast_Enable: TIM output compare fast enable
1352:Drivers/STM32F4xx_StdPeriph_Driver/src/stm32f4xx_tim.c ****   *            @arg TIM_OCFast_Disable: TIM output compare fast disable
1353:Drivers/STM32F4xx_StdPeriph_Driver/src/stm32f4xx_tim.c ****   * @retval None
1354:Drivers/STM32F4xx_StdPeriph_Driver/src/stm32f4xx_tim.c ****   */
1355:Drivers/STM32F4xx_StdPeriph_Driver/src/stm32f4xx_tim.c **** void TIM_OC1FastConfig(TIM_TypeDef* TIMx, uint16_t TIM_OCFast)
1356:Drivers/STM32F4xx_StdPeriph_Driver/src/stm32f4xx_tim.c **** {
 2912              		.loc 1 1356 1
 2913              		.cfi_startproc
 2914              		@ args = 0, pretend = 0, frame = 16
 2915              		@ frame_needed = 1, uses_anonymous_args = 0
 2916              		@ link register save eliminated.
 2917 0000 80B4     		push	{r7}
 2918              	.LCFI197:
 2919              		.cfi_def_cfa_offset 4
 2920              		.cfi_offset 7, -4
 2921 0002 85B0     		sub	sp, sp, #20
 2922              	.LCFI198:
 2923              		.cfi_def_cfa_offset 24
 2924 0004 00AF     		add	r7, sp, #0
 2925              	.LCFI199:
 2926              		.cfi_def_cfa_register 7
 2927 0006 7860     		str	r0, [r7, #4]
 2928 0008 0B46     		mov	r3, r1
 2929 000a 7B80     		strh	r3, [r7, #2]	@ movhi
1357:Drivers/STM32F4xx_StdPeriph_Driver/src/stm32f4xx_tim.c ****   uint16_t tmpccmr1 = 0;
 2930              		.loc 1 1357 12
 2931 000c 0023     		movs	r3, #0
 2932 000e FB81     		strh	r3, [r7, #14]	@ movhi
1358:Drivers/STM32F4xx_StdPeriph_Driver/src/stm32f4xx_tim.c **** 
1359:Drivers/STM32F4xx_StdPeriph_Driver/src/stm32f4xx_tim.c ****   /* Check the parameters */
1360:Drivers/STM32F4xx_StdPeriph_Driver/src/stm32f4xx_tim.c ****   assert_param(IS_TIM_LIST1_PERIPH(TIMx));
1361:Drivers/STM32F4xx_StdPeriph_Driver/src/stm32f4xx_tim.c ****   assert_param(IS_TIM_OCFAST_STATE(TIM_OCFast));
1362:Drivers/STM32F4xx_StdPeriph_Driver/src/stm32f4xx_tim.c **** 
1363:Drivers/STM32F4xx_StdPeriph_Driver/src/stm32f4xx_tim.c ****   /* Get the TIMx CCMR1 register value */
1364:Drivers/STM32F4xx_StdPeriph_Driver/src/stm32f4xx_tim.c ****   tmpccmr1 = TIMx->CCMR1;
 2933              		.loc 1 1364 12
 2934 0010 7B68     		ldr	r3, [r7, #4]
 2935 0012 1B8B     		ldrh	r3, [r3, #24]	@ movhi
ARM GAS  C:\Users\Admin\AppData\Local\Temp\ccwOX7Bd.s 			page 76


 2936 0014 FB81     		strh	r3, [r7, #14]	@ movhi
1365:Drivers/STM32F4xx_StdPeriph_Driver/src/stm32f4xx_tim.c **** 
1366:Drivers/STM32F4xx_StdPeriph_Driver/src/stm32f4xx_tim.c ****   /* Reset the OC1FE Bit */
1367:Drivers/STM32F4xx_StdPeriph_Driver/src/stm32f4xx_tim.c ****   tmpccmr1 &= (uint16_t)~TIM_CCMR1_OC1FE;
 2937              		.loc 1 1367 12
 2938 0016 FB89     		ldrh	r3, [r7, #14]	@ movhi
 2939 0018 23F00403 		bic	r3, r3, #4
 2940 001c FB81     		strh	r3, [r7, #14]	@ movhi
1368:Drivers/STM32F4xx_StdPeriph_Driver/src/stm32f4xx_tim.c **** 
1369:Drivers/STM32F4xx_StdPeriph_Driver/src/stm32f4xx_tim.c ****   /* Enable or Disable the Output Compare Fast Bit */
1370:Drivers/STM32F4xx_StdPeriph_Driver/src/stm32f4xx_tim.c ****   tmpccmr1 |= TIM_OCFast;
 2941              		.loc 1 1370 12
 2942 001e FA89     		ldrh	r2, [r7, #14]	@ movhi
 2943 0020 7B88     		ldrh	r3, [r7, #2]	@ movhi
 2944 0022 1343     		orrs	r3, r3, r2
 2945 0024 FB81     		strh	r3, [r7, #14]	@ movhi
1371:Drivers/STM32F4xx_StdPeriph_Driver/src/stm32f4xx_tim.c **** 
1372:Drivers/STM32F4xx_StdPeriph_Driver/src/stm32f4xx_tim.c ****   /* Write to TIMx CCMR1 */
1373:Drivers/STM32F4xx_StdPeriph_Driver/src/stm32f4xx_tim.c ****   TIMx->CCMR1 = tmpccmr1;
 2946              		.loc 1 1373 15
 2947 0026 7B68     		ldr	r3, [r7, #4]
 2948 0028 FA89     		ldrh	r2, [r7, #14]	@ movhi
 2949 002a 1A83     		strh	r2, [r3, #24]	@ movhi
1374:Drivers/STM32F4xx_StdPeriph_Driver/src/stm32f4xx_tim.c **** }
 2950              		.loc 1 1374 1
 2951 002c 00BF     		nop
 2952 002e 1437     		adds	r7, r7, #20
 2953              	.LCFI200:
 2954              		.cfi_def_cfa_offset 4
 2955 0030 BD46     		mov	sp, r7
 2956              	.LCFI201:
 2957              		.cfi_def_cfa_register 13
 2958              		@ sp needed
 2959 0032 5DF8047B 		ldr	r7, [sp], #4
 2960              	.LCFI202:
 2961              		.cfi_restore 7
 2962              		.cfi_def_cfa_offset 0
 2963 0036 7047     		bx	lr
 2964              		.cfi_endproc
 2965              	.LFE163:
 2967              		.section	.text.TIM_OC2FastConfig,"ax",%progbits
 2968              		.align	1
 2969              		.global	TIM_OC2FastConfig
 2970              		.syntax unified
 2971              		.thumb
 2972              		.thumb_func
 2974              	TIM_OC2FastConfig:
 2975              	.LFB164:
1375:Drivers/STM32F4xx_StdPeriph_Driver/src/stm32f4xx_tim.c **** 
1376:Drivers/STM32F4xx_StdPeriph_Driver/src/stm32f4xx_tim.c **** /**
1377:Drivers/STM32F4xx_StdPeriph_Driver/src/stm32f4xx_tim.c ****   * @brief  Configures the TIMx Output Compare 2 Fast feature.
1378:Drivers/STM32F4xx_StdPeriph_Driver/src/stm32f4xx_tim.c ****   * @param  TIMx: where x can be  1, 2, 3, 4, 5, 8, 9 or 12 to select the TIM 
1379:Drivers/STM32F4xx_StdPeriph_Driver/src/stm32f4xx_tim.c ****   *         peripheral.
1380:Drivers/STM32F4xx_StdPeriph_Driver/src/stm32f4xx_tim.c ****   * @param  TIM_OCFast: new state of the Output Compare Fast Enable Bit.
1381:Drivers/STM32F4xx_StdPeriph_Driver/src/stm32f4xx_tim.c ****   *          This parameter can be one of the following values:
1382:Drivers/STM32F4xx_StdPeriph_Driver/src/stm32f4xx_tim.c ****   *            @arg TIM_OCFast_Enable: TIM output compare fast enable
1383:Drivers/STM32F4xx_StdPeriph_Driver/src/stm32f4xx_tim.c ****   *            @arg TIM_OCFast_Disable: TIM output compare fast disable
ARM GAS  C:\Users\Admin\AppData\Local\Temp\ccwOX7Bd.s 			page 77


1384:Drivers/STM32F4xx_StdPeriph_Driver/src/stm32f4xx_tim.c ****   * @retval None
1385:Drivers/STM32F4xx_StdPeriph_Driver/src/stm32f4xx_tim.c ****   */
1386:Drivers/STM32F4xx_StdPeriph_Driver/src/stm32f4xx_tim.c **** void TIM_OC2FastConfig(TIM_TypeDef* TIMx, uint16_t TIM_OCFast)
1387:Drivers/STM32F4xx_StdPeriph_Driver/src/stm32f4xx_tim.c **** {
 2976              		.loc 1 1387 1
 2977              		.cfi_startproc
 2978              		@ args = 0, pretend = 0, frame = 16
 2979              		@ frame_needed = 1, uses_anonymous_args = 0
 2980              		@ link register save eliminated.
 2981 0000 80B4     		push	{r7}
 2982              	.LCFI203:
 2983              		.cfi_def_cfa_offset 4
 2984              		.cfi_offset 7, -4
 2985 0002 85B0     		sub	sp, sp, #20
 2986              	.LCFI204:
 2987              		.cfi_def_cfa_offset 24
 2988 0004 00AF     		add	r7, sp, #0
 2989              	.LCFI205:
 2990              		.cfi_def_cfa_register 7
 2991 0006 7860     		str	r0, [r7, #4]
 2992 0008 0B46     		mov	r3, r1
 2993 000a 7B80     		strh	r3, [r7, #2]	@ movhi
1388:Drivers/STM32F4xx_StdPeriph_Driver/src/stm32f4xx_tim.c ****   uint16_t tmpccmr1 = 0;
 2994              		.loc 1 1388 12
 2995 000c 0023     		movs	r3, #0
 2996 000e FB81     		strh	r3, [r7, #14]	@ movhi
1389:Drivers/STM32F4xx_StdPeriph_Driver/src/stm32f4xx_tim.c **** 
1390:Drivers/STM32F4xx_StdPeriph_Driver/src/stm32f4xx_tim.c ****   /* Check the parameters */
1391:Drivers/STM32F4xx_StdPeriph_Driver/src/stm32f4xx_tim.c ****   assert_param(IS_TIM_LIST2_PERIPH(TIMx));
1392:Drivers/STM32F4xx_StdPeriph_Driver/src/stm32f4xx_tim.c ****   assert_param(IS_TIM_OCFAST_STATE(TIM_OCFast));
1393:Drivers/STM32F4xx_StdPeriph_Driver/src/stm32f4xx_tim.c **** 
1394:Drivers/STM32F4xx_StdPeriph_Driver/src/stm32f4xx_tim.c ****   /* Get the TIMx CCMR1 register value */
1395:Drivers/STM32F4xx_StdPeriph_Driver/src/stm32f4xx_tim.c ****   tmpccmr1 = TIMx->CCMR1;
 2997              		.loc 1 1395 12
 2998 0010 7B68     		ldr	r3, [r7, #4]
 2999 0012 1B8B     		ldrh	r3, [r3, #24]	@ movhi
 3000 0014 FB81     		strh	r3, [r7, #14]	@ movhi
1396:Drivers/STM32F4xx_StdPeriph_Driver/src/stm32f4xx_tim.c **** 
1397:Drivers/STM32F4xx_StdPeriph_Driver/src/stm32f4xx_tim.c ****   /* Reset the OC2FE Bit */
1398:Drivers/STM32F4xx_StdPeriph_Driver/src/stm32f4xx_tim.c ****   tmpccmr1 &= (uint16_t)(~TIM_CCMR1_OC2FE);
 3001              		.loc 1 1398 12
 3002 0016 FB89     		ldrh	r3, [r7, #14]	@ movhi
 3003 0018 23F48063 		bic	r3, r3, #1024
 3004 001c FB81     		strh	r3, [r7, #14]	@ movhi
1399:Drivers/STM32F4xx_StdPeriph_Driver/src/stm32f4xx_tim.c **** 
1400:Drivers/STM32F4xx_StdPeriph_Driver/src/stm32f4xx_tim.c ****   /* Enable or Disable the Output Compare Fast Bit */
1401:Drivers/STM32F4xx_StdPeriph_Driver/src/stm32f4xx_tim.c ****   tmpccmr1 |= (uint16_t)(TIM_OCFast << 8);
 3005              		.loc 1 1401 15
 3006 001e 7B88     		ldrh	r3, [r7, #2]	@ movhi
 3007 0020 1B02     		lsls	r3, r3, #8
 3008 0022 9AB2     		uxth	r2, r3
 3009              		.loc 1 1401 12
 3010 0024 FB89     		ldrh	r3, [r7, #14]	@ movhi
 3011 0026 1343     		orrs	r3, r3, r2
 3012 0028 FB81     		strh	r3, [r7, #14]	@ movhi
1402:Drivers/STM32F4xx_StdPeriph_Driver/src/stm32f4xx_tim.c **** 
1403:Drivers/STM32F4xx_StdPeriph_Driver/src/stm32f4xx_tim.c ****   /* Write to TIMx CCMR1 */
ARM GAS  C:\Users\Admin\AppData\Local\Temp\ccwOX7Bd.s 			page 78


1404:Drivers/STM32F4xx_StdPeriph_Driver/src/stm32f4xx_tim.c ****   TIMx->CCMR1 = tmpccmr1;
 3013              		.loc 1 1404 15
 3014 002a 7B68     		ldr	r3, [r7, #4]
 3015 002c FA89     		ldrh	r2, [r7, #14]	@ movhi
 3016 002e 1A83     		strh	r2, [r3, #24]	@ movhi
1405:Drivers/STM32F4xx_StdPeriph_Driver/src/stm32f4xx_tim.c **** }
 3017              		.loc 1 1405 1
 3018 0030 00BF     		nop
 3019 0032 1437     		adds	r7, r7, #20
 3020              	.LCFI206:
 3021              		.cfi_def_cfa_offset 4
 3022 0034 BD46     		mov	sp, r7
 3023              	.LCFI207:
 3024              		.cfi_def_cfa_register 13
 3025              		@ sp needed
 3026 0036 5DF8047B 		ldr	r7, [sp], #4
 3027              	.LCFI208:
 3028              		.cfi_restore 7
 3029              		.cfi_def_cfa_offset 0
 3030 003a 7047     		bx	lr
 3031              		.cfi_endproc
 3032              	.LFE164:
 3034              		.section	.text.TIM_OC3FastConfig,"ax",%progbits
 3035              		.align	1
 3036              		.global	TIM_OC3FastConfig
 3037              		.syntax unified
 3038              		.thumb
 3039              		.thumb_func
 3041              	TIM_OC3FastConfig:
 3042              	.LFB165:
1406:Drivers/STM32F4xx_StdPeriph_Driver/src/stm32f4xx_tim.c **** 
1407:Drivers/STM32F4xx_StdPeriph_Driver/src/stm32f4xx_tim.c **** /**
1408:Drivers/STM32F4xx_StdPeriph_Driver/src/stm32f4xx_tim.c ****   * @brief  Configures the TIMx Output Compare 3 Fast feature.
1409:Drivers/STM32F4xx_StdPeriph_Driver/src/stm32f4xx_tim.c ****   * @param  TIMx: where x can be  1, 2, 3, 4, 5 or 8 to select the TIM peripheral.
1410:Drivers/STM32F4xx_StdPeriph_Driver/src/stm32f4xx_tim.c ****   * @param  TIM_OCFast: new state of the Output Compare Fast Enable Bit.
1411:Drivers/STM32F4xx_StdPeriph_Driver/src/stm32f4xx_tim.c ****   *          This parameter can be one of the following values:
1412:Drivers/STM32F4xx_StdPeriph_Driver/src/stm32f4xx_tim.c ****   *            @arg TIM_OCFast_Enable: TIM output compare fast enable
1413:Drivers/STM32F4xx_StdPeriph_Driver/src/stm32f4xx_tim.c ****   *            @arg TIM_OCFast_Disable: TIM output compare fast disable
1414:Drivers/STM32F4xx_StdPeriph_Driver/src/stm32f4xx_tim.c ****   * @retval None
1415:Drivers/STM32F4xx_StdPeriph_Driver/src/stm32f4xx_tim.c ****   */
1416:Drivers/STM32F4xx_StdPeriph_Driver/src/stm32f4xx_tim.c **** void TIM_OC3FastConfig(TIM_TypeDef* TIMx, uint16_t TIM_OCFast)
1417:Drivers/STM32F4xx_StdPeriph_Driver/src/stm32f4xx_tim.c **** {
 3043              		.loc 1 1417 1
 3044              		.cfi_startproc
 3045              		@ args = 0, pretend = 0, frame = 16
 3046              		@ frame_needed = 1, uses_anonymous_args = 0
 3047              		@ link register save eliminated.
 3048 0000 80B4     		push	{r7}
 3049              	.LCFI209:
 3050              		.cfi_def_cfa_offset 4
 3051              		.cfi_offset 7, -4
 3052 0002 85B0     		sub	sp, sp, #20
 3053              	.LCFI210:
 3054              		.cfi_def_cfa_offset 24
 3055 0004 00AF     		add	r7, sp, #0
 3056              	.LCFI211:
 3057              		.cfi_def_cfa_register 7
ARM GAS  C:\Users\Admin\AppData\Local\Temp\ccwOX7Bd.s 			page 79


 3058 0006 7860     		str	r0, [r7, #4]
 3059 0008 0B46     		mov	r3, r1
 3060 000a 7B80     		strh	r3, [r7, #2]	@ movhi
1418:Drivers/STM32F4xx_StdPeriph_Driver/src/stm32f4xx_tim.c ****   uint16_t tmpccmr2 = 0;
 3061              		.loc 1 1418 12
 3062 000c 0023     		movs	r3, #0
 3063 000e FB81     		strh	r3, [r7, #14]	@ movhi
1419:Drivers/STM32F4xx_StdPeriph_Driver/src/stm32f4xx_tim.c ****   
1420:Drivers/STM32F4xx_StdPeriph_Driver/src/stm32f4xx_tim.c ****   /* Check the parameters */
1421:Drivers/STM32F4xx_StdPeriph_Driver/src/stm32f4xx_tim.c ****   assert_param(IS_TIM_LIST3_PERIPH(TIMx));
1422:Drivers/STM32F4xx_StdPeriph_Driver/src/stm32f4xx_tim.c ****   assert_param(IS_TIM_OCFAST_STATE(TIM_OCFast));
1423:Drivers/STM32F4xx_StdPeriph_Driver/src/stm32f4xx_tim.c **** 
1424:Drivers/STM32F4xx_StdPeriph_Driver/src/stm32f4xx_tim.c ****   /* Get the TIMx CCMR2 register value */
1425:Drivers/STM32F4xx_StdPeriph_Driver/src/stm32f4xx_tim.c ****   tmpccmr2 = TIMx->CCMR2;
 3064              		.loc 1 1425 12
 3065 0010 7B68     		ldr	r3, [r7, #4]
 3066 0012 9B8B     		ldrh	r3, [r3, #28]	@ movhi
 3067 0014 FB81     		strh	r3, [r7, #14]	@ movhi
1426:Drivers/STM32F4xx_StdPeriph_Driver/src/stm32f4xx_tim.c **** 
1427:Drivers/STM32F4xx_StdPeriph_Driver/src/stm32f4xx_tim.c ****   /* Reset the OC3FE Bit */
1428:Drivers/STM32F4xx_StdPeriph_Driver/src/stm32f4xx_tim.c ****   tmpccmr2 &= (uint16_t)~TIM_CCMR2_OC3FE;
 3068              		.loc 1 1428 12
 3069 0016 FB89     		ldrh	r3, [r7, #14]	@ movhi
 3070 0018 23F00403 		bic	r3, r3, #4
 3071 001c FB81     		strh	r3, [r7, #14]	@ movhi
1429:Drivers/STM32F4xx_StdPeriph_Driver/src/stm32f4xx_tim.c **** 
1430:Drivers/STM32F4xx_StdPeriph_Driver/src/stm32f4xx_tim.c ****   /* Enable or Disable the Output Compare Fast Bit */
1431:Drivers/STM32F4xx_StdPeriph_Driver/src/stm32f4xx_tim.c ****   tmpccmr2 |= TIM_OCFast;
 3072              		.loc 1 1431 12
 3073 001e FA89     		ldrh	r2, [r7, #14]	@ movhi
 3074 0020 7B88     		ldrh	r3, [r7, #2]	@ movhi
 3075 0022 1343     		orrs	r3, r3, r2
 3076 0024 FB81     		strh	r3, [r7, #14]	@ movhi
1432:Drivers/STM32F4xx_StdPeriph_Driver/src/stm32f4xx_tim.c **** 
1433:Drivers/STM32F4xx_StdPeriph_Driver/src/stm32f4xx_tim.c ****   /* Write to TIMx CCMR2 */
1434:Drivers/STM32F4xx_StdPeriph_Driver/src/stm32f4xx_tim.c ****   TIMx->CCMR2 = tmpccmr2;
 3077              		.loc 1 1434 15
 3078 0026 7B68     		ldr	r3, [r7, #4]
 3079 0028 FA89     		ldrh	r2, [r7, #14]	@ movhi
 3080 002a 9A83     		strh	r2, [r3, #28]	@ movhi
1435:Drivers/STM32F4xx_StdPeriph_Driver/src/stm32f4xx_tim.c **** }
 3081              		.loc 1 1435 1
 3082 002c 00BF     		nop
 3083 002e 1437     		adds	r7, r7, #20
 3084              	.LCFI212:
 3085              		.cfi_def_cfa_offset 4
 3086 0030 BD46     		mov	sp, r7
 3087              	.LCFI213:
 3088              		.cfi_def_cfa_register 13
 3089              		@ sp needed
 3090 0032 5DF8047B 		ldr	r7, [sp], #4
 3091              	.LCFI214:
 3092              		.cfi_restore 7
 3093              		.cfi_def_cfa_offset 0
 3094 0036 7047     		bx	lr
 3095              		.cfi_endproc
 3096              	.LFE165:
ARM GAS  C:\Users\Admin\AppData\Local\Temp\ccwOX7Bd.s 			page 80


 3098              		.section	.text.TIM_OC4FastConfig,"ax",%progbits
 3099              		.align	1
 3100              		.global	TIM_OC4FastConfig
 3101              		.syntax unified
 3102              		.thumb
 3103              		.thumb_func
 3105              	TIM_OC4FastConfig:
 3106              	.LFB166:
1436:Drivers/STM32F4xx_StdPeriph_Driver/src/stm32f4xx_tim.c **** 
1437:Drivers/STM32F4xx_StdPeriph_Driver/src/stm32f4xx_tim.c **** /**
1438:Drivers/STM32F4xx_StdPeriph_Driver/src/stm32f4xx_tim.c ****   * @brief  Configures the TIMx Output Compare 4 Fast feature.
1439:Drivers/STM32F4xx_StdPeriph_Driver/src/stm32f4xx_tim.c ****   * @param  TIMx: where x can be  1, 2, 3, 4, 5 or 8 to select the TIM peripheral.
1440:Drivers/STM32F4xx_StdPeriph_Driver/src/stm32f4xx_tim.c ****   * @param  TIM_OCFast: new state of the Output Compare Fast Enable Bit.
1441:Drivers/STM32F4xx_StdPeriph_Driver/src/stm32f4xx_tim.c ****   *          This parameter can be one of the following values:
1442:Drivers/STM32F4xx_StdPeriph_Driver/src/stm32f4xx_tim.c ****   *            @arg TIM_OCFast_Enable: TIM output compare fast enable
1443:Drivers/STM32F4xx_StdPeriph_Driver/src/stm32f4xx_tim.c ****   *            @arg TIM_OCFast_Disable: TIM output compare fast disable
1444:Drivers/STM32F4xx_StdPeriph_Driver/src/stm32f4xx_tim.c ****   * @retval None
1445:Drivers/STM32F4xx_StdPeriph_Driver/src/stm32f4xx_tim.c ****   */
1446:Drivers/STM32F4xx_StdPeriph_Driver/src/stm32f4xx_tim.c **** void TIM_OC4FastConfig(TIM_TypeDef* TIMx, uint16_t TIM_OCFast)
1447:Drivers/STM32F4xx_StdPeriph_Driver/src/stm32f4xx_tim.c **** {
 3107              		.loc 1 1447 1
 3108              		.cfi_startproc
 3109              		@ args = 0, pretend = 0, frame = 16
 3110              		@ frame_needed = 1, uses_anonymous_args = 0
 3111              		@ link register save eliminated.
 3112 0000 80B4     		push	{r7}
 3113              	.LCFI215:
 3114              		.cfi_def_cfa_offset 4
 3115              		.cfi_offset 7, -4
 3116 0002 85B0     		sub	sp, sp, #20
 3117              	.LCFI216:
 3118              		.cfi_def_cfa_offset 24
 3119 0004 00AF     		add	r7, sp, #0
 3120              	.LCFI217:
 3121              		.cfi_def_cfa_register 7
 3122 0006 7860     		str	r0, [r7, #4]
 3123 0008 0B46     		mov	r3, r1
 3124 000a 7B80     		strh	r3, [r7, #2]	@ movhi
1448:Drivers/STM32F4xx_StdPeriph_Driver/src/stm32f4xx_tim.c ****   uint16_t tmpccmr2 = 0;
 3125              		.loc 1 1448 12
 3126 000c 0023     		movs	r3, #0
 3127 000e FB81     		strh	r3, [r7, #14]	@ movhi
1449:Drivers/STM32F4xx_StdPeriph_Driver/src/stm32f4xx_tim.c **** 
1450:Drivers/STM32F4xx_StdPeriph_Driver/src/stm32f4xx_tim.c ****   /* Check the parameters */
1451:Drivers/STM32F4xx_StdPeriph_Driver/src/stm32f4xx_tim.c ****   assert_param(IS_TIM_LIST3_PERIPH(TIMx));
1452:Drivers/STM32F4xx_StdPeriph_Driver/src/stm32f4xx_tim.c ****   assert_param(IS_TIM_OCFAST_STATE(TIM_OCFast));
1453:Drivers/STM32F4xx_StdPeriph_Driver/src/stm32f4xx_tim.c **** 
1454:Drivers/STM32F4xx_StdPeriph_Driver/src/stm32f4xx_tim.c ****   /* Get the TIMx CCMR2 register value */
1455:Drivers/STM32F4xx_StdPeriph_Driver/src/stm32f4xx_tim.c ****   tmpccmr2 = TIMx->CCMR2;
 3128              		.loc 1 1455 12
 3129 0010 7B68     		ldr	r3, [r7, #4]
 3130 0012 9B8B     		ldrh	r3, [r3, #28]	@ movhi
 3131 0014 FB81     		strh	r3, [r7, #14]	@ movhi
1456:Drivers/STM32F4xx_StdPeriph_Driver/src/stm32f4xx_tim.c **** 
1457:Drivers/STM32F4xx_StdPeriph_Driver/src/stm32f4xx_tim.c ****   /* Reset the OC4FE Bit */
1458:Drivers/STM32F4xx_StdPeriph_Driver/src/stm32f4xx_tim.c ****   tmpccmr2 &= (uint16_t)(~TIM_CCMR2_OC4FE);
 3132              		.loc 1 1458 12
ARM GAS  C:\Users\Admin\AppData\Local\Temp\ccwOX7Bd.s 			page 81


 3133 0016 FB89     		ldrh	r3, [r7, #14]	@ movhi
 3134 0018 23F48063 		bic	r3, r3, #1024
 3135 001c FB81     		strh	r3, [r7, #14]	@ movhi
1459:Drivers/STM32F4xx_StdPeriph_Driver/src/stm32f4xx_tim.c **** 
1460:Drivers/STM32F4xx_StdPeriph_Driver/src/stm32f4xx_tim.c ****   /* Enable or Disable the Output Compare Fast Bit */
1461:Drivers/STM32F4xx_StdPeriph_Driver/src/stm32f4xx_tim.c ****   tmpccmr2 |= (uint16_t)(TIM_OCFast << 8);
 3136              		.loc 1 1461 15
 3137 001e 7B88     		ldrh	r3, [r7, #2]	@ movhi
 3138 0020 1B02     		lsls	r3, r3, #8
 3139 0022 9AB2     		uxth	r2, r3
 3140              		.loc 1 1461 12
 3141 0024 FB89     		ldrh	r3, [r7, #14]	@ movhi
 3142 0026 1343     		orrs	r3, r3, r2
 3143 0028 FB81     		strh	r3, [r7, #14]	@ movhi
1462:Drivers/STM32F4xx_StdPeriph_Driver/src/stm32f4xx_tim.c **** 
1463:Drivers/STM32F4xx_StdPeriph_Driver/src/stm32f4xx_tim.c ****   /* Write to TIMx CCMR2 */
1464:Drivers/STM32F4xx_StdPeriph_Driver/src/stm32f4xx_tim.c ****   TIMx->CCMR2 = tmpccmr2;
 3144              		.loc 1 1464 15
 3145 002a 7B68     		ldr	r3, [r7, #4]
 3146 002c FA89     		ldrh	r2, [r7, #14]	@ movhi
 3147 002e 9A83     		strh	r2, [r3, #28]	@ movhi
1465:Drivers/STM32F4xx_StdPeriph_Driver/src/stm32f4xx_tim.c **** }
 3148              		.loc 1 1465 1
 3149 0030 00BF     		nop
 3150 0032 1437     		adds	r7, r7, #20
 3151              	.LCFI218:
 3152              		.cfi_def_cfa_offset 4
 3153 0034 BD46     		mov	sp, r7
 3154              	.LCFI219:
 3155              		.cfi_def_cfa_register 13
 3156              		@ sp needed
 3157 0036 5DF8047B 		ldr	r7, [sp], #4
 3158              	.LCFI220:
 3159              		.cfi_restore 7
 3160              		.cfi_def_cfa_offset 0
 3161 003a 7047     		bx	lr
 3162              		.cfi_endproc
 3163              	.LFE166:
 3165              		.section	.text.TIM_ClearOC1Ref,"ax",%progbits
 3166              		.align	1
 3167              		.global	TIM_ClearOC1Ref
 3168              		.syntax unified
 3169              		.thumb
 3170              		.thumb_func
 3172              	TIM_ClearOC1Ref:
 3173              	.LFB167:
1466:Drivers/STM32F4xx_StdPeriph_Driver/src/stm32f4xx_tim.c **** 
1467:Drivers/STM32F4xx_StdPeriph_Driver/src/stm32f4xx_tim.c **** /**
1468:Drivers/STM32F4xx_StdPeriph_Driver/src/stm32f4xx_tim.c ****   * @brief  Clears or safeguards the OCREF1 signal on an external event
1469:Drivers/STM32F4xx_StdPeriph_Driver/src/stm32f4xx_tim.c ****   * @param  TIMx: where x can be 1 to 14 except 6 and 7, to select the TIM peripheral.
1470:Drivers/STM32F4xx_StdPeriph_Driver/src/stm32f4xx_tim.c ****   * @param  TIM_OCClear: new state of the Output Compare Clear Enable Bit.
1471:Drivers/STM32F4xx_StdPeriph_Driver/src/stm32f4xx_tim.c ****   *          This parameter can be one of the following values:
1472:Drivers/STM32F4xx_StdPeriph_Driver/src/stm32f4xx_tim.c ****   *            @arg TIM_OCClear_Enable: TIM Output clear enable
1473:Drivers/STM32F4xx_StdPeriph_Driver/src/stm32f4xx_tim.c ****   *            @arg TIM_OCClear_Disable: TIM Output clear disable
1474:Drivers/STM32F4xx_StdPeriph_Driver/src/stm32f4xx_tim.c ****   * @retval None
1475:Drivers/STM32F4xx_StdPeriph_Driver/src/stm32f4xx_tim.c ****   */
1476:Drivers/STM32F4xx_StdPeriph_Driver/src/stm32f4xx_tim.c **** void TIM_ClearOC1Ref(TIM_TypeDef* TIMx, uint16_t TIM_OCClear)
ARM GAS  C:\Users\Admin\AppData\Local\Temp\ccwOX7Bd.s 			page 82


1477:Drivers/STM32F4xx_StdPeriph_Driver/src/stm32f4xx_tim.c **** {
 3174              		.loc 1 1477 1
 3175              		.cfi_startproc
 3176              		@ args = 0, pretend = 0, frame = 16
 3177              		@ frame_needed = 1, uses_anonymous_args = 0
 3178              		@ link register save eliminated.
 3179 0000 80B4     		push	{r7}
 3180              	.LCFI221:
 3181              		.cfi_def_cfa_offset 4
 3182              		.cfi_offset 7, -4
 3183 0002 85B0     		sub	sp, sp, #20
 3184              	.LCFI222:
 3185              		.cfi_def_cfa_offset 24
 3186 0004 00AF     		add	r7, sp, #0
 3187              	.LCFI223:
 3188              		.cfi_def_cfa_register 7
 3189 0006 7860     		str	r0, [r7, #4]
 3190 0008 0B46     		mov	r3, r1
 3191 000a 7B80     		strh	r3, [r7, #2]	@ movhi
1478:Drivers/STM32F4xx_StdPeriph_Driver/src/stm32f4xx_tim.c ****   uint16_t tmpccmr1 = 0;
 3192              		.loc 1 1478 12
 3193 000c 0023     		movs	r3, #0
 3194 000e FB81     		strh	r3, [r7, #14]	@ movhi
1479:Drivers/STM32F4xx_StdPeriph_Driver/src/stm32f4xx_tim.c **** 
1480:Drivers/STM32F4xx_StdPeriph_Driver/src/stm32f4xx_tim.c ****   /* Check the parameters */
1481:Drivers/STM32F4xx_StdPeriph_Driver/src/stm32f4xx_tim.c ****   assert_param(IS_TIM_LIST1_PERIPH(TIMx));
1482:Drivers/STM32F4xx_StdPeriph_Driver/src/stm32f4xx_tim.c ****   assert_param(IS_TIM_OCCLEAR_STATE(TIM_OCClear));
1483:Drivers/STM32F4xx_StdPeriph_Driver/src/stm32f4xx_tim.c **** 
1484:Drivers/STM32F4xx_StdPeriph_Driver/src/stm32f4xx_tim.c ****   tmpccmr1 = TIMx->CCMR1;
 3195              		.loc 1 1484 12
 3196 0010 7B68     		ldr	r3, [r7, #4]
 3197 0012 1B8B     		ldrh	r3, [r3, #24]	@ movhi
 3198 0014 FB81     		strh	r3, [r7, #14]	@ movhi
1485:Drivers/STM32F4xx_StdPeriph_Driver/src/stm32f4xx_tim.c **** 
1486:Drivers/STM32F4xx_StdPeriph_Driver/src/stm32f4xx_tim.c ****   /* Reset the OC1CE Bit */
1487:Drivers/STM32F4xx_StdPeriph_Driver/src/stm32f4xx_tim.c ****   tmpccmr1 &= (uint16_t)~TIM_CCMR1_OC1CE;
 3199              		.loc 1 1487 12
 3200 0016 FB89     		ldrh	r3, [r7, #14]	@ movhi
 3201 0018 23F08003 		bic	r3, r3, #128
 3202 001c FB81     		strh	r3, [r7, #14]	@ movhi
1488:Drivers/STM32F4xx_StdPeriph_Driver/src/stm32f4xx_tim.c **** 
1489:Drivers/STM32F4xx_StdPeriph_Driver/src/stm32f4xx_tim.c ****   /* Enable or Disable the Output Compare Clear Bit */
1490:Drivers/STM32F4xx_StdPeriph_Driver/src/stm32f4xx_tim.c ****   tmpccmr1 |= TIM_OCClear;
 3203              		.loc 1 1490 12
 3204 001e FA89     		ldrh	r2, [r7, #14]	@ movhi
 3205 0020 7B88     		ldrh	r3, [r7, #2]	@ movhi
 3206 0022 1343     		orrs	r3, r3, r2
 3207 0024 FB81     		strh	r3, [r7, #14]	@ movhi
1491:Drivers/STM32F4xx_StdPeriph_Driver/src/stm32f4xx_tim.c **** 
1492:Drivers/STM32F4xx_StdPeriph_Driver/src/stm32f4xx_tim.c ****   /* Write to TIMx CCMR1 register */
1493:Drivers/STM32F4xx_StdPeriph_Driver/src/stm32f4xx_tim.c ****   TIMx->CCMR1 = tmpccmr1;
 3208              		.loc 1 1493 15
 3209 0026 7B68     		ldr	r3, [r7, #4]
 3210 0028 FA89     		ldrh	r2, [r7, #14]	@ movhi
 3211 002a 1A83     		strh	r2, [r3, #24]	@ movhi
1494:Drivers/STM32F4xx_StdPeriph_Driver/src/stm32f4xx_tim.c **** }
 3212              		.loc 1 1494 1
ARM GAS  C:\Users\Admin\AppData\Local\Temp\ccwOX7Bd.s 			page 83


 3213 002c 00BF     		nop
 3214 002e 1437     		adds	r7, r7, #20
 3215              	.LCFI224:
 3216              		.cfi_def_cfa_offset 4
 3217 0030 BD46     		mov	sp, r7
 3218              	.LCFI225:
 3219              		.cfi_def_cfa_register 13
 3220              		@ sp needed
 3221 0032 5DF8047B 		ldr	r7, [sp], #4
 3222              	.LCFI226:
 3223              		.cfi_restore 7
 3224              		.cfi_def_cfa_offset 0
 3225 0036 7047     		bx	lr
 3226              		.cfi_endproc
 3227              	.LFE167:
 3229              		.section	.text.TIM_ClearOC2Ref,"ax",%progbits
 3230              		.align	1
 3231              		.global	TIM_ClearOC2Ref
 3232              		.syntax unified
 3233              		.thumb
 3234              		.thumb_func
 3236              	TIM_ClearOC2Ref:
 3237              	.LFB168:
1495:Drivers/STM32F4xx_StdPeriph_Driver/src/stm32f4xx_tim.c **** 
1496:Drivers/STM32F4xx_StdPeriph_Driver/src/stm32f4xx_tim.c **** /**
1497:Drivers/STM32F4xx_StdPeriph_Driver/src/stm32f4xx_tim.c ****   * @brief  Clears or safeguards the OCREF2 signal on an external event
1498:Drivers/STM32F4xx_StdPeriph_Driver/src/stm32f4xx_tim.c ****   * @param  TIMx: where x can be  1, 2, 3, 4, 5, 8, 9 or 12 to select the TIM 
1499:Drivers/STM32F4xx_StdPeriph_Driver/src/stm32f4xx_tim.c ****   *         peripheral.
1500:Drivers/STM32F4xx_StdPeriph_Driver/src/stm32f4xx_tim.c ****   * @param  TIM_OCClear: new state of the Output Compare Clear Enable Bit.
1501:Drivers/STM32F4xx_StdPeriph_Driver/src/stm32f4xx_tim.c ****   *          This parameter can be one of the following values:
1502:Drivers/STM32F4xx_StdPeriph_Driver/src/stm32f4xx_tim.c ****   *            @arg TIM_OCClear_Enable: TIM Output clear enable
1503:Drivers/STM32F4xx_StdPeriph_Driver/src/stm32f4xx_tim.c ****   *            @arg TIM_OCClear_Disable: TIM Output clear disable
1504:Drivers/STM32F4xx_StdPeriph_Driver/src/stm32f4xx_tim.c ****   * @retval None
1505:Drivers/STM32F4xx_StdPeriph_Driver/src/stm32f4xx_tim.c ****   */
1506:Drivers/STM32F4xx_StdPeriph_Driver/src/stm32f4xx_tim.c **** void TIM_ClearOC2Ref(TIM_TypeDef* TIMx, uint16_t TIM_OCClear)
1507:Drivers/STM32F4xx_StdPeriph_Driver/src/stm32f4xx_tim.c **** {
 3238              		.loc 1 1507 1
 3239              		.cfi_startproc
 3240              		@ args = 0, pretend = 0, frame = 16
 3241              		@ frame_needed = 1, uses_anonymous_args = 0
 3242              		@ link register save eliminated.
 3243 0000 80B4     		push	{r7}
 3244              	.LCFI227:
 3245              		.cfi_def_cfa_offset 4
 3246              		.cfi_offset 7, -4
 3247 0002 85B0     		sub	sp, sp, #20
 3248              	.LCFI228:
 3249              		.cfi_def_cfa_offset 24
 3250 0004 00AF     		add	r7, sp, #0
 3251              	.LCFI229:
 3252              		.cfi_def_cfa_register 7
 3253 0006 7860     		str	r0, [r7, #4]
 3254 0008 0B46     		mov	r3, r1
 3255 000a 7B80     		strh	r3, [r7, #2]	@ movhi
1508:Drivers/STM32F4xx_StdPeriph_Driver/src/stm32f4xx_tim.c ****   uint16_t tmpccmr1 = 0;
 3256              		.loc 1 1508 12
 3257 000c 0023     		movs	r3, #0
ARM GAS  C:\Users\Admin\AppData\Local\Temp\ccwOX7Bd.s 			page 84


 3258 000e FB81     		strh	r3, [r7, #14]	@ movhi
1509:Drivers/STM32F4xx_StdPeriph_Driver/src/stm32f4xx_tim.c **** 
1510:Drivers/STM32F4xx_StdPeriph_Driver/src/stm32f4xx_tim.c ****   /* Check the parameters */
1511:Drivers/STM32F4xx_StdPeriph_Driver/src/stm32f4xx_tim.c ****   assert_param(IS_TIM_LIST2_PERIPH(TIMx));
1512:Drivers/STM32F4xx_StdPeriph_Driver/src/stm32f4xx_tim.c ****   assert_param(IS_TIM_OCCLEAR_STATE(TIM_OCClear));
1513:Drivers/STM32F4xx_StdPeriph_Driver/src/stm32f4xx_tim.c **** 
1514:Drivers/STM32F4xx_StdPeriph_Driver/src/stm32f4xx_tim.c ****   tmpccmr1 = TIMx->CCMR1;
 3259              		.loc 1 1514 12
 3260 0010 7B68     		ldr	r3, [r7, #4]
 3261 0012 1B8B     		ldrh	r3, [r3, #24]	@ movhi
 3262 0014 FB81     		strh	r3, [r7, #14]	@ movhi
1515:Drivers/STM32F4xx_StdPeriph_Driver/src/stm32f4xx_tim.c **** 
1516:Drivers/STM32F4xx_StdPeriph_Driver/src/stm32f4xx_tim.c ****   /* Reset the OC2CE Bit */
1517:Drivers/STM32F4xx_StdPeriph_Driver/src/stm32f4xx_tim.c ****   tmpccmr1 &= (uint16_t)~TIM_CCMR1_OC2CE;
 3263              		.loc 1 1517 12
 3264 0016 FB89     		ldrh	r3, [r7, #14]	@ movhi
 3265 0018 C3F30E03 		ubfx	r3, r3, #0, #15
 3266 001c FB81     		strh	r3, [r7, #14]	@ movhi
1518:Drivers/STM32F4xx_StdPeriph_Driver/src/stm32f4xx_tim.c **** 
1519:Drivers/STM32F4xx_StdPeriph_Driver/src/stm32f4xx_tim.c ****   /* Enable or Disable the Output Compare Clear Bit */
1520:Drivers/STM32F4xx_StdPeriph_Driver/src/stm32f4xx_tim.c ****   tmpccmr1 |= (uint16_t)(TIM_OCClear << 8);
 3267              		.loc 1 1520 15
 3268 001e 7B88     		ldrh	r3, [r7, #2]	@ movhi
 3269 0020 1B02     		lsls	r3, r3, #8
 3270 0022 9AB2     		uxth	r2, r3
 3271              		.loc 1 1520 12
 3272 0024 FB89     		ldrh	r3, [r7, #14]	@ movhi
 3273 0026 1343     		orrs	r3, r3, r2
 3274 0028 FB81     		strh	r3, [r7, #14]	@ movhi
1521:Drivers/STM32F4xx_StdPeriph_Driver/src/stm32f4xx_tim.c **** 
1522:Drivers/STM32F4xx_StdPeriph_Driver/src/stm32f4xx_tim.c ****   /* Write to TIMx CCMR1 register */
1523:Drivers/STM32F4xx_StdPeriph_Driver/src/stm32f4xx_tim.c ****   TIMx->CCMR1 = tmpccmr1;
 3275              		.loc 1 1523 15
 3276 002a 7B68     		ldr	r3, [r7, #4]
 3277 002c FA89     		ldrh	r2, [r7, #14]	@ movhi
 3278 002e 1A83     		strh	r2, [r3, #24]	@ movhi
1524:Drivers/STM32F4xx_StdPeriph_Driver/src/stm32f4xx_tim.c **** }
 3279              		.loc 1 1524 1
 3280 0030 00BF     		nop
 3281 0032 1437     		adds	r7, r7, #20
 3282              	.LCFI230:
 3283              		.cfi_def_cfa_offset 4
 3284 0034 BD46     		mov	sp, r7
 3285              	.LCFI231:
 3286              		.cfi_def_cfa_register 13
 3287              		@ sp needed
 3288 0036 5DF8047B 		ldr	r7, [sp], #4
 3289              	.LCFI232:
 3290              		.cfi_restore 7
 3291              		.cfi_def_cfa_offset 0
 3292 003a 7047     		bx	lr
 3293              		.cfi_endproc
 3294              	.LFE168:
 3296              		.section	.text.TIM_ClearOC3Ref,"ax",%progbits
 3297              		.align	1
 3298              		.global	TIM_ClearOC3Ref
 3299              		.syntax unified
ARM GAS  C:\Users\Admin\AppData\Local\Temp\ccwOX7Bd.s 			page 85


 3300              		.thumb
 3301              		.thumb_func
 3303              	TIM_ClearOC3Ref:
 3304              	.LFB169:
1525:Drivers/STM32F4xx_StdPeriph_Driver/src/stm32f4xx_tim.c **** 
1526:Drivers/STM32F4xx_StdPeriph_Driver/src/stm32f4xx_tim.c **** /**
1527:Drivers/STM32F4xx_StdPeriph_Driver/src/stm32f4xx_tim.c ****   * @brief  Clears or safeguards the OCREF3 signal on an external event
1528:Drivers/STM32F4xx_StdPeriph_Driver/src/stm32f4xx_tim.c ****   * @param  TIMx: where x can be  1, 2, 3, 4, 5 or 8 to select the TIM peripheral.
1529:Drivers/STM32F4xx_StdPeriph_Driver/src/stm32f4xx_tim.c ****   * @param  TIM_OCClear: new state of the Output Compare Clear Enable Bit.
1530:Drivers/STM32F4xx_StdPeriph_Driver/src/stm32f4xx_tim.c ****   *          This parameter can be one of the following values:
1531:Drivers/STM32F4xx_StdPeriph_Driver/src/stm32f4xx_tim.c ****   *            @arg TIM_OCClear_Enable: TIM Output clear enable
1532:Drivers/STM32F4xx_StdPeriph_Driver/src/stm32f4xx_tim.c ****   *            @arg TIM_OCClear_Disable: TIM Output clear disable
1533:Drivers/STM32F4xx_StdPeriph_Driver/src/stm32f4xx_tim.c ****   * @retval None
1534:Drivers/STM32F4xx_StdPeriph_Driver/src/stm32f4xx_tim.c ****   */
1535:Drivers/STM32F4xx_StdPeriph_Driver/src/stm32f4xx_tim.c **** void TIM_ClearOC3Ref(TIM_TypeDef* TIMx, uint16_t TIM_OCClear)
1536:Drivers/STM32F4xx_StdPeriph_Driver/src/stm32f4xx_tim.c **** {
 3305              		.loc 1 1536 1
 3306              		.cfi_startproc
 3307              		@ args = 0, pretend = 0, frame = 16
 3308              		@ frame_needed = 1, uses_anonymous_args = 0
 3309              		@ link register save eliminated.
 3310 0000 80B4     		push	{r7}
 3311              	.LCFI233:
 3312              		.cfi_def_cfa_offset 4
 3313              		.cfi_offset 7, -4
 3314 0002 85B0     		sub	sp, sp, #20
 3315              	.LCFI234:
 3316              		.cfi_def_cfa_offset 24
 3317 0004 00AF     		add	r7, sp, #0
 3318              	.LCFI235:
 3319              		.cfi_def_cfa_register 7
 3320 0006 7860     		str	r0, [r7, #4]
 3321 0008 0B46     		mov	r3, r1
 3322 000a 7B80     		strh	r3, [r7, #2]	@ movhi
1537:Drivers/STM32F4xx_StdPeriph_Driver/src/stm32f4xx_tim.c ****   uint16_t tmpccmr2 = 0;
 3323              		.loc 1 1537 12
 3324 000c 0023     		movs	r3, #0
 3325 000e FB81     		strh	r3, [r7, #14]	@ movhi
1538:Drivers/STM32F4xx_StdPeriph_Driver/src/stm32f4xx_tim.c **** 
1539:Drivers/STM32F4xx_StdPeriph_Driver/src/stm32f4xx_tim.c ****   /* Check the parameters */
1540:Drivers/STM32F4xx_StdPeriph_Driver/src/stm32f4xx_tim.c ****   assert_param(IS_TIM_LIST3_PERIPH(TIMx));
1541:Drivers/STM32F4xx_StdPeriph_Driver/src/stm32f4xx_tim.c ****   assert_param(IS_TIM_OCCLEAR_STATE(TIM_OCClear));
1542:Drivers/STM32F4xx_StdPeriph_Driver/src/stm32f4xx_tim.c **** 
1543:Drivers/STM32F4xx_StdPeriph_Driver/src/stm32f4xx_tim.c ****   tmpccmr2 = TIMx->CCMR2;
 3326              		.loc 1 1543 12
 3327 0010 7B68     		ldr	r3, [r7, #4]
 3328 0012 9B8B     		ldrh	r3, [r3, #28]	@ movhi
 3329 0014 FB81     		strh	r3, [r7, #14]	@ movhi
1544:Drivers/STM32F4xx_StdPeriph_Driver/src/stm32f4xx_tim.c **** 
1545:Drivers/STM32F4xx_StdPeriph_Driver/src/stm32f4xx_tim.c ****   /* Reset the OC3CE Bit */
1546:Drivers/STM32F4xx_StdPeriph_Driver/src/stm32f4xx_tim.c ****   tmpccmr2 &= (uint16_t)~TIM_CCMR2_OC3CE;
 3330              		.loc 1 1546 12
 3331 0016 FB89     		ldrh	r3, [r7, #14]	@ movhi
 3332 0018 23F08003 		bic	r3, r3, #128
 3333 001c FB81     		strh	r3, [r7, #14]	@ movhi
1547:Drivers/STM32F4xx_StdPeriph_Driver/src/stm32f4xx_tim.c **** 
1548:Drivers/STM32F4xx_StdPeriph_Driver/src/stm32f4xx_tim.c ****   /* Enable or Disable the Output Compare Clear Bit */
ARM GAS  C:\Users\Admin\AppData\Local\Temp\ccwOX7Bd.s 			page 86


1549:Drivers/STM32F4xx_StdPeriph_Driver/src/stm32f4xx_tim.c ****   tmpccmr2 |= TIM_OCClear;
 3334              		.loc 1 1549 12
 3335 001e FA89     		ldrh	r2, [r7, #14]	@ movhi
 3336 0020 7B88     		ldrh	r3, [r7, #2]	@ movhi
 3337 0022 1343     		orrs	r3, r3, r2
 3338 0024 FB81     		strh	r3, [r7, #14]	@ movhi
1550:Drivers/STM32F4xx_StdPeriph_Driver/src/stm32f4xx_tim.c **** 
1551:Drivers/STM32F4xx_StdPeriph_Driver/src/stm32f4xx_tim.c ****   /* Write to TIMx CCMR2 register */
1552:Drivers/STM32F4xx_StdPeriph_Driver/src/stm32f4xx_tim.c ****   TIMx->CCMR2 = tmpccmr2;
 3339              		.loc 1 1552 15
 3340 0026 7B68     		ldr	r3, [r7, #4]
 3341 0028 FA89     		ldrh	r2, [r7, #14]	@ movhi
 3342 002a 9A83     		strh	r2, [r3, #28]	@ movhi
1553:Drivers/STM32F4xx_StdPeriph_Driver/src/stm32f4xx_tim.c **** }
 3343              		.loc 1 1553 1
 3344 002c 00BF     		nop
 3345 002e 1437     		adds	r7, r7, #20
 3346              	.LCFI236:
 3347              		.cfi_def_cfa_offset 4
 3348 0030 BD46     		mov	sp, r7
 3349              	.LCFI237:
 3350              		.cfi_def_cfa_register 13
 3351              		@ sp needed
 3352 0032 5DF8047B 		ldr	r7, [sp], #4
 3353              	.LCFI238:
 3354              		.cfi_restore 7
 3355              		.cfi_def_cfa_offset 0
 3356 0036 7047     		bx	lr
 3357              		.cfi_endproc
 3358              	.LFE169:
 3360              		.section	.text.TIM_ClearOC4Ref,"ax",%progbits
 3361              		.align	1
 3362              		.global	TIM_ClearOC4Ref
 3363              		.syntax unified
 3364              		.thumb
 3365              		.thumb_func
 3367              	TIM_ClearOC4Ref:
 3368              	.LFB170:
1554:Drivers/STM32F4xx_StdPeriph_Driver/src/stm32f4xx_tim.c **** 
1555:Drivers/STM32F4xx_StdPeriph_Driver/src/stm32f4xx_tim.c **** /**
1556:Drivers/STM32F4xx_StdPeriph_Driver/src/stm32f4xx_tim.c ****   * @brief  Clears or safeguards the OCREF4 signal on an external event
1557:Drivers/STM32F4xx_StdPeriph_Driver/src/stm32f4xx_tim.c ****   * @param  TIMx: where x can be  1, 2, 3, 4, 5 or 8 to select the TIM peripheral.
1558:Drivers/STM32F4xx_StdPeriph_Driver/src/stm32f4xx_tim.c ****   * @param  TIM_OCClear: new state of the Output Compare Clear Enable Bit.
1559:Drivers/STM32F4xx_StdPeriph_Driver/src/stm32f4xx_tim.c ****   *          This parameter can be one of the following values:
1560:Drivers/STM32F4xx_StdPeriph_Driver/src/stm32f4xx_tim.c ****   *            @arg TIM_OCClear_Enable: TIM Output clear enable
1561:Drivers/STM32F4xx_StdPeriph_Driver/src/stm32f4xx_tim.c ****   *            @arg TIM_OCClear_Disable: TIM Output clear disable
1562:Drivers/STM32F4xx_StdPeriph_Driver/src/stm32f4xx_tim.c ****   * @retval None
1563:Drivers/STM32F4xx_StdPeriph_Driver/src/stm32f4xx_tim.c ****   */
1564:Drivers/STM32F4xx_StdPeriph_Driver/src/stm32f4xx_tim.c **** void TIM_ClearOC4Ref(TIM_TypeDef* TIMx, uint16_t TIM_OCClear)
1565:Drivers/STM32F4xx_StdPeriph_Driver/src/stm32f4xx_tim.c **** {
 3369              		.loc 1 1565 1
 3370              		.cfi_startproc
 3371              		@ args = 0, pretend = 0, frame = 16
 3372              		@ frame_needed = 1, uses_anonymous_args = 0
 3373              		@ link register save eliminated.
 3374 0000 80B4     		push	{r7}
 3375              	.LCFI239:
ARM GAS  C:\Users\Admin\AppData\Local\Temp\ccwOX7Bd.s 			page 87


 3376              		.cfi_def_cfa_offset 4
 3377              		.cfi_offset 7, -4
 3378 0002 85B0     		sub	sp, sp, #20
 3379              	.LCFI240:
 3380              		.cfi_def_cfa_offset 24
 3381 0004 00AF     		add	r7, sp, #0
 3382              	.LCFI241:
 3383              		.cfi_def_cfa_register 7
 3384 0006 7860     		str	r0, [r7, #4]
 3385 0008 0B46     		mov	r3, r1
 3386 000a 7B80     		strh	r3, [r7, #2]	@ movhi
1566:Drivers/STM32F4xx_StdPeriph_Driver/src/stm32f4xx_tim.c ****   uint16_t tmpccmr2 = 0;
 3387              		.loc 1 1566 12
 3388 000c 0023     		movs	r3, #0
 3389 000e FB81     		strh	r3, [r7, #14]	@ movhi
1567:Drivers/STM32F4xx_StdPeriph_Driver/src/stm32f4xx_tim.c **** 
1568:Drivers/STM32F4xx_StdPeriph_Driver/src/stm32f4xx_tim.c ****   /* Check the parameters */
1569:Drivers/STM32F4xx_StdPeriph_Driver/src/stm32f4xx_tim.c ****   assert_param(IS_TIM_LIST3_PERIPH(TIMx));
1570:Drivers/STM32F4xx_StdPeriph_Driver/src/stm32f4xx_tim.c ****   assert_param(IS_TIM_OCCLEAR_STATE(TIM_OCClear));
1571:Drivers/STM32F4xx_StdPeriph_Driver/src/stm32f4xx_tim.c **** 
1572:Drivers/STM32F4xx_StdPeriph_Driver/src/stm32f4xx_tim.c ****   tmpccmr2 = TIMx->CCMR2;
 3390              		.loc 1 1572 12
 3391 0010 7B68     		ldr	r3, [r7, #4]
 3392 0012 9B8B     		ldrh	r3, [r3, #28]	@ movhi
 3393 0014 FB81     		strh	r3, [r7, #14]	@ movhi
1573:Drivers/STM32F4xx_StdPeriph_Driver/src/stm32f4xx_tim.c **** 
1574:Drivers/STM32F4xx_StdPeriph_Driver/src/stm32f4xx_tim.c ****   /* Reset the OC4CE Bit */
1575:Drivers/STM32F4xx_StdPeriph_Driver/src/stm32f4xx_tim.c ****   tmpccmr2 &= (uint16_t)~TIM_CCMR2_OC4CE;
 3394              		.loc 1 1575 12
 3395 0016 FB89     		ldrh	r3, [r7, #14]	@ movhi
 3396 0018 C3F30E03 		ubfx	r3, r3, #0, #15
 3397 001c FB81     		strh	r3, [r7, #14]	@ movhi
1576:Drivers/STM32F4xx_StdPeriph_Driver/src/stm32f4xx_tim.c **** 
1577:Drivers/STM32F4xx_StdPeriph_Driver/src/stm32f4xx_tim.c ****   /* Enable or Disable the Output Compare Clear Bit */
1578:Drivers/STM32F4xx_StdPeriph_Driver/src/stm32f4xx_tim.c ****   tmpccmr2 |= (uint16_t)(TIM_OCClear << 8);
 3398              		.loc 1 1578 15
 3399 001e 7B88     		ldrh	r3, [r7, #2]	@ movhi
 3400 0020 1B02     		lsls	r3, r3, #8
 3401 0022 9AB2     		uxth	r2, r3
 3402              		.loc 1 1578 12
 3403 0024 FB89     		ldrh	r3, [r7, #14]	@ movhi
 3404 0026 1343     		orrs	r3, r3, r2
 3405 0028 FB81     		strh	r3, [r7, #14]	@ movhi
1579:Drivers/STM32F4xx_StdPeriph_Driver/src/stm32f4xx_tim.c **** 
1580:Drivers/STM32F4xx_StdPeriph_Driver/src/stm32f4xx_tim.c ****   /* Write to TIMx CCMR2 register */
1581:Drivers/STM32F4xx_StdPeriph_Driver/src/stm32f4xx_tim.c ****   TIMx->CCMR2 = tmpccmr2;
 3406              		.loc 1 1581 15
 3407 002a 7B68     		ldr	r3, [r7, #4]
 3408 002c FA89     		ldrh	r2, [r7, #14]	@ movhi
 3409 002e 9A83     		strh	r2, [r3, #28]	@ movhi
1582:Drivers/STM32F4xx_StdPeriph_Driver/src/stm32f4xx_tim.c **** }
 3410              		.loc 1 1582 1
 3411 0030 00BF     		nop
 3412 0032 1437     		adds	r7, r7, #20
 3413              	.LCFI242:
 3414              		.cfi_def_cfa_offset 4
 3415 0034 BD46     		mov	sp, r7
ARM GAS  C:\Users\Admin\AppData\Local\Temp\ccwOX7Bd.s 			page 88


 3416              	.LCFI243:
 3417              		.cfi_def_cfa_register 13
 3418              		@ sp needed
 3419 0036 5DF8047B 		ldr	r7, [sp], #4
 3420              	.LCFI244:
 3421              		.cfi_restore 7
 3422              		.cfi_def_cfa_offset 0
 3423 003a 7047     		bx	lr
 3424              		.cfi_endproc
 3425              	.LFE170:
 3427              		.section	.text.TIM_OC1PolarityConfig,"ax",%progbits
 3428              		.align	1
 3429              		.global	TIM_OC1PolarityConfig
 3430              		.syntax unified
 3431              		.thumb
 3432              		.thumb_func
 3434              	TIM_OC1PolarityConfig:
 3435              	.LFB171:
1583:Drivers/STM32F4xx_StdPeriph_Driver/src/stm32f4xx_tim.c **** 
1584:Drivers/STM32F4xx_StdPeriph_Driver/src/stm32f4xx_tim.c **** /**
1585:Drivers/STM32F4xx_StdPeriph_Driver/src/stm32f4xx_tim.c ****   * @brief  Configures the TIMx channel 1 polarity.
1586:Drivers/STM32F4xx_StdPeriph_Driver/src/stm32f4xx_tim.c ****   * @param  TIMx: where x can be 1 to 14 except 6 and 7, to select the TIM peripheral.
1587:Drivers/STM32F4xx_StdPeriph_Driver/src/stm32f4xx_tim.c ****   * @param  TIM_OCPolarity: specifies the OC1 Polarity
1588:Drivers/STM32F4xx_StdPeriph_Driver/src/stm32f4xx_tim.c ****   *          This parameter can be one of the following values:
1589:Drivers/STM32F4xx_StdPeriph_Driver/src/stm32f4xx_tim.c ****   *            @arg TIM_OCPolarity_High: Output Compare active high
1590:Drivers/STM32F4xx_StdPeriph_Driver/src/stm32f4xx_tim.c ****   *            @arg TIM_OCPolarity_Low: Output Compare active low
1591:Drivers/STM32F4xx_StdPeriph_Driver/src/stm32f4xx_tim.c ****   * @retval None
1592:Drivers/STM32F4xx_StdPeriph_Driver/src/stm32f4xx_tim.c ****   */
1593:Drivers/STM32F4xx_StdPeriph_Driver/src/stm32f4xx_tim.c **** void TIM_OC1PolarityConfig(TIM_TypeDef* TIMx, uint16_t TIM_OCPolarity)
1594:Drivers/STM32F4xx_StdPeriph_Driver/src/stm32f4xx_tim.c **** {
 3436              		.loc 1 1594 1
 3437              		.cfi_startproc
 3438              		@ args = 0, pretend = 0, frame = 16
 3439              		@ frame_needed = 1, uses_anonymous_args = 0
 3440              		@ link register save eliminated.
 3441 0000 80B4     		push	{r7}
 3442              	.LCFI245:
 3443              		.cfi_def_cfa_offset 4
 3444              		.cfi_offset 7, -4
 3445 0002 85B0     		sub	sp, sp, #20
 3446              	.LCFI246:
 3447              		.cfi_def_cfa_offset 24
 3448 0004 00AF     		add	r7, sp, #0
 3449              	.LCFI247:
 3450              		.cfi_def_cfa_register 7
 3451 0006 7860     		str	r0, [r7, #4]
 3452 0008 0B46     		mov	r3, r1
 3453 000a 7B80     		strh	r3, [r7, #2]	@ movhi
1595:Drivers/STM32F4xx_StdPeriph_Driver/src/stm32f4xx_tim.c ****   uint16_t tmpccer = 0;
 3454              		.loc 1 1595 12
 3455 000c 0023     		movs	r3, #0
 3456 000e FB81     		strh	r3, [r7, #14]	@ movhi
1596:Drivers/STM32F4xx_StdPeriph_Driver/src/stm32f4xx_tim.c **** 
1597:Drivers/STM32F4xx_StdPeriph_Driver/src/stm32f4xx_tim.c ****   /* Check the parameters */
1598:Drivers/STM32F4xx_StdPeriph_Driver/src/stm32f4xx_tim.c ****   assert_param(IS_TIM_LIST1_PERIPH(TIMx));
1599:Drivers/STM32F4xx_StdPeriph_Driver/src/stm32f4xx_tim.c ****   assert_param(IS_TIM_OC_POLARITY(TIM_OCPolarity));
1600:Drivers/STM32F4xx_StdPeriph_Driver/src/stm32f4xx_tim.c **** 
ARM GAS  C:\Users\Admin\AppData\Local\Temp\ccwOX7Bd.s 			page 89


1601:Drivers/STM32F4xx_StdPeriph_Driver/src/stm32f4xx_tim.c ****   tmpccer = TIMx->CCER;
 3457              		.loc 1 1601 11
 3458 0010 7B68     		ldr	r3, [r7, #4]
 3459 0012 1B8C     		ldrh	r3, [r3, #32]	@ movhi
 3460 0014 FB81     		strh	r3, [r7, #14]	@ movhi
1602:Drivers/STM32F4xx_StdPeriph_Driver/src/stm32f4xx_tim.c **** 
1603:Drivers/STM32F4xx_StdPeriph_Driver/src/stm32f4xx_tim.c ****   /* Set or Reset the CC1P Bit */
1604:Drivers/STM32F4xx_StdPeriph_Driver/src/stm32f4xx_tim.c ****   tmpccer &= (uint16_t)(~TIM_CCER_CC1P);
 3461              		.loc 1 1604 11
 3462 0016 FB89     		ldrh	r3, [r7, #14]	@ movhi
 3463 0018 23F00203 		bic	r3, r3, #2
 3464 001c FB81     		strh	r3, [r7, #14]	@ movhi
1605:Drivers/STM32F4xx_StdPeriph_Driver/src/stm32f4xx_tim.c ****   tmpccer |= TIM_OCPolarity;
 3465              		.loc 1 1605 11
 3466 001e FA89     		ldrh	r2, [r7, #14]	@ movhi
 3467 0020 7B88     		ldrh	r3, [r7, #2]	@ movhi
 3468 0022 1343     		orrs	r3, r3, r2
 3469 0024 FB81     		strh	r3, [r7, #14]	@ movhi
1606:Drivers/STM32F4xx_StdPeriph_Driver/src/stm32f4xx_tim.c **** 
1607:Drivers/STM32F4xx_StdPeriph_Driver/src/stm32f4xx_tim.c ****   /* Write to TIMx CCER register */
1608:Drivers/STM32F4xx_StdPeriph_Driver/src/stm32f4xx_tim.c ****   TIMx->CCER = tmpccer;
 3470              		.loc 1 1608 14
 3471 0026 7B68     		ldr	r3, [r7, #4]
 3472 0028 FA89     		ldrh	r2, [r7, #14]	@ movhi
 3473 002a 1A84     		strh	r2, [r3, #32]	@ movhi
1609:Drivers/STM32F4xx_StdPeriph_Driver/src/stm32f4xx_tim.c **** }
 3474              		.loc 1 1609 1
 3475 002c 00BF     		nop
 3476 002e 1437     		adds	r7, r7, #20
 3477              	.LCFI248:
 3478              		.cfi_def_cfa_offset 4
 3479 0030 BD46     		mov	sp, r7
 3480              	.LCFI249:
 3481              		.cfi_def_cfa_register 13
 3482              		@ sp needed
 3483 0032 5DF8047B 		ldr	r7, [sp], #4
 3484              	.LCFI250:
 3485              		.cfi_restore 7
 3486              		.cfi_def_cfa_offset 0
 3487 0036 7047     		bx	lr
 3488              		.cfi_endproc
 3489              	.LFE171:
 3491              		.section	.text.TIM_OC1NPolarityConfig,"ax",%progbits
 3492              		.align	1
 3493              		.global	TIM_OC1NPolarityConfig
 3494              		.syntax unified
 3495              		.thumb
 3496              		.thumb_func
 3498              	TIM_OC1NPolarityConfig:
 3499              	.LFB172:
1610:Drivers/STM32F4xx_StdPeriph_Driver/src/stm32f4xx_tim.c **** 
1611:Drivers/STM32F4xx_StdPeriph_Driver/src/stm32f4xx_tim.c **** /**
1612:Drivers/STM32F4xx_StdPeriph_Driver/src/stm32f4xx_tim.c ****   * @brief  Configures the TIMx Channel 1N polarity.
1613:Drivers/STM32F4xx_StdPeriph_Driver/src/stm32f4xx_tim.c ****   * @param  TIMx: where x can be 1 or 8 to select the TIM peripheral.
1614:Drivers/STM32F4xx_StdPeriph_Driver/src/stm32f4xx_tim.c ****   * @param  TIM_OCNPolarity: specifies the OC1N Polarity
1615:Drivers/STM32F4xx_StdPeriph_Driver/src/stm32f4xx_tim.c ****   *          This parameter can be one of the following values:
1616:Drivers/STM32F4xx_StdPeriph_Driver/src/stm32f4xx_tim.c ****   *            @arg TIM_OCNPolarity_High: Output Compare active high
ARM GAS  C:\Users\Admin\AppData\Local\Temp\ccwOX7Bd.s 			page 90


1617:Drivers/STM32F4xx_StdPeriph_Driver/src/stm32f4xx_tim.c ****   *            @arg TIM_OCNPolarity_Low: Output Compare active low
1618:Drivers/STM32F4xx_StdPeriph_Driver/src/stm32f4xx_tim.c ****   * @retval None
1619:Drivers/STM32F4xx_StdPeriph_Driver/src/stm32f4xx_tim.c ****   */
1620:Drivers/STM32F4xx_StdPeriph_Driver/src/stm32f4xx_tim.c **** void TIM_OC1NPolarityConfig(TIM_TypeDef* TIMx, uint16_t TIM_OCNPolarity)
1621:Drivers/STM32F4xx_StdPeriph_Driver/src/stm32f4xx_tim.c **** {
 3500              		.loc 1 1621 1
 3501              		.cfi_startproc
 3502              		@ args = 0, pretend = 0, frame = 16
 3503              		@ frame_needed = 1, uses_anonymous_args = 0
 3504              		@ link register save eliminated.
 3505 0000 80B4     		push	{r7}
 3506              	.LCFI251:
 3507              		.cfi_def_cfa_offset 4
 3508              		.cfi_offset 7, -4
 3509 0002 85B0     		sub	sp, sp, #20
 3510              	.LCFI252:
 3511              		.cfi_def_cfa_offset 24
 3512 0004 00AF     		add	r7, sp, #0
 3513              	.LCFI253:
 3514              		.cfi_def_cfa_register 7
 3515 0006 7860     		str	r0, [r7, #4]
 3516 0008 0B46     		mov	r3, r1
 3517 000a 7B80     		strh	r3, [r7, #2]	@ movhi
1622:Drivers/STM32F4xx_StdPeriph_Driver/src/stm32f4xx_tim.c ****   uint16_t tmpccer = 0;
 3518              		.loc 1 1622 12
 3519 000c 0023     		movs	r3, #0
 3520 000e FB81     		strh	r3, [r7, #14]	@ movhi
1623:Drivers/STM32F4xx_StdPeriph_Driver/src/stm32f4xx_tim.c ****   /* Check the parameters */
1624:Drivers/STM32F4xx_StdPeriph_Driver/src/stm32f4xx_tim.c ****   assert_param(IS_TIM_LIST4_PERIPH(TIMx));
1625:Drivers/STM32F4xx_StdPeriph_Driver/src/stm32f4xx_tim.c ****   assert_param(IS_TIM_OCN_POLARITY(TIM_OCNPolarity));
1626:Drivers/STM32F4xx_StdPeriph_Driver/src/stm32f4xx_tim.c ****    
1627:Drivers/STM32F4xx_StdPeriph_Driver/src/stm32f4xx_tim.c ****   tmpccer = TIMx->CCER;
 3521              		.loc 1 1627 11
 3522 0010 7B68     		ldr	r3, [r7, #4]
 3523 0012 1B8C     		ldrh	r3, [r3, #32]	@ movhi
 3524 0014 FB81     		strh	r3, [r7, #14]	@ movhi
1628:Drivers/STM32F4xx_StdPeriph_Driver/src/stm32f4xx_tim.c **** 
1629:Drivers/STM32F4xx_StdPeriph_Driver/src/stm32f4xx_tim.c ****   /* Set or Reset the CC1NP Bit */
1630:Drivers/STM32F4xx_StdPeriph_Driver/src/stm32f4xx_tim.c ****   tmpccer &= (uint16_t)~TIM_CCER_CC1NP;
 3525              		.loc 1 1630 11
 3526 0016 FB89     		ldrh	r3, [r7, #14]	@ movhi
 3527 0018 23F00803 		bic	r3, r3, #8
 3528 001c FB81     		strh	r3, [r7, #14]	@ movhi
1631:Drivers/STM32F4xx_StdPeriph_Driver/src/stm32f4xx_tim.c ****   tmpccer |= TIM_OCNPolarity;
 3529              		.loc 1 1631 11
 3530 001e FA89     		ldrh	r2, [r7, #14]	@ movhi
 3531 0020 7B88     		ldrh	r3, [r7, #2]	@ movhi
 3532 0022 1343     		orrs	r3, r3, r2
 3533 0024 FB81     		strh	r3, [r7, #14]	@ movhi
1632:Drivers/STM32F4xx_StdPeriph_Driver/src/stm32f4xx_tim.c **** 
1633:Drivers/STM32F4xx_StdPeriph_Driver/src/stm32f4xx_tim.c ****   /* Write to TIMx CCER register */
1634:Drivers/STM32F4xx_StdPeriph_Driver/src/stm32f4xx_tim.c ****   TIMx->CCER = tmpccer;
 3534              		.loc 1 1634 14
 3535 0026 7B68     		ldr	r3, [r7, #4]
 3536 0028 FA89     		ldrh	r2, [r7, #14]	@ movhi
 3537 002a 1A84     		strh	r2, [r3, #32]	@ movhi
1635:Drivers/STM32F4xx_StdPeriph_Driver/src/stm32f4xx_tim.c **** }
ARM GAS  C:\Users\Admin\AppData\Local\Temp\ccwOX7Bd.s 			page 91


 3538              		.loc 1 1635 1
 3539 002c 00BF     		nop
 3540 002e 1437     		adds	r7, r7, #20
 3541              	.LCFI254:
 3542              		.cfi_def_cfa_offset 4
 3543 0030 BD46     		mov	sp, r7
 3544              	.LCFI255:
 3545              		.cfi_def_cfa_register 13
 3546              		@ sp needed
 3547 0032 5DF8047B 		ldr	r7, [sp], #4
 3548              	.LCFI256:
 3549              		.cfi_restore 7
 3550              		.cfi_def_cfa_offset 0
 3551 0036 7047     		bx	lr
 3552              		.cfi_endproc
 3553              	.LFE172:
 3555              		.section	.text.TIM_OC2PolarityConfig,"ax",%progbits
 3556              		.align	1
 3557              		.global	TIM_OC2PolarityConfig
 3558              		.syntax unified
 3559              		.thumb
 3560              		.thumb_func
 3562              	TIM_OC2PolarityConfig:
 3563              	.LFB173:
1636:Drivers/STM32F4xx_StdPeriph_Driver/src/stm32f4xx_tim.c **** 
1637:Drivers/STM32F4xx_StdPeriph_Driver/src/stm32f4xx_tim.c **** /**
1638:Drivers/STM32F4xx_StdPeriph_Driver/src/stm32f4xx_tim.c ****   * @brief  Configures the TIMx channel 2 polarity.
1639:Drivers/STM32F4xx_StdPeriph_Driver/src/stm32f4xx_tim.c ****   * @param  TIMx: where x can be 1, 2, 3, 4, 5, 8, 9 or 12 to select the TIM 
1640:Drivers/STM32F4xx_StdPeriph_Driver/src/stm32f4xx_tim.c ****   *         peripheral.
1641:Drivers/STM32F4xx_StdPeriph_Driver/src/stm32f4xx_tim.c ****   * @param  TIM_OCPolarity: specifies the OC2 Polarity
1642:Drivers/STM32F4xx_StdPeriph_Driver/src/stm32f4xx_tim.c ****   *          This parameter can be one of the following values:
1643:Drivers/STM32F4xx_StdPeriph_Driver/src/stm32f4xx_tim.c ****   *            @arg TIM_OCPolarity_High: Output Compare active high
1644:Drivers/STM32F4xx_StdPeriph_Driver/src/stm32f4xx_tim.c ****   *            @arg TIM_OCPolarity_Low: Output Compare active low
1645:Drivers/STM32F4xx_StdPeriph_Driver/src/stm32f4xx_tim.c ****   * @retval None
1646:Drivers/STM32F4xx_StdPeriph_Driver/src/stm32f4xx_tim.c ****   */
1647:Drivers/STM32F4xx_StdPeriph_Driver/src/stm32f4xx_tim.c **** void TIM_OC2PolarityConfig(TIM_TypeDef* TIMx, uint16_t TIM_OCPolarity)
1648:Drivers/STM32F4xx_StdPeriph_Driver/src/stm32f4xx_tim.c **** {
 3564              		.loc 1 1648 1
 3565              		.cfi_startproc
 3566              		@ args = 0, pretend = 0, frame = 16
 3567              		@ frame_needed = 1, uses_anonymous_args = 0
 3568              		@ link register save eliminated.
 3569 0000 80B4     		push	{r7}
 3570              	.LCFI257:
 3571              		.cfi_def_cfa_offset 4
 3572              		.cfi_offset 7, -4
 3573 0002 85B0     		sub	sp, sp, #20
 3574              	.LCFI258:
 3575              		.cfi_def_cfa_offset 24
 3576 0004 00AF     		add	r7, sp, #0
 3577              	.LCFI259:
 3578              		.cfi_def_cfa_register 7
 3579 0006 7860     		str	r0, [r7, #4]
 3580 0008 0B46     		mov	r3, r1
 3581 000a 7B80     		strh	r3, [r7, #2]	@ movhi
1649:Drivers/STM32F4xx_StdPeriph_Driver/src/stm32f4xx_tim.c ****   uint16_t tmpccer = 0;
 3582              		.loc 1 1649 12
ARM GAS  C:\Users\Admin\AppData\Local\Temp\ccwOX7Bd.s 			page 92


 3583 000c 0023     		movs	r3, #0
 3584 000e FB81     		strh	r3, [r7, #14]	@ movhi
1650:Drivers/STM32F4xx_StdPeriph_Driver/src/stm32f4xx_tim.c **** 
1651:Drivers/STM32F4xx_StdPeriph_Driver/src/stm32f4xx_tim.c ****   /* Check the parameters */
1652:Drivers/STM32F4xx_StdPeriph_Driver/src/stm32f4xx_tim.c ****   assert_param(IS_TIM_LIST2_PERIPH(TIMx));
1653:Drivers/STM32F4xx_StdPeriph_Driver/src/stm32f4xx_tim.c ****   assert_param(IS_TIM_OC_POLARITY(TIM_OCPolarity));
1654:Drivers/STM32F4xx_StdPeriph_Driver/src/stm32f4xx_tim.c **** 
1655:Drivers/STM32F4xx_StdPeriph_Driver/src/stm32f4xx_tim.c ****   tmpccer = TIMx->CCER;
 3585              		.loc 1 1655 11
 3586 0010 7B68     		ldr	r3, [r7, #4]
 3587 0012 1B8C     		ldrh	r3, [r3, #32]	@ movhi
 3588 0014 FB81     		strh	r3, [r7, #14]	@ movhi
1656:Drivers/STM32F4xx_StdPeriph_Driver/src/stm32f4xx_tim.c **** 
1657:Drivers/STM32F4xx_StdPeriph_Driver/src/stm32f4xx_tim.c ****   /* Set or Reset the CC2P Bit */
1658:Drivers/STM32F4xx_StdPeriph_Driver/src/stm32f4xx_tim.c ****   tmpccer &= (uint16_t)(~TIM_CCER_CC2P);
 3589              		.loc 1 1658 11
 3590 0016 FB89     		ldrh	r3, [r7, #14]	@ movhi
 3591 0018 23F02003 		bic	r3, r3, #32
 3592 001c FB81     		strh	r3, [r7, #14]	@ movhi
1659:Drivers/STM32F4xx_StdPeriph_Driver/src/stm32f4xx_tim.c ****   tmpccer |= (uint16_t)(TIM_OCPolarity << 4);
 3593              		.loc 1 1659 14
 3594 001e 7B88     		ldrh	r3, [r7, #2]	@ movhi
 3595 0020 1B01     		lsls	r3, r3, #4
 3596 0022 9AB2     		uxth	r2, r3
 3597              		.loc 1 1659 11
 3598 0024 FB89     		ldrh	r3, [r7, #14]	@ movhi
 3599 0026 1343     		orrs	r3, r3, r2
 3600 0028 FB81     		strh	r3, [r7, #14]	@ movhi
1660:Drivers/STM32F4xx_StdPeriph_Driver/src/stm32f4xx_tim.c **** 
1661:Drivers/STM32F4xx_StdPeriph_Driver/src/stm32f4xx_tim.c ****   /* Write to TIMx CCER register */
1662:Drivers/STM32F4xx_StdPeriph_Driver/src/stm32f4xx_tim.c ****   TIMx->CCER = tmpccer;
 3601              		.loc 1 1662 14
 3602 002a 7B68     		ldr	r3, [r7, #4]
 3603 002c FA89     		ldrh	r2, [r7, #14]	@ movhi
 3604 002e 1A84     		strh	r2, [r3, #32]	@ movhi
1663:Drivers/STM32F4xx_StdPeriph_Driver/src/stm32f4xx_tim.c **** }
 3605              		.loc 1 1663 1
 3606 0030 00BF     		nop
 3607 0032 1437     		adds	r7, r7, #20
 3608              	.LCFI260:
 3609              		.cfi_def_cfa_offset 4
 3610 0034 BD46     		mov	sp, r7
 3611              	.LCFI261:
 3612              		.cfi_def_cfa_register 13
 3613              		@ sp needed
 3614 0036 5DF8047B 		ldr	r7, [sp], #4
 3615              	.LCFI262:
 3616              		.cfi_restore 7
 3617              		.cfi_def_cfa_offset 0
 3618 003a 7047     		bx	lr
 3619              		.cfi_endproc
 3620              	.LFE173:
 3622              		.section	.text.TIM_OC2NPolarityConfig,"ax",%progbits
 3623              		.align	1
 3624              		.global	TIM_OC2NPolarityConfig
 3625              		.syntax unified
 3626              		.thumb
ARM GAS  C:\Users\Admin\AppData\Local\Temp\ccwOX7Bd.s 			page 93


 3627              		.thumb_func
 3629              	TIM_OC2NPolarityConfig:
 3630              	.LFB174:
1664:Drivers/STM32F4xx_StdPeriph_Driver/src/stm32f4xx_tim.c **** 
1665:Drivers/STM32F4xx_StdPeriph_Driver/src/stm32f4xx_tim.c **** /**
1666:Drivers/STM32F4xx_StdPeriph_Driver/src/stm32f4xx_tim.c ****   * @brief  Configures the TIMx Channel 2N polarity.
1667:Drivers/STM32F4xx_StdPeriph_Driver/src/stm32f4xx_tim.c ****   * @param  TIMx: where x can be 1 or 8 to select the TIM peripheral.
1668:Drivers/STM32F4xx_StdPeriph_Driver/src/stm32f4xx_tim.c ****   * @param  TIM_OCNPolarity: specifies the OC2N Polarity
1669:Drivers/STM32F4xx_StdPeriph_Driver/src/stm32f4xx_tim.c ****   *          This parameter can be one of the following values:
1670:Drivers/STM32F4xx_StdPeriph_Driver/src/stm32f4xx_tim.c ****   *            @arg TIM_OCNPolarity_High: Output Compare active high
1671:Drivers/STM32F4xx_StdPeriph_Driver/src/stm32f4xx_tim.c ****   *            @arg TIM_OCNPolarity_Low: Output Compare active low
1672:Drivers/STM32F4xx_StdPeriph_Driver/src/stm32f4xx_tim.c ****   * @retval None
1673:Drivers/STM32F4xx_StdPeriph_Driver/src/stm32f4xx_tim.c ****   */
1674:Drivers/STM32F4xx_StdPeriph_Driver/src/stm32f4xx_tim.c **** void TIM_OC2NPolarityConfig(TIM_TypeDef* TIMx, uint16_t TIM_OCNPolarity)
1675:Drivers/STM32F4xx_StdPeriph_Driver/src/stm32f4xx_tim.c **** {
 3631              		.loc 1 1675 1
 3632              		.cfi_startproc
 3633              		@ args = 0, pretend = 0, frame = 16
 3634              		@ frame_needed = 1, uses_anonymous_args = 0
 3635              		@ link register save eliminated.
 3636 0000 80B4     		push	{r7}
 3637              	.LCFI263:
 3638              		.cfi_def_cfa_offset 4
 3639              		.cfi_offset 7, -4
 3640 0002 85B0     		sub	sp, sp, #20
 3641              	.LCFI264:
 3642              		.cfi_def_cfa_offset 24
 3643 0004 00AF     		add	r7, sp, #0
 3644              	.LCFI265:
 3645              		.cfi_def_cfa_register 7
 3646 0006 7860     		str	r0, [r7, #4]
 3647 0008 0B46     		mov	r3, r1
 3648 000a 7B80     		strh	r3, [r7, #2]	@ movhi
1676:Drivers/STM32F4xx_StdPeriph_Driver/src/stm32f4xx_tim.c ****   uint16_t tmpccer = 0;
 3649              		.loc 1 1676 12
 3650 000c 0023     		movs	r3, #0
 3651 000e FB81     		strh	r3, [r7, #14]	@ movhi
1677:Drivers/STM32F4xx_StdPeriph_Driver/src/stm32f4xx_tim.c **** 
1678:Drivers/STM32F4xx_StdPeriph_Driver/src/stm32f4xx_tim.c ****   /* Check the parameters */
1679:Drivers/STM32F4xx_StdPeriph_Driver/src/stm32f4xx_tim.c ****   assert_param(IS_TIM_LIST4_PERIPH(TIMx));
1680:Drivers/STM32F4xx_StdPeriph_Driver/src/stm32f4xx_tim.c ****   assert_param(IS_TIM_OCN_POLARITY(TIM_OCNPolarity));
1681:Drivers/STM32F4xx_StdPeriph_Driver/src/stm32f4xx_tim.c ****   
1682:Drivers/STM32F4xx_StdPeriph_Driver/src/stm32f4xx_tim.c ****   tmpccer = TIMx->CCER;
 3652              		.loc 1 1682 11
 3653 0010 7B68     		ldr	r3, [r7, #4]
 3654 0012 1B8C     		ldrh	r3, [r3, #32]	@ movhi
 3655 0014 FB81     		strh	r3, [r7, #14]	@ movhi
1683:Drivers/STM32F4xx_StdPeriph_Driver/src/stm32f4xx_tim.c **** 
1684:Drivers/STM32F4xx_StdPeriph_Driver/src/stm32f4xx_tim.c ****   /* Set or Reset the CC2NP Bit */
1685:Drivers/STM32F4xx_StdPeriph_Driver/src/stm32f4xx_tim.c ****   tmpccer &= (uint16_t)~TIM_CCER_CC2NP;
 3656              		.loc 1 1685 11
 3657 0016 FB89     		ldrh	r3, [r7, #14]	@ movhi
 3658 0018 23F08003 		bic	r3, r3, #128
 3659 001c FB81     		strh	r3, [r7, #14]	@ movhi
1686:Drivers/STM32F4xx_StdPeriph_Driver/src/stm32f4xx_tim.c ****   tmpccer |= (uint16_t)(TIM_OCNPolarity << 4);
 3660              		.loc 1 1686 14
 3661 001e 7B88     		ldrh	r3, [r7, #2]	@ movhi
ARM GAS  C:\Users\Admin\AppData\Local\Temp\ccwOX7Bd.s 			page 94


 3662 0020 1B01     		lsls	r3, r3, #4
 3663 0022 9AB2     		uxth	r2, r3
 3664              		.loc 1 1686 11
 3665 0024 FB89     		ldrh	r3, [r7, #14]	@ movhi
 3666 0026 1343     		orrs	r3, r3, r2
 3667 0028 FB81     		strh	r3, [r7, #14]	@ movhi
1687:Drivers/STM32F4xx_StdPeriph_Driver/src/stm32f4xx_tim.c **** 
1688:Drivers/STM32F4xx_StdPeriph_Driver/src/stm32f4xx_tim.c ****   /* Write to TIMx CCER register */
1689:Drivers/STM32F4xx_StdPeriph_Driver/src/stm32f4xx_tim.c ****   TIMx->CCER = tmpccer;
 3668              		.loc 1 1689 14
 3669 002a 7B68     		ldr	r3, [r7, #4]
 3670 002c FA89     		ldrh	r2, [r7, #14]	@ movhi
 3671 002e 1A84     		strh	r2, [r3, #32]	@ movhi
1690:Drivers/STM32F4xx_StdPeriph_Driver/src/stm32f4xx_tim.c **** }
 3672              		.loc 1 1690 1
 3673 0030 00BF     		nop
 3674 0032 1437     		adds	r7, r7, #20
 3675              	.LCFI266:
 3676              		.cfi_def_cfa_offset 4
 3677 0034 BD46     		mov	sp, r7
 3678              	.LCFI267:
 3679              		.cfi_def_cfa_register 13
 3680              		@ sp needed
 3681 0036 5DF8047B 		ldr	r7, [sp], #4
 3682              	.LCFI268:
 3683              		.cfi_restore 7
 3684              		.cfi_def_cfa_offset 0
 3685 003a 7047     		bx	lr
 3686              		.cfi_endproc
 3687              	.LFE174:
 3689              		.section	.text.TIM_OC3PolarityConfig,"ax",%progbits
 3690              		.align	1
 3691              		.global	TIM_OC3PolarityConfig
 3692              		.syntax unified
 3693              		.thumb
 3694              		.thumb_func
 3696              	TIM_OC3PolarityConfig:
 3697              	.LFB175:
1691:Drivers/STM32F4xx_StdPeriph_Driver/src/stm32f4xx_tim.c **** 
1692:Drivers/STM32F4xx_StdPeriph_Driver/src/stm32f4xx_tim.c **** /**
1693:Drivers/STM32F4xx_StdPeriph_Driver/src/stm32f4xx_tim.c ****   * @brief  Configures the TIMx channel 3 polarity.
1694:Drivers/STM32F4xx_StdPeriph_Driver/src/stm32f4xx_tim.c ****   * @param  TIMx: where x can be 1, 2, 3, 4, 5 or 8 to select the TIM peripheral.
1695:Drivers/STM32F4xx_StdPeriph_Driver/src/stm32f4xx_tim.c ****   * @param  TIM_OCPolarity: specifies the OC3 Polarity
1696:Drivers/STM32F4xx_StdPeriph_Driver/src/stm32f4xx_tim.c ****   *          This parameter can be one of the following values:
1697:Drivers/STM32F4xx_StdPeriph_Driver/src/stm32f4xx_tim.c ****   *            @arg TIM_OCPolarity_High: Output Compare active high
1698:Drivers/STM32F4xx_StdPeriph_Driver/src/stm32f4xx_tim.c ****   *            @arg TIM_OCPolarity_Low: Output Compare active low
1699:Drivers/STM32F4xx_StdPeriph_Driver/src/stm32f4xx_tim.c ****   * @retval None
1700:Drivers/STM32F4xx_StdPeriph_Driver/src/stm32f4xx_tim.c ****   */
1701:Drivers/STM32F4xx_StdPeriph_Driver/src/stm32f4xx_tim.c **** void TIM_OC3PolarityConfig(TIM_TypeDef* TIMx, uint16_t TIM_OCPolarity)
1702:Drivers/STM32F4xx_StdPeriph_Driver/src/stm32f4xx_tim.c **** {
 3698              		.loc 1 1702 1
 3699              		.cfi_startproc
 3700              		@ args = 0, pretend = 0, frame = 16
 3701              		@ frame_needed = 1, uses_anonymous_args = 0
 3702              		@ link register save eliminated.
 3703 0000 80B4     		push	{r7}
 3704              	.LCFI269:
ARM GAS  C:\Users\Admin\AppData\Local\Temp\ccwOX7Bd.s 			page 95


 3705              		.cfi_def_cfa_offset 4
 3706              		.cfi_offset 7, -4
 3707 0002 85B0     		sub	sp, sp, #20
 3708              	.LCFI270:
 3709              		.cfi_def_cfa_offset 24
 3710 0004 00AF     		add	r7, sp, #0
 3711              	.LCFI271:
 3712              		.cfi_def_cfa_register 7
 3713 0006 7860     		str	r0, [r7, #4]
 3714 0008 0B46     		mov	r3, r1
 3715 000a 7B80     		strh	r3, [r7, #2]	@ movhi
1703:Drivers/STM32F4xx_StdPeriph_Driver/src/stm32f4xx_tim.c ****   uint16_t tmpccer = 0;
 3716              		.loc 1 1703 12
 3717 000c 0023     		movs	r3, #0
 3718 000e FB81     		strh	r3, [r7, #14]	@ movhi
1704:Drivers/STM32F4xx_StdPeriph_Driver/src/stm32f4xx_tim.c **** 
1705:Drivers/STM32F4xx_StdPeriph_Driver/src/stm32f4xx_tim.c ****   /* Check the parameters */
1706:Drivers/STM32F4xx_StdPeriph_Driver/src/stm32f4xx_tim.c ****   assert_param(IS_TIM_LIST3_PERIPH(TIMx));
1707:Drivers/STM32F4xx_StdPeriph_Driver/src/stm32f4xx_tim.c ****   assert_param(IS_TIM_OC_POLARITY(TIM_OCPolarity));
1708:Drivers/STM32F4xx_StdPeriph_Driver/src/stm32f4xx_tim.c **** 
1709:Drivers/STM32F4xx_StdPeriph_Driver/src/stm32f4xx_tim.c ****   tmpccer = TIMx->CCER;
 3719              		.loc 1 1709 11
 3720 0010 7B68     		ldr	r3, [r7, #4]
 3721 0012 1B8C     		ldrh	r3, [r3, #32]	@ movhi
 3722 0014 FB81     		strh	r3, [r7, #14]	@ movhi
1710:Drivers/STM32F4xx_StdPeriph_Driver/src/stm32f4xx_tim.c **** 
1711:Drivers/STM32F4xx_StdPeriph_Driver/src/stm32f4xx_tim.c ****   /* Set or Reset the CC3P Bit */
1712:Drivers/STM32F4xx_StdPeriph_Driver/src/stm32f4xx_tim.c ****   tmpccer &= (uint16_t)~TIM_CCER_CC3P;
 3723              		.loc 1 1712 11
 3724 0016 FB89     		ldrh	r3, [r7, #14]	@ movhi
 3725 0018 23F40073 		bic	r3, r3, #512
 3726 001c FB81     		strh	r3, [r7, #14]	@ movhi
1713:Drivers/STM32F4xx_StdPeriph_Driver/src/stm32f4xx_tim.c ****   tmpccer |= (uint16_t)(TIM_OCPolarity << 8);
 3727              		.loc 1 1713 14
 3728 001e 7B88     		ldrh	r3, [r7, #2]	@ movhi
 3729 0020 1B02     		lsls	r3, r3, #8
 3730 0022 9AB2     		uxth	r2, r3
 3731              		.loc 1 1713 11
 3732 0024 FB89     		ldrh	r3, [r7, #14]	@ movhi
 3733 0026 1343     		orrs	r3, r3, r2
 3734 0028 FB81     		strh	r3, [r7, #14]	@ movhi
1714:Drivers/STM32F4xx_StdPeriph_Driver/src/stm32f4xx_tim.c **** 
1715:Drivers/STM32F4xx_StdPeriph_Driver/src/stm32f4xx_tim.c ****   /* Write to TIMx CCER register */
1716:Drivers/STM32F4xx_StdPeriph_Driver/src/stm32f4xx_tim.c ****   TIMx->CCER = tmpccer;
 3735              		.loc 1 1716 14
 3736 002a 7B68     		ldr	r3, [r7, #4]
 3737 002c FA89     		ldrh	r2, [r7, #14]	@ movhi
 3738 002e 1A84     		strh	r2, [r3, #32]	@ movhi
1717:Drivers/STM32F4xx_StdPeriph_Driver/src/stm32f4xx_tim.c **** }
 3739              		.loc 1 1717 1
 3740 0030 00BF     		nop
 3741 0032 1437     		adds	r7, r7, #20
 3742              	.LCFI272:
 3743              		.cfi_def_cfa_offset 4
 3744 0034 BD46     		mov	sp, r7
 3745              	.LCFI273:
 3746              		.cfi_def_cfa_register 13
ARM GAS  C:\Users\Admin\AppData\Local\Temp\ccwOX7Bd.s 			page 96


 3747              		@ sp needed
 3748 0036 5DF8047B 		ldr	r7, [sp], #4
 3749              	.LCFI274:
 3750              		.cfi_restore 7
 3751              		.cfi_def_cfa_offset 0
 3752 003a 7047     		bx	lr
 3753              		.cfi_endproc
 3754              	.LFE175:
 3756              		.section	.text.TIM_OC3NPolarityConfig,"ax",%progbits
 3757              		.align	1
 3758              		.global	TIM_OC3NPolarityConfig
 3759              		.syntax unified
 3760              		.thumb
 3761              		.thumb_func
 3763              	TIM_OC3NPolarityConfig:
 3764              	.LFB176:
1718:Drivers/STM32F4xx_StdPeriph_Driver/src/stm32f4xx_tim.c **** 
1719:Drivers/STM32F4xx_StdPeriph_Driver/src/stm32f4xx_tim.c **** /**
1720:Drivers/STM32F4xx_StdPeriph_Driver/src/stm32f4xx_tim.c ****   * @brief  Configures the TIMx Channel 3N polarity.
1721:Drivers/STM32F4xx_StdPeriph_Driver/src/stm32f4xx_tim.c ****   * @param  TIMx: where x can be 1 or 8 to select the TIM peripheral.
1722:Drivers/STM32F4xx_StdPeriph_Driver/src/stm32f4xx_tim.c ****   * @param  TIM_OCNPolarity: specifies the OC3N Polarity
1723:Drivers/STM32F4xx_StdPeriph_Driver/src/stm32f4xx_tim.c ****   *          This parameter can be one of the following values:
1724:Drivers/STM32F4xx_StdPeriph_Driver/src/stm32f4xx_tim.c ****   *            @arg TIM_OCNPolarity_High: Output Compare active high
1725:Drivers/STM32F4xx_StdPeriph_Driver/src/stm32f4xx_tim.c ****   *            @arg TIM_OCNPolarity_Low: Output Compare active low
1726:Drivers/STM32F4xx_StdPeriph_Driver/src/stm32f4xx_tim.c ****   * @retval None
1727:Drivers/STM32F4xx_StdPeriph_Driver/src/stm32f4xx_tim.c ****   */
1728:Drivers/STM32F4xx_StdPeriph_Driver/src/stm32f4xx_tim.c **** void TIM_OC3NPolarityConfig(TIM_TypeDef* TIMx, uint16_t TIM_OCNPolarity)
1729:Drivers/STM32F4xx_StdPeriph_Driver/src/stm32f4xx_tim.c **** {
 3765              		.loc 1 1729 1
 3766              		.cfi_startproc
 3767              		@ args = 0, pretend = 0, frame = 16
 3768              		@ frame_needed = 1, uses_anonymous_args = 0
 3769              		@ link register save eliminated.
 3770 0000 80B4     		push	{r7}
 3771              	.LCFI275:
 3772              		.cfi_def_cfa_offset 4
 3773              		.cfi_offset 7, -4
 3774 0002 85B0     		sub	sp, sp, #20
 3775              	.LCFI276:
 3776              		.cfi_def_cfa_offset 24
 3777 0004 00AF     		add	r7, sp, #0
 3778              	.LCFI277:
 3779              		.cfi_def_cfa_register 7
 3780 0006 7860     		str	r0, [r7, #4]
 3781 0008 0B46     		mov	r3, r1
 3782 000a 7B80     		strh	r3, [r7, #2]	@ movhi
1730:Drivers/STM32F4xx_StdPeriph_Driver/src/stm32f4xx_tim.c ****   uint16_t tmpccer = 0;
 3783              		.loc 1 1730 12
 3784 000c 0023     		movs	r3, #0
 3785 000e FB81     		strh	r3, [r7, #14]	@ movhi
1731:Drivers/STM32F4xx_StdPeriph_Driver/src/stm32f4xx_tim.c ****  
1732:Drivers/STM32F4xx_StdPeriph_Driver/src/stm32f4xx_tim.c ****   /* Check the parameters */
1733:Drivers/STM32F4xx_StdPeriph_Driver/src/stm32f4xx_tim.c ****   assert_param(IS_TIM_LIST4_PERIPH(TIMx));
1734:Drivers/STM32F4xx_StdPeriph_Driver/src/stm32f4xx_tim.c ****   assert_param(IS_TIM_OCN_POLARITY(TIM_OCNPolarity));
1735:Drivers/STM32F4xx_StdPeriph_Driver/src/stm32f4xx_tim.c ****     
1736:Drivers/STM32F4xx_StdPeriph_Driver/src/stm32f4xx_tim.c ****   tmpccer = TIMx->CCER;
 3786              		.loc 1 1736 11
ARM GAS  C:\Users\Admin\AppData\Local\Temp\ccwOX7Bd.s 			page 97


 3787 0010 7B68     		ldr	r3, [r7, #4]
 3788 0012 1B8C     		ldrh	r3, [r3, #32]	@ movhi
 3789 0014 FB81     		strh	r3, [r7, #14]	@ movhi
1737:Drivers/STM32F4xx_StdPeriph_Driver/src/stm32f4xx_tim.c **** 
1738:Drivers/STM32F4xx_StdPeriph_Driver/src/stm32f4xx_tim.c ****   /* Set or Reset the CC3NP Bit */
1739:Drivers/STM32F4xx_StdPeriph_Driver/src/stm32f4xx_tim.c ****   tmpccer &= (uint16_t)~TIM_CCER_CC3NP;
 3790              		.loc 1 1739 11
 3791 0016 FB89     		ldrh	r3, [r7, #14]	@ movhi
 3792 0018 23F40063 		bic	r3, r3, #2048
 3793 001c FB81     		strh	r3, [r7, #14]	@ movhi
1740:Drivers/STM32F4xx_StdPeriph_Driver/src/stm32f4xx_tim.c ****   tmpccer |= (uint16_t)(TIM_OCNPolarity << 8);
 3794              		.loc 1 1740 14
 3795 001e 7B88     		ldrh	r3, [r7, #2]	@ movhi
 3796 0020 1B02     		lsls	r3, r3, #8
 3797 0022 9AB2     		uxth	r2, r3
 3798              		.loc 1 1740 11
 3799 0024 FB89     		ldrh	r3, [r7, #14]	@ movhi
 3800 0026 1343     		orrs	r3, r3, r2
 3801 0028 FB81     		strh	r3, [r7, #14]	@ movhi
1741:Drivers/STM32F4xx_StdPeriph_Driver/src/stm32f4xx_tim.c **** 
1742:Drivers/STM32F4xx_StdPeriph_Driver/src/stm32f4xx_tim.c ****   /* Write to TIMx CCER register */
1743:Drivers/STM32F4xx_StdPeriph_Driver/src/stm32f4xx_tim.c ****   TIMx->CCER = tmpccer;
 3802              		.loc 1 1743 14
 3803 002a 7B68     		ldr	r3, [r7, #4]
 3804 002c FA89     		ldrh	r2, [r7, #14]	@ movhi
 3805 002e 1A84     		strh	r2, [r3, #32]	@ movhi
1744:Drivers/STM32F4xx_StdPeriph_Driver/src/stm32f4xx_tim.c **** }
 3806              		.loc 1 1744 1
 3807 0030 00BF     		nop
 3808 0032 1437     		adds	r7, r7, #20
 3809              	.LCFI278:
 3810              		.cfi_def_cfa_offset 4
 3811 0034 BD46     		mov	sp, r7
 3812              	.LCFI279:
 3813              		.cfi_def_cfa_register 13
 3814              		@ sp needed
 3815 0036 5DF8047B 		ldr	r7, [sp], #4
 3816              	.LCFI280:
 3817              		.cfi_restore 7
 3818              		.cfi_def_cfa_offset 0
 3819 003a 7047     		bx	lr
 3820              		.cfi_endproc
 3821              	.LFE176:
 3823              		.section	.text.TIM_OC4PolarityConfig,"ax",%progbits
 3824              		.align	1
 3825              		.global	TIM_OC4PolarityConfig
 3826              		.syntax unified
 3827              		.thumb
 3828              		.thumb_func
 3830              	TIM_OC4PolarityConfig:
 3831              	.LFB177:
1745:Drivers/STM32F4xx_StdPeriph_Driver/src/stm32f4xx_tim.c **** 
1746:Drivers/STM32F4xx_StdPeriph_Driver/src/stm32f4xx_tim.c **** /**
1747:Drivers/STM32F4xx_StdPeriph_Driver/src/stm32f4xx_tim.c ****   * @brief  Configures the TIMx channel 4 polarity.
1748:Drivers/STM32F4xx_StdPeriph_Driver/src/stm32f4xx_tim.c ****   * @param  TIMx: where x can be 1, 2, 3, 4, 5 or 8 to select the TIM peripheral.
1749:Drivers/STM32F4xx_StdPeriph_Driver/src/stm32f4xx_tim.c ****   * @param  TIM_OCPolarity: specifies the OC4 Polarity
1750:Drivers/STM32F4xx_StdPeriph_Driver/src/stm32f4xx_tim.c ****   *          This parameter can be one of the following values:
ARM GAS  C:\Users\Admin\AppData\Local\Temp\ccwOX7Bd.s 			page 98


1751:Drivers/STM32F4xx_StdPeriph_Driver/src/stm32f4xx_tim.c ****   *            @arg TIM_OCPolarity_High: Output Compare active high
1752:Drivers/STM32F4xx_StdPeriph_Driver/src/stm32f4xx_tim.c ****   *            @arg TIM_OCPolarity_Low: Output Compare active low
1753:Drivers/STM32F4xx_StdPeriph_Driver/src/stm32f4xx_tim.c ****   * @retval None
1754:Drivers/STM32F4xx_StdPeriph_Driver/src/stm32f4xx_tim.c ****   */
1755:Drivers/STM32F4xx_StdPeriph_Driver/src/stm32f4xx_tim.c **** void TIM_OC4PolarityConfig(TIM_TypeDef* TIMx, uint16_t TIM_OCPolarity)
1756:Drivers/STM32F4xx_StdPeriph_Driver/src/stm32f4xx_tim.c **** {
 3832              		.loc 1 1756 1
 3833              		.cfi_startproc
 3834              		@ args = 0, pretend = 0, frame = 16
 3835              		@ frame_needed = 1, uses_anonymous_args = 0
 3836              		@ link register save eliminated.
 3837 0000 80B4     		push	{r7}
 3838              	.LCFI281:
 3839              		.cfi_def_cfa_offset 4
 3840              		.cfi_offset 7, -4
 3841 0002 85B0     		sub	sp, sp, #20
 3842              	.LCFI282:
 3843              		.cfi_def_cfa_offset 24
 3844 0004 00AF     		add	r7, sp, #0
 3845              	.LCFI283:
 3846              		.cfi_def_cfa_register 7
 3847 0006 7860     		str	r0, [r7, #4]
 3848 0008 0B46     		mov	r3, r1
 3849 000a 7B80     		strh	r3, [r7, #2]	@ movhi
1757:Drivers/STM32F4xx_StdPeriph_Driver/src/stm32f4xx_tim.c ****   uint16_t tmpccer = 0;
 3850              		.loc 1 1757 12
 3851 000c 0023     		movs	r3, #0
 3852 000e FB81     		strh	r3, [r7, #14]	@ movhi
1758:Drivers/STM32F4xx_StdPeriph_Driver/src/stm32f4xx_tim.c **** 
1759:Drivers/STM32F4xx_StdPeriph_Driver/src/stm32f4xx_tim.c ****   /* Check the parameters */
1760:Drivers/STM32F4xx_StdPeriph_Driver/src/stm32f4xx_tim.c ****   assert_param(IS_TIM_LIST3_PERIPH(TIMx));
1761:Drivers/STM32F4xx_StdPeriph_Driver/src/stm32f4xx_tim.c ****   assert_param(IS_TIM_OC_POLARITY(TIM_OCPolarity));
1762:Drivers/STM32F4xx_StdPeriph_Driver/src/stm32f4xx_tim.c **** 
1763:Drivers/STM32F4xx_StdPeriph_Driver/src/stm32f4xx_tim.c ****   tmpccer = TIMx->CCER;
 3853              		.loc 1 1763 11
 3854 0010 7B68     		ldr	r3, [r7, #4]
 3855 0012 1B8C     		ldrh	r3, [r3, #32]	@ movhi
 3856 0014 FB81     		strh	r3, [r7, #14]	@ movhi
1764:Drivers/STM32F4xx_StdPeriph_Driver/src/stm32f4xx_tim.c **** 
1765:Drivers/STM32F4xx_StdPeriph_Driver/src/stm32f4xx_tim.c ****   /* Set or Reset the CC4P Bit */
1766:Drivers/STM32F4xx_StdPeriph_Driver/src/stm32f4xx_tim.c ****   tmpccer &= (uint16_t)~TIM_CCER_CC4P;
 3857              		.loc 1 1766 11
 3858 0016 FB89     		ldrh	r3, [r7, #14]	@ movhi
 3859 0018 23F40053 		bic	r3, r3, #8192
 3860 001c FB81     		strh	r3, [r7, #14]	@ movhi
1767:Drivers/STM32F4xx_StdPeriph_Driver/src/stm32f4xx_tim.c ****   tmpccer |= (uint16_t)(TIM_OCPolarity << 12);
 3861              		.loc 1 1767 14
 3862 001e 7B88     		ldrh	r3, [r7, #2]	@ movhi
 3863 0020 1B03     		lsls	r3, r3, #12
 3864 0022 9AB2     		uxth	r2, r3
 3865              		.loc 1 1767 11
 3866 0024 FB89     		ldrh	r3, [r7, #14]	@ movhi
 3867 0026 1343     		orrs	r3, r3, r2
 3868 0028 FB81     		strh	r3, [r7, #14]	@ movhi
1768:Drivers/STM32F4xx_StdPeriph_Driver/src/stm32f4xx_tim.c **** 
1769:Drivers/STM32F4xx_StdPeriph_Driver/src/stm32f4xx_tim.c ****   /* Write to TIMx CCER register */
1770:Drivers/STM32F4xx_StdPeriph_Driver/src/stm32f4xx_tim.c ****   TIMx->CCER = tmpccer;
ARM GAS  C:\Users\Admin\AppData\Local\Temp\ccwOX7Bd.s 			page 99


 3869              		.loc 1 1770 14
 3870 002a 7B68     		ldr	r3, [r7, #4]
 3871 002c FA89     		ldrh	r2, [r7, #14]	@ movhi
 3872 002e 1A84     		strh	r2, [r3, #32]	@ movhi
1771:Drivers/STM32F4xx_StdPeriph_Driver/src/stm32f4xx_tim.c **** }
 3873              		.loc 1 1771 1
 3874 0030 00BF     		nop
 3875 0032 1437     		adds	r7, r7, #20
 3876              	.LCFI284:
 3877              		.cfi_def_cfa_offset 4
 3878 0034 BD46     		mov	sp, r7
 3879              	.LCFI285:
 3880              		.cfi_def_cfa_register 13
 3881              		@ sp needed
 3882 0036 5DF8047B 		ldr	r7, [sp], #4
 3883              	.LCFI286:
 3884              		.cfi_restore 7
 3885              		.cfi_def_cfa_offset 0
 3886 003a 7047     		bx	lr
 3887              		.cfi_endproc
 3888              	.LFE177:
 3890              		.section	.text.TIM_CCxCmd,"ax",%progbits
 3891              		.align	1
 3892              		.global	TIM_CCxCmd
 3893              		.syntax unified
 3894              		.thumb
 3895              		.thumb_func
 3897              	TIM_CCxCmd:
 3898              	.LFB178:
1772:Drivers/STM32F4xx_StdPeriph_Driver/src/stm32f4xx_tim.c **** 
1773:Drivers/STM32F4xx_StdPeriph_Driver/src/stm32f4xx_tim.c **** /**
1774:Drivers/STM32F4xx_StdPeriph_Driver/src/stm32f4xx_tim.c ****   * @brief  Enables or disables the TIM Capture Compare Channel x.
1775:Drivers/STM32F4xx_StdPeriph_Driver/src/stm32f4xx_tim.c ****   * @param  TIMx: where x can be 1 to 14 except 6 and 7, to select the TIM peripheral.
1776:Drivers/STM32F4xx_StdPeriph_Driver/src/stm32f4xx_tim.c ****   * @param  TIM_Channel: specifies the TIM Channel
1777:Drivers/STM32F4xx_StdPeriph_Driver/src/stm32f4xx_tim.c ****   *          This parameter can be one of the following values:
1778:Drivers/STM32F4xx_StdPeriph_Driver/src/stm32f4xx_tim.c ****   *            @arg TIM_Channel_1: TIM Channel 1
1779:Drivers/STM32F4xx_StdPeriph_Driver/src/stm32f4xx_tim.c ****   *            @arg TIM_Channel_2: TIM Channel 2
1780:Drivers/STM32F4xx_StdPeriph_Driver/src/stm32f4xx_tim.c ****   *            @arg TIM_Channel_3: TIM Channel 3
1781:Drivers/STM32F4xx_StdPeriph_Driver/src/stm32f4xx_tim.c ****   *            @arg TIM_Channel_4: TIM Channel 4
1782:Drivers/STM32F4xx_StdPeriph_Driver/src/stm32f4xx_tim.c ****   * @param  TIM_CCx: specifies the TIM Channel CCxE bit new state.
1783:Drivers/STM32F4xx_StdPeriph_Driver/src/stm32f4xx_tim.c ****   *          This parameter can be: TIM_CCx_Enable or TIM_CCx_Disable. 
1784:Drivers/STM32F4xx_StdPeriph_Driver/src/stm32f4xx_tim.c ****   * @retval None
1785:Drivers/STM32F4xx_StdPeriph_Driver/src/stm32f4xx_tim.c ****   */
1786:Drivers/STM32F4xx_StdPeriph_Driver/src/stm32f4xx_tim.c **** void TIM_CCxCmd(TIM_TypeDef* TIMx, uint16_t TIM_Channel, uint16_t TIM_CCx)
1787:Drivers/STM32F4xx_StdPeriph_Driver/src/stm32f4xx_tim.c **** {
 3899              		.loc 1 1787 1
 3900              		.cfi_startproc
 3901              		@ args = 0, pretend = 0, frame = 16
 3902              		@ frame_needed = 1, uses_anonymous_args = 0
 3903              		@ link register save eliminated.
 3904 0000 80B4     		push	{r7}
 3905              	.LCFI287:
 3906              		.cfi_def_cfa_offset 4
 3907              		.cfi_offset 7, -4
 3908 0002 85B0     		sub	sp, sp, #20
 3909              	.LCFI288:
 3910              		.cfi_def_cfa_offset 24
ARM GAS  C:\Users\Admin\AppData\Local\Temp\ccwOX7Bd.s 			page 100


 3911 0004 00AF     		add	r7, sp, #0
 3912              	.LCFI289:
 3913              		.cfi_def_cfa_register 7
 3914 0006 7860     		str	r0, [r7, #4]
 3915 0008 0B46     		mov	r3, r1
 3916 000a 7B80     		strh	r3, [r7, #2]	@ movhi
 3917 000c 1346     		mov	r3, r2	@ movhi
 3918 000e 3B80     		strh	r3, [r7]	@ movhi
1788:Drivers/STM32F4xx_StdPeriph_Driver/src/stm32f4xx_tim.c ****   uint16_t tmp = 0;
 3919              		.loc 1 1788 12
 3920 0010 0023     		movs	r3, #0
 3921 0012 FB81     		strh	r3, [r7, #14]	@ movhi
1789:Drivers/STM32F4xx_StdPeriph_Driver/src/stm32f4xx_tim.c **** 
1790:Drivers/STM32F4xx_StdPeriph_Driver/src/stm32f4xx_tim.c ****   /* Check the parameters */
1791:Drivers/STM32F4xx_StdPeriph_Driver/src/stm32f4xx_tim.c ****   assert_param(IS_TIM_LIST1_PERIPH(TIMx)); 
1792:Drivers/STM32F4xx_StdPeriph_Driver/src/stm32f4xx_tim.c ****   assert_param(IS_TIM_CHANNEL(TIM_Channel));
1793:Drivers/STM32F4xx_StdPeriph_Driver/src/stm32f4xx_tim.c ****   assert_param(IS_TIM_CCX(TIM_CCx));
1794:Drivers/STM32F4xx_StdPeriph_Driver/src/stm32f4xx_tim.c **** 
1795:Drivers/STM32F4xx_StdPeriph_Driver/src/stm32f4xx_tim.c ****   tmp = CCER_CCE_SET << TIM_Channel;
 3922              		.loc 1 1795 22
 3923 0014 7B88     		ldrh	r3, [r7, #2]
 3924 0016 0122     		movs	r2, #1
 3925 0018 02FA03F3 		lsl	r3, r2, r3
 3926              		.loc 1 1795 7
 3927 001c FB81     		strh	r3, [r7, #14]	@ movhi
1796:Drivers/STM32F4xx_StdPeriph_Driver/src/stm32f4xx_tim.c **** 
1797:Drivers/STM32F4xx_StdPeriph_Driver/src/stm32f4xx_tim.c ****   /* Reset the CCxE Bit */
1798:Drivers/STM32F4xx_StdPeriph_Driver/src/stm32f4xx_tim.c ****   TIMx->CCER &= (uint16_t)~ tmp;
 3928              		.loc 1 1798 14
 3929 001e 7B68     		ldr	r3, [r7, #4]
 3930 0020 1B8C     		ldrh	r3, [r3, #32]	@ movhi
 3931 0022 9AB2     		uxth	r2, r3
 3932              		.loc 1 1798 17
 3933 0024 FB89     		ldrh	r3, [r7, #14]	@ movhi
 3934 0026 DB43     		mvns	r3, r3
 3935 0028 9BB2     		uxth	r3, r3
 3936              		.loc 1 1798 14
 3937 002a 1340     		ands	r3, r3, r2
 3938 002c 9AB2     		uxth	r2, r3
 3939 002e 7B68     		ldr	r3, [r7, #4]
 3940 0030 1A84     		strh	r2, [r3, #32]	@ movhi
1799:Drivers/STM32F4xx_StdPeriph_Driver/src/stm32f4xx_tim.c **** 
1800:Drivers/STM32F4xx_StdPeriph_Driver/src/stm32f4xx_tim.c ****   /* Set or reset the CCxE Bit */ 
1801:Drivers/STM32F4xx_StdPeriph_Driver/src/stm32f4xx_tim.c ****   TIMx->CCER |=  (uint16_t)(TIM_CCx << TIM_Channel);
 3941              		.loc 1 1801 14
 3942 0032 7B68     		ldr	r3, [r7, #4]
 3943 0034 1B8C     		ldrh	r3, [r3, #32]	@ movhi
 3944 0036 9AB2     		uxth	r2, r3
 3945              		.loc 1 1801 37
 3946 0038 3988     		ldrh	r1, [r7]
 3947 003a 7B88     		ldrh	r3, [r7, #2]
 3948 003c 01FA03F3 		lsl	r3, r1, r3
 3949              		.loc 1 1801 18
 3950 0040 9BB2     		uxth	r3, r3
 3951              		.loc 1 1801 14
 3952 0042 1343     		orrs	r3, r3, r2
 3953 0044 9AB2     		uxth	r2, r3
ARM GAS  C:\Users\Admin\AppData\Local\Temp\ccwOX7Bd.s 			page 101


 3954 0046 7B68     		ldr	r3, [r7, #4]
 3955 0048 1A84     		strh	r2, [r3, #32]	@ movhi
1802:Drivers/STM32F4xx_StdPeriph_Driver/src/stm32f4xx_tim.c **** }
 3956              		.loc 1 1802 1
 3957 004a 00BF     		nop
 3958 004c 1437     		adds	r7, r7, #20
 3959              	.LCFI290:
 3960              		.cfi_def_cfa_offset 4
 3961 004e BD46     		mov	sp, r7
 3962              	.LCFI291:
 3963              		.cfi_def_cfa_register 13
 3964              		@ sp needed
 3965 0050 5DF8047B 		ldr	r7, [sp], #4
 3966              	.LCFI292:
 3967              		.cfi_restore 7
 3968              		.cfi_def_cfa_offset 0
 3969 0054 7047     		bx	lr
 3970              		.cfi_endproc
 3971              	.LFE178:
 3973              		.section	.text.TIM_CCxNCmd,"ax",%progbits
 3974              		.align	1
 3975              		.global	TIM_CCxNCmd
 3976              		.syntax unified
 3977              		.thumb
 3978              		.thumb_func
 3980              	TIM_CCxNCmd:
 3981              	.LFB179:
1803:Drivers/STM32F4xx_StdPeriph_Driver/src/stm32f4xx_tim.c **** 
1804:Drivers/STM32F4xx_StdPeriph_Driver/src/stm32f4xx_tim.c **** /**
1805:Drivers/STM32F4xx_StdPeriph_Driver/src/stm32f4xx_tim.c ****   * @brief  Enables or disables the TIM Capture Compare Channel xN.
1806:Drivers/STM32F4xx_StdPeriph_Driver/src/stm32f4xx_tim.c ****   * @param  TIMx: where x can be 1 or 8 to select the TIM peripheral.
1807:Drivers/STM32F4xx_StdPeriph_Driver/src/stm32f4xx_tim.c ****   * @param  TIM_Channel: specifies the TIM Channel
1808:Drivers/STM32F4xx_StdPeriph_Driver/src/stm32f4xx_tim.c ****   *          This parameter can be one of the following values:
1809:Drivers/STM32F4xx_StdPeriph_Driver/src/stm32f4xx_tim.c ****   *            @arg TIM_Channel_1: TIM Channel 1
1810:Drivers/STM32F4xx_StdPeriph_Driver/src/stm32f4xx_tim.c ****   *            @arg TIM_Channel_2: TIM Channel 2
1811:Drivers/STM32F4xx_StdPeriph_Driver/src/stm32f4xx_tim.c ****   *            @arg TIM_Channel_3: TIM Channel 3
1812:Drivers/STM32F4xx_StdPeriph_Driver/src/stm32f4xx_tim.c ****   * @param  TIM_CCxN: specifies the TIM Channel CCxNE bit new state.
1813:Drivers/STM32F4xx_StdPeriph_Driver/src/stm32f4xx_tim.c ****   *          This parameter can be: TIM_CCxN_Enable or TIM_CCxN_Disable. 
1814:Drivers/STM32F4xx_StdPeriph_Driver/src/stm32f4xx_tim.c ****   * @retval None
1815:Drivers/STM32F4xx_StdPeriph_Driver/src/stm32f4xx_tim.c ****   */
1816:Drivers/STM32F4xx_StdPeriph_Driver/src/stm32f4xx_tim.c **** void TIM_CCxNCmd(TIM_TypeDef* TIMx, uint16_t TIM_Channel, uint16_t TIM_CCxN)
1817:Drivers/STM32F4xx_StdPeriph_Driver/src/stm32f4xx_tim.c **** {
 3982              		.loc 1 1817 1
 3983              		.cfi_startproc
 3984              		@ args = 0, pretend = 0, frame = 16
 3985              		@ frame_needed = 1, uses_anonymous_args = 0
 3986              		@ link register save eliminated.
 3987 0000 80B4     		push	{r7}
 3988              	.LCFI293:
 3989              		.cfi_def_cfa_offset 4
 3990              		.cfi_offset 7, -4
 3991 0002 85B0     		sub	sp, sp, #20
 3992              	.LCFI294:
 3993              		.cfi_def_cfa_offset 24
 3994 0004 00AF     		add	r7, sp, #0
 3995              	.LCFI295:
 3996              		.cfi_def_cfa_register 7
ARM GAS  C:\Users\Admin\AppData\Local\Temp\ccwOX7Bd.s 			page 102


 3997 0006 7860     		str	r0, [r7, #4]
 3998 0008 0B46     		mov	r3, r1
 3999 000a 7B80     		strh	r3, [r7, #2]	@ movhi
 4000 000c 1346     		mov	r3, r2	@ movhi
 4001 000e 3B80     		strh	r3, [r7]	@ movhi
1818:Drivers/STM32F4xx_StdPeriph_Driver/src/stm32f4xx_tim.c ****   uint16_t tmp = 0;
 4002              		.loc 1 1818 12
 4003 0010 0023     		movs	r3, #0
 4004 0012 FB81     		strh	r3, [r7, #14]	@ movhi
1819:Drivers/STM32F4xx_StdPeriph_Driver/src/stm32f4xx_tim.c **** 
1820:Drivers/STM32F4xx_StdPeriph_Driver/src/stm32f4xx_tim.c ****   /* Check the parameters */
1821:Drivers/STM32F4xx_StdPeriph_Driver/src/stm32f4xx_tim.c ****   assert_param(IS_TIM_LIST4_PERIPH(TIMx));
1822:Drivers/STM32F4xx_StdPeriph_Driver/src/stm32f4xx_tim.c ****   assert_param(IS_TIM_COMPLEMENTARY_CHANNEL(TIM_Channel));
1823:Drivers/STM32F4xx_StdPeriph_Driver/src/stm32f4xx_tim.c ****   assert_param(IS_TIM_CCXN(TIM_CCxN));
1824:Drivers/STM32F4xx_StdPeriph_Driver/src/stm32f4xx_tim.c **** 
1825:Drivers/STM32F4xx_StdPeriph_Driver/src/stm32f4xx_tim.c ****   tmp = CCER_CCNE_SET << TIM_Channel;
 4005              		.loc 1 1825 23
 4006 0014 7B88     		ldrh	r3, [r7, #2]
 4007 0016 0422     		movs	r2, #4
 4008 0018 02FA03F3 		lsl	r3, r2, r3
 4009              		.loc 1 1825 7
 4010 001c FB81     		strh	r3, [r7, #14]	@ movhi
1826:Drivers/STM32F4xx_StdPeriph_Driver/src/stm32f4xx_tim.c **** 
1827:Drivers/STM32F4xx_StdPeriph_Driver/src/stm32f4xx_tim.c ****   /* Reset the CCxNE Bit */
1828:Drivers/STM32F4xx_StdPeriph_Driver/src/stm32f4xx_tim.c ****   TIMx->CCER &= (uint16_t) ~tmp;
 4011              		.loc 1 1828 14
 4012 001e 7B68     		ldr	r3, [r7, #4]
 4013 0020 1B8C     		ldrh	r3, [r3, #32]	@ movhi
 4014 0022 9AB2     		uxth	r2, r3
 4015              		.loc 1 1828 17
 4016 0024 FB89     		ldrh	r3, [r7, #14]	@ movhi
 4017 0026 DB43     		mvns	r3, r3
 4018 0028 9BB2     		uxth	r3, r3
 4019              		.loc 1 1828 14
 4020 002a 1340     		ands	r3, r3, r2
 4021 002c 9AB2     		uxth	r2, r3
 4022 002e 7B68     		ldr	r3, [r7, #4]
 4023 0030 1A84     		strh	r2, [r3, #32]	@ movhi
1829:Drivers/STM32F4xx_StdPeriph_Driver/src/stm32f4xx_tim.c **** 
1830:Drivers/STM32F4xx_StdPeriph_Driver/src/stm32f4xx_tim.c ****   /* Set or reset the CCxNE Bit */ 
1831:Drivers/STM32F4xx_StdPeriph_Driver/src/stm32f4xx_tim.c ****   TIMx->CCER |=  (uint16_t)(TIM_CCxN << TIM_Channel);
 4024              		.loc 1 1831 14
 4025 0032 7B68     		ldr	r3, [r7, #4]
 4026 0034 1B8C     		ldrh	r3, [r3, #32]	@ movhi
 4027 0036 9AB2     		uxth	r2, r3
 4028              		.loc 1 1831 38
 4029 0038 3988     		ldrh	r1, [r7]
 4030 003a 7B88     		ldrh	r3, [r7, #2]
 4031 003c 01FA03F3 		lsl	r3, r1, r3
 4032              		.loc 1 1831 18
 4033 0040 9BB2     		uxth	r3, r3
 4034              		.loc 1 1831 14
 4035 0042 1343     		orrs	r3, r3, r2
 4036 0044 9AB2     		uxth	r2, r3
 4037 0046 7B68     		ldr	r3, [r7, #4]
 4038 0048 1A84     		strh	r2, [r3, #32]	@ movhi
1832:Drivers/STM32F4xx_StdPeriph_Driver/src/stm32f4xx_tim.c **** }
ARM GAS  C:\Users\Admin\AppData\Local\Temp\ccwOX7Bd.s 			page 103


 4039              		.loc 1 1832 1
 4040 004a 00BF     		nop
 4041 004c 1437     		adds	r7, r7, #20
 4042              	.LCFI296:
 4043              		.cfi_def_cfa_offset 4
 4044 004e BD46     		mov	sp, r7
 4045              	.LCFI297:
 4046              		.cfi_def_cfa_register 13
 4047              		@ sp needed
 4048 0050 5DF8047B 		ldr	r7, [sp], #4
 4049              	.LCFI298:
 4050              		.cfi_restore 7
 4051              		.cfi_def_cfa_offset 0
 4052 0054 7047     		bx	lr
 4053              		.cfi_endproc
 4054              	.LFE179:
 4056              		.section	.text.TIM_ICInit,"ax",%progbits
 4057              		.align	1
 4058              		.global	TIM_ICInit
 4059              		.syntax unified
 4060              		.thumb
 4061              		.thumb_func
 4063              	TIM_ICInit:
 4064              	.LFB180:
1833:Drivers/STM32F4xx_StdPeriph_Driver/src/stm32f4xx_tim.c **** /**
1834:Drivers/STM32F4xx_StdPeriph_Driver/src/stm32f4xx_tim.c ****   * @}
1835:Drivers/STM32F4xx_StdPeriph_Driver/src/stm32f4xx_tim.c ****   */
1836:Drivers/STM32F4xx_StdPeriph_Driver/src/stm32f4xx_tim.c **** 
1837:Drivers/STM32F4xx_StdPeriph_Driver/src/stm32f4xx_tim.c **** /** @defgroup TIM_Group3 Input Capture management functions
1838:Drivers/STM32F4xx_StdPeriph_Driver/src/stm32f4xx_tim.c ****  *  @brief    Input Capture management functions 
1839:Drivers/STM32F4xx_StdPeriph_Driver/src/stm32f4xx_tim.c ****  *
1840:Drivers/STM32F4xx_StdPeriph_Driver/src/stm32f4xx_tim.c **** @verbatim   
1841:Drivers/STM32F4xx_StdPeriph_Driver/src/stm32f4xx_tim.c ****  ===============================================================================
1842:Drivers/STM32F4xx_StdPeriph_Driver/src/stm32f4xx_tim.c ****                   ##### Input Capture management functions #####
1843:Drivers/STM32F4xx_StdPeriph_Driver/src/stm32f4xx_tim.c ****  ===============================================================================  
1844:Drivers/STM32F4xx_StdPeriph_Driver/src/stm32f4xx_tim.c ****          
1845:Drivers/STM32F4xx_StdPeriph_Driver/src/stm32f4xx_tim.c ****             ##### TIM Driver: how to use it in Input Capture Mode #####
1846:Drivers/STM32F4xx_StdPeriph_Driver/src/stm32f4xx_tim.c ****  ===============================================================================
1847:Drivers/STM32F4xx_StdPeriph_Driver/src/stm32f4xx_tim.c ****     [..]    
1848:Drivers/STM32F4xx_StdPeriph_Driver/src/stm32f4xx_tim.c ****     To use the Timer in Input Capture mode, the following steps are mandatory:
1849:Drivers/STM32F4xx_StdPeriph_Driver/src/stm32f4xx_tim.c ****        
1850:Drivers/STM32F4xx_StdPeriph_Driver/src/stm32f4xx_tim.c ****       (#) Enable TIM clock using RCC_APBxPeriphClockCmd(RCC_APBxPeriph_TIMx, ENABLE) 
1851:Drivers/STM32F4xx_StdPeriph_Driver/src/stm32f4xx_tim.c ****           function
1852:Drivers/STM32F4xx_StdPeriph_Driver/src/stm32f4xx_tim.c ****        
1853:Drivers/STM32F4xx_StdPeriph_Driver/src/stm32f4xx_tim.c ****       (#) Configure the TIM pins by configuring the corresponding GPIO pins
1854:Drivers/STM32F4xx_StdPeriph_Driver/src/stm32f4xx_tim.c ****        
1855:Drivers/STM32F4xx_StdPeriph_Driver/src/stm32f4xx_tim.c ****       (#) Configure the Time base unit as described in the first part of this driver,
1856:Drivers/STM32F4xx_StdPeriph_Driver/src/stm32f4xx_tim.c ****           if needed, else the Timer will run with the default configuration:
1857:Drivers/STM32F4xx_StdPeriph_Driver/src/stm32f4xx_tim.c ****         (++) Autoreload value = 0xFFFF
1858:Drivers/STM32F4xx_StdPeriph_Driver/src/stm32f4xx_tim.c ****         (++) Prescaler value = 0x0000
1859:Drivers/STM32F4xx_StdPeriph_Driver/src/stm32f4xx_tim.c ****         (++) Counter mode = Up counting
1860:Drivers/STM32F4xx_StdPeriph_Driver/src/stm32f4xx_tim.c ****         (++) Clock Division = TIM_CKD_DIV1
1861:Drivers/STM32F4xx_StdPeriph_Driver/src/stm32f4xx_tim.c ****           
1862:Drivers/STM32F4xx_StdPeriph_Driver/src/stm32f4xx_tim.c ****       (#) Fill the TIM_ICInitStruct with the desired parameters including:
1863:Drivers/STM32F4xx_StdPeriph_Driver/src/stm32f4xx_tim.c ****         (++) TIM Channel: TIM_Channel
1864:Drivers/STM32F4xx_StdPeriph_Driver/src/stm32f4xx_tim.c ****         (++) TIM Input Capture polarity: TIM_ICPolarity
1865:Drivers/STM32F4xx_StdPeriph_Driver/src/stm32f4xx_tim.c ****         (++) TIM Input Capture selection: TIM_ICSelection
ARM GAS  C:\Users\Admin\AppData\Local\Temp\ccwOX7Bd.s 			page 104


1866:Drivers/STM32F4xx_StdPeriph_Driver/src/stm32f4xx_tim.c ****         (++) TIM Input Capture Prescaler: TIM_ICPrescaler
1867:Drivers/STM32F4xx_StdPeriph_Driver/src/stm32f4xx_tim.c ****         (++) TIM Input Capture filter value: TIM_ICFilter
1868:Drivers/STM32F4xx_StdPeriph_Driver/src/stm32f4xx_tim.c ****        
1869:Drivers/STM32F4xx_StdPeriph_Driver/src/stm32f4xx_tim.c ****       (#) Call TIM_ICInit(TIMx, &TIM_ICInitStruct) to configure the desired channel 
1870:Drivers/STM32F4xx_StdPeriph_Driver/src/stm32f4xx_tim.c ****           with the corresponding configuration and to measure only frequency 
1871:Drivers/STM32F4xx_StdPeriph_Driver/src/stm32f4xx_tim.c ****           or duty cycle of the input signal, or, Call TIM_PWMIConfig(TIMx, &TIM_ICInitStruct) 
1872:Drivers/STM32F4xx_StdPeriph_Driver/src/stm32f4xx_tim.c ****           to configure the desired channels with the corresponding configuration 
1873:Drivers/STM32F4xx_StdPeriph_Driver/src/stm32f4xx_tim.c ****           and to measure the frequency and the duty cycle of the input signal
1874:Drivers/STM32F4xx_StdPeriph_Driver/src/stm32f4xx_tim.c ****           
1875:Drivers/STM32F4xx_StdPeriph_Driver/src/stm32f4xx_tim.c ****       (#) Enable the NVIC or the DMA to read the measured frequency. 
1876:Drivers/STM32F4xx_StdPeriph_Driver/src/stm32f4xx_tim.c ****           
1877:Drivers/STM32F4xx_StdPeriph_Driver/src/stm32f4xx_tim.c ****       (#) Enable the corresponding interrupt (or DMA request) to read the Captured 
1878:Drivers/STM32F4xx_StdPeriph_Driver/src/stm32f4xx_tim.c ****           value, using the function TIM_ITConfig(TIMx, TIM_IT_CCx) 
1879:Drivers/STM32F4xx_StdPeriph_Driver/src/stm32f4xx_tim.c ****           (or TIM_DMA_Cmd(TIMx, TIM_DMA_CCx)) 
1880:Drivers/STM32F4xx_StdPeriph_Driver/src/stm32f4xx_tim.c ****        
1881:Drivers/STM32F4xx_StdPeriph_Driver/src/stm32f4xx_tim.c ****       (#) Call the TIM_Cmd(ENABLE) function to enable the TIM counter.
1882:Drivers/STM32F4xx_StdPeriph_Driver/src/stm32f4xx_tim.c ****        
1883:Drivers/STM32F4xx_StdPeriph_Driver/src/stm32f4xx_tim.c ****       (#) Use TIM_GetCapturex(TIMx); to read the captured value.
1884:Drivers/STM32F4xx_StdPeriph_Driver/src/stm32f4xx_tim.c ****        
1885:Drivers/STM32F4xx_StdPeriph_Driver/src/stm32f4xx_tim.c ****       -@- All other functions can be used separately to modify, if needed,
1886:Drivers/STM32F4xx_StdPeriph_Driver/src/stm32f4xx_tim.c ****           a specific feature of the Timer. 
1887:Drivers/STM32F4xx_StdPeriph_Driver/src/stm32f4xx_tim.c **** 
1888:Drivers/STM32F4xx_StdPeriph_Driver/src/stm32f4xx_tim.c **** @endverbatim
1889:Drivers/STM32F4xx_StdPeriph_Driver/src/stm32f4xx_tim.c ****   * @{
1890:Drivers/STM32F4xx_StdPeriph_Driver/src/stm32f4xx_tim.c ****   */
1891:Drivers/STM32F4xx_StdPeriph_Driver/src/stm32f4xx_tim.c **** 
1892:Drivers/STM32F4xx_StdPeriph_Driver/src/stm32f4xx_tim.c **** /**
1893:Drivers/STM32F4xx_StdPeriph_Driver/src/stm32f4xx_tim.c ****   * @brief  Initializes the TIM peripheral according to the specified parameters
1894:Drivers/STM32F4xx_StdPeriph_Driver/src/stm32f4xx_tim.c ****   *         in the TIM_ICInitStruct.
1895:Drivers/STM32F4xx_StdPeriph_Driver/src/stm32f4xx_tim.c ****   * @param  TIMx: where x can be 1 to 14 except 6 and 7, to select the TIM peripheral.
1896:Drivers/STM32F4xx_StdPeriph_Driver/src/stm32f4xx_tim.c ****   * @param  TIM_ICInitStruct: pointer to a TIM_ICInitTypeDef structure that contains
1897:Drivers/STM32F4xx_StdPeriph_Driver/src/stm32f4xx_tim.c ****   *         the configuration information for the specified TIM peripheral.
1898:Drivers/STM32F4xx_StdPeriph_Driver/src/stm32f4xx_tim.c ****   * @retval None
1899:Drivers/STM32F4xx_StdPeriph_Driver/src/stm32f4xx_tim.c ****   */
1900:Drivers/STM32F4xx_StdPeriph_Driver/src/stm32f4xx_tim.c **** void TIM_ICInit(TIM_TypeDef* TIMx, TIM_ICInitTypeDef* TIM_ICInitStruct)
1901:Drivers/STM32F4xx_StdPeriph_Driver/src/stm32f4xx_tim.c **** {
 4065              		.loc 1 1901 1
 4066              		.cfi_startproc
 4067              		@ args = 0, pretend = 0, frame = 8
 4068              		@ frame_needed = 1, uses_anonymous_args = 0
 4069 0000 80B5     		push	{r7, lr}
 4070              	.LCFI299:
 4071              		.cfi_def_cfa_offset 8
 4072              		.cfi_offset 7, -8
 4073              		.cfi_offset 14, -4
 4074 0002 82B0     		sub	sp, sp, #8
 4075              	.LCFI300:
 4076              		.cfi_def_cfa_offset 16
 4077 0004 00AF     		add	r7, sp, #0
 4078              	.LCFI301:
 4079              		.cfi_def_cfa_register 7
 4080 0006 7860     		str	r0, [r7, #4]
 4081 0008 3960     		str	r1, [r7]
1902:Drivers/STM32F4xx_StdPeriph_Driver/src/stm32f4xx_tim.c ****   /* Check the parameters */
1903:Drivers/STM32F4xx_StdPeriph_Driver/src/stm32f4xx_tim.c ****   assert_param(IS_TIM_LIST1_PERIPH(TIMx));
1904:Drivers/STM32F4xx_StdPeriph_Driver/src/stm32f4xx_tim.c ****   assert_param(IS_TIM_IC_POLARITY(TIM_ICInitStruct->TIM_ICPolarity));
1905:Drivers/STM32F4xx_StdPeriph_Driver/src/stm32f4xx_tim.c ****   assert_param(IS_TIM_IC_SELECTION(TIM_ICInitStruct->TIM_ICSelection));
ARM GAS  C:\Users\Admin\AppData\Local\Temp\ccwOX7Bd.s 			page 105


1906:Drivers/STM32F4xx_StdPeriph_Driver/src/stm32f4xx_tim.c ****   assert_param(IS_TIM_IC_PRESCALER(TIM_ICInitStruct->TIM_ICPrescaler));
1907:Drivers/STM32F4xx_StdPeriph_Driver/src/stm32f4xx_tim.c ****   assert_param(IS_TIM_IC_FILTER(TIM_ICInitStruct->TIM_ICFilter));
1908:Drivers/STM32F4xx_StdPeriph_Driver/src/stm32f4xx_tim.c ****   
1909:Drivers/STM32F4xx_StdPeriph_Driver/src/stm32f4xx_tim.c ****   if (TIM_ICInitStruct->TIM_Channel == TIM_Channel_1)
 4082              		.loc 1 1909 23
 4083 000a 3B68     		ldr	r3, [r7]
 4084 000c 1B88     		ldrh	r3, [r3]
 4085              		.loc 1 1909 6
 4086 000e 002B     		cmp	r3, #0
 4087 0010 0FD1     		bne	.L109
1910:Drivers/STM32F4xx_StdPeriph_Driver/src/stm32f4xx_tim.c ****   {
1911:Drivers/STM32F4xx_StdPeriph_Driver/src/stm32f4xx_tim.c ****     /* TI1 Configuration */
1912:Drivers/STM32F4xx_StdPeriph_Driver/src/stm32f4xx_tim.c ****     TI1_Config(TIMx, TIM_ICInitStruct->TIM_ICPolarity,
 4088              		.loc 1 1912 5
 4089 0012 3B68     		ldr	r3, [r7]
 4090 0014 5988     		ldrh	r1, [r3, #2]
 4091 0016 3B68     		ldr	r3, [r7]
 4092 0018 9A88     		ldrh	r2, [r3, #4]
 4093 001a 3B68     		ldr	r3, [r7]
 4094 001c 1B89     		ldrh	r3, [r3, #8]
 4095 001e 7868     		ldr	r0, [r7, #4]
 4096 0020 FFF7FEFF 		bl	TI1_Config
1913:Drivers/STM32F4xx_StdPeriph_Driver/src/stm32f4xx_tim.c ****                TIM_ICInitStruct->TIM_ICSelection,
1914:Drivers/STM32F4xx_StdPeriph_Driver/src/stm32f4xx_tim.c ****                TIM_ICInitStruct->TIM_ICFilter);
1915:Drivers/STM32F4xx_StdPeriph_Driver/src/stm32f4xx_tim.c ****     /* Set the Input Capture Prescaler value */
1916:Drivers/STM32F4xx_StdPeriph_Driver/src/stm32f4xx_tim.c ****     TIM_SetIC1Prescaler(TIMx, TIM_ICInitStruct->TIM_ICPrescaler);
 4097              		.loc 1 1916 5
 4098 0024 3B68     		ldr	r3, [r7]
 4099 0026 DB88     		ldrh	r3, [r3, #6]
 4100 0028 1946     		mov	r1, r3
 4101 002a 7868     		ldr	r0, [r7, #4]
 4102 002c FFF7FEFF 		bl	TIM_SetIC1Prescaler
1917:Drivers/STM32F4xx_StdPeriph_Driver/src/stm32f4xx_tim.c ****   }
1918:Drivers/STM32F4xx_StdPeriph_Driver/src/stm32f4xx_tim.c ****   else if (TIM_ICInitStruct->TIM_Channel == TIM_Channel_2)
1919:Drivers/STM32F4xx_StdPeriph_Driver/src/stm32f4xx_tim.c ****   {
1920:Drivers/STM32F4xx_StdPeriph_Driver/src/stm32f4xx_tim.c ****     /* TI2 Configuration */
1921:Drivers/STM32F4xx_StdPeriph_Driver/src/stm32f4xx_tim.c ****     assert_param(IS_TIM_LIST2_PERIPH(TIMx));
1922:Drivers/STM32F4xx_StdPeriph_Driver/src/stm32f4xx_tim.c ****     TI2_Config(TIMx, TIM_ICInitStruct->TIM_ICPolarity,
1923:Drivers/STM32F4xx_StdPeriph_Driver/src/stm32f4xx_tim.c ****                TIM_ICInitStruct->TIM_ICSelection,
1924:Drivers/STM32F4xx_StdPeriph_Driver/src/stm32f4xx_tim.c ****                TIM_ICInitStruct->TIM_ICFilter);
1925:Drivers/STM32F4xx_StdPeriph_Driver/src/stm32f4xx_tim.c ****     /* Set the Input Capture Prescaler value */
1926:Drivers/STM32F4xx_StdPeriph_Driver/src/stm32f4xx_tim.c ****     TIM_SetIC2Prescaler(TIMx, TIM_ICInitStruct->TIM_ICPrescaler);
1927:Drivers/STM32F4xx_StdPeriph_Driver/src/stm32f4xx_tim.c ****   }
1928:Drivers/STM32F4xx_StdPeriph_Driver/src/stm32f4xx_tim.c ****   else if (TIM_ICInitStruct->TIM_Channel == TIM_Channel_3)
1929:Drivers/STM32F4xx_StdPeriph_Driver/src/stm32f4xx_tim.c ****   {
1930:Drivers/STM32F4xx_StdPeriph_Driver/src/stm32f4xx_tim.c ****     /* TI3 Configuration */
1931:Drivers/STM32F4xx_StdPeriph_Driver/src/stm32f4xx_tim.c ****     assert_param(IS_TIM_LIST3_PERIPH(TIMx));
1932:Drivers/STM32F4xx_StdPeriph_Driver/src/stm32f4xx_tim.c ****     TI3_Config(TIMx,  TIM_ICInitStruct->TIM_ICPolarity,
1933:Drivers/STM32F4xx_StdPeriph_Driver/src/stm32f4xx_tim.c ****                TIM_ICInitStruct->TIM_ICSelection,
1934:Drivers/STM32F4xx_StdPeriph_Driver/src/stm32f4xx_tim.c ****                TIM_ICInitStruct->TIM_ICFilter);
1935:Drivers/STM32F4xx_StdPeriph_Driver/src/stm32f4xx_tim.c ****     /* Set the Input Capture Prescaler value */
1936:Drivers/STM32F4xx_StdPeriph_Driver/src/stm32f4xx_tim.c ****     TIM_SetIC3Prescaler(TIMx, TIM_ICInitStruct->TIM_ICPrescaler);
1937:Drivers/STM32F4xx_StdPeriph_Driver/src/stm32f4xx_tim.c ****   }
1938:Drivers/STM32F4xx_StdPeriph_Driver/src/stm32f4xx_tim.c ****   else
1939:Drivers/STM32F4xx_StdPeriph_Driver/src/stm32f4xx_tim.c ****   {
1940:Drivers/STM32F4xx_StdPeriph_Driver/src/stm32f4xx_tim.c ****     /* TI4 Configuration */
1941:Drivers/STM32F4xx_StdPeriph_Driver/src/stm32f4xx_tim.c ****     assert_param(IS_TIM_LIST3_PERIPH(TIMx));
ARM GAS  C:\Users\Admin\AppData\Local\Temp\ccwOX7Bd.s 			page 106


1942:Drivers/STM32F4xx_StdPeriph_Driver/src/stm32f4xx_tim.c ****     TI4_Config(TIMx, TIM_ICInitStruct->TIM_ICPolarity,
1943:Drivers/STM32F4xx_StdPeriph_Driver/src/stm32f4xx_tim.c ****                TIM_ICInitStruct->TIM_ICSelection,
1944:Drivers/STM32F4xx_StdPeriph_Driver/src/stm32f4xx_tim.c ****                TIM_ICInitStruct->TIM_ICFilter);
1945:Drivers/STM32F4xx_StdPeriph_Driver/src/stm32f4xx_tim.c ****     /* Set the Input Capture Prescaler value */
1946:Drivers/STM32F4xx_StdPeriph_Driver/src/stm32f4xx_tim.c ****     TIM_SetIC4Prescaler(TIMx, TIM_ICInitStruct->TIM_ICPrescaler);
1947:Drivers/STM32F4xx_StdPeriph_Driver/src/stm32f4xx_tim.c ****   }
1948:Drivers/STM32F4xx_StdPeriph_Driver/src/stm32f4xx_tim.c **** }
 4103              		.loc 1 1948 1
 4104 0030 36E0     		b	.L113
 4105              	.L109:
1918:Drivers/STM32F4xx_StdPeriph_Driver/src/stm32f4xx_tim.c ****   {
 4106              		.loc 1 1918 28
 4107 0032 3B68     		ldr	r3, [r7]
 4108 0034 1B88     		ldrh	r3, [r3]
1918:Drivers/STM32F4xx_StdPeriph_Driver/src/stm32f4xx_tim.c ****   {
 4109              		.loc 1 1918 11
 4110 0036 042B     		cmp	r3, #4
 4111 0038 0FD1     		bne	.L111
1922:Drivers/STM32F4xx_StdPeriph_Driver/src/stm32f4xx_tim.c ****                TIM_ICInitStruct->TIM_ICSelection,
 4112              		.loc 1 1922 5
 4113 003a 3B68     		ldr	r3, [r7]
 4114 003c 5988     		ldrh	r1, [r3, #2]
 4115 003e 3B68     		ldr	r3, [r7]
 4116 0040 9A88     		ldrh	r2, [r3, #4]
 4117 0042 3B68     		ldr	r3, [r7]
 4118 0044 1B89     		ldrh	r3, [r3, #8]
 4119 0046 7868     		ldr	r0, [r7, #4]
 4120 0048 FFF7FEFF 		bl	TI2_Config
1926:Drivers/STM32F4xx_StdPeriph_Driver/src/stm32f4xx_tim.c ****   }
 4121              		.loc 1 1926 5
 4122 004c 3B68     		ldr	r3, [r7]
 4123 004e DB88     		ldrh	r3, [r3, #6]
 4124 0050 1946     		mov	r1, r3
 4125 0052 7868     		ldr	r0, [r7, #4]
 4126 0054 FFF7FEFF 		bl	TIM_SetIC2Prescaler
 4127              		.loc 1 1948 1
 4128 0058 22E0     		b	.L113
 4129              	.L111:
1928:Drivers/STM32F4xx_StdPeriph_Driver/src/stm32f4xx_tim.c ****   {
 4130              		.loc 1 1928 28
 4131 005a 3B68     		ldr	r3, [r7]
 4132 005c 1B88     		ldrh	r3, [r3]
1928:Drivers/STM32F4xx_StdPeriph_Driver/src/stm32f4xx_tim.c ****   {
 4133              		.loc 1 1928 11
 4134 005e 082B     		cmp	r3, #8
 4135 0060 0FD1     		bne	.L112
1932:Drivers/STM32F4xx_StdPeriph_Driver/src/stm32f4xx_tim.c ****                TIM_ICInitStruct->TIM_ICSelection,
 4136              		.loc 1 1932 5
 4137 0062 3B68     		ldr	r3, [r7]
 4138 0064 5988     		ldrh	r1, [r3, #2]
 4139 0066 3B68     		ldr	r3, [r7]
 4140 0068 9A88     		ldrh	r2, [r3, #4]
 4141 006a 3B68     		ldr	r3, [r7]
 4142 006c 1B89     		ldrh	r3, [r3, #8]
 4143 006e 7868     		ldr	r0, [r7, #4]
 4144 0070 FFF7FEFF 		bl	TI3_Config
1936:Drivers/STM32F4xx_StdPeriph_Driver/src/stm32f4xx_tim.c ****   }
ARM GAS  C:\Users\Admin\AppData\Local\Temp\ccwOX7Bd.s 			page 107


 4145              		.loc 1 1936 5
 4146 0074 3B68     		ldr	r3, [r7]
 4147 0076 DB88     		ldrh	r3, [r3, #6]
 4148 0078 1946     		mov	r1, r3
 4149 007a 7868     		ldr	r0, [r7, #4]
 4150 007c FFF7FEFF 		bl	TIM_SetIC3Prescaler
 4151              		.loc 1 1948 1
 4152 0080 0EE0     		b	.L113
 4153              	.L112:
1942:Drivers/STM32F4xx_StdPeriph_Driver/src/stm32f4xx_tim.c ****                TIM_ICInitStruct->TIM_ICSelection,
 4154              		.loc 1 1942 5
 4155 0082 3B68     		ldr	r3, [r7]
 4156 0084 5988     		ldrh	r1, [r3, #2]
 4157 0086 3B68     		ldr	r3, [r7]
 4158 0088 9A88     		ldrh	r2, [r3, #4]
 4159 008a 3B68     		ldr	r3, [r7]
 4160 008c 1B89     		ldrh	r3, [r3, #8]
 4161 008e 7868     		ldr	r0, [r7, #4]
 4162 0090 FFF7FEFF 		bl	TI4_Config
1946:Drivers/STM32F4xx_StdPeriph_Driver/src/stm32f4xx_tim.c ****   }
 4163              		.loc 1 1946 5
 4164 0094 3B68     		ldr	r3, [r7]
 4165 0096 DB88     		ldrh	r3, [r3, #6]
 4166 0098 1946     		mov	r1, r3
 4167 009a 7868     		ldr	r0, [r7, #4]
 4168 009c FFF7FEFF 		bl	TIM_SetIC4Prescaler
 4169              	.L113:
 4170              		.loc 1 1948 1
 4171 00a0 00BF     		nop
 4172 00a2 0837     		adds	r7, r7, #8
 4173              	.LCFI302:
 4174              		.cfi_def_cfa_offset 8
 4175 00a4 BD46     		mov	sp, r7
 4176              	.LCFI303:
 4177              		.cfi_def_cfa_register 13
 4178              		@ sp needed
 4179 00a6 80BD     		pop	{r7, pc}
 4180              		.cfi_endproc
 4181              	.LFE180:
 4183              		.section	.text.TIM_ICStructInit,"ax",%progbits
 4184              		.align	1
 4185              		.global	TIM_ICStructInit
 4186              		.syntax unified
 4187              		.thumb
 4188              		.thumb_func
 4190              	TIM_ICStructInit:
 4191              	.LFB181:
1949:Drivers/STM32F4xx_StdPeriph_Driver/src/stm32f4xx_tim.c **** 
1950:Drivers/STM32F4xx_StdPeriph_Driver/src/stm32f4xx_tim.c **** /**
1951:Drivers/STM32F4xx_StdPeriph_Driver/src/stm32f4xx_tim.c ****   * @brief  Fills each TIM_ICInitStruct member with its default value.
1952:Drivers/STM32F4xx_StdPeriph_Driver/src/stm32f4xx_tim.c ****   * @param  TIM_ICInitStruct: pointer to a TIM_ICInitTypeDef structure which will
1953:Drivers/STM32F4xx_StdPeriph_Driver/src/stm32f4xx_tim.c ****   *         be initialized.
1954:Drivers/STM32F4xx_StdPeriph_Driver/src/stm32f4xx_tim.c ****   * @retval None
1955:Drivers/STM32F4xx_StdPeriph_Driver/src/stm32f4xx_tim.c ****   */
1956:Drivers/STM32F4xx_StdPeriph_Driver/src/stm32f4xx_tim.c **** void TIM_ICStructInit(TIM_ICInitTypeDef* TIM_ICInitStruct)
1957:Drivers/STM32F4xx_StdPeriph_Driver/src/stm32f4xx_tim.c **** {
 4192              		.loc 1 1957 1
ARM GAS  C:\Users\Admin\AppData\Local\Temp\ccwOX7Bd.s 			page 108


 4193              		.cfi_startproc
 4194              		@ args = 0, pretend = 0, frame = 8
 4195              		@ frame_needed = 1, uses_anonymous_args = 0
 4196              		@ link register save eliminated.
 4197 0000 80B4     		push	{r7}
 4198              	.LCFI304:
 4199              		.cfi_def_cfa_offset 4
 4200              		.cfi_offset 7, -4
 4201 0002 83B0     		sub	sp, sp, #12
 4202              	.LCFI305:
 4203              		.cfi_def_cfa_offset 16
 4204 0004 00AF     		add	r7, sp, #0
 4205              	.LCFI306:
 4206              		.cfi_def_cfa_register 7
 4207 0006 7860     		str	r0, [r7, #4]
1958:Drivers/STM32F4xx_StdPeriph_Driver/src/stm32f4xx_tim.c ****   /* Set the default configuration */
1959:Drivers/STM32F4xx_StdPeriph_Driver/src/stm32f4xx_tim.c ****   TIM_ICInitStruct->TIM_Channel = TIM_Channel_1;
 4208              		.loc 1 1959 33
 4209 0008 7B68     		ldr	r3, [r7, #4]
 4210 000a 0022     		movs	r2, #0
 4211 000c 1A80     		strh	r2, [r3]	@ movhi
1960:Drivers/STM32F4xx_StdPeriph_Driver/src/stm32f4xx_tim.c ****   TIM_ICInitStruct->TIM_ICPolarity = TIM_ICPolarity_Rising;
 4212              		.loc 1 1960 36
 4213 000e 7B68     		ldr	r3, [r7, #4]
 4214 0010 0022     		movs	r2, #0
 4215 0012 5A80     		strh	r2, [r3, #2]	@ movhi
1961:Drivers/STM32F4xx_StdPeriph_Driver/src/stm32f4xx_tim.c ****   TIM_ICInitStruct->TIM_ICSelection = TIM_ICSelection_DirectTI;
 4216              		.loc 1 1961 37
 4217 0014 7B68     		ldr	r3, [r7, #4]
 4218 0016 0122     		movs	r2, #1
 4219 0018 9A80     		strh	r2, [r3, #4]	@ movhi
1962:Drivers/STM32F4xx_StdPeriph_Driver/src/stm32f4xx_tim.c ****   TIM_ICInitStruct->TIM_ICPrescaler = TIM_ICPSC_DIV1;
 4220              		.loc 1 1962 37
 4221 001a 7B68     		ldr	r3, [r7, #4]
 4222 001c 0022     		movs	r2, #0
 4223 001e DA80     		strh	r2, [r3, #6]	@ movhi
1963:Drivers/STM32F4xx_StdPeriph_Driver/src/stm32f4xx_tim.c ****   TIM_ICInitStruct->TIM_ICFilter = 0x00;
 4224              		.loc 1 1963 34
 4225 0020 7B68     		ldr	r3, [r7, #4]
 4226 0022 0022     		movs	r2, #0
 4227 0024 1A81     		strh	r2, [r3, #8]	@ movhi
1964:Drivers/STM32F4xx_StdPeriph_Driver/src/stm32f4xx_tim.c **** }
 4228              		.loc 1 1964 1
 4229 0026 00BF     		nop
 4230 0028 0C37     		adds	r7, r7, #12
 4231              	.LCFI307:
 4232              		.cfi_def_cfa_offset 4
 4233 002a BD46     		mov	sp, r7
 4234              	.LCFI308:
 4235              		.cfi_def_cfa_register 13
 4236              		@ sp needed
 4237 002c 5DF8047B 		ldr	r7, [sp], #4
 4238              	.LCFI309:
 4239              		.cfi_restore 7
 4240              		.cfi_def_cfa_offset 0
 4241 0030 7047     		bx	lr
 4242              		.cfi_endproc
ARM GAS  C:\Users\Admin\AppData\Local\Temp\ccwOX7Bd.s 			page 109


 4243              	.LFE181:
 4245              		.section	.text.TIM_PWMIConfig,"ax",%progbits
 4246              		.align	1
 4247              		.global	TIM_PWMIConfig
 4248              		.syntax unified
 4249              		.thumb
 4250              		.thumb_func
 4252              	TIM_PWMIConfig:
 4253              	.LFB182:
1965:Drivers/STM32F4xx_StdPeriph_Driver/src/stm32f4xx_tim.c **** 
1966:Drivers/STM32F4xx_StdPeriph_Driver/src/stm32f4xx_tim.c **** /**
1967:Drivers/STM32F4xx_StdPeriph_Driver/src/stm32f4xx_tim.c ****   * @brief  Configures the TIM peripheral according to the specified parameters
1968:Drivers/STM32F4xx_StdPeriph_Driver/src/stm32f4xx_tim.c ****   *         in the TIM_ICInitStruct to measure an external PWM signal.
1969:Drivers/STM32F4xx_StdPeriph_Driver/src/stm32f4xx_tim.c ****   * @param  TIMx: where x can be  1, 2, 3, 4, 5,8, 9 or 12 to select the TIM 
1970:Drivers/STM32F4xx_StdPeriph_Driver/src/stm32f4xx_tim.c ****   *         peripheral.
1971:Drivers/STM32F4xx_StdPeriph_Driver/src/stm32f4xx_tim.c ****   * @param  TIM_ICInitStruct: pointer to a TIM_ICInitTypeDef structure that contains
1972:Drivers/STM32F4xx_StdPeriph_Driver/src/stm32f4xx_tim.c ****   *         the configuration information for the specified TIM peripheral.
1973:Drivers/STM32F4xx_StdPeriph_Driver/src/stm32f4xx_tim.c ****   * @retval None
1974:Drivers/STM32F4xx_StdPeriph_Driver/src/stm32f4xx_tim.c ****   */
1975:Drivers/STM32F4xx_StdPeriph_Driver/src/stm32f4xx_tim.c **** void TIM_PWMIConfig(TIM_TypeDef* TIMx, TIM_ICInitTypeDef* TIM_ICInitStruct)
1976:Drivers/STM32F4xx_StdPeriph_Driver/src/stm32f4xx_tim.c **** {
 4254              		.loc 1 1976 1
 4255              		.cfi_startproc
 4256              		@ args = 0, pretend = 0, frame = 16
 4257              		@ frame_needed = 1, uses_anonymous_args = 0
 4258 0000 80B5     		push	{r7, lr}
 4259              	.LCFI310:
 4260              		.cfi_def_cfa_offset 8
 4261              		.cfi_offset 7, -8
 4262              		.cfi_offset 14, -4
 4263 0002 84B0     		sub	sp, sp, #16
 4264              	.LCFI311:
 4265              		.cfi_def_cfa_offset 24
 4266 0004 00AF     		add	r7, sp, #0
 4267              	.LCFI312:
 4268              		.cfi_def_cfa_register 7
 4269 0006 7860     		str	r0, [r7, #4]
 4270 0008 3960     		str	r1, [r7]
1977:Drivers/STM32F4xx_StdPeriph_Driver/src/stm32f4xx_tim.c ****   uint16_t icoppositepolarity = TIM_ICPolarity_Rising;
 4271              		.loc 1 1977 12
 4272 000a 0023     		movs	r3, #0
 4273 000c FB81     		strh	r3, [r7, #14]	@ movhi
1978:Drivers/STM32F4xx_StdPeriph_Driver/src/stm32f4xx_tim.c ****   uint16_t icoppositeselection = TIM_ICSelection_DirectTI;
 4274              		.loc 1 1978 12
 4275 000e 0123     		movs	r3, #1
 4276 0010 BB81     		strh	r3, [r7, #12]	@ movhi
1979:Drivers/STM32F4xx_StdPeriph_Driver/src/stm32f4xx_tim.c **** 
1980:Drivers/STM32F4xx_StdPeriph_Driver/src/stm32f4xx_tim.c ****   /* Check the parameters */
1981:Drivers/STM32F4xx_StdPeriph_Driver/src/stm32f4xx_tim.c ****   assert_param(IS_TIM_LIST2_PERIPH(TIMx));
1982:Drivers/STM32F4xx_StdPeriph_Driver/src/stm32f4xx_tim.c **** 
1983:Drivers/STM32F4xx_StdPeriph_Driver/src/stm32f4xx_tim.c ****   /* Select the Opposite Input Polarity */
1984:Drivers/STM32F4xx_StdPeriph_Driver/src/stm32f4xx_tim.c ****   if (TIM_ICInitStruct->TIM_ICPolarity == TIM_ICPolarity_Rising)
 4277              		.loc 1 1984 23
 4278 0012 3B68     		ldr	r3, [r7]
 4279 0014 5B88     		ldrh	r3, [r3, #2]
 4280              		.loc 1 1984 6
 4281 0016 002B     		cmp	r3, #0
ARM GAS  C:\Users\Admin\AppData\Local\Temp\ccwOX7Bd.s 			page 110


 4282 0018 02D1     		bne	.L116
1985:Drivers/STM32F4xx_StdPeriph_Driver/src/stm32f4xx_tim.c ****   {
1986:Drivers/STM32F4xx_StdPeriph_Driver/src/stm32f4xx_tim.c ****     icoppositepolarity = TIM_ICPolarity_Falling;
 4283              		.loc 1 1986 24
 4284 001a 0223     		movs	r3, #2
 4285 001c FB81     		strh	r3, [r7, #14]	@ movhi
 4286 001e 01E0     		b	.L117
 4287              	.L116:
1987:Drivers/STM32F4xx_StdPeriph_Driver/src/stm32f4xx_tim.c ****   }
1988:Drivers/STM32F4xx_StdPeriph_Driver/src/stm32f4xx_tim.c ****   else
1989:Drivers/STM32F4xx_StdPeriph_Driver/src/stm32f4xx_tim.c ****   {
1990:Drivers/STM32F4xx_StdPeriph_Driver/src/stm32f4xx_tim.c ****     icoppositepolarity = TIM_ICPolarity_Rising;
 4288              		.loc 1 1990 24
 4289 0020 0023     		movs	r3, #0
 4290 0022 FB81     		strh	r3, [r7, #14]	@ movhi
 4291              	.L117:
1991:Drivers/STM32F4xx_StdPeriph_Driver/src/stm32f4xx_tim.c ****   }
1992:Drivers/STM32F4xx_StdPeriph_Driver/src/stm32f4xx_tim.c ****   /* Select the Opposite Input */
1993:Drivers/STM32F4xx_StdPeriph_Driver/src/stm32f4xx_tim.c ****   if (TIM_ICInitStruct->TIM_ICSelection == TIM_ICSelection_DirectTI)
 4292              		.loc 1 1993 23
 4293 0024 3B68     		ldr	r3, [r7]
 4294 0026 9B88     		ldrh	r3, [r3, #4]
 4295              		.loc 1 1993 6
 4296 0028 012B     		cmp	r3, #1
 4297 002a 02D1     		bne	.L118
1994:Drivers/STM32F4xx_StdPeriph_Driver/src/stm32f4xx_tim.c ****   {
1995:Drivers/STM32F4xx_StdPeriph_Driver/src/stm32f4xx_tim.c ****     icoppositeselection = TIM_ICSelection_IndirectTI;
 4298              		.loc 1 1995 25
 4299 002c 0223     		movs	r3, #2
 4300 002e BB81     		strh	r3, [r7, #12]	@ movhi
 4301 0030 01E0     		b	.L119
 4302              	.L118:
1996:Drivers/STM32F4xx_StdPeriph_Driver/src/stm32f4xx_tim.c ****   }
1997:Drivers/STM32F4xx_StdPeriph_Driver/src/stm32f4xx_tim.c ****   else
1998:Drivers/STM32F4xx_StdPeriph_Driver/src/stm32f4xx_tim.c ****   {
1999:Drivers/STM32F4xx_StdPeriph_Driver/src/stm32f4xx_tim.c ****     icoppositeselection = TIM_ICSelection_DirectTI;
 4303              		.loc 1 1999 25
 4304 0032 0123     		movs	r3, #1
 4305 0034 BB81     		strh	r3, [r7, #12]	@ movhi
 4306              	.L119:
2000:Drivers/STM32F4xx_StdPeriph_Driver/src/stm32f4xx_tim.c ****   }
2001:Drivers/STM32F4xx_StdPeriph_Driver/src/stm32f4xx_tim.c ****   if (TIM_ICInitStruct->TIM_Channel == TIM_Channel_1)
 4307              		.loc 1 2001 23
 4308 0036 3B68     		ldr	r3, [r7]
 4309 0038 1B88     		ldrh	r3, [r3]
 4310              		.loc 1 2001 6
 4311 003a 002B     		cmp	r3, #0
 4312 003c 1CD1     		bne	.L120
2002:Drivers/STM32F4xx_StdPeriph_Driver/src/stm32f4xx_tim.c ****   {
2003:Drivers/STM32F4xx_StdPeriph_Driver/src/stm32f4xx_tim.c ****     /* TI1 Configuration */
2004:Drivers/STM32F4xx_StdPeriph_Driver/src/stm32f4xx_tim.c ****     TI1_Config(TIMx, TIM_ICInitStruct->TIM_ICPolarity, TIM_ICInitStruct->TIM_ICSelection,
 4313              		.loc 1 2004 5
 4314 003e 3B68     		ldr	r3, [r7]
 4315 0040 5988     		ldrh	r1, [r3, #2]
 4316 0042 3B68     		ldr	r3, [r7]
 4317 0044 9A88     		ldrh	r2, [r3, #4]
 4318 0046 3B68     		ldr	r3, [r7]
ARM GAS  C:\Users\Admin\AppData\Local\Temp\ccwOX7Bd.s 			page 111


 4319 0048 1B89     		ldrh	r3, [r3, #8]
 4320 004a 7868     		ldr	r0, [r7, #4]
 4321 004c FFF7FEFF 		bl	TI1_Config
2005:Drivers/STM32F4xx_StdPeriph_Driver/src/stm32f4xx_tim.c ****                TIM_ICInitStruct->TIM_ICFilter);
2006:Drivers/STM32F4xx_StdPeriph_Driver/src/stm32f4xx_tim.c ****     /* Set the Input Capture Prescaler value */
2007:Drivers/STM32F4xx_StdPeriph_Driver/src/stm32f4xx_tim.c ****     TIM_SetIC1Prescaler(TIMx, TIM_ICInitStruct->TIM_ICPrescaler);
 4322              		.loc 1 2007 5
 4323 0050 3B68     		ldr	r3, [r7]
 4324 0052 DB88     		ldrh	r3, [r3, #6]
 4325 0054 1946     		mov	r1, r3
 4326 0056 7868     		ldr	r0, [r7, #4]
 4327 0058 FFF7FEFF 		bl	TIM_SetIC1Prescaler
2008:Drivers/STM32F4xx_StdPeriph_Driver/src/stm32f4xx_tim.c ****     /* TI2 Configuration */
2009:Drivers/STM32F4xx_StdPeriph_Driver/src/stm32f4xx_tim.c ****     TI2_Config(TIMx, icoppositepolarity, icoppositeselection, TIM_ICInitStruct->TIM_ICFilter);
 4328              		.loc 1 2009 5
 4329 005c 3B68     		ldr	r3, [r7]
 4330 005e 1B89     		ldrh	r3, [r3, #8]
 4331 0060 BA89     		ldrh	r2, [r7, #12]
 4332 0062 F989     		ldrh	r1, [r7, #14]
 4333 0064 7868     		ldr	r0, [r7, #4]
 4334 0066 FFF7FEFF 		bl	TI2_Config
2010:Drivers/STM32F4xx_StdPeriph_Driver/src/stm32f4xx_tim.c ****     /* Set the Input Capture Prescaler value */
2011:Drivers/STM32F4xx_StdPeriph_Driver/src/stm32f4xx_tim.c ****     TIM_SetIC2Prescaler(TIMx, TIM_ICInitStruct->TIM_ICPrescaler);
 4335              		.loc 1 2011 5
 4336 006a 3B68     		ldr	r3, [r7]
 4337 006c DB88     		ldrh	r3, [r3, #6]
 4338 006e 1946     		mov	r1, r3
 4339 0070 7868     		ldr	r0, [r7, #4]
 4340 0072 FFF7FEFF 		bl	TIM_SetIC2Prescaler
2012:Drivers/STM32F4xx_StdPeriph_Driver/src/stm32f4xx_tim.c ****   }
2013:Drivers/STM32F4xx_StdPeriph_Driver/src/stm32f4xx_tim.c ****   else
2014:Drivers/STM32F4xx_StdPeriph_Driver/src/stm32f4xx_tim.c ****   { 
2015:Drivers/STM32F4xx_StdPeriph_Driver/src/stm32f4xx_tim.c ****     /* TI2 Configuration */
2016:Drivers/STM32F4xx_StdPeriph_Driver/src/stm32f4xx_tim.c ****     TI2_Config(TIMx, TIM_ICInitStruct->TIM_ICPolarity, TIM_ICInitStruct->TIM_ICSelection,
2017:Drivers/STM32F4xx_StdPeriph_Driver/src/stm32f4xx_tim.c ****                TIM_ICInitStruct->TIM_ICFilter);
2018:Drivers/STM32F4xx_StdPeriph_Driver/src/stm32f4xx_tim.c ****     /* Set the Input Capture Prescaler value */
2019:Drivers/STM32F4xx_StdPeriph_Driver/src/stm32f4xx_tim.c ****     TIM_SetIC2Prescaler(TIMx, TIM_ICInitStruct->TIM_ICPrescaler);
2020:Drivers/STM32F4xx_StdPeriph_Driver/src/stm32f4xx_tim.c ****     /* TI1 Configuration */
2021:Drivers/STM32F4xx_StdPeriph_Driver/src/stm32f4xx_tim.c ****     TI1_Config(TIMx, icoppositepolarity, icoppositeselection, TIM_ICInitStruct->TIM_ICFilter);
2022:Drivers/STM32F4xx_StdPeriph_Driver/src/stm32f4xx_tim.c ****     /* Set the Input Capture Prescaler value */
2023:Drivers/STM32F4xx_StdPeriph_Driver/src/stm32f4xx_tim.c ****     TIM_SetIC1Prescaler(TIMx, TIM_ICInitStruct->TIM_ICPrescaler);
2024:Drivers/STM32F4xx_StdPeriph_Driver/src/stm32f4xx_tim.c ****   }
2025:Drivers/STM32F4xx_StdPeriph_Driver/src/stm32f4xx_tim.c **** }
 4341              		.loc 1 2025 1
 4342 0076 1BE0     		b	.L122
 4343              	.L120:
2016:Drivers/STM32F4xx_StdPeriph_Driver/src/stm32f4xx_tim.c ****                TIM_ICInitStruct->TIM_ICFilter);
 4344              		.loc 1 2016 5
 4345 0078 3B68     		ldr	r3, [r7]
 4346 007a 5988     		ldrh	r1, [r3, #2]
 4347 007c 3B68     		ldr	r3, [r7]
 4348 007e 9A88     		ldrh	r2, [r3, #4]
 4349 0080 3B68     		ldr	r3, [r7]
 4350 0082 1B89     		ldrh	r3, [r3, #8]
 4351 0084 7868     		ldr	r0, [r7, #4]
 4352 0086 FFF7FEFF 		bl	TI2_Config
2019:Drivers/STM32F4xx_StdPeriph_Driver/src/stm32f4xx_tim.c ****     /* TI1 Configuration */
ARM GAS  C:\Users\Admin\AppData\Local\Temp\ccwOX7Bd.s 			page 112


 4353              		.loc 1 2019 5
 4354 008a 3B68     		ldr	r3, [r7]
 4355 008c DB88     		ldrh	r3, [r3, #6]
 4356 008e 1946     		mov	r1, r3
 4357 0090 7868     		ldr	r0, [r7, #4]
 4358 0092 FFF7FEFF 		bl	TIM_SetIC2Prescaler
2021:Drivers/STM32F4xx_StdPeriph_Driver/src/stm32f4xx_tim.c ****     /* Set the Input Capture Prescaler value */
 4359              		.loc 1 2021 5
 4360 0096 3B68     		ldr	r3, [r7]
 4361 0098 1B89     		ldrh	r3, [r3, #8]
 4362 009a BA89     		ldrh	r2, [r7, #12]
 4363 009c F989     		ldrh	r1, [r7, #14]
 4364 009e 7868     		ldr	r0, [r7, #4]
 4365 00a0 FFF7FEFF 		bl	TI1_Config
2023:Drivers/STM32F4xx_StdPeriph_Driver/src/stm32f4xx_tim.c ****   }
 4366              		.loc 1 2023 5
 4367 00a4 3B68     		ldr	r3, [r7]
 4368 00a6 DB88     		ldrh	r3, [r3, #6]
 4369 00a8 1946     		mov	r1, r3
 4370 00aa 7868     		ldr	r0, [r7, #4]
 4371 00ac FFF7FEFF 		bl	TIM_SetIC1Prescaler
 4372              	.L122:
 4373              		.loc 1 2025 1
 4374 00b0 00BF     		nop
 4375 00b2 1037     		adds	r7, r7, #16
 4376              	.LCFI313:
 4377              		.cfi_def_cfa_offset 8
 4378 00b4 BD46     		mov	sp, r7
 4379              	.LCFI314:
 4380              		.cfi_def_cfa_register 13
 4381              		@ sp needed
 4382 00b6 80BD     		pop	{r7, pc}
 4383              		.cfi_endproc
 4384              	.LFE182:
 4386              		.section	.text.TIM_GetCapture1,"ax",%progbits
 4387              		.align	1
 4388              		.global	TIM_GetCapture1
 4389              		.syntax unified
 4390              		.thumb
 4391              		.thumb_func
 4393              	TIM_GetCapture1:
 4394              	.LFB183:
2026:Drivers/STM32F4xx_StdPeriph_Driver/src/stm32f4xx_tim.c **** 
2027:Drivers/STM32F4xx_StdPeriph_Driver/src/stm32f4xx_tim.c **** /**
2028:Drivers/STM32F4xx_StdPeriph_Driver/src/stm32f4xx_tim.c ****   * @brief  Gets the TIMx Input Capture 1 value.
2029:Drivers/STM32F4xx_StdPeriph_Driver/src/stm32f4xx_tim.c ****   * @param  TIMx: where x can be 1 to 14 except 6 and 7, to select the TIM peripheral.
2030:Drivers/STM32F4xx_StdPeriph_Driver/src/stm32f4xx_tim.c ****   * @retval Capture Compare 1 Register value.
2031:Drivers/STM32F4xx_StdPeriph_Driver/src/stm32f4xx_tim.c ****   */
2032:Drivers/STM32F4xx_StdPeriph_Driver/src/stm32f4xx_tim.c **** uint32_t TIM_GetCapture1(TIM_TypeDef* TIMx)
2033:Drivers/STM32F4xx_StdPeriph_Driver/src/stm32f4xx_tim.c **** {
 4395              		.loc 1 2033 1
 4396              		.cfi_startproc
 4397              		@ args = 0, pretend = 0, frame = 8
 4398              		@ frame_needed = 1, uses_anonymous_args = 0
 4399              		@ link register save eliminated.
 4400 0000 80B4     		push	{r7}
 4401              	.LCFI315:
ARM GAS  C:\Users\Admin\AppData\Local\Temp\ccwOX7Bd.s 			page 113


 4402              		.cfi_def_cfa_offset 4
 4403              		.cfi_offset 7, -4
 4404 0002 83B0     		sub	sp, sp, #12
 4405              	.LCFI316:
 4406              		.cfi_def_cfa_offset 16
 4407 0004 00AF     		add	r7, sp, #0
 4408              	.LCFI317:
 4409              		.cfi_def_cfa_register 7
 4410 0006 7860     		str	r0, [r7, #4]
2034:Drivers/STM32F4xx_StdPeriph_Driver/src/stm32f4xx_tim.c ****   /* Check the parameters */
2035:Drivers/STM32F4xx_StdPeriph_Driver/src/stm32f4xx_tim.c ****   assert_param(IS_TIM_LIST1_PERIPH(TIMx));
2036:Drivers/STM32F4xx_StdPeriph_Driver/src/stm32f4xx_tim.c **** 
2037:Drivers/STM32F4xx_StdPeriph_Driver/src/stm32f4xx_tim.c ****   /* Get the Capture 1 Register value */
2038:Drivers/STM32F4xx_StdPeriph_Driver/src/stm32f4xx_tim.c ****   return TIMx->CCR1;
 4411              		.loc 1 2038 14
 4412 0008 7B68     		ldr	r3, [r7, #4]
 4413 000a 5B6B     		ldr	r3, [r3, #52]
2039:Drivers/STM32F4xx_StdPeriph_Driver/src/stm32f4xx_tim.c **** }
 4414              		.loc 1 2039 1
 4415 000c 1846     		mov	r0, r3
 4416 000e 0C37     		adds	r7, r7, #12
 4417              	.LCFI318:
 4418              		.cfi_def_cfa_offset 4
 4419 0010 BD46     		mov	sp, r7
 4420              	.LCFI319:
 4421              		.cfi_def_cfa_register 13
 4422              		@ sp needed
 4423 0012 5DF8047B 		ldr	r7, [sp], #4
 4424              	.LCFI320:
 4425              		.cfi_restore 7
 4426              		.cfi_def_cfa_offset 0
 4427 0016 7047     		bx	lr
 4428              		.cfi_endproc
 4429              	.LFE183:
 4431              		.section	.text.TIM_GetCapture2,"ax",%progbits
 4432              		.align	1
 4433              		.global	TIM_GetCapture2
 4434              		.syntax unified
 4435              		.thumb
 4436              		.thumb_func
 4438              	TIM_GetCapture2:
 4439              	.LFB184:
2040:Drivers/STM32F4xx_StdPeriph_Driver/src/stm32f4xx_tim.c **** 
2041:Drivers/STM32F4xx_StdPeriph_Driver/src/stm32f4xx_tim.c **** /**
2042:Drivers/STM32F4xx_StdPeriph_Driver/src/stm32f4xx_tim.c ****   * @brief  Gets the TIMx Input Capture 2 value.
2043:Drivers/STM32F4xx_StdPeriph_Driver/src/stm32f4xx_tim.c ****   * @param  TIMx: where x can be 1, 2, 3, 4, 5, 8, 9 or 12 to select the TIM 
2044:Drivers/STM32F4xx_StdPeriph_Driver/src/stm32f4xx_tim.c ****   *         peripheral.
2045:Drivers/STM32F4xx_StdPeriph_Driver/src/stm32f4xx_tim.c ****   * @retval Capture Compare 2 Register value.
2046:Drivers/STM32F4xx_StdPeriph_Driver/src/stm32f4xx_tim.c ****   */
2047:Drivers/STM32F4xx_StdPeriph_Driver/src/stm32f4xx_tim.c **** uint32_t TIM_GetCapture2(TIM_TypeDef* TIMx)
2048:Drivers/STM32F4xx_StdPeriph_Driver/src/stm32f4xx_tim.c **** {
 4440              		.loc 1 2048 1
 4441              		.cfi_startproc
 4442              		@ args = 0, pretend = 0, frame = 8
 4443              		@ frame_needed = 1, uses_anonymous_args = 0
 4444              		@ link register save eliminated.
 4445 0000 80B4     		push	{r7}
ARM GAS  C:\Users\Admin\AppData\Local\Temp\ccwOX7Bd.s 			page 114


 4446              	.LCFI321:
 4447              		.cfi_def_cfa_offset 4
 4448              		.cfi_offset 7, -4
 4449 0002 83B0     		sub	sp, sp, #12
 4450              	.LCFI322:
 4451              		.cfi_def_cfa_offset 16
 4452 0004 00AF     		add	r7, sp, #0
 4453              	.LCFI323:
 4454              		.cfi_def_cfa_register 7
 4455 0006 7860     		str	r0, [r7, #4]
2049:Drivers/STM32F4xx_StdPeriph_Driver/src/stm32f4xx_tim.c ****   /* Check the parameters */
2050:Drivers/STM32F4xx_StdPeriph_Driver/src/stm32f4xx_tim.c ****   assert_param(IS_TIM_LIST2_PERIPH(TIMx));
2051:Drivers/STM32F4xx_StdPeriph_Driver/src/stm32f4xx_tim.c **** 
2052:Drivers/STM32F4xx_StdPeriph_Driver/src/stm32f4xx_tim.c ****   /* Get the Capture 2 Register value */
2053:Drivers/STM32F4xx_StdPeriph_Driver/src/stm32f4xx_tim.c ****   return TIMx->CCR2;
 4456              		.loc 1 2053 14
 4457 0008 7B68     		ldr	r3, [r7, #4]
 4458 000a 9B6B     		ldr	r3, [r3, #56]
2054:Drivers/STM32F4xx_StdPeriph_Driver/src/stm32f4xx_tim.c **** }
 4459              		.loc 1 2054 1
 4460 000c 1846     		mov	r0, r3
 4461 000e 0C37     		adds	r7, r7, #12
 4462              	.LCFI324:
 4463              		.cfi_def_cfa_offset 4
 4464 0010 BD46     		mov	sp, r7
 4465              	.LCFI325:
 4466              		.cfi_def_cfa_register 13
 4467              		@ sp needed
 4468 0012 5DF8047B 		ldr	r7, [sp], #4
 4469              	.LCFI326:
 4470              		.cfi_restore 7
 4471              		.cfi_def_cfa_offset 0
 4472 0016 7047     		bx	lr
 4473              		.cfi_endproc
 4474              	.LFE184:
 4476              		.section	.text.TIM_GetCapture3,"ax",%progbits
 4477              		.align	1
 4478              		.global	TIM_GetCapture3
 4479              		.syntax unified
 4480              		.thumb
 4481              		.thumb_func
 4483              	TIM_GetCapture3:
 4484              	.LFB185:
2055:Drivers/STM32F4xx_StdPeriph_Driver/src/stm32f4xx_tim.c **** 
2056:Drivers/STM32F4xx_StdPeriph_Driver/src/stm32f4xx_tim.c **** /**
2057:Drivers/STM32F4xx_StdPeriph_Driver/src/stm32f4xx_tim.c ****   * @brief  Gets the TIMx Input Capture 3 value.
2058:Drivers/STM32F4xx_StdPeriph_Driver/src/stm32f4xx_tim.c ****   * @param  TIMx: where x can be 1, 2, 3, 4, 5 or 8 to select the TIM peripheral.
2059:Drivers/STM32F4xx_StdPeriph_Driver/src/stm32f4xx_tim.c ****   * @retval Capture Compare 3 Register value.
2060:Drivers/STM32F4xx_StdPeriph_Driver/src/stm32f4xx_tim.c ****   */
2061:Drivers/STM32F4xx_StdPeriph_Driver/src/stm32f4xx_tim.c **** uint32_t TIM_GetCapture3(TIM_TypeDef* TIMx)
2062:Drivers/STM32F4xx_StdPeriph_Driver/src/stm32f4xx_tim.c **** {
 4485              		.loc 1 2062 1
 4486              		.cfi_startproc
 4487              		@ args = 0, pretend = 0, frame = 8
 4488              		@ frame_needed = 1, uses_anonymous_args = 0
 4489              		@ link register save eliminated.
 4490 0000 80B4     		push	{r7}
ARM GAS  C:\Users\Admin\AppData\Local\Temp\ccwOX7Bd.s 			page 115


 4491              	.LCFI327:
 4492              		.cfi_def_cfa_offset 4
 4493              		.cfi_offset 7, -4
 4494 0002 83B0     		sub	sp, sp, #12
 4495              	.LCFI328:
 4496              		.cfi_def_cfa_offset 16
 4497 0004 00AF     		add	r7, sp, #0
 4498              	.LCFI329:
 4499              		.cfi_def_cfa_register 7
 4500 0006 7860     		str	r0, [r7, #4]
2063:Drivers/STM32F4xx_StdPeriph_Driver/src/stm32f4xx_tim.c ****   /* Check the parameters */
2064:Drivers/STM32F4xx_StdPeriph_Driver/src/stm32f4xx_tim.c ****   assert_param(IS_TIM_LIST3_PERIPH(TIMx)); 
2065:Drivers/STM32F4xx_StdPeriph_Driver/src/stm32f4xx_tim.c **** 
2066:Drivers/STM32F4xx_StdPeriph_Driver/src/stm32f4xx_tim.c ****   /* Get the Capture 3 Register value */
2067:Drivers/STM32F4xx_StdPeriph_Driver/src/stm32f4xx_tim.c ****   return TIMx->CCR3;
 4501              		.loc 1 2067 14
 4502 0008 7B68     		ldr	r3, [r7, #4]
 4503 000a DB6B     		ldr	r3, [r3, #60]
2068:Drivers/STM32F4xx_StdPeriph_Driver/src/stm32f4xx_tim.c **** }
 4504              		.loc 1 2068 1
 4505 000c 1846     		mov	r0, r3
 4506 000e 0C37     		adds	r7, r7, #12
 4507              	.LCFI330:
 4508              		.cfi_def_cfa_offset 4
 4509 0010 BD46     		mov	sp, r7
 4510              	.LCFI331:
 4511              		.cfi_def_cfa_register 13
 4512              		@ sp needed
 4513 0012 5DF8047B 		ldr	r7, [sp], #4
 4514              	.LCFI332:
 4515              		.cfi_restore 7
 4516              		.cfi_def_cfa_offset 0
 4517 0016 7047     		bx	lr
 4518              		.cfi_endproc
 4519              	.LFE185:
 4521              		.section	.text.TIM_GetCapture4,"ax",%progbits
 4522              		.align	1
 4523              		.global	TIM_GetCapture4
 4524              		.syntax unified
 4525              		.thumb
 4526              		.thumb_func
 4528              	TIM_GetCapture4:
 4529              	.LFB186:
2069:Drivers/STM32F4xx_StdPeriph_Driver/src/stm32f4xx_tim.c **** 
2070:Drivers/STM32F4xx_StdPeriph_Driver/src/stm32f4xx_tim.c **** /**
2071:Drivers/STM32F4xx_StdPeriph_Driver/src/stm32f4xx_tim.c ****   * @brief  Gets the TIMx Input Capture 4 value.
2072:Drivers/STM32F4xx_StdPeriph_Driver/src/stm32f4xx_tim.c ****   * @param  TIMx: where x can be 1, 2, 3, 4, 5 or 8 to select the TIM peripheral.
2073:Drivers/STM32F4xx_StdPeriph_Driver/src/stm32f4xx_tim.c ****   * @retval Capture Compare 4 Register value.
2074:Drivers/STM32F4xx_StdPeriph_Driver/src/stm32f4xx_tim.c ****   */
2075:Drivers/STM32F4xx_StdPeriph_Driver/src/stm32f4xx_tim.c **** uint32_t TIM_GetCapture4(TIM_TypeDef* TIMx)
2076:Drivers/STM32F4xx_StdPeriph_Driver/src/stm32f4xx_tim.c **** {
 4530              		.loc 1 2076 1
 4531              		.cfi_startproc
 4532              		@ args = 0, pretend = 0, frame = 8
 4533              		@ frame_needed = 1, uses_anonymous_args = 0
 4534              		@ link register save eliminated.
 4535 0000 80B4     		push	{r7}
ARM GAS  C:\Users\Admin\AppData\Local\Temp\ccwOX7Bd.s 			page 116


 4536              	.LCFI333:
 4537              		.cfi_def_cfa_offset 4
 4538              		.cfi_offset 7, -4
 4539 0002 83B0     		sub	sp, sp, #12
 4540              	.LCFI334:
 4541              		.cfi_def_cfa_offset 16
 4542 0004 00AF     		add	r7, sp, #0
 4543              	.LCFI335:
 4544              		.cfi_def_cfa_register 7
 4545 0006 7860     		str	r0, [r7, #4]
2077:Drivers/STM32F4xx_StdPeriph_Driver/src/stm32f4xx_tim.c ****   /* Check the parameters */
2078:Drivers/STM32F4xx_StdPeriph_Driver/src/stm32f4xx_tim.c ****   assert_param(IS_TIM_LIST3_PERIPH(TIMx));
2079:Drivers/STM32F4xx_StdPeriph_Driver/src/stm32f4xx_tim.c **** 
2080:Drivers/STM32F4xx_StdPeriph_Driver/src/stm32f4xx_tim.c ****   /* Get the Capture 4 Register value */
2081:Drivers/STM32F4xx_StdPeriph_Driver/src/stm32f4xx_tim.c ****   return TIMx->CCR4;
 4546              		.loc 1 2081 14
 4547 0008 7B68     		ldr	r3, [r7, #4]
 4548 000a 1B6C     		ldr	r3, [r3, #64]
2082:Drivers/STM32F4xx_StdPeriph_Driver/src/stm32f4xx_tim.c **** }
 4549              		.loc 1 2082 1
 4550 000c 1846     		mov	r0, r3
 4551 000e 0C37     		adds	r7, r7, #12
 4552              	.LCFI336:
 4553              		.cfi_def_cfa_offset 4
 4554 0010 BD46     		mov	sp, r7
 4555              	.LCFI337:
 4556              		.cfi_def_cfa_register 13
 4557              		@ sp needed
 4558 0012 5DF8047B 		ldr	r7, [sp], #4
 4559              	.LCFI338:
 4560              		.cfi_restore 7
 4561              		.cfi_def_cfa_offset 0
 4562 0016 7047     		bx	lr
 4563              		.cfi_endproc
 4564              	.LFE186:
 4566              		.section	.text.TIM_SetIC1Prescaler,"ax",%progbits
 4567              		.align	1
 4568              		.global	TIM_SetIC1Prescaler
 4569              		.syntax unified
 4570              		.thumb
 4571              		.thumb_func
 4573              	TIM_SetIC1Prescaler:
 4574              	.LFB187:
2083:Drivers/STM32F4xx_StdPeriph_Driver/src/stm32f4xx_tim.c **** 
2084:Drivers/STM32F4xx_StdPeriph_Driver/src/stm32f4xx_tim.c **** /**
2085:Drivers/STM32F4xx_StdPeriph_Driver/src/stm32f4xx_tim.c ****   * @brief  Sets the TIMx Input Capture 1 prescaler.
2086:Drivers/STM32F4xx_StdPeriph_Driver/src/stm32f4xx_tim.c ****   * @param  TIMx: where x can be 1 to 14 except 6 and 7, to select the TIM peripheral.
2087:Drivers/STM32F4xx_StdPeriph_Driver/src/stm32f4xx_tim.c ****   * @param  TIM_ICPSC: specifies the Input Capture1 prescaler new value.
2088:Drivers/STM32F4xx_StdPeriph_Driver/src/stm32f4xx_tim.c ****   *          This parameter can be one of the following values:
2089:Drivers/STM32F4xx_StdPeriph_Driver/src/stm32f4xx_tim.c ****   *            @arg TIM_ICPSC_DIV1: no prescaler
2090:Drivers/STM32F4xx_StdPeriph_Driver/src/stm32f4xx_tim.c ****   *            @arg TIM_ICPSC_DIV2: capture is done once every 2 events
2091:Drivers/STM32F4xx_StdPeriph_Driver/src/stm32f4xx_tim.c ****   *            @arg TIM_ICPSC_DIV4: capture is done once every 4 events
2092:Drivers/STM32F4xx_StdPeriph_Driver/src/stm32f4xx_tim.c ****   *            @arg TIM_ICPSC_DIV8: capture is done once every 8 events
2093:Drivers/STM32F4xx_StdPeriph_Driver/src/stm32f4xx_tim.c ****   * @retval None
2094:Drivers/STM32F4xx_StdPeriph_Driver/src/stm32f4xx_tim.c ****   */
2095:Drivers/STM32F4xx_StdPeriph_Driver/src/stm32f4xx_tim.c **** void TIM_SetIC1Prescaler(TIM_TypeDef* TIMx, uint16_t TIM_ICPSC)
2096:Drivers/STM32F4xx_StdPeriph_Driver/src/stm32f4xx_tim.c **** {
ARM GAS  C:\Users\Admin\AppData\Local\Temp\ccwOX7Bd.s 			page 117


 4575              		.loc 1 2096 1
 4576              		.cfi_startproc
 4577              		@ args = 0, pretend = 0, frame = 8
 4578              		@ frame_needed = 1, uses_anonymous_args = 0
 4579              		@ link register save eliminated.
 4580 0000 80B4     		push	{r7}
 4581              	.LCFI339:
 4582              		.cfi_def_cfa_offset 4
 4583              		.cfi_offset 7, -4
 4584 0002 83B0     		sub	sp, sp, #12
 4585              	.LCFI340:
 4586              		.cfi_def_cfa_offset 16
 4587 0004 00AF     		add	r7, sp, #0
 4588              	.LCFI341:
 4589              		.cfi_def_cfa_register 7
 4590 0006 7860     		str	r0, [r7, #4]
 4591 0008 0B46     		mov	r3, r1
 4592 000a 7B80     		strh	r3, [r7, #2]	@ movhi
2097:Drivers/STM32F4xx_StdPeriph_Driver/src/stm32f4xx_tim.c ****   /* Check the parameters */
2098:Drivers/STM32F4xx_StdPeriph_Driver/src/stm32f4xx_tim.c ****   assert_param(IS_TIM_LIST1_PERIPH(TIMx));
2099:Drivers/STM32F4xx_StdPeriph_Driver/src/stm32f4xx_tim.c ****   assert_param(IS_TIM_IC_PRESCALER(TIM_ICPSC));
2100:Drivers/STM32F4xx_StdPeriph_Driver/src/stm32f4xx_tim.c **** 
2101:Drivers/STM32F4xx_StdPeriph_Driver/src/stm32f4xx_tim.c ****   /* Reset the IC1PSC Bits */
2102:Drivers/STM32F4xx_StdPeriph_Driver/src/stm32f4xx_tim.c ****   TIMx->CCMR1 &= (uint16_t)~TIM_CCMR1_IC1PSC;
 4593              		.loc 1 2102 15
 4594 000c 7B68     		ldr	r3, [r7, #4]
 4595 000e 1B8B     		ldrh	r3, [r3, #24]	@ movhi
 4596 0010 9BB2     		uxth	r3, r3
 4597 0012 23F00C03 		bic	r3, r3, #12
 4598 0016 9AB2     		uxth	r2, r3
 4599 0018 7B68     		ldr	r3, [r7, #4]
 4600 001a 1A83     		strh	r2, [r3, #24]	@ movhi
2103:Drivers/STM32F4xx_StdPeriph_Driver/src/stm32f4xx_tim.c **** 
2104:Drivers/STM32F4xx_StdPeriph_Driver/src/stm32f4xx_tim.c ****   /* Set the IC1PSC value */
2105:Drivers/STM32F4xx_StdPeriph_Driver/src/stm32f4xx_tim.c ****   TIMx->CCMR1 |= TIM_ICPSC;
 4601              		.loc 1 2105 15
 4602 001c 7B68     		ldr	r3, [r7, #4]
 4603 001e 1B8B     		ldrh	r3, [r3, #24]	@ movhi
 4604 0020 9AB2     		uxth	r2, r3
 4605 0022 7B88     		ldrh	r3, [r7, #2]	@ movhi
 4606 0024 1343     		orrs	r3, r3, r2
 4607 0026 9AB2     		uxth	r2, r3
 4608 0028 7B68     		ldr	r3, [r7, #4]
 4609 002a 1A83     		strh	r2, [r3, #24]	@ movhi
2106:Drivers/STM32F4xx_StdPeriph_Driver/src/stm32f4xx_tim.c **** }
 4610              		.loc 1 2106 1
 4611 002c 00BF     		nop
 4612 002e 0C37     		adds	r7, r7, #12
 4613              	.LCFI342:
 4614              		.cfi_def_cfa_offset 4
 4615 0030 BD46     		mov	sp, r7
 4616              	.LCFI343:
 4617              		.cfi_def_cfa_register 13
 4618              		@ sp needed
 4619 0032 5DF8047B 		ldr	r7, [sp], #4
 4620              	.LCFI344:
 4621              		.cfi_restore 7
ARM GAS  C:\Users\Admin\AppData\Local\Temp\ccwOX7Bd.s 			page 118


 4622              		.cfi_def_cfa_offset 0
 4623 0036 7047     		bx	lr
 4624              		.cfi_endproc
 4625              	.LFE187:
 4627              		.section	.text.TIM_SetIC2Prescaler,"ax",%progbits
 4628              		.align	1
 4629              		.global	TIM_SetIC2Prescaler
 4630              		.syntax unified
 4631              		.thumb
 4632              		.thumb_func
 4634              	TIM_SetIC2Prescaler:
 4635              	.LFB188:
2107:Drivers/STM32F4xx_StdPeriph_Driver/src/stm32f4xx_tim.c **** 
2108:Drivers/STM32F4xx_StdPeriph_Driver/src/stm32f4xx_tim.c **** /**
2109:Drivers/STM32F4xx_StdPeriph_Driver/src/stm32f4xx_tim.c ****   * @brief  Sets the TIMx Input Capture 2 prescaler.
2110:Drivers/STM32F4xx_StdPeriph_Driver/src/stm32f4xx_tim.c ****   * @param  TIMx: where x can be 1, 2, 3, 4, 5, 8, 9 or 12 to select the TIM 
2111:Drivers/STM32F4xx_StdPeriph_Driver/src/stm32f4xx_tim.c ****   *         peripheral.
2112:Drivers/STM32F4xx_StdPeriph_Driver/src/stm32f4xx_tim.c ****   * @param  TIM_ICPSC: specifies the Input Capture2 prescaler new value.
2113:Drivers/STM32F4xx_StdPeriph_Driver/src/stm32f4xx_tim.c ****   *          This parameter can be one of the following values:
2114:Drivers/STM32F4xx_StdPeriph_Driver/src/stm32f4xx_tim.c ****   *            @arg TIM_ICPSC_DIV1: no prescaler
2115:Drivers/STM32F4xx_StdPeriph_Driver/src/stm32f4xx_tim.c ****   *            @arg TIM_ICPSC_DIV2: capture is done once every 2 events
2116:Drivers/STM32F4xx_StdPeriph_Driver/src/stm32f4xx_tim.c ****   *            @arg TIM_ICPSC_DIV4: capture is done once every 4 events
2117:Drivers/STM32F4xx_StdPeriph_Driver/src/stm32f4xx_tim.c ****   *            @arg TIM_ICPSC_DIV8: capture is done once every 8 events
2118:Drivers/STM32F4xx_StdPeriph_Driver/src/stm32f4xx_tim.c ****   * @retval None
2119:Drivers/STM32F4xx_StdPeriph_Driver/src/stm32f4xx_tim.c ****   */
2120:Drivers/STM32F4xx_StdPeriph_Driver/src/stm32f4xx_tim.c **** void TIM_SetIC2Prescaler(TIM_TypeDef* TIMx, uint16_t TIM_ICPSC)
2121:Drivers/STM32F4xx_StdPeriph_Driver/src/stm32f4xx_tim.c **** {
 4636              		.loc 1 2121 1
 4637              		.cfi_startproc
 4638              		@ args = 0, pretend = 0, frame = 8
 4639              		@ frame_needed = 1, uses_anonymous_args = 0
 4640              		@ link register save eliminated.
 4641 0000 80B4     		push	{r7}
 4642              	.LCFI345:
 4643              		.cfi_def_cfa_offset 4
 4644              		.cfi_offset 7, -4
 4645 0002 83B0     		sub	sp, sp, #12
 4646              	.LCFI346:
 4647              		.cfi_def_cfa_offset 16
 4648 0004 00AF     		add	r7, sp, #0
 4649              	.LCFI347:
 4650              		.cfi_def_cfa_register 7
 4651 0006 7860     		str	r0, [r7, #4]
 4652 0008 0B46     		mov	r3, r1
 4653 000a 7B80     		strh	r3, [r7, #2]	@ movhi
2122:Drivers/STM32F4xx_StdPeriph_Driver/src/stm32f4xx_tim.c ****   /* Check the parameters */
2123:Drivers/STM32F4xx_StdPeriph_Driver/src/stm32f4xx_tim.c ****   assert_param(IS_TIM_LIST2_PERIPH(TIMx));
2124:Drivers/STM32F4xx_StdPeriph_Driver/src/stm32f4xx_tim.c ****   assert_param(IS_TIM_IC_PRESCALER(TIM_ICPSC));
2125:Drivers/STM32F4xx_StdPeriph_Driver/src/stm32f4xx_tim.c **** 
2126:Drivers/STM32F4xx_StdPeriph_Driver/src/stm32f4xx_tim.c ****   /* Reset the IC2PSC Bits */
2127:Drivers/STM32F4xx_StdPeriph_Driver/src/stm32f4xx_tim.c ****   TIMx->CCMR1 &= (uint16_t)~TIM_CCMR1_IC2PSC;
 4654              		.loc 1 2127 15
 4655 000c 7B68     		ldr	r3, [r7, #4]
 4656 000e 1B8B     		ldrh	r3, [r3, #24]	@ movhi
 4657 0010 9BB2     		uxth	r3, r3
 4658 0012 23F44063 		bic	r3, r3, #3072
 4659 0016 9AB2     		uxth	r2, r3
ARM GAS  C:\Users\Admin\AppData\Local\Temp\ccwOX7Bd.s 			page 119


 4660 0018 7B68     		ldr	r3, [r7, #4]
 4661 001a 1A83     		strh	r2, [r3, #24]	@ movhi
2128:Drivers/STM32F4xx_StdPeriph_Driver/src/stm32f4xx_tim.c **** 
2129:Drivers/STM32F4xx_StdPeriph_Driver/src/stm32f4xx_tim.c ****   /* Set the IC2PSC value */
2130:Drivers/STM32F4xx_StdPeriph_Driver/src/stm32f4xx_tim.c ****   TIMx->CCMR1 |= (uint16_t)(TIM_ICPSC << 8);
 4662              		.loc 1 2130 15
 4663 001c 7B68     		ldr	r3, [r7, #4]
 4664 001e 1B8B     		ldrh	r3, [r3, #24]	@ movhi
 4665 0020 9AB2     		uxth	r2, r3
 4666              		.loc 1 2130 18
 4667 0022 7B88     		ldrh	r3, [r7, #2]	@ movhi
 4668 0024 1B02     		lsls	r3, r3, #8
 4669 0026 9BB2     		uxth	r3, r3
 4670              		.loc 1 2130 15
 4671 0028 1343     		orrs	r3, r3, r2
 4672 002a 9AB2     		uxth	r2, r3
 4673 002c 7B68     		ldr	r3, [r7, #4]
 4674 002e 1A83     		strh	r2, [r3, #24]	@ movhi
2131:Drivers/STM32F4xx_StdPeriph_Driver/src/stm32f4xx_tim.c **** }
 4675              		.loc 1 2131 1
 4676 0030 00BF     		nop
 4677 0032 0C37     		adds	r7, r7, #12
 4678              	.LCFI348:
 4679              		.cfi_def_cfa_offset 4
 4680 0034 BD46     		mov	sp, r7
 4681              	.LCFI349:
 4682              		.cfi_def_cfa_register 13
 4683              		@ sp needed
 4684 0036 5DF8047B 		ldr	r7, [sp], #4
 4685              	.LCFI350:
 4686              		.cfi_restore 7
 4687              		.cfi_def_cfa_offset 0
 4688 003a 7047     		bx	lr
 4689              		.cfi_endproc
 4690              	.LFE188:
 4692              		.section	.text.TIM_SetIC3Prescaler,"ax",%progbits
 4693              		.align	1
 4694              		.global	TIM_SetIC3Prescaler
 4695              		.syntax unified
 4696              		.thumb
 4697              		.thumb_func
 4699              	TIM_SetIC3Prescaler:
 4700              	.LFB189:
2132:Drivers/STM32F4xx_StdPeriph_Driver/src/stm32f4xx_tim.c **** 
2133:Drivers/STM32F4xx_StdPeriph_Driver/src/stm32f4xx_tim.c **** /**
2134:Drivers/STM32F4xx_StdPeriph_Driver/src/stm32f4xx_tim.c ****   * @brief  Sets the TIMx Input Capture 3 prescaler.
2135:Drivers/STM32F4xx_StdPeriph_Driver/src/stm32f4xx_tim.c ****   * @param  TIMx: where x can be 1, 2, 3, 4, 5 or 8 to select the TIM peripheral.
2136:Drivers/STM32F4xx_StdPeriph_Driver/src/stm32f4xx_tim.c ****   * @param  TIM_ICPSC: specifies the Input Capture3 prescaler new value.
2137:Drivers/STM32F4xx_StdPeriph_Driver/src/stm32f4xx_tim.c ****   *          This parameter can be one of the following values:
2138:Drivers/STM32F4xx_StdPeriph_Driver/src/stm32f4xx_tim.c ****   *            @arg TIM_ICPSC_DIV1: no prescaler
2139:Drivers/STM32F4xx_StdPeriph_Driver/src/stm32f4xx_tim.c ****   *            @arg TIM_ICPSC_DIV2: capture is done once every 2 events
2140:Drivers/STM32F4xx_StdPeriph_Driver/src/stm32f4xx_tim.c ****   *            @arg TIM_ICPSC_DIV4: capture is done once every 4 events
2141:Drivers/STM32F4xx_StdPeriph_Driver/src/stm32f4xx_tim.c ****   *            @arg TIM_ICPSC_DIV8: capture is done once every 8 events
2142:Drivers/STM32F4xx_StdPeriph_Driver/src/stm32f4xx_tim.c ****   * @retval None
2143:Drivers/STM32F4xx_StdPeriph_Driver/src/stm32f4xx_tim.c ****   */
2144:Drivers/STM32F4xx_StdPeriph_Driver/src/stm32f4xx_tim.c **** void TIM_SetIC3Prescaler(TIM_TypeDef* TIMx, uint16_t TIM_ICPSC)
2145:Drivers/STM32F4xx_StdPeriph_Driver/src/stm32f4xx_tim.c **** {
ARM GAS  C:\Users\Admin\AppData\Local\Temp\ccwOX7Bd.s 			page 120


 4701              		.loc 1 2145 1
 4702              		.cfi_startproc
 4703              		@ args = 0, pretend = 0, frame = 8
 4704              		@ frame_needed = 1, uses_anonymous_args = 0
 4705              		@ link register save eliminated.
 4706 0000 80B4     		push	{r7}
 4707              	.LCFI351:
 4708              		.cfi_def_cfa_offset 4
 4709              		.cfi_offset 7, -4
 4710 0002 83B0     		sub	sp, sp, #12
 4711              	.LCFI352:
 4712              		.cfi_def_cfa_offset 16
 4713 0004 00AF     		add	r7, sp, #0
 4714              	.LCFI353:
 4715              		.cfi_def_cfa_register 7
 4716 0006 7860     		str	r0, [r7, #4]
 4717 0008 0B46     		mov	r3, r1
 4718 000a 7B80     		strh	r3, [r7, #2]	@ movhi
2146:Drivers/STM32F4xx_StdPeriph_Driver/src/stm32f4xx_tim.c ****   /* Check the parameters */
2147:Drivers/STM32F4xx_StdPeriph_Driver/src/stm32f4xx_tim.c ****   assert_param(IS_TIM_LIST3_PERIPH(TIMx));
2148:Drivers/STM32F4xx_StdPeriph_Driver/src/stm32f4xx_tim.c ****   assert_param(IS_TIM_IC_PRESCALER(TIM_ICPSC));
2149:Drivers/STM32F4xx_StdPeriph_Driver/src/stm32f4xx_tim.c **** 
2150:Drivers/STM32F4xx_StdPeriph_Driver/src/stm32f4xx_tim.c ****   /* Reset the IC3PSC Bits */
2151:Drivers/STM32F4xx_StdPeriph_Driver/src/stm32f4xx_tim.c ****   TIMx->CCMR2 &= (uint16_t)~TIM_CCMR2_IC3PSC;
 4719              		.loc 1 2151 15
 4720 000c 7B68     		ldr	r3, [r7, #4]
 4721 000e 9B8B     		ldrh	r3, [r3, #28]	@ movhi
 4722 0010 9BB2     		uxth	r3, r3
 4723 0012 23F00C03 		bic	r3, r3, #12
 4724 0016 9AB2     		uxth	r2, r3
 4725 0018 7B68     		ldr	r3, [r7, #4]
 4726 001a 9A83     		strh	r2, [r3, #28]	@ movhi
2152:Drivers/STM32F4xx_StdPeriph_Driver/src/stm32f4xx_tim.c **** 
2153:Drivers/STM32F4xx_StdPeriph_Driver/src/stm32f4xx_tim.c ****   /* Set the IC3PSC value */
2154:Drivers/STM32F4xx_StdPeriph_Driver/src/stm32f4xx_tim.c ****   TIMx->CCMR2 |= TIM_ICPSC;
 4727              		.loc 1 2154 15
 4728 001c 7B68     		ldr	r3, [r7, #4]
 4729 001e 9B8B     		ldrh	r3, [r3, #28]	@ movhi
 4730 0020 9AB2     		uxth	r2, r3
 4731 0022 7B88     		ldrh	r3, [r7, #2]	@ movhi
 4732 0024 1343     		orrs	r3, r3, r2
 4733 0026 9AB2     		uxth	r2, r3
 4734 0028 7B68     		ldr	r3, [r7, #4]
 4735 002a 9A83     		strh	r2, [r3, #28]	@ movhi
2155:Drivers/STM32F4xx_StdPeriph_Driver/src/stm32f4xx_tim.c **** }
 4736              		.loc 1 2155 1
 4737 002c 00BF     		nop
 4738 002e 0C37     		adds	r7, r7, #12
 4739              	.LCFI354:
 4740              		.cfi_def_cfa_offset 4
 4741 0030 BD46     		mov	sp, r7
 4742              	.LCFI355:
 4743              		.cfi_def_cfa_register 13
 4744              		@ sp needed
 4745 0032 5DF8047B 		ldr	r7, [sp], #4
 4746              	.LCFI356:
 4747              		.cfi_restore 7
ARM GAS  C:\Users\Admin\AppData\Local\Temp\ccwOX7Bd.s 			page 121


 4748              		.cfi_def_cfa_offset 0
 4749 0036 7047     		bx	lr
 4750              		.cfi_endproc
 4751              	.LFE189:
 4753              		.section	.text.TIM_SetIC4Prescaler,"ax",%progbits
 4754              		.align	1
 4755              		.global	TIM_SetIC4Prescaler
 4756              		.syntax unified
 4757              		.thumb
 4758              		.thumb_func
 4760              	TIM_SetIC4Prescaler:
 4761              	.LFB190:
2156:Drivers/STM32F4xx_StdPeriph_Driver/src/stm32f4xx_tim.c **** 
2157:Drivers/STM32F4xx_StdPeriph_Driver/src/stm32f4xx_tim.c **** /**
2158:Drivers/STM32F4xx_StdPeriph_Driver/src/stm32f4xx_tim.c ****   * @brief  Sets the TIMx Input Capture 4 prescaler.
2159:Drivers/STM32F4xx_StdPeriph_Driver/src/stm32f4xx_tim.c ****   * @param  TIMx: where x can be 1, 2, 3, 4, 5 or 8 to select the TIM peripheral.
2160:Drivers/STM32F4xx_StdPeriph_Driver/src/stm32f4xx_tim.c ****   * @param  TIM_ICPSC: specifies the Input Capture4 prescaler new value.
2161:Drivers/STM32F4xx_StdPeriph_Driver/src/stm32f4xx_tim.c ****   *          This parameter can be one of the following values:
2162:Drivers/STM32F4xx_StdPeriph_Driver/src/stm32f4xx_tim.c ****   *            @arg TIM_ICPSC_DIV1: no prescaler
2163:Drivers/STM32F4xx_StdPeriph_Driver/src/stm32f4xx_tim.c ****   *            @arg TIM_ICPSC_DIV2: capture is done once every 2 events
2164:Drivers/STM32F4xx_StdPeriph_Driver/src/stm32f4xx_tim.c ****   *            @arg TIM_ICPSC_DIV4: capture is done once every 4 events
2165:Drivers/STM32F4xx_StdPeriph_Driver/src/stm32f4xx_tim.c ****   *            @arg TIM_ICPSC_DIV8: capture is done once every 8 events
2166:Drivers/STM32F4xx_StdPeriph_Driver/src/stm32f4xx_tim.c ****   * @retval None
2167:Drivers/STM32F4xx_StdPeriph_Driver/src/stm32f4xx_tim.c ****   */
2168:Drivers/STM32F4xx_StdPeriph_Driver/src/stm32f4xx_tim.c **** void TIM_SetIC4Prescaler(TIM_TypeDef* TIMx, uint16_t TIM_ICPSC)
2169:Drivers/STM32F4xx_StdPeriph_Driver/src/stm32f4xx_tim.c **** {  
 4762              		.loc 1 2169 1
 4763              		.cfi_startproc
 4764              		@ args = 0, pretend = 0, frame = 8
 4765              		@ frame_needed = 1, uses_anonymous_args = 0
 4766              		@ link register save eliminated.
 4767 0000 80B4     		push	{r7}
 4768              	.LCFI357:
 4769              		.cfi_def_cfa_offset 4
 4770              		.cfi_offset 7, -4
 4771 0002 83B0     		sub	sp, sp, #12
 4772              	.LCFI358:
 4773              		.cfi_def_cfa_offset 16
 4774 0004 00AF     		add	r7, sp, #0
 4775              	.LCFI359:
 4776              		.cfi_def_cfa_register 7
 4777 0006 7860     		str	r0, [r7, #4]
 4778 0008 0B46     		mov	r3, r1
 4779 000a 7B80     		strh	r3, [r7, #2]	@ movhi
2170:Drivers/STM32F4xx_StdPeriph_Driver/src/stm32f4xx_tim.c ****   /* Check the parameters */
2171:Drivers/STM32F4xx_StdPeriph_Driver/src/stm32f4xx_tim.c ****   assert_param(IS_TIM_LIST3_PERIPH(TIMx));
2172:Drivers/STM32F4xx_StdPeriph_Driver/src/stm32f4xx_tim.c ****   assert_param(IS_TIM_IC_PRESCALER(TIM_ICPSC));
2173:Drivers/STM32F4xx_StdPeriph_Driver/src/stm32f4xx_tim.c **** 
2174:Drivers/STM32F4xx_StdPeriph_Driver/src/stm32f4xx_tim.c ****   /* Reset the IC4PSC Bits */
2175:Drivers/STM32F4xx_StdPeriph_Driver/src/stm32f4xx_tim.c ****   TIMx->CCMR2 &= (uint16_t)~TIM_CCMR2_IC4PSC;
 4780              		.loc 1 2175 15
 4781 000c 7B68     		ldr	r3, [r7, #4]
 4782 000e 9B8B     		ldrh	r3, [r3, #28]	@ movhi
 4783 0010 9BB2     		uxth	r3, r3
 4784 0012 23F44063 		bic	r3, r3, #3072
 4785 0016 9AB2     		uxth	r2, r3
 4786 0018 7B68     		ldr	r3, [r7, #4]
ARM GAS  C:\Users\Admin\AppData\Local\Temp\ccwOX7Bd.s 			page 122


 4787 001a 9A83     		strh	r2, [r3, #28]	@ movhi
2176:Drivers/STM32F4xx_StdPeriph_Driver/src/stm32f4xx_tim.c **** 
2177:Drivers/STM32F4xx_StdPeriph_Driver/src/stm32f4xx_tim.c ****   /* Set the IC4PSC value */
2178:Drivers/STM32F4xx_StdPeriph_Driver/src/stm32f4xx_tim.c ****   TIMx->CCMR2 |= (uint16_t)(TIM_ICPSC << 8);
 4788              		.loc 1 2178 15
 4789 001c 7B68     		ldr	r3, [r7, #4]
 4790 001e 9B8B     		ldrh	r3, [r3, #28]	@ movhi
 4791 0020 9AB2     		uxth	r2, r3
 4792              		.loc 1 2178 18
 4793 0022 7B88     		ldrh	r3, [r7, #2]	@ movhi
 4794 0024 1B02     		lsls	r3, r3, #8
 4795 0026 9BB2     		uxth	r3, r3
 4796              		.loc 1 2178 15
 4797 0028 1343     		orrs	r3, r3, r2
 4798 002a 9AB2     		uxth	r2, r3
 4799 002c 7B68     		ldr	r3, [r7, #4]
 4800 002e 9A83     		strh	r2, [r3, #28]	@ movhi
2179:Drivers/STM32F4xx_StdPeriph_Driver/src/stm32f4xx_tim.c **** }
 4801              		.loc 1 2179 1
 4802 0030 00BF     		nop
 4803 0032 0C37     		adds	r7, r7, #12
 4804              	.LCFI360:
 4805              		.cfi_def_cfa_offset 4
 4806 0034 BD46     		mov	sp, r7
 4807              	.LCFI361:
 4808              		.cfi_def_cfa_register 13
 4809              		@ sp needed
 4810 0036 5DF8047B 		ldr	r7, [sp], #4
 4811              	.LCFI362:
 4812              		.cfi_restore 7
 4813              		.cfi_def_cfa_offset 0
 4814 003a 7047     		bx	lr
 4815              		.cfi_endproc
 4816              	.LFE190:
 4818              		.section	.text.TIM_BDTRConfig,"ax",%progbits
 4819              		.align	1
 4820              		.global	TIM_BDTRConfig
 4821              		.syntax unified
 4822              		.thumb
 4823              		.thumb_func
 4825              	TIM_BDTRConfig:
 4826              	.LFB191:
2180:Drivers/STM32F4xx_StdPeriph_Driver/src/stm32f4xx_tim.c **** /**
2181:Drivers/STM32F4xx_StdPeriph_Driver/src/stm32f4xx_tim.c ****   * @}
2182:Drivers/STM32F4xx_StdPeriph_Driver/src/stm32f4xx_tim.c ****   */
2183:Drivers/STM32F4xx_StdPeriph_Driver/src/stm32f4xx_tim.c **** 
2184:Drivers/STM32F4xx_StdPeriph_Driver/src/stm32f4xx_tim.c **** /** @defgroup TIM_Group4 Advanced-control timers (TIM1 and TIM8) specific features
2185:Drivers/STM32F4xx_StdPeriph_Driver/src/stm32f4xx_tim.c ****  *  @brief   Advanced-control timers (TIM1 and TIM8) specific features
2186:Drivers/STM32F4xx_StdPeriph_Driver/src/stm32f4xx_tim.c ****  *
2187:Drivers/STM32F4xx_StdPeriph_Driver/src/stm32f4xx_tim.c **** @verbatim   
2188:Drivers/STM32F4xx_StdPeriph_Driver/src/stm32f4xx_tim.c ****  ===============================================================================
2189:Drivers/STM32F4xx_StdPeriph_Driver/src/stm32f4xx_tim.c ****       ##### Advanced-control timers (TIM1 and TIM8) specific features #####
2190:Drivers/STM32F4xx_StdPeriph_Driver/src/stm32f4xx_tim.c ****  ===============================================================================  
2191:Drivers/STM32F4xx_StdPeriph_Driver/src/stm32f4xx_tim.c ****         
2192:Drivers/STM32F4xx_StdPeriph_Driver/src/stm32f4xx_tim.c ****              ##### TIM Driver: how to use the Break feature #####
2193:Drivers/STM32F4xx_StdPeriph_Driver/src/stm32f4xx_tim.c ****  ===============================================================================
2194:Drivers/STM32F4xx_StdPeriph_Driver/src/stm32f4xx_tim.c ****     [..] 
ARM GAS  C:\Users\Admin\AppData\Local\Temp\ccwOX7Bd.s 			page 123


2195:Drivers/STM32F4xx_StdPeriph_Driver/src/stm32f4xx_tim.c ****     After configuring the Timer channel(s) in the appropriate Output Compare mode: 
2196:Drivers/STM32F4xx_StdPeriph_Driver/src/stm32f4xx_tim.c ****                          
2197:Drivers/STM32F4xx_StdPeriph_Driver/src/stm32f4xx_tim.c ****       (#) Fill the TIM_BDTRInitStruct with the desired parameters for the Timer
2198:Drivers/STM32F4xx_StdPeriph_Driver/src/stm32f4xx_tim.c ****           Break Polarity, dead time, Lock level, the OSSI/OSSR State and the 
2199:Drivers/STM32F4xx_StdPeriph_Driver/src/stm32f4xx_tim.c ****           AOE(automatic output enable).
2200:Drivers/STM32F4xx_StdPeriph_Driver/src/stm32f4xx_tim.c ****                
2201:Drivers/STM32F4xx_StdPeriph_Driver/src/stm32f4xx_tim.c ****       (#) Call TIM_BDTRConfig(TIMx, &TIM_BDTRInitStruct) to configure the Timer
2202:Drivers/STM32F4xx_StdPeriph_Driver/src/stm32f4xx_tim.c ****           
2203:Drivers/STM32F4xx_StdPeriph_Driver/src/stm32f4xx_tim.c ****       (#) Enable the Main Output using TIM_CtrlPWMOutputs(TIM1, ENABLE) 
2204:Drivers/STM32F4xx_StdPeriph_Driver/src/stm32f4xx_tim.c ****           
2205:Drivers/STM32F4xx_StdPeriph_Driver/src/stm32f4xx_tim.c ****       (#) Once the break even occurs, the Timer's output signals are put in reset
2206:Drivers/STM32F4xx_StdPeriph_Driver/src/stm32f4xx_tim.c ****           state or in a known state (according to the configuration made in
2207:Drivers/STM32F4xx_StdPeriph_Driver/src/stm32f4xx_tim.c ****           TIM_BDTRConfig() function).
2208:Drivers/STM32F4xx_StdPeriph_Driver/src/stm32f4xx_tim.c **** 
2209:Drivers/STM32F4xx_StdPeriph_Driver/src/stm32f4xx_tim.c **** @endverbatim
2210:Drivers/STM32F4xx_StdPeriph_Driver/src/stm32f4xx_tim.c ****   * @{
2211:Drivers/STM32F4xx_StdPeriph_Driver/src/stm32f4xx_tim.c ****   */
2212:Drivers/STM32F4xx_StdPeriph_Driver/src/stm32f4xx_tim.c **** 
2213:Drivers/STM32F4xx_StdPeriph_Driver/src/stm32f4xx_tim.c **** /**
2214:Drivers/STM32F4xx_StdPeriph_Driver/src/stm32f4xx_tim.c ****   * @brief  Configures the Break feature, dead time, Lock level, OSSI/OSSR State
2215:Drivers/STM32F4xx_StdPeriph_Driver/src/stm32f4xx_tim.c ****   *         and the AOE(automatic output enable).
2216:Drivers/STM32F4xx_StdPeriph_Driver/src/stm32f4xx_tim.c ****   * @param  TIMx: where x can be  1 or 8 to select the TIM 
2217:Drivers/STM32F4xx_StdPeriph_Driver/src/stm32f4xx_tim.c ****   * @param  TIM_BDTRInitStruct: pointer to a TIM_BDTRInitTypeDef structure that
2218:Drivers/STM32F4xx_StdPeriph_Driver/src/stm32f4xx_tim.c ****   *         contains the BDTR Register configuration  information for the TIM peripheral.
2219:Drivers/STM32F4xx_StdPeriph_Driver/src/stm32f4xx_tim.c ****   * @retval None
2220:Drivers/STM32F4xx_StdPeriph_Driver/src/stm32f4xx_tim.c ****   */
2221:Drivers/STM32F4xx_StdPeriph_Driver/src/stm32f4xx_tim.c **** void TIM_BDTRConfig(TIM_TypeDef* TIMx, TIM_BDTRInitTypeDef *TIM_BDTRInitStruct)
2222:Drivers/STM32F4xx_StdPeriph_Driver/src/stm32f4xx_tim.c **** {
 4827              		.loc 1 2222 1
 4828              		.cfi_startproc
 4829              		@ args = 0, pretend = 0, frame = 8
 4830              		@ frame_needed = 1, uses_anonymous_args = 0
 4831              		@ link register save eliminated.
 4832 0000 80B4     		push	{r7}
 4833              	.LCFI363:
 4834              		.cfi_def_cfa_offset 4
 4835              		.cfi_offset 7, -4
 4836 0002 83B0     		sub	sp, sp, #12
 4837              	.LCFI364:
 4838              		.cfi_def_cfa_offset 16
 4839 0004 00AF     		add	r7, sp, #0
 4840              	.LCFI365:
 4841              		.cfi_def_cfa_register 7
 4842 0006 7860     		str	r0, [r7, #4]
 4843 0008 3960     		str	r1, [r7]
2223:Drivers/STM32F4xx_StdPeriph_Driver/src/stm32f4xx_tim.c ****   /* Check the parameters */
2224:Drivers/STM32F4xx_StdPeriph_Driver/src/stm32f4xx_tim.c ****   assert_param(IS_TIM_LIST4_PERIPH(TIMx));
2225:Drivers/STM32F4xx_StdPeriph_Driver/src/stm32f4xx_tim.c ****   assert_param(IS_TIM_OSSR_STATE(TIM_BDTRInitStruct->TIM_OSSRState));
2226:Drivers/STM32F4xx_StdPeriph_Driver/src/stm32f4xx_tim.c ****   assert_param(IS_TIM_OSSI_STATE(TIM_BDTRInitStruct->TIM_OSSIState));
2227:Drivers/STM32F4xx_StdPeriph_Driver/src/stm32f4xx_tim.c ****   assert_param(IS_TIM_LOCK_LEVEL(TIM_BDTRInitStruct->TIM_LOCKLevel));
2228:Drivers/STM32F4xx_StdPeriph_Driver/src/stm32f4xx_tim.c ****   assert_param(IS_TIM_BREAK_STATE(TIM_BDTRInitStruct->TIM_Break));
2229:Drivers/STM32F4xx_StdPeriph_Driver/src/stm32f4xx_tim.c ****   assert_param(IS_TIM_BREAK_POLARITY(TIM_BDTRInitStruct->TIM_BreakPolarity));
2230:Drivers/STM32F4xx_StdPeriph_Driver/src/stm32f4xx_tim.c ****   assert_param(IS_TIM_AUTOMATIC_OUTPUT_STATE(TIM_BDTRInitStruct->TIM_AutomaticOutput));
2231:Drivers/STM32F4xx_StdPeriph_Driver/src/stm32f4xx_tim.c **** 
2232:Drivers/STM32F4xx_StdPeriph_Driver/src/stm32f4xx_tim.c ****   /* Set the Lock level, the Break enable Bit and the Polarity, the OSSR State,
2233:Drivers/STM32F4xx_StdPeriph_Driver/src/stm32f4xx_tim.c ****      the OSSI State, the dead time value and the Automatic Output Enable Bit */
2234:Drivers/STM32F4xx_StdPeriph_Driver/src/stm32f4xx_tim.c ****   TIMx->BDTR = (uint32_t)TIM_BDTRInitStruct->TIM_OSSRState | TIM_BDTRInitStruct->TIM_OSSIState |
ARM GAS  C:\Users\Admin\AppData\Local\Temp\ccwOX7Bd.s 			page 124


 4844              		.loc 1 2234 44
 4845 000a 3B68     		ldr	r3, [r7]
 4846 000c 1A88     		ldrh	r2, [r3]
 4847              		.loc 1 2234 80
 4848 000e 3B68     		ldr	r3, [r7]
 4849 0010 5B88     		ldrh	r3, [r3, #2]
 4850              		.loc 1 2234 14
 4851 0012 1343     		orrs	r3, r3, r2
 4852 0014 9AB2     		uxth	r2, r3
2235:Drivers/STM32F4xx_StdPeriph_Driver/src/stm32f4xx_tim.c ****              TIM_BDTRInitStruct->TIM_LOCKLevel | TIM_BDTRInitStruct->TIM_DeadTime |
 4853              		.loc 1 2235 32
 4854 0016 3B68     		ldr	r3, [r7]
 4855 0018 9B88     		ldrh	r3, [r3, #4]
2234:Drivers/STM32F4xx_StdPeriph_Driver/src/stm32f4xx_tim.c ****              TIM_BDTRInitStruct->TIM_LOCKLevel | TIM_BDTRInitStruct->TIM_DeadTime |
 4856              		.loc 1 2234 14
 4857 001a 1343     		orrs	r3, r3, r2
 4858 001c 9AB2     		uxth	r2, r3
 4859              		.loc 1 2235 68
 4860 001e 3B68     		ldr	r3, [r7]
 4861 0020 DB88     		ldrh	r3, [r3, #6]
2234:Drivers/STM32F4xx_StdPeriph_Driver/src/stm32f4xx_tim.c ****              TIM_BDTRInitStruct->TIM_LOCKLevel | TIM_BDTRInitStruct->TIM_DeadTime |
 4862              		.loc 1 2234 14
 4863 0022 1343     		orrs	r3, r3, r2
 4864 0024 9AB2     		uxth	r2, r3
2236:Drivers/STM32F4xx_StdPeriph_Driver/src/stm32f4xx_tim.c ****              TIM_BDTRInitStruct->TIM_Break | TIM_BDTRInitStruct->TIM_BreakPolarity |
 4865              		.loc 1 2236 32
 4866 0026 3B68     		ldr	r3, [r7]
 4867 0028 1B89     		ldrh	r3, [r3, #8]
2234:Drivers/STM32F4xx_StdPeriph_Driver/src/stm32f4xx_tim.c ****              TIM_BDTRInitStruct->TIM_LOCKLevel | TIM_BDTRInitStruct->TIM_DeadTime |
 4868              		.loc 1 2234 14
 4869 002a 1343     		orrs	r3, r3, r2
 4870 002c 9AB2     		uxth	r2, r3
 4871              		.loc 1 2236 64
 4872 002e 3B68     		ldr	r3, [r7]
 4873 0030 5B89     		ldrh	r3, [r3, #10]
2234:Drivers/STM32F4xx_StdPeriph_Driver/src/stm32f4xx_tim.c ****              TIM_BDTRInitStruct->TIM_LOCKLevel | TIM_BDTRInitStruct->TIM_DeadTime |
 4874              		.loc 1 2234 14
 4875 0032 1343     		orrs	r3, r3, r2
 4876 0034 9AB2     		uxth	r2, r3
2237:Drivers/STM32F4xx_StdPeriph_Driver/src/stm32f4xx_tim.c ****              TIM_BDTRInitStruct->TIM_AutomaticOutput;
 4877              		.loc 1 2237 32
 4878 0036 3B68     		ldr	r3, [r7]
 4879 0038 9B89     		ldrh	r3, [r3, #12]
2234:Drivers/STM32F4xx_StdPeriph_Driver/src/stm32f4xx_tim.c ****              TIM_BDTRInitStruct->TIM_LOCKLevel | TIM_BDTRInitStruct->TIM_DeadTime |
 4880              		.loc 1 2234 14
 4881 003a 1343     		orrs	r3, r3, r2
 4882 003c 9AB2     		uxth	r2, r3
 4883 003e 7B68     		ldr	r3, [r7, #4]
 4884 0040 A3F84420 		strh	r2, [r3, #68]	@ movhi
2238:Drivers/STM32F4xx_StdPeriph_Driver/src/stm32f4xx_tim.c **** }
 4885              		.loc 1 2238 1
 4886 0044 00BF     		nop
 4887 0046 0C37     		adds	r7, r7, #12
 4888              	.LCFI366:
 4889              		.cfi_def_cfa_offset 4
 4890 0048 BD46     		mov	sp, r7
 4891              	.LCFI367:
ARM GAS  C:\Users\Admin\AppData\Local\Temp\ccwOX7Bd.s 			page 125


 4892              		.cfi_def_cfa_register 13
 4893              		@ sp needed
 4894 004a 5DF8047B 		ldr	r7, [sp], #4
 4895              	.LCFI368:
 4896              		.cfi_restore 7
 4897              		.cfi_def_cfa_offset 0
 4898 004e 7047     		bx	lr
 4899              		.cfi_endproc
 4900              	.LFE191:
 4902              		.section	.text.TIM_BDTRStructInit,"ax",%progbits
 4903              		.align	1
 4904              		.global	TIM_BDTRStructInit
 4905              		.syntax unified
 4906              		.thumb
 4907              		.thumb_func
 4909              	TIM_BDTRStructInit:
 4910              	.LFB192:
2239:Drivers/STM32F4xx_StdPeriph_Driver/src/stm32f4xx_tim.c **** 
2240:Drivers/STM32F4xx_StdPeriph_Driver/src/stm32f4xx_tim.c **** /**
2241:Drivers/STM32F4xx_StdPeriph_Driver/src/stm32f4xx_tim.c ****   * @brief  Fills each TIM_BDTRInitStruct member with its default value.
2242:Drivers/STM32F4xx_StdPeriph_Driver/src/stm32f4xx_tim.c ****   * @param  TIM_BDTRInitStruct: pointer to a TIM_BDTRInitTypeDef structure which
2243:Drivers/STM32F4xx_StdPeriph_Driver/src/stm32f4xx_tim.c ****   *         will be initialized.
2244:Drivers/STM32F4xx_StdPeriph_Driver/src/stm32f4xx_tim.c ****   * @retval None
2245:Drivers/STM32F4xx_StdPeriph_Driver/src/stm32f4xx_tim.c ****   */
2246:Drivers/STM32F4xx_StdPeriph_Driver/src/stm32f4xx_tim.c **** void TIM_BDTRStructInit(TIM_BDTRInitTypeDef* TIM_BDTRInitStruct)
2247:Drivers/STM32F4xx_StdPeriph_Driver/src/stm32f4xx_tim.c **** {
 4911              		.loc 1 2247 1
 4912              		.cfi_startproc
 4913              		@ args = 0, pretend = 0, frame = 8
 4914              		@ frame_needed = 1, uses_anonymous_args = 0
 4915              		@ link register save eliminated.
 4916 0000 80B4     		push	{r7}
 4917              	.LCFI369:
 4918              		.cfi_def_cfa_offset 4
 4919              		.cfi_offset 7, -4
 4920 0002 83B0     		sub	sp, sp, #12
 4921              	.LCFI370:
 4922              		.cfi_def_cfa_offset 16
 4923 0004 00AF     		add	r7, sp, #0
 4924              	.LCFI371:
 4925              		.cfi_def_cfa_register 7
 4926 0006 7860     		str	r0, [r7, #4]
2248:Drivers/STM32F4xx_StdPeriph_Driver/src/stm32f4xx_tim.c ****   /* Set the default configuration */
2249:Drivers/STM32F4xx_StdPeriph_Driver/src/stm32f4xx_tim.c ****   TIM_BDTRInitStruct->TIM_OSSRState = TIM_OSSRState_Disable;
 4927              		.loc 1 2249 37
 4928 0008 7B68     		ldr	r3, [r7, #4]
 4929 000a 0022     		movs	r2, #0
 4930 000c 1A80     		strh	r2, [r3]	@ movhi
2250:Drivers/STM32F4xx_StdPeriph_Driver/src/stm32f4xx_tim.c ****   TIM_BDTRInitStruct->TIM_OSSIState = TIM_OSSIState_Disable;
 4931              		.loc 1 2250 37
 4932 000e 7B68     		ldr	r3, [r7, #4]
 4933 0010 0022     		movs	r2, #0
 4934 0012 5A80     		strh	r2, [r3, #2]	@ movhi
2251:Drivers/STM32F4xx_StdPeriph_Driver/src/stm32f4xx_tim.c ****   TIM_BDTRInitStruct->TIM_LOCKLevel = TIM_LOCKLevel_OFF;
 4935              		.loc 1 2251 37
 4936 0014 7B68     		ldr	r3, [r7, #4]
 4937 0016 0022     		movs	r2, #0
ARM GAS  C:\Users\Admin\AppData\Local\Temp\ccwOX7Bd.s 			page 126


 4938 0018 9A80     		strh	r2, [r3, #4]	@ movhi
2252:Drivers/STM32F4xx_StdPeriph_Driver/src/stm32f4xx_tim.c ****   TIM_BDTRInitStruct->TIM_DeadTime = 0x00;
 4939              		.loc 1 2252 36
 4940 001a 7B68     		ldr	r3, [r7, #4]
 4941 001c 0022     		movs	r2, #0
 4942 001e DA80     		strh	r2, [r3, #6]	@ movhi
2253:Drivers/STM32F4xx_StdPeriph_Driver/src/stm32f4xx_tim.c ****   TIM_BDTRInitStruct->TIM_Break = TIM_Break_Disable;
 4943              		.loc 1 2253 33
 4944 0020 7B68     		ldr	r3, [r7, #4]
 4945 0022 0022     		movs	r2, #0
 4946 0024 1A81     		strh	r2, [r3, #8]	@ movhi
2254:Drivers/STM32F4xx_StdPeriph_Driver/src/stm32f4xx_tim.c ****   TIM_BDTRInitStruct->TIM_BreakPolarity = TIM_BreakPolarity_Low;
 4947              		.loc 1 2254 41
 4948 0026 7B68     		ldr	r3, [r7, #4]
 4949 0028 0022     		movs	r2, #0
 4950 002a 5A81     		strh	r2, [r3, #10]	@ movhi
2255:Drivers/STM32F4xx_StdPeriph_Driver/src/stm32f4xx_tim.c ****   TIM_BDTRInitStruct->TIM_AutomaticOutput = TIM_AutomaticOutput_Disable;
 4951              		.loc 1 2255 43
 4952 002c 7B68     		ldr	r3, [r7, #4]
 4953 002e 0022     		movs	r2, #0
 4954 0030 9A81     		strh	r2, [r3, #12]	@ movhi
2256:Drivers/STM32F4xx_StdPeriph_Driver/src/stm32f4xx_tim.c **** }
 4955              		.loc 1 2256 1
 4956 0032 00BF     		nop
 4957 0034 0C37     		adds	r7, r7, #12
 4958              	.LCFI372:
 4959              		.cfi_def_cfa_offset 4
 4960 0036 BD46     		mov	sp, r7
 4961              	.LCFI373:
 4962              		.cfi_def_cfa_register 13
 4963              		@ sp needed
 4964 0038 5DF8047B 		ldr	r7, [sp], #4
 4965              	.LCFI374:
 4966              		.cfi_restore 7
 4967              		.cfi_def_cfa_offset 0
 4968 003c 7047     		bx	lr
 4969              		.cfi_endproc
 4970              	.LFE192:
 4972              		.section	.text.TIM_CtrlPWMOutputs,"ax",%progbits
 4973              		.align	1
 4974              		.global	TIM_CtrlPWMOutputs
 4975              		.syntax unified
 4976              		.thumb
 4977              		.thumb_func
 4979              	TIM_CtrlPWMOutputs:
 4980              	.LFB193:
2257:Drivers/STM32F4xx_StdPeriph_Driver/src/stm32f4xx_tim.c **** 
2258:Drivers/STM32F4xx_StdPeriph_Driver/src/stm32f4xx_tim.c **** /**
2259:Drivers/STM32F4xx_StdPeriph_Driver/src/stm32f4xx_tim.c ****   * @brief  Enables or disables the TIM peripheral Main Outputs.
2260:Drivers/STM32F4xx_StdPeriph_Driver/src/stm32f4xx_tim.c ****   * @param  TIMx: where x can be 1 or 8 to select the TIMx peripheral.
2261:Drivers/STM32F4xx_StdPeriph_Driver/src/stm32f4xx_tim.c ****   * @param  NewState: new state of the TIM peripheral Main Outputs.
2262:Drivers/STM32F4xx_StdPeriph_Driver/src/stm32f4xx_tim.c ****   *          This parameter can be: ENABLE or DISABLE.
2263:Drivers/STM32F4xx_StdPeriph_Driver/src/stm32f4xx_tim.c ****   * @retval None
2264:Drivers/STM32F4xx_StdPeriph_Driver/src/stm32f4xx_tim.c ****   */
2265:Drivers/STM32F4xx_StdPeriph_Driver/src/stm32f4xx_tim.c **** void TIM_CtrlPWMOutputs(TIM_TypeDef* TIMx, FunctionalState NewState)
2266:Drivers/STM32F4xx_StdPeriph_Driver/src/stm32f4xx_tim.c **** {
 4981              		.loc 1 2266 1
ARM GAS  C:\Users\Admin\AppData\Local\Temp\ccwOX7Bd.s 			page 127


 4982              		.cfi_startproc
 4983              		@ args = 0, pretend = 0, frame = 8
 4984              		@ frame_needed = 1, uses_anonymous_args = 0
 4985              		@ link register save eliminated.
 4986 0000 80B4     		push	{r7}
 4987              	.LCFI375:
 4988              		.cfi_def_cfa_offset 4
 4989              		.cfi_offset 7, -4
 4990 0002 83B0     		sub	sp, sp, #12
 4991              	.LCFI376:
 4992              		.cfi_def_cfa_offset 16
 4993 0004 00AF     		add	r7, sp, #0
 4994              	.LCFI377:
 4995              		.cfi_def_cfa_register 7
 4996 0006 7860     		str	r0, [r7, #4]
 4997 0008 0B46     		mov	r3, r1
 4998 000a FB70     		strb	r3, [r7, #3]
2267:Drivers/STM32F4xx_StdPeriph_Driver/src/stm32f4xx_tim.c ****   /* Check the parameters */
2268:Drivers/STM32F4xx_StdPeriph_Driver/src/stm32f4xx_tim.c ****   assert_param(IS_TIM_LIST4_PERIPH(TIMx));
2269:Drivers/STM32F4xx_StdPeriph_Driver/src/stm32f4xx_tim.c ****   assert_param(IS_FUNCTIONAL_STATE(NewState));
2270:Drivers/STM32F4xx_StdPeriph_Driver/src/stm32f4xx_tim.c **** 
2271:Drivers/STM32F4xx_StdPeriph_Driver/src/stm32f4xx_tim.c ****   if (NewState != DISABLE)
 4999              		.loc 1 2271 6
 5000 000c FB78     		ldrb	r3, [r7, #3]	@ zero_extendqisi2
 5001 000e 002B     		cmp	r3, #0
 5002 0010 0CD0     		beq	.L138
2272:Drivers/STM32F4xx_StdPeriph_Driver/src/stm32f4xx_tim.c ****   {
2273:Drivers/STM32F4xx_StdPeriph_Driver/src/stm32f4xx_tim.c ****     /* Enable the TIM Main Output */
2274:Drivers/STM32F4xx_StdPeriph_Driver/src/stm32f4xx_tim.c ****     TIMx->BDTR |= TIM_BDTR_MOE;
 5003              		.loc 1 2274 16
 5004 0012 7B68     		ldr	r3, [r7, #4]
 5005 0014 B3F84430 		ldrh	r3, [r3, #68]	@ movhi
 5006 0018 9BB2     		uxth	r3, r3
 5007 001a 6FEA4343 		mvn	r3, r3, lsl #17
 5008 001e 6FEA5343 		mvn	r3, r3, lsr #17
 5009 0022 9AB2     		uxth	r2, r3
 5010 0024 7B68     		ldr	r3, [r7, #4]
 5011 0026 A3F84420 		strh	r2, [r3, #68]	@ movhi
2275:Drivers/STM32F4xx_StdPeriph_Driver/src/stm32f4xx_tim.c ****   }
2276:Drivers/STM32F4xx_StdPeriph_Driver/src/stm32f4xx_tim.c ****   else
2277:Drivers/STM32F4xx_StdPeriph_Driver/src/stm32f4xx_tim.c ****   {
2278:Drivers/STM32F4xx_StdPeriph_Driver/src/stm32f4xx_tim.c ****     /* Disable the TIM Main Output */
2279:Drivers/STM32F4xx_StdPeriph_Driver/src/stm32f4xx_tim.c ****     TIMx->BDTR &= (uint16_t)~TIM_BDTR_MOE;
2280:Drivers/STM32F4xx_StdPeriph_Driver/src/stm32f4xx_tim.c ****   }  
2281:Drivers/STM32F4xx_StdPeriph_Driver/src/stm32f4xx_tim.c **** }
 5012              		.loc 1 2281 1
 5013 002a 09E0     		b	.L140
 5014              	.L138:
2279:Drivers/STM32F4xx_StdPeriph_Driver/src/stm32f4xx_tim.c ****   }  
 5015              		.loc 1 2279 16
 5016 002c 7B68     		ldr	r3, [r7, #4]
 5017 002e B3F84430 		ldrh	r3, [r3, #68]	@ movhi
 5018 0032 9BB2     		uxth	r3, r3
 5019 0034 C3F30E03 		ubfx	r3, r3, #0, #15
 5020 0038 9AB2     		uxth	r2, r3
 5021 003a 7B68     		ldr	r3, [r7, #4]
 5022 003c A3F84420 		strh	r2, [r3, #68]	@ movhi
ARM GAS  C:\Users\Admin\AppData\Local\Temp\ccwOX7Bd.s 			page 128


 5023              	.L140:
 5024              		.loc 1 2281 1
 5025 0040 00BF     		nop
 5026 0042 0C37     		adds	r7, r7, #12
 5027              	.LCFI378:
 5028              		.cfi_def_cfa_offset 4
 5029 0044 BD46     		mov	sp, r7
 5030              	.LCFI379:
 5031              		.cfi_def_cfa_register 13
 5032              		@ sp needed
 5033 0046 5DF8047B 		ldr	r7, [sp], #4
 5034              	.LCFI380:
 5035              		.cfi_restore 7
 5036              		.cfi_def_cfa_offset 0
 5037 004a 7047     		bx	lr
 5038              		.cfi_endproc
 5039              	.LFE193:
 5041              		.section	.text.TIM_SelectCOM,"ax",%progbits
 5042              		.align	1
 5043              		.global	TIM_SelectCOM
 5044              		.syntax unified
 5045              		.thumb
 5046              		.thumb_func
 5048              	TIM_SelectCOM:
 5049              	.LFB194:
2282:Drivers/STM32F4xx_StdPeriph_Driver/src/stm32f4xx_tim.c **** 
2283:Drivers/STM32F4xx_StdPeriph_Driver/src/stm32f4xx_tim.c **** /**
2284:Drivers/STM32F4xx_StdPeriph_Driver/src/stm32f4xx_tim.c ****   * @brief  Selects the TIM peripheral Commutation event.
2285:Drivers/STM32F4xx_StdPeriph_Driver/src/stm32f4xx_tim.c ****   * @param  TIMx: where x can be  1 or 8 to select the TIMx peripheral
2286:Drivers/STM32F4xx_StdPeriph_Driver/src/stm32f4xx_tim.c ****   * @param  NewState: new state of the Commutation event.
2287:Drivers/STM32F4xx_StdPeriph_Driver/src/stm32f4xx_tim.c ****   *          This parameter can be: ENABLE or DISABLE.
2288:Drivers/STM32F4xx_StdPeriph_Driver/src/stm32f4xx_tim.c ****   * @retval None
2289:Drivers/STM32F4xx_StdPeriph_Driver/src/stm32f4xx_tim.c ****   */
2290:Drivers/STM32F4xx_StdPeriph_Driver/src/stm32f4xx_tim.c **** void TIM_SelectCOM(TIM_TypeDef* TIMx, FunctionalState NewState)
2291:Drivers/STM32F4xx_StdPeriph_Driver/src/stm32f4xx_tim.c **** {
 5050              		.loc 1 2291 1
 5051              		.cfi_startproc
 5052              		@ args = 0, pretend = 0, frame = 8
 5053              		@ frame_needed = 1, uses_anonymous_args = 0
 5054              		@ link register save eliminated.
 5055 0000 80B4     		push	{r7}
 5056              	.LCFI381:
 5057              		.cfi_def_cfa_offset 4
 5058              		.cfi_offset 7, -4
 5059 0002 83B0     		sub	sp, sp, #12
 5060              	.LCFI382:
 5061              		.cfi_def_cfa_offset 16
 5062 0004 00AF     		add	r7, sp, #0
 5063              	.LCFI383:
 5064              		.cfi_def_cfa_register 7
 5065 0006 7860     		str	r0, [r7, #4]
 5066 0008 0B46     		mov	r3, r1
 5067 000a FB70     		strb	r3, [r7, #3]
2292:Drivers/STM32F4xx_StdPeriph_Driver/src/stm32f4xx_tim.c ****   /* Check the parameters */
2293:Drivers/STM32F4xx_StdPeriph_Driver/src/stm32f4xx_tim.c ****   assert_param(IS_TIM_LIST4_PERIPH(TIMx));
2294:Drivers/STM32F4xx_StdPeriph_Driver/src/stm32f4xx_tim.c ****   assert_param(IS_FUNCTIONAL_STATE(NewState));
2295:Drivers/STM32F4xx_StdPeriph_Driver/src/stm32f4xx_tim.c **** 
ARM GAS  C:\Users\Admin\AppData\Local\Temp\ccwOX7Bd.s 			page 129


2296:Drivers/STM32F4xx_StdPeriph_Driver/src/stm32f4xx_tim.c ****   if (NewState != DISABLE)
 5068              		.loc 1 2296 6
 5069 000c FB78     		ldrb	r3, [r7, #3]	@ zero_extendqisi2
 5070 000e 002B     		cmp	r3, #0
 5071 0010 08D0     		beq	.L142
2297:Drivers/STM32F4xx_StdPeriph_Driver/src/stm32f4xx_tim.c ****   {
2298:Drivers/STM32F4xx_StdPeriph_Driver/src/stm32f4xx_tim.c ****     /* Set the COM Bit */
2299:Drivers/STM32F4xx_StdPeriph_Driver/src/stm32f4xx_tim.c ****     TIMx->CR2 |= TIM_CR2_CCUS;
 5072              		.loc 1 2299 15
 5073 0012 7B68     		ldr	r3, [r7, #4]
 5074 0014 9B88     		ldrh	r3, [r3, #4]	@ movhi
 5075 0016 9BB2     		uxth	r3, r3
 5076 0018 43F00403 		orr	r3, r3, #4
 5077 001c 9AB2     		uxth	r2, r3
 5078 001e 7B68     		ldr	r3, [r7, #4]
 5079 0020 9A80     		strh	r2, [r3, #4]	@ movhi
2300:Drivers/STM32F4xx_StdPeriph_Driver/src/stm32f4xx_tim.c ****   }
2301:Drivers/STM32F4xx_StdPeriph_Driver/src/stm32f4xx_tim.c ****   else
2302:Drivers/STM32F4xx_StdPeriph_Driver/src/stm32f4xx_tim.c ****   {
2303:Drivers/STM32F4xx_StdPeriph_Driver/src/stm32f4xx_tim.c ****     /* Reset the COM Bit */
2304:Drivers/STM32F4xx_StdPeriph_Driver/src/stm32f4xx_tim.c ****     TIMx->CR2 &= (uint16_t)~TIM_CR2_CCUS;
2305:Drivers/STM32F4xx_StdPeriph_Driver/src/stm32f4xx_tim.c ****   }
2306:Drivers/STM32F4xx_StdPeriph_Driver/src/stm32f4xx_tim.c **** }
 5080              		.loc 1 2306 1
 5081 0022 07E0     		b	.L144
 5082              	.L142:
2304:Drivers/STM32F4xx_StdPeriph_Driver/src/stm32f4xx_tim.c ****   }
 5083              		.loc 1 2304 15
 5084 0024 7B68     		ldr	r3, [r7, #4]
 5085 0026 9B88     		ldrh	r3, [r3, #4]	@ movhi
 5086 0028 9BB2     		uxth	r3, r3
 5087 002a 23F00403 		bic	r3, r3, #4
 5088 002e 9AB2     		uxth	r2, r3
 5089 0030 7B68     		ldr	r3, [r7, #4]
 5090 0032 9A80     		strh	r2, [r3, #4]	@ movhi
 5091              	.L144:
 5092              		.loc 1 2306 1
 5093 0034 00BF     		nop
 5094 0036 0C37     		adds	r7, r7, #12
 5095              	.LCFI384:
 5096              		.cfi_def_cfa_offset 4
 5097 0038 BD46     		mov	sp, r7
 5098              	.LCFI385:
 5099              		.cfi_def_cfa_register 13
 5100              		@ sp needed
 5101 003a 5DF8047B 		ldr	r7, [sp], #4
 5102              	.LCFI386:
 5103              		.cfi_restore 7
 5104              		.cfi_def_cfa_offset 0
 5105 003e 7047     		bx	lr
 5106              		.cfi_endproc
 5107              	.LFE194:
 5109              		.section	.text.TIM_CCPreloadControl,"ax",%progbits
 5110              		.align	1
 5111              		.global	TIM_CCPreloadControl
 5112              		.syntax unified
 5113              		.thumb
ARM GAS  C:\Users\Admin\AppData\Local\Temp\ccwOX7Bd.s 			page 130


 5114              		.thumb_func
 5116              	TIM_CCPreloadControl:
 5117              	.LFB195:
2307:Drivers/STM32F4xx_StdPeriph_Driver/src/stm32f4xx_tim.c **** 
2308:Drivers/STM32F4xx_StdPeriph_Driver/src/stm32f4xx_tim.c **** /**
2309:Drivers/STM32F4xx_StdPeriph_Driver/src/stm32f4xx_tim.c ****   * @brief  Sets or Resets the TIM peripheral Capture Compare Preload Control bit.
2310:Drivers/STM32F4xx_StdPeriph_Driver/src/stm32f4xx_tim.c ****   * @param  TIMx: where x can be  1 or 8 to select the TIMx peripheral
2311:Drivers/STM32F4xx_StdPeriph_Driver/src/stm32f4xx_tim.c ****   * @param  NewState: new state of the Capture Compare Preload Control bit
2312:Drivers/STM32F4xx_StdPeriph_Driver/src/stm32f4xx_tim.c ****   *          This parameter can be: ENABLE or DISABLE.
2313:Drivers/STM32F4xx_StdPeriph_Driver/src/stm32f4xx_tim.c ****   * @retval None
2314:Drivers/STM32F4xx_StdPeriph_Driver/src/stm32f4xx_tim.c ****   */
2315:Drivers/STM32F4xx_StdPeriph_Driver/src/stm32f4xx_tim.c **** void TIM_CCPreloadControl(TIM_TypeDef* TIMx, FunctionalState NewState)
2316:Drivers/STM32F4xx_StdPeriph_Driver/src/stm32f4xx_tim.c **** { 
 5118              		.loc 1 2316 1
 5119              		.cfi_startproc
 5120              		@ args = 0, pretend = 0, frame = 8
 5121              		@ frame_needed = 1, uses_anonymous_args = 0
 5122              		@ link register save eliminated.
 5123 0000 80B4     		push	{r7}
 5124              	.LCFI387:
 5125              		.cfi_def_cfa_offset 4
 5126              		.cfi_offset 7, -4
 5127 0002 83B0     		sub	sp, sp, #12
 5128              	.LCFI388:
 5129              		.cfi_def_cfa_offset 16
 5130 0004 00AF     		add	r7, sp, #0
 5131              	.LCFI389:
 5132              		.cfi_def_cfa_register 7
 5133 0006 7860     		str	r0, [r7, #4]
 5134 0008 0B46     		mov	r3, r1
 5135 000a FB70     		strb	r3, [r7, #3]
2317:Drivers/STM32F4xx_StdPeriph_Driver/src/stm32f4xx_tim.c ****   /* Check the parameters */
2318:Drivers/STM32F4xx_StdPeriph_Driver/src/stm32f4xx_tim.c ****   assert_param(IS_TIM_LIST4_PERIPH(TIMx));
2319:Drivers/STM32F4xx_StdPeriph_Driver/src/stm32f4xx_tim.c ****   assert_param(IS_FUNCTIONAL_STATE(NewState));
2320:Drivers/STM32F4xx_StdPeriph_Driver/src/stm32f4xx_tim.c ****   if (NewState != DISABLE)
 5136              		.loc 1 2320 6
 5137 000c FB78     		ldrb	r3, [r7, #3]	@ zero_extendqisi2
 5138 000e 002B     		cmp	r3, #0
 5139 0010 08D0     		beq	.L146
2321:Drivers/STM32F4xx_StdPeriph_Driver/src/stm32f4xx_tim.c ****   {
2322:Drivers/STM32F4xx_StdPeriph_Driver/src/stm32f4xx_tim.c ****     /* Set the CCPC Bit */
2323:Drivers/STM32F4xx_StdPeriph_Driver/src/stm32f4xx_tim.c ****     TIMx->CR2 |= TIM_CR2_CCPC;
 5140              		.loc 1 2323 15
 5141 0012 7B68     		ldr	r3, [r7, #4]
 5142 0014 9B88     		ldrh	r3, [r3, #4]	@ movhi
 5143 0016 9BB2     		uxth	r3, r3
 5144 0018 43F00103 		orr	r3, r3, #1
 5145 001c 9AB2     		uxth	r2, r3
 5146 001e 7B68     		ldr	r3, [r7, #4]
 5147 0020 9A80     		strh	r2, [r3, #4]	@ movhi
2324:Drivers/STM32F4xx_StdPeriph_Driver/src/stm32f4xx_tim.c ****   }
2325:Drivers/STM32F4xx_StdPeriph_Driver/src/stm32f4xx_tim.c ****   else
2326:Drivers/STM32F4xx_StdPeriph_Driver/src/stm32f4xx_tim.c ****   {
2327:Drivers/STM32F4xx_StdPeriph_Driver/src/stm32f4xx_tim.c ****     /* Reset the CCPC Bit */
2328:Drivers/STM32F4xx_StdPeriph_Driver/src/stm32f4xx_tim.c ****     TIMx->CR2 &= (uint16_t)~TIM_CR2_CCPC;
2329:Drivers/STM32F4xx_StdPeriph_Driver/src/stm32f4xx_tim.c ****   }
2330:Drivers/STM32F4xx_StdPeriph_Driver/src/stm32f4xx_tim.c **** }
ARM GAS  C:\Users\Admin\AppData\Local\Temp\ccwOX7Bd.s 			page 131


 5148              		.loc 1 2330 1
 5149 0022 07E0     		b	.L148
 5150              	.L146:
2328:Drivers/STM32F4xx_StdPeriph_Driver/src/stm32f4xx_tim.c ****   }
 5151              		.loc 1 2328 15
 5152 0024 7B68     		ldr	r3, [r7, #4]
 5153 0026 9B88     		ldrh	r3, [r3, #4]	@ movhi
 5154 0028 9BB2     		uxth	r3, r3
 5155 002a 23F00103 		bic	r3, r3, #1
 5156 002e 9AB2     		uxth	r2, r3
 5157 0030 7B68     		ldr	r3, [r7, #4]
 5158 0032 9A80     		strh	r2, [r3, #4]	@ movhi
 5159              	.L148:
 5160              		.loc 1 2330 1
 5161 0034 00BF     		nop
 5162 0036 0C37     		adds	r7, r7, #12
 5163              	.LCFI390:
 5164              		.cfi_def_cfa_offset 4
 5165 0038 BD46     		mov	sp, r7
 5166              	.LCFI391:
 5167              		.cfi_def_cfa_register 13
 5168              		@ sp needed
 5169 003a 5DF8047B 		ldr	r7, [sp], #4
 5170              	.LCFI392:
 5171              		.cfi_restore 7
 5172              		.cfi_def_cfa_offset 0
 5173 003e 7047     		bx	lr
 5174              		.cfi_endproc
 5175              	.LFE195:
 5177              		.section	.text.TIM_ITConfig,"ax",%progbits
 5178              		.align	1
 5179              		.global	TIM_ITConfig
 5180              		.syntax unified
 5181              		.thumb
 5182              		.thumb_func
 5184              	TIM_ITConfig:
 5185              	.LFB196:
2331:Drivers/STM32F4xx_StdPeriph_Driver/src/stm32f4xx_tim.c **** /**
2332:Drivers/STM32F4xx_StdPeriph_Driver/src/stm32f4xx_tim.c ****   * @}
2333:Drivers/STM32F4xx_StdPeriph_Driver/src/stm32f4xx_tim.c ****   */
2334:Drivers/STM32F4xx_StdPeriph_Driver/src/stm32f4xx_tim.c **** 
2335:Drivers/STM32F4xx_StdPeriph_Driver/src/stm32f4xx_tim.c **** /** @defgroup TIM_Group5 Interrupts DMA and flags management functions
2336:Drivers/STM32F4xx_StdPeriph_Driver/src/stm32f4xx_tim.c ****  *  @brief    Interrupts, DMA and flags management functions 
2337:Drivers/STM32F4xx_StdPeriph_Driver/src/stm32f4xx_tim.c ****  *
2338:Drivers/STM32F4xx_StdPeriph_Driver/src/stm32f4xx_tim.c **** @verbatim   
2339:Drivers/STM32F4xx_StdPeriph_Driver/src/stm32f4xx_tim.c ****  ===============================================================================
2340:Drivers/STM32F4xx_StdPeriph_Driver/src/stm32f4xx_tim.c ****           ##### Interrupts, DMA and flags management functions #####
2341:Drivers/STM32F4xx_StdPeriph_Driver/src/stm32f4xx_tim.c ****  ===============================================================================  
2342:Drivers/STM32F4xx_StdPeriph_Driver/src/stm32f4xx_tim.c **** 
2343:Drivers/STM32F4xx_StdPeriph_Driver/src/stm32f4xx_tim.c **** @endverbatim
2344:Drivers/STM32F4xx_StdPeriph_Driver/src/stm32f4xx_tim.c ****   * @{
2345:Drivers/STM32F4xx_StdPeriph_Driver/src/stm32f4xx_tim.c ****   */
2346:Drivers/STM32F4xx_StdPeriph_Driver/src/stm32f4xx_tim.c **** 
2347:Drivers/STM32F4xx_StdPeriph_Driver/src/stm32f4xx_tim.c **** /**
2348:Drivers/STM32F4xx_StdPeriph_Driver/src/stm32f4xx_tim.c ****   * @brief  Enables or disables the specified TIM interrupts.
2349:Drivers/STM32F4xx_StdPeriph_Driver/src/stm32f4xx_tim.c ****   * @param  TIMx: where x can be 1 to 14 to select the TIMx peripheral.
2350:Drivers/STM32F4xx_StdPeriph_Driver/src/stm32f4xx_tim.c ****   * @param  TIM_IT: specifies the TIM interrupts sources to be enabled or disabled.
ARM GAS  C:\Users\Admin\AppData\Local\Temp\ccwOX7Bd.s 			page 132


2351:Drivers/STM32F4xx_StdPeriph_Driver/src/stm32f4xx_tim.c ****   *          This parameter can be any combination of the following values:
2352:Drivers/STM32F4xx_StdPeriph_Driver/src/stm32f4xx_tim.c ****   *            @arg TIM_IT_Update: TIM update Interrupt source
2353:Drivers/STM32F4xx_StdPeriph_Driver/src/stm32f4xx_tim.c ****   *            @arg TIM_IT_CC1: TIM Capture Compare 1 Interrupt source
2354:Drivers/STM32F4xx_StdPeriph_Driver/src/stm32f4xx_tim.c ****   *            @arg TIM_IT_CC2: TIM Capture Compare 2 Interrupt source
2355:Drivers/STM32F4xx_StdPeriph_Driver/src/stm32f4xx_tim.c ****   *            @arg TIM_IT_CC3: TIM Capture Compare 3 Interrupt source
2356:Drivers/STM32F4xx_StdPeriph_Driver/src/stm32f4xx_tim.c ****   *            @arg TIM_IT_CC4: TIM Capture Compare 4 Interrupt source
2357:Drivers/STM32F4xx_StdPeriph_Driver/src/stm32f4xx_tim.c ****   *            @arg TIM_IT_COM: TIM Commutation Interrupt source
2358:Drivers/STM32F4xx_StdPeriph_Driver/src/stm32f4xx_tim.c ****   *            @arg TIM_IT_Trigger: TIM Trigger Interrupt source
2359:Drivers/STM32F4xx_StdPeriph_Driver/src/stm32f4xx_tim.c ****   *            @arg TIM_IT_Break: TIM Break Interrupt source
2360:Drivers/STM32F4xx_StdPeriph_Driver/src/stm32f4xx_tim.c ****   *  
2361:Drivers/STM32F4xx_StdPeriph_Driver/src/stm32f4xx_tim.c ****   * @note   For TIM6 and TIM7 only the parameter TIM_IT_Update can be used
2362:Drivers/STM32F4xx_StdPeriph_Driver/src/stm32f4xx_tim.c ****   * @note   For TIM9 and TIM12 only one of the following parameters can be used: TIM_IT_Update,
2363:Drivers/STM32F4xx_StdPeriph_Driver/src/stm32f4xx_tim.c ****   *          TIM_IT_CC1, TIM_IT_CC2 or TIM_IT_Trigger. 
2364:Drivers/STM32F4xx_StdPeriph_Driver/src/stm32f4xx_tim.c ****   * @note   For TIM10, TIM11, TIM13 and TIM14 only one of the following parameters can
2365:Drivers/STM32F4xx_StdPeriph_Driver/src/stm32f4xx_tim.c ****   *          be used: TIM_IT_Update or TIM_IT_CC1   
2366:Drivers/STM32F4xx_StdPeriph_Driver/src/stm32f4xx_tim.c ****   * @note   TIM_IT_COM and TIM_IT_Break can be used only with TIM1 and TIM8 
2367:Drivers/STM32F4xx_StdPeriph_Driver/src/stm32f4xx_tim.c ****   *        
2368:Drivers/STM32F4xx_StdPeriph_Driver/src/stm32f4xx_tim.c ****   * @param  NewState: new state of the TIM interrupts.
2369:Drivers/STM32F4xx_StdPeriph_Driver/src/stm32f4xx_tim.c ****   *          This parameter can be: ENABLE or DISABLE.
2370:Drivers/STM32F4xx_StdPeriph_Driver/src/stm32f4xx_tim.c ****   * @retval None
2371:Drivers/STM32F4xx_StdPeriph_Driver/src/stm32f4xx_tim.c ****   */
2372:Drivers/STM32F4xx_StdPeriph_Driver/src/stm32f4xx_tim.c **** void TIM_ITConfig(TIM_TypeDef* TIMx, uint16_t TIM_IT, FunctionalState NewState)
2373:Drivers/STM32F4xx_StdPeriph_Driver/src/stm32f4xx_tim.c **** {  
 5186              		.loc 1 2373 1
 5187              		.cfi_startproc
 5188              		@ args = 0, pretend = 0, frame = 8
 5189              		@ frame_needed = 1, uses_anonymous_args = 0
 5190              		@ link register save eliminated.
 5191 0000 80B4     		push	{r7}
 5192              	.LCFI393:
 5193              		.cfi_def_cfa_offset 4
 5194              		.cfi_offset 7, -4
 5195 0002 83B0     		sub	sp, sp, #12
 5196              	.LCFI394:
 5197              		.cfi_def_cfa_offset 16
 5198 0004 00AF     		add	r7, sp, #0
 5199              	.LCFI395:
 5200              		.cfi_def_cfa_register 7
 5201 0006 7860     		str	r0, [r7, #4]
 5202 0008 0B46     		mov	r3, r1
 5203 000a 7B80     		strh	r3, [r7, #2]	@ movhi
 5204 000c 1346     		mov	r3, r2
 5205 000e 7B70     		strb	r3, [r7, #1]
2374:Drivers/STM32F4xx_StdPeriph_Driver/src/stm32f4xx_tim.c ****   /* Check the parameters */
2375:Drivers/STM32F4xx_StdPeriph_Driver/src/stm32f4xx_tim.c ****   assert_param(IS_TIM_ALL_PERIPH(TIMx));
2376:Drivers/STM32F4xx_StdPeriph_Driver/src/stm32f4xx_tim.c ****   assert_param(IS_TIM_IT(TIM_IT));
2377:Drivers/STM32F4xx_StdPeriph_Driver/src/stm32f4xx_tim.c ****   assert_param(IS_FUNCTIONAL_STATE(NewState));
2378:Drivers/STM32F4xx_StdPeriph_Driver/src/stm32f4xx_tim.c ****   
2379:Drivers/STM32F4xx_StdPeriph_Driver/src/stm32f4xx_tim.c ****   if (NewState != DISABLE)
 5206              		.loc 1 2379 6
 5207 0010 7B78     		ldrb	r3, [r7, #1]	@ zero_extendqisi2
 5208 0012 002B     		cmp	r3, #0
 5209 0014 08D0     		beq	.L150
2380:Drivers/STM32F4xx_StdPeriph_Driver/src/stm32f4xx_tim.c ****   {
2381:Drivers/STM32F4xx_StdPeriph_Driver/src/stm32f4xx_tim.c ****     /* Enable the Interrupt sources */
2382:Drivers/STM32F4xx_StdPeriph_Driver/src/stm32f4xx_tim.c ****     TIMx->DIER |= TIM_IT;
 5210              		.loc 1 2382 16
ARM GAS  C:\Users\Admin\AppData\Local\Temp\ccwOX7Bd.s 			page 133


 5211 0016 7B68     		ldr	r3, [r7, #4]
 5212 0018 9B89     		ldrh	r3, [r3, #12]	@ movhi
 5213 001a 9AB2     		uxth	r2, r3
 5214 001c 7B88     		ldrh	r3, [r7, #2]	@ movhi
 5215 001e 1343     		orrs	r3, r3, r2
 5216 0020 9AB2     		uxth	r2, r3
 5217 0022 7B68     		ldr	r3, [r7, #4]
 5218 0024 9A81     		strh	r2, [r3, #12]	@ movhi
2383:Drivers/STM32F4xx_StdPeriph_Driver/src/stm32f4xx_tim.c ****   }
2384:Drivers/STM32F4xx_StdPeriph_Driver/src/stm32f4xx_tim.c ****   else
2385:Drivers/STM32F4xx_StdPeriph_Driver/src/stm32f4xx_tim.c ****   {
2386:Drivers/STM32F4xx_StdPeriph_Driver/src/stm32f4xx_tim.c ****     /* Disable the Interrupt sources */
2387:Drivers/STM32F4xx_StdPeriph_Driver/src/stm32f4xx_tim.c ****     TIMx->DIER &= (uint16_t)~TIM_IT;
2388:Drivers/STM32F4xx_StdPeriph_Driver/src/stm32f4xx_tim.c ****   }
2389:Drivers/STM32F4xx_StdPeriph_Driver/src/stm32f4xx_tim.c **** }
 5219              		.loc 1 2389 1
 5220 0026 09E0     		b	.L152
 5221              	.L150:
2387:Drivers/STM32F4xx_StdPeriph_Driver/src/stm32f4xx_tim.c ****   }
 5222              		.loc 1 2387 16
 5223 0028 7B68     		ldr	r3, [r7, #4]
 5224 002a 9B89     		ldrh	r3, [r3, #12]	@ movhi
 5225 002c 9AB2     		uxth	r2, r3
2387:Drivers/STM32F4xx_StdPeriph_Driver/src/stm32f4xx_tim.c ****   }
 5226              		.loc 1 2387 19
 5227 002e 7B88     		ldrh	r3, [r7, #2]	@ movhi
 5228 0030 DB43     		mvns	r3, r3
 5229 0032 9BB2     		uxth	r3, r3
2387:Drivers/STM32F4xx_StdPeriph_Driver/src/stm32f4xx_tim.c ****   }
 5230              		.loc 1 2387 16
 5231 0034 1340     		ands	r3, r3, r2
 5232 0036 9AB2     		uxth	r2, r3
 5233 0038 7B68     		ldr	r3, [r7, #4]
 5234 003a 9A81     		strh	r2, [r3, #12]	@ movhi
 5235              	.L152:
 5236              		.loc 1 2389 1
 5237 003c 00BF     		nop
 5238 003e 0C37     		adds	r7, r7, #12
 5239              	.LCFI396:
 5240              		.cfi_def_cfa_offset 4
 5241 0040 BD46     		mov	sp, r7
 5242              	.LCFI397:
 5243              		.cfi_def_cfa_register 13
 5244              		@ sp needed
 5245 0042 5DF8047B 		ldr	r7, [sp], #4
 5246              	.LCFI398:
 5247              		.cfi_restore 7
 5248              		.cfi_def_cfa_offset 0
 5249 0046 7047     		bx	lr
 5250              		.cfi_endproc
 5251              	.LFE196:
 5253              		.section	.text.TIM_GenerateEvent,"ax",%progbits
 5254              		.align	1
 5255              		.global	TIM_GenerateEvent
 5256              		.syntax unified
 5257              		.thumb
 5258              		.thumb_func
ARM GAS  C:\Users\Admin\AppData\Local\Temp\ccwOX7Bd.s 			page 134


 5260              	TIM_GenerateEvent:
 5261              	.LFB197:
2390:Drivers/STM32F4xx_StdPeriph_Driver/src/stm32f4xx_tim.c **** 
2391:Drivers/STM32F4xx_StdPeriph_Driver/src/stm32f4xx_tim.c **** /**
2392:Drivers/STM32F4xx_StdPeriph_Driver/src/stm32f4xx_tim.c ****   * @brief  Configures the TIMx event to be generate by software.
2393:Drivers/STM32F4xx_StdPeriph_Driver/src/stm32f4xx_tim.c ****   * @param  TIMx: where x can be 1 to 14 to select the TIM peripheral.
2394:Drivers/STM32F4xx_StdPeriph_Driver/src/stm32f4xx_tim.c ****   * @param  TIM_EventSource: specifies the event source.
2395:Drivers/STM32F4xx_StdPeriph_Driver/src/stm32f4xx_tim.c ****   *          This parameter can be one or more of the following values:	   
2396:Drivers/STM32F4xx_StdPeriph_Driver/src/stm32f4xx_tim.c ****   *            @arg TIM_EventSource_Update: Timer update Event source
2397:Drivers/STM32F4xx_StdPeriph_Driver/src/stm32f4xx_tim.c ****   *            @arg TIM_EventSource_CC1: Timer Capture Compare 1 Event source
2398:Drivers/STM32F4xx_StdPeriph_Driver/src/stm32f4xx_tim.c ****   *            @arg TIM_EventSource_CC2: Timer Capture Compare 2 Event source
2399:Drivers/STM32F4xx_StdPeriph_Driver/src/stm32f4xx_tim.c ****   *            @arg TIM_EventSource_CC3: Timer Capture Compare 3 Event source
2400:Drivers/STM32F4xx_StdPeriph_Driver/src/stm32f4xx_tim.c ****   *            @arg TIM_EventSource_CC4: Timer Capture Compare 4 Event source
2401:Drivers/STM32F4xx_StdPeriph_Driver/src/stm32f4xx_tim.c ****   *            @arg TIM_EventSource_COM: Timer COM event source  
2402:Drivers/STM32F4xx_StdPeriph_Driver/src/stm32f4xx_tim.c ****   *            @arg TIM_EventSource_Trigger: Timer Trigger Event source
2403:Drivers/STM32F4xx_StdPeriph_Driver/src/stm32f4xx_tim.c ****   *            @arg TIM_EventSource_Break: Timer Break event source
2404:Drivers/STM32F4xx_StdPeriph_Driver/src/stm32f4xx_tim.c ****   * 
2405:Drivers/STM32F4xx_StdPeriph_Driver/src/stm32f4xx_tim.c ****   * @note   TIM6 and TIM7 can only generate an update event. 
2406:Drivers/STM32F4xx_StdPeriph_Driver/src/stm32f4xx_tim.c ****   * @note   TIM_EventSource_COM and TIM_EventSource_Break are used only with TIM1 and TIM8.
2407:Drivers/STM32F4xx_StdPeriph_Driver/src/stm32f4xx_tim.c ****   *        
2408:Drivers/STM32F4xx_StdPeriph_Driver/src/stm32f4xx_tim.c ****   * @retval None
2409:Drivers/STM32F4xx_StdPeriph_Driver/src/stm32f4xx_tim.c ****   */
2410:Drivers/STM32F4xx_StdPeriph_Driver/src/stm32f4xx_tim.c **** void TIM_GenerateEvent(TIM_TypeDef* TIMx, uint16_t TIM_EventSource)
2411:Drivers/STM32F4xx_StdPeriph_Driver/src/stm32f4xx_tim.c **** { 
 5262              		.loc 1 2411 1
 5263              		.cfi_startproc
 5264              		@ args = 0, pretend = 0, frame = 8
 5265              		@ frame_needed = 1, uses_anonymous_args = 0
 5266              		@ link register save eliminated.
 5267 0000 80B4     		push	{r7}
 5268              	.LCFI399:
 5269              		.cfi_def_cfa_offset 4
 5270              		.cfi_offset 7, -4
 5271 0002 83B0     		sub	sp, sp, #12
 5272              	.LCFI400:
 5273              		.cfi_def_cfa_offset 16
 5274 0004 00AF     		add	r7, sp, #0
 5275              	.LCFI401:
 5276              		.cfi_def_cfa_register 7
 5277 0006 7860     		str	r0, [r7, #4]
 5278 0008 0B46     		mov	r3, r1
 5279 000a 7B80     		strh	r3, [r7, #2]	@ movhi
2412:Drivers/STM32F4xx_StdPeriph_Driver/src/stm32f4xx_tim.c ****   /* Check the parameters */
2413:Drivers/STM32F4xx_StdPeriph_Driver/src/stm32f4xx_tim.c ****   assert_param(IS_TIM_ALL_PERIPH(TIMx));
2414:Drivers/STM32F4xx_StdPeriph_Driver/src/stm32f4xx_tim.c ****   assert_param(IS_TIM_EVENT_SOURCE(TIM_EventSource));
2415:Drivers/STM32F4xx_StdPeriph_Driver/src/stm32f4xx_tim.c ****  
2416:Drivers/STM32F4xx_StdPeriph_Driver/src/stm32f4xx_tim.c ****   /* Set the event sources */
2417:Drivers/STM32F4xx_StdPeriph_Driver/src/stm32f4xx_tim.c ****   TIMx->EGR = TIM_EventSource;
 5280              		.loc 1 2417 13
 5281 000c 7B68     		ldr	r3, [r7, #4]
 5282 000e 7A88     		ldrh	r2, [r7, #2]	@ movhi
 5283 0010 9A82     		strh	r2, [r3, #20]	@ movhi
2418:Drivers/STM32F4xx_StdPeriph_Driver/src/stm32f4xx_tim.c **** }
 5284              		.loc 1 2418 1
 5285 0012 00BF     		nop
 5286 0014 0C37     		adds	r7, r7, #12
 5287              	.LCFI402:
ARM GAS  C:\Users\Admin\AppData\Local\Temp\ccwOX7Bd.s 			page 135


 5288              		.cfi_def_cfa_offset 4
 5289 0016 BD46     		mov	sp, r7
 5290              	.LCFI403:
 5291              		.cfi_def_cfa_register 13
 5292              		@ sp needed
 5293 0018 5DF8047B 		ldr	r7, [sp], #4
 5294              	.LCFI404:
 5295              		.cfi_restore 7
 5296              		.cfi_def_cfa_offset 0
 5297 001c 7047     		bx	lr
 5298              		.cfi_endproc
 5299              	.LFE197:
 5301              		.section	.text.TIM_GetFlagStatus,"ax",%progbits
 5302              		.align	1
 5303              		.global	TIM_GetFlagStatus
 5304              		.syntax unified
 5305              		.thumb
 5306              		.thumb_func
 5308              	TIM_GetFlagStatus:
 5309              	.LFB198:
2419:Drivers/STM32F4xx_StdPeriph_Driver/src/stm32f4xx_tim.c **** 
2420:Drivers/STM32F4xx_StdPeriph_Driver/src/stm32f4xx_tim.c **** /**
2421:Drivers/STM32F4xx_StdPeriph_Driver/src/stm32f4xx_tim.c ****   * @brief  Checks whether the specified TIM flag is set or not.
2422:Drivers/STM32F4xx_StdPeriph_Driver/src/stm32f4xx_tim.c ****   * @param  TIMx: where x can be 1 to 14 to select the TIM peripheral.
2423:Drivers/STM32F4xx_StdPeriph_Driver/src/stm32f4xx_tim.c ****   * @param  TIM_FLAG: specifies the flag to check.
2424:Drivers/STM32F4xx_StdPeriph_Driver/src/stm32f4xx_tim.c ****   *          This parameter can be one of the following values:
2425:Drivers/STM32F4xx_StdPeriph_Driver/src/stm32f4xx_tim.c ****   *            @arg TIM_FLAG_Update: TIM update Flag
2426:Drivers/STM32F4xx_StdPeriph_Driver/src/stm32f4xx_tim.c ****   *            @arg TIM_FLAG_CC1: TIM Capture Compare 1 Flag
2427:Drivers/STM32F4xx_StdPeriph_Driver/src/stm32f4xx_tim.c ****   *            @arg TIM_FLAG_CC2: TIM Capture Compare 2 Flag
2428:Drivers/STM32F4xx_StdPeriph_Driver/src/stm32f4xx_tim.c ****   *            @arg TIM_FLAG_CC3: TIM Capture Compare 3 Flag
2429:Drivers/STM32F4xx_StdPeriph_Driver/src/stm32f4xx_tim.c ****   *            @arg TIM_FLAG_CC4: TIM Capture Compare 4 Flag
2430:Drivers/STM32F4xx_StdPeriph_Driver/src/stm32f4xx_tim.c ****   *            @arg TIM_FLAG_COM: TIM Commutation Flag
2431:Drivers/STM32F4xx_StdPeriph_Driver/src/stm32f4xx_tim.c ****   *            @arg TIM_FLAG_Trigger: TIM Trigger Flag
2432:Drivers/STM32F4xx_StdPeriph_Driver/src/stm32f4xx_tim.c ****   *            @arg TIM_FLAG_Break: TIM Break Flag
2433:Drivers/STM32F4xx_StdPeriph_Driver/src/stm32f4xx_tim.c ****   *            @arg TIM_FLAG_CC1OF: TIM Capture Compare 1 over capture Flag
2434:Drivers/STM32F4xx_StdPeriph_Driver/src/stm32f4xx_tim.c ****   *            @arg TIM_FLAG_CC2OF: TIM Capture Compare 2 over capture Flag
2435:Drivers/STM32F4xx_StdPeriph_Driver/src/stm32f4xx_tim.c ****   *            @arg TIM_FLAG_CC3OF: TIM Capture Compare 3 over capture Flag
2436:Drivers/STM32F4xx_StdPeriph_Driver/src/stm32f4xx_tim.c ****   *            @arg TIM_FLAG_CC4OF: TIM Capture Compare 4 over capture Flag
2437:Drivers/STM32F4xx_StdPeriph_Driver/src/stm32f4xx_tim.c ****   *
2438:Drivers/STM32F4xx_StdPeriph_Driver/src/stm32f4xx_tim.c ****   * @note   TIM6 and TIM7 can have only one update flag. 
2439:Drivers/STM32F4xx_StdPeriph_Driver/src/stm32f4xx_tim.c ****   * @note   TIM_FLAG_COM and TIM_FLAG_Break are used only with TIM1 and TIM8.    
2440:Drivers/STM32F4xx_StdPeriph_Driver/src/stm32f4xx_tim.c ****   *
2441:Drivers/STM32F4xx_StdPeriph_Driver/src/stm32f4xx_tim.c ****   * @retval The new state of TIM_FLAG (SET or RESET).
2442:Drivers/STM32F4xx_StdPeriph_Driver/src/stm32f4xx_tim.c ****   */
2443:Drivers/STM32F4xx_StdPeriph_Driver/src/stm32f4xx_tim.c **** FlagStatus TIM_GetFlagStatus(TIM_TypeDef* TIMx, uint16_t TIM_FLAG)
2444:Drivers/STM32F4xx_StdPeriph_Driver/src/stm32f4xx_tim.c **** { 
 5310              		.loc 1 2444 1
 5311              		.cfi_startproc
 5312              		@ args = 0, pretend = 0, frame = 16
 5313              		@ frame_needed = 1, uses_anonymous_args = 0
 5314              		@ link register save eliminated.
 5315 0000 80B4     		push	{r7}
 5316              	.LCFI405:
 5317              		.cfi_def_cfa_offset 4
 5318              		.cfi_offset 7, -4
 5319 0002 85B0     		sub	sp, sp, #20
 5320              	.LCFI406:
ARM GAS  C:\Users\Admin\AppData\Local\Temp\ccwOX7Bd.s 			page 136


 5321              		.cfi_def_cfa_offset 24
 5322 0004 00AF     		add	r7, sp, #0
 5323              	.LCFI407:
 5324              		.cfi_def_cfa_register 7
 5325 0006 7860     		str	r0, [r7, #4]
 5326 0008 0B46     		mov	r3, r1
 5327 000a 7B80     		strh	r3, [r7, #2]	@ movhi
2445:Drivers/STM32F4xx_StdPeriph_Driver/src/stm32f4xx_tim.c ****   ITStatus bitstatus = RESET;  
 5328              		.loc 1 2445 12
 5329 000c 0023     		movs	r3, #0
 5330 000e FB73     		strb	r3, [r7, #15]
2446:Drivers/STM32F4xx_StdPeriph_Driver/src/stm32f4xx_tim.c ****   /* Check the parameters */
2447:Drivers/STM32F4xx_StdPeriph_Driver/src/stm32f4xx_tim.c ****   assert_param(IS_TIM_ALL_PERIPH(TIMx));
2448:Drivers/STM32F4xx_StdPeriph_Driver/src/stm32f4xx_tim.c ****   assert_param(IS_TIM_GET_FLAG(TIM_FLAG));
2449:Drivers/STM32F4xx_StdPeriph_Driver/src/stm32f4xx_tim.c **** 
2450:Drivers/STM32F4xx_StdPeriph_Driver/src/stm32f4xx_tim.c ****   
2451:Drivers/STM32F4xx_StdPeriph_Driver/src/stm32f4xx_tim.c ****   if ((TIMx->SR & TIM_FLAG) != (uint16_t)RESET)
 5331              		.loc 1 2451 12
 5332 0010 7B68     		ldr	r3, [r7, #4]
 5333 0012 1B8A     		ldrh	r3, [r3, #16]	@ movhi
 5334 0014 9AB2     		uxth	r2, r3
 5335              		.loc 1 2451 29
 5336 0016 7B88     		ldrh	r3, [r7, #2]	@ movhi
 5337 0018 1340     		ands	r3, r3, r2
 5338 001a 9BB2     		uxth	r3, r3
 5339              		.loc 1 2451 6
 5340 001c 002B     		cmp	r3, #0
 5341 001e 02D0     		beq	.L155
2452:Drivers/STM32F4xx_StdPeriph_Driver/src/stm32f4xx_tim.c ****   {
2453:Drivers/STM32F4xx_StdPeriph_Driver/src/stm32f4xx_tim.c ****     bitstatus = SET;
 5342              		.loc 1 2453 15
 5343 0020 0123     		movs	r3, #1
 5344 0022 FB73     		strb	r3, [r7, #15]
 5345 0024 01E0     		b	.L156
 5346              	.L155:
2454:Drivers/STM32F4xx_StdPeriph_Driver/src/stm32f4xx_tim.c ****   }
2455:Drivers/STM32F4xx_StdPeriph_Driver/src/stm32f4xx_tim.c ****   else
2456:Drivers/STM32F4xx_StdPeriph_Driver/src/stm32f4xx_tim.c ****   {
2457:Drivers/STM32F4xx_StdPeriph_Driver/src/stm32f4xx_tim.c ****     bitstatus = RESET;
 5347              		.loc 1 2457 15
 5348 0026 0023     		movs	r3, #0
 5349 0028 FB73     		strb	r3, [r7, #15]
 5350              	.L156:
2458:Drivers/STM32F4xx_StdPeriph_Driver/src/stm32f4xx_tim.c ****   }
2459:Drivers/STM32F4xx_StdPeriph_Driver/src/stm32f4xx_tim.c ****   return bitstatus;
 5351              		.loc 1 2459 10
 5352 002a FB7B     		ldrb	r3, [r7, #15]	@ zero_extendqisi2
2460:Drivers/STM32F4xx_StdPeriph_Driver/src/stm32f4xx_tim.c **** }
 5353              		.loc 1 2460 1
 5354 002c 1846     		mov	r0, r3
 5355 002e 1437     		adds	r7, r7, #20
 5356              	.LCFI408:
 5357              		.cfi_def_cfa_offset 4
 5358 0030 BD46     		mov	sp, r7
 5359              	.LCFI409:
 5360              		.cfi_def_cfa_register 13
 5361              		@ sp needed
ARM GAS  C:\Users\Admin\AppData\Local\Temp\ccwOX7Bd.s 			page 137


 5362 0032 5DF8047B 		ldr	r7, [sp], #4
 5363              	.LCFI410:
 5364              		.cfi_restore 7
 5365              		.cfi_def_cfa_offset 0
 5366 0036 7047     		bx	lr
 5367              		.cfi_endproc
 5368              	.LFE198:
 5370              		.section	.text.TIM_ClearFlag,"ax",%progbits
 5371              		.align	1
 5372              		.global	TIM_ClearFlag
 5373              		.syntax unified
 5374              		.thumb
 5375              		.thumb_func
 5377              	TIM_ClearFlag:
 5378              	.LFB199:
2461:Drivers/STM32F4xx_StdPeriph_Driver/src/stm32f4xx_tim.c **** 
2462:Drivers/STM32F4xx_StdPeriph_Driver/src/stm32f4xx_tim.c **** /**
2463:Drivers/STM32F4xx_StdPeriph_Driver/src/stm32f4xx_tim.c ****   * @brief  Clears the TIMx's pending flags.
2464:Drivers/STM32F4xx_StdPeriph_Driver/src/stm32f4xx_tim.c ****   * @param  TIMx: where x can be 1 to 14 to select the TIM peripheral.
2465:Drivers/STM32F4xx_StdPeriph_Driver/src/stm32f4xx_tim.c ****   * @param  TIM_FLAG: specifies the flag bit to clear.
2466:Drivers/STM32F4xx_StdPeriph_Driver/src/stm32f4xx_tim.c ****   *          This parameter can be any combination of the following values:
2467:Drivers/STM32F4xx_StdPeriph_Driver/src/stm32f4xx_tim.c ****   *            @arg TIM_FLAG_Update: TIM update Flag
2468:Drivers/STM32F4xx_StdPeriph_Driver/src/stm32f4xx_tim.c ****   *            @arg TIM_FLAG_CC1: TIM Capture Compare 1 Flag
2469:Drivers/STM32F4xx_StdPeriph_Driver/src/stm32f4xx_tim.c ****   *            @arg TIM_FLAG_CC2: TIM Capture Compare 2 Flag
2470:Drivers/STM32F4xx_StdPeriph_Driver/src/stm32f4xx_tim.c ****   *            @arg TIM_FLAG_CC3: TIM Capture Compare 3 Flag
2471:Drivers/STM32F4xx_StdPeriph_Driver/src/stm32f4xx_tim.c ****   *            @arg TIM_FLAG_CC4: TIM Capture Compare 4 Flag
2472:Drivers/STM32F4xx_StdPeriph_Driver/src/stm32f4xx_tim.c ****   *            @arg TIM_FLAG_COM: TIM Commutation Flag
2473:Drivers/STM32F4xx_StdPeriph_Driver/src/stm32f4xx_tim.c ****   *            @arg TIM_FLAG_Trigger: TIM Trigger Flag
2474:Drivers/STM32F4xx_StdPeriph_Driver/src/stm32f4xx_tim.c ****   *            @arg TIM_FLAG_Break: TIM Break Flag
2475:Drivers/STM32F4xx_StdPeriph_Driver/src/stm32f4xx_tim.c ****   *            @arg TIM_FLAG_CC1OF: TIM Capture Compare 1 over capture Flag
2476:Drivers/STM32F4xx_StdPeriph_Driver/src/stm32f4xx_tim.c ****   *            @arg TIM_FLAG_CC2OF: TIM Capture Compare 2 over capture Flag
2477:Drivers/STM32F4xx_StdPeriph_Driver/src/stm32f4xx_tim.c ****   *            @arg TIM_FLAG_CC3OF: TIM Capture Compare 3 over capture Flag
2478:Drivers/STM32F4xx_StdPeriph_Driver/src/stm32f4xx_tim.c ****   *            @arg TIM_FLAG_CC4OF: TIM Capture Compare 4 over capture Flag
2479:Drivers/STM32F4xx_StdPeriph_Driver/src/stm32f4xx_tim.c ****   *
2480:Drivers/STM32F4xx_StdPeriph_Driver/src/stm32f4xx_tim.c ****   * @note   TIM6 and TIM7 can have only one update flag. 
2481:Drivers/STM32F4xx_StdPeriph_Driver/src/stm32f4xx_tim.c ****   * @note   TIM_FLAG_COM and TIM_FLAG_Break are used only with TIM1 and TIM8.
2482:Drivers/STM32F4xx_StdPeriph_Driver/src/stm32f4xx_tim.c ****   *    
2483:Drivers/STM32F4xx_StdPeriph_Driver/src/stm32f4xx_tim.c ****   * @retval None
2484:Drivers/STM32F4xx_StdPeriph_Driver/src/stm32f4xx_tim.c ****   */
2485:Drivers/STM32F4xx_StdPeriph_Driver/src/stm32f4xx_tim.c **** void TIM_ClearFlag(TIM_TypeDef* TIMx, uint16_t TIM_FLAG)
2486:Drivers/STM32F4xx_StdPeriph_Driver/src/stm32f4xx_tim.c **** {  
 5379              		.loc 1 2486 1
 5380              		.cfi_startproc
 5381              		@ args = 0, pretend = 0, frame = 8
 5382              		@ frame_needed = 1, uses_anonymous_args = 0
 5383              		@ link register save eliminated.
 5384 0000 80B4     		push	{r7}
 5385              	.LCFI411:
 5386              		.cfi_def_cfa_offset 4
 5387              		.cfi_offset 7, -4
 5388 0002 83B0     		sub	sp, sp, #12
 5389              	.LCFI412:
 5390              		.cfi_def_cfa_offset 16
 5391 0004 00AF     		add	r7, sp, #0
 5392              	.LCFI413:
 5393              		.cfi_def_cfa_register 7
 5394 0006 7860     		str	r0, [r7, #4]
ARM GAS  C:\Users\Admin\AppData\Local\Temp\ccwOX7Bd.s 			page 138


 5395 0008 0B46     		mov	r3, r1
 5396 000a 7B80     		strh	r3, [r7, #2]	@ movhi
2487:Drivers/STM32F4xx_StdPeriph_Driver/src/stm32f4xx_tim.c ****   /* Check the parameters */
2488:Drivers/STM32F4xx_StdPeriph_Driver/src/stm32f4xx_tim.c ****   assert_param(IS_TIM_ALL_PERIPH(TIMx));
2489:Drivers/STM32F4xx_StdPeriph_Driver/src/stm32f4xx_tim.c ****    
2490:Drivers/STM32F4xx_StdPeriph_Driver/src/stm32f4xx_tim.c ****   /* Clear the flags */
2491:Drivers/STM32F4xx_StdPeriph_Driver/src/stm32f4xx_tim.c ****   TIMx->SR = (uint16_t)~TIM_FLAG;
 5397              		.loc 1 2491 14
 5398 000c 7B88     		ldrh	r3, [r7, #2]	@ movhi
 5399 000e DB43     		mvns	r3, r3
 5400 0010 9AB2     		uxth	r2, r3
 5401              		.loc 1 2491 12
 5402 0012 7B68     		ldr	r3, [r7, #4]
 5403 0014 1A82     		strh	r2, [r3, #16]	@ movhi
2492:Drivers/STM32F4xx_StdPeriph_Driver/src/stm32f4xx_tim.c **** }
 5404              		.loc 1 2492 1
 5405 0016 00BF     		nop
 5406 0018 0C37     		adds	r7, r7, #12
 5407              	.LCFI414:
 5408              		.cfi_def_cfa_offset 4
 5409 001a BD46     		mov	sp, r7
 5410              	.LCFI415:
 5411              		.cfi_def_cfa_register 13
 5412              		@ sp needed
 5413 001c 5DF8047B 		ldr	r7, [sp], #4
 5414              	.LCFI416:
 5415              		.cfi_restore 7
 5416              		.cfi_def_cfa_offset 0
 5417 0020 7047     		bx	lr
 5418              		.cfi_endproc
 5419              	.LFE199:
 5421              		.section	.text.TIM_GetITStatus,"ax",%progbits
 5422              		.align	1
 5423              		.global	TIM_GetITStatus
 5424              		.syntax unified
 5425              		.thumb
 5426              		.thumb_func
 5428              	TIM_GetITStatus:
 5429              	.LFB200:
2493:Drivers/STM32F4xx_StdPeriph_Driver/src/stm32f4xx_tim.c **** 
2494:Drivers/STM32F4xx_StdPeriph_Driver/src/stm32f4xx_tim.c **** /**
2495:Drivers/STM32F4xx_StdPeriph_Driver/src/stm32f4xx_tim.c ****   * @brief  Checks whether the TIM interrupt has occurred or not.
2496:Drivers/STM32F4xx_StdPeriph_Driver/src/stm32f4xx_tim.c ****   * @param  TIMx: where x can be 1 to 14 to select the TIM peripheral.
2497:Drivers/STM32F4xx_StdPeriph_Driver/src/stm32f4xx_tim.c ****   * @param  TIM_IT: specifies the TIM interrupt source to check.
2498:Drivers/STM32F4xx_StdPeriph_Driver/src/stm32f4xx_tim.c ****   *          This parameter can be one of the following values:
2499:Drivers/STM32F4xx_StdPeriph_Driver/src/stm32f4xx_tim.c ****   *            @arg TIM_IT_Update: TIM update Interrupt source
2500:Drivers/STM32F4xx_StdPeriph_Driver/src/stm32f4xx_tim.c ****   *            @arg TIM_IT_CC1: TIM Capture Compare 1 Interrupt source
2501:Drivers/STM32F4xx_StdPeriph_Driver/src/stm32f4xx_tim.c ****   *            @arg TIM_IT_CC2: TIM Capture Compare 2 Interrupt source
2502:Drivers/STM32F4xx_StdPeriph_Driver/src/stm32f4xx_tim.c ****   *            @arg TIM_IT_CC3: TIM Capture Compare 3 Interrupt source
2503:Drivers/STM32F4xx_StdPeriph_Driver/src/stm32f4xx_tim.c ****   *            @arg TIM_IT_CC4: TIM Capture Compare 4 Interrupt source
2504:Drivers/STM32F4xx_StdPeriph_Driver/src/stm32f4xx_tim.c ****   *            @arg TIM_IT_COM: TIM Commutation Interrupt source
2505:Drivers/STM32F4xx_StdPeriph_Driver/src/stm32f4xx_tim.c ****   *            @arg TIM_IT_Trigger: TIM Trigger Interrupt source
2506:Drivers/STM32F4xx_StdPeriph_Driver/src/stm32f4xx_tim.c ****   *            @arg TIM_IT_Break: TIM Break Interrupt source
2507:Drivers/STM32F4xx_StdPeriph_Driver/src/stm32f4xx_tim.c ****   *
2508:Drivers/STM32F4xx_StdPeriph_Driver/src/stm32f4xx_tim.c ****   * @note   TIM6 and TIM7 can generate only an update interrupt.
2509:Drivers/STM32F4xx_StdPeriph_Driver/src/stm32f4xx_tim.c ****   * @note   TIM_IT_COM and TIM_IT_Break are used only with TIM1 and TIM8.
2510:Drivers/STM32F4xx_StdPeriph_Driver/src/stm32f4xx_tim.c ****   *     
ARM GAS  C:\Users\Admin\AppData\Local\Temp\ccwOX7Bd.s 			page 139


2511:Drivers/STM32F4xx_StdPeriph_Driver/src/stm32f4xx_tim.c ****   * @retval The new state of the TIM_IT(SET or RESET).
2512:Drivers/STM32F4xx_StdPeriph_Driver/src/stm32f4xx_tim.c ****   */
2513:Drivers/STM32F4xx_StdPeriph_Driver/src/stm32f4xx_tim.c **** ITStatus TIM_GetITStatus(TIM_TypeDef* TIMx, uint16_t TIM_IT)
2514:Drivers/STM32F4xx_StdPeriph_Driver/src/stm32f4xx_tim.c **** {
 5430              		.loc 1 2514 1
 5431              		.cfi_startproc
 5432              		@ args = 0, pretend = 0, frame = 16
 5433              		@ frame_needed = 1, uses_anonymous_args = 0
 5434              		@ link register save eliminated.
 5435 0000 80B4     		push	{r7}
 5436              	.LCFI417:
 5437              		.cfi_def_cfa_offset 4
 5438              		.cfi_offset 7, -4
 5439 0002 85B0     		sub	sp, sp, #20
 5440              	.LCFI418:
 5441              		.cfi_def_cfa_offset 24
 5442 0004 00AF     		add	r7, sp, #0
 5443              	.LCFI419:
 5444              		.cfi_def_cfa_register 7
 5445 0006 7860     		str	r0, [r7, #4]
 5446 0008 0B46     		mov	r3, r1
 5447 000a 7B80     		strh	r3, [r7, #2]	@ movhi
2515:Drivers/STM32F4xx_StdPeriph_Driver/src/stm32f4xx_tim.c ****   ITStatus bitstatus = RESET;  
 5448              		.loc 1 2515 12
 5449 000c 0023     		movs	r3, #0
 5450 000e FB73     		strb	r3, [r7, #15]
2516:Drivers/STM32F4xx_StdPeriph_Driver/src/stm32f4xx_tim.c ****   uint16_t itstatus = 0x0, itenable = 0x0;
 5451              		.loc 1 2516 12
 5452 0010 0023     		movs	r3, #0
 5453 0012 BB81     		strh	r3, [r7, #12]	@ movhi
 5454              		.loc 1 2516 28
 5455 0014 0023     		movs	r3, #0
 5456 0016 7B81     		strh	r3, [r7, #10]	@ movhi
2517:Drivers/STM32F4xx_StdPeriph_Driver/src/stm32f4xx_tim.c ****   /* Check the parameters */
2518:Drivers/STM32F4xx_StdPeriph_Driver/src/stm32f4xx_tim.c ****   assert_param(IS_TIM_ALL_PERIPH(TIMx));
2519:Drivers/STM32F4xx_StdPeriph_Driver/src/stm32f4xx_tim.c ****   assert_param(IS_TIM_GET_IT(TIM_IT));
2520:Drivers/STM32F4xx_StdPeriph_Driver/src/stm32f4xx_tim.c ****    
2521:Drivers/STM32F4xx_StdPeriph_Driver/src/stm32f4xx_tim.c ****   itstatus = TIMx->SR & TIM_IT;
 5457              		.loc 1 2521 18
 5458 0018 7B68     		ldr	r3, [r7, #4]
 5459 001a 1B8A     		ldrh	r3, [r3, #16]	@ movhi
 5460 001c 9AB2     		uxth	r2, r3
 5461              		.loc 1 2521 12
 5462 001e 7B88     		ldrh	r3, [r7, #2]	@ movhi
 5463 0020 1340     		ands	r3, r3, r2
 5464 0022 BB81     		strh	r3, [r7, #12]	@ movhi
2522:Drivers/STM32F4xx_StdPeriph_Driver/src/stm32f4xx_tim.c ****   
2523:Drivers/STM32F4xx_StdPeriph_Driver/src/stm32f4xx_tim.c ****   itenable = TIMx->DIER & TIM_IT;
 5465              		.loc 1 2523 18
 5466 0024 7B68     		ldr	r3, [r7, #4]
 5467 0026 9B89     		ldrh	r3, [r3, #12]	@ movhi
 5468 0028 9AB2     		uxth	r2, r3
 5469              		.loc 1 2523 12
 5470 002a 7B88     		ldrh	r3, [r7, #2]	@ movhi
 5471 002c 1340     		ands	r3, r3, r2
 5472 002e 7B81     		strh	r3, [r7, #10]	@ movhi
2524:Drivers/STM32F4xx_StdPeriph_Driver/src/stm32f4xx_tim.c ****   if ((itstatus != (uint16_t)RESET) && (itenable != (uint16_t)RESET))
ARM GAS  C:\Users\Admin\AppData\Local\Temp\ccwOX7Bd.s 			page 140


 5473              		.loc 1 2524 6
 5474 0030 BB89     		ldrh	r3, [r7, #12]
 5475 0032 002B     		cmp	r3, #0
 5476 0034 05D0     		beq	.L160
 5477              		.loc 1 2524 37 discriminator 1
 5478 0036 7B89     		ldrh	r3, [r7, #10]
 5479 0038 002B     		cmp	r3, #0
 5480 003a 02D0     		beq	.L160
2525:Drivers/STM32F4xx_StdPeriph_Driver/src/stm32f4xx_tim.c ****   {
2526:Drivers/STM32F4xx_StdPeriph_Driver/src/stm32f4xx_tim.c ****     bitstatus = SET;
 5481              		.loc 1 2526 15
 5482 003c 0123     		movs	r3, #1
 5483 003e FB73     		strb	r3, [r7, #15]
 5484 0040 01E0     		b	.L161
 5485              	.L160:
2527:Drivers/STM32F4xx_StdPeriph_Driver/src/stm32f4xx_tim.c ****   }
2528:Drivers/STM32F4xx_StdPeriph_Driver/src/stm32f4xx_tim.c ****   else
2529:Drivers/STM32F4xx_StdPeriph_Driver/src/stm32f4xx_tim.c ****   {
2530:Drivers/STM32F4xx_StdPeriph_Driver/src/stm32f4xx_tim.c ****     bitstatus = RESET;
 5486              		.loc 1 2530 15
 5487 0042 0023     		movs	r3, #0
 5488 0044 FB73     		strb	r3, [r7, #15]
 5489              	.L161:
2531:Drivers/STM32F4xx_StdPeriph_Driver/src/stm32f4xx_tim.c ****   }
2532:Drivers/STM32F4xx_StdPeriph_Driver/src/stm32f4xx_tim.c ****   return bitstatus;
 5490              		.loc 1 2532 10
 5491 0046 FB7B     		ldrb	r3, [r7, #15]	@ zero_extendqisi2
2533:Drivers/STM32F4xx_StdPeriph_Driver/src/stm32f4xx_tim.c **** }
 5492              		.loc 1 2533 1
 5493 0048 1846     		mov	r0, r3
 5494 004a 1437     		adds	r7, r7, #20
 5495              	.LCFI420:
 5496              		.cfi_def_cfa_offset 4
 5497 004c BD46     		mov	sp, r7
 5498              	.LCFI421:
 5499              		.cfi_def_cfa_register 13
 5500              		@ sp needed
 5501 004e 5DF8047B 		ldr	r7, [sp], #4
 5502              	.LCFI422:
 5503              		.cfi_restore 7
 5504              		.cfi_def_cfa_offset 0
 5505 0052 7047     		bx	lr
 5506              		.cfi_endproc
 5507              	.LFE200:
 5509              		.section	.text.TIM_ClearITPendingBit,"ax",%progbits
 5510              		.align	1
 5511              		.global	TIM_ClearITPendingBit
 5512              		.syntax unified
 5513              		.thumb
 5514              		.thumb_func
 5516              	TIM_ClearITPendingBit:
 5517              	.LFB201:
2534:Drivers/STM32F4xx_StdPeriph_Driver/src/stm32f4xx_tim.c **** 
2535:Drivers/STM32F4xx_StdPeriph_Driver/src/stm32f4xx_tim.c **** /**
2536:Drivers/STM32F4xx_StdPeriph_Driver/src/stm32f4xx_tim.c ****   * @brief  Clears the TIMx's interrupt pending bits.
2537:Drivers/STM32F4xx_StdPeriph_Driver/src/stm32f4xx_tim.c ****   * @param  TIMx: where x can be 1 to 14 to select the TIM peripheral.
2538:Drivers/STM32F4xx_StdPeriph_Driver/src/stm32f4xx_tim.c ****   * @param  TIM_IT: specifies the pending bit to clear.
ARM GAS  C:\Users\Admin\AppData\Local\Temp\ccwOX7Bd.s 			page 141


2539:Drivers/STM32F4xx_StdPeriph_Driver/src/stm32f4xx_tim.c ****   *          This parameter can be any combination of the following values:
2540:Drivers/STM32F4xx_StdPeriph_Driver/src/stm32f4xx_tim.c ****   *            @arg TIM_IT_Update: TIM1 update Interrupt source
2541:Drivers/STM32F4xx_StdPeriph_Driver/src/stm32f4xx_tim.c ****   *            @arg TIM_IT_CC1: TIM Capture Compare 1 Interrupt source
2542:Drivers/STM32F4xx_StdPeriph_Driver/src/stm32f4xx_tim.c ****   *            @arg TIM_IT_CC2: TIM Capture Compare 2 Interrupt source
2543:Drivers/STM32F4xx_StdPeriph_Driver/src/stm32f4xx_tim.c ****   *            @arg TIM_IT_CC3: TIM Capture Compare 3 Interrupt source
2544:Drivers/STM32F4xx_StdPeriph_Driver/src/stm32f4xx_tim.c ****   *            @arg TIM_IT_CC4: TIM Capture Compare 4 Interrupt source
2545:Drivers/STM32F4xx_StdPeriph_Driver/src/stm32f4xx_tim.c ****   *            @arg TIM_IT_COM: TIM Commutation Interrupt source
2546:Drivers/STM32F4xx_StdPeriph_Driver/src/stm32f4xx_tim.c ****   *            @arg TIM_IT_Trigger: TIM Trigger Interrupt source
2547:Drivers/STM32F4xx_StdPeriph_Driver/src/stm32f4xx_tim.c ****   *            @arg TIM_IT_Break: TIM Break Interrupt source
2548:Drivers/STM32F4xx_StdPeriph_Driver/src/stm32f4xx_tim.c ****   *
2549:Drivers/STM32F4xx_StdPeriph_Driver/src/stm32f4xx_tim.c ****   * @note   TIM6 and TIM7 can generate only an update interrupt.
2550:Drivers/STM32F4xx_StdPeriph_Driver/src/stm32f4xx_tim.c ****   * @note   TIM_IT_COM and TIM_IT_Break are used only with TIM1 and TIM8.
2551:Drivers/STM32F4xx_StdPeriph_Driver/src/stm32f4xx_tim.c ****   *      
2552:Drivers/STM32F4xx_StdPeriph_Driver/src/stm32f4xx_tim.c ****   * @retval None
2553:Drivers/STM32F4xx_StdPeriph_Driver/src/stm32f4xx_tim.c ****   */
2554:Drivers/STM32F4xx_StdPeriph_Driver/src/stm32f4xx_tim.c **** void TIM_ClearITPendingBit(TIM_TypeDef* TIMx, uint16_t TIM_IT)
2555:Drivers/STM32F4xx_StdPeriph_Driver/src/stm32f4xx_tim.c **** {
 5518              		.loc 1 2555 1
 5519              		.cfi_startproc
 5520              		@ args = 0, pretend = 0, frame = 8
 5521              		@ frame_needed = 1, uses_anonymous_args = 0
 5522              		@ link register save eliminated.
 5523 0000 80B4     		push	{r7}
 5524              	.LCFI423:
 5525              		.cfi_def_cfa_offset 4
 5526              		.cfi_offset 7, -4
 5527 0002 83B0     		sub	sp, sp, #12
 5528              	.LCFI424:
 5529              		.cfi_def_cfa_offset 16
 5530 0004 00AF     		add	r7, sp, #0
 5531              	.LCFI425:
 5532              		.cfi_def_cfa_register 7
 5533 0006 7860     		str	r0, [r7, #4]
 5534 0008 0B46     		mov	r3, r1
 5535 000a 7B80     		strh	r3, [r7, #2]	@ movhi
2556:Drivers/STM32F4xx_StdPeriph_Driver/src/stm32f4xx_tim.c ****   /* Check the parameters */
2557:Drivers/STM32F4xx_StdPeriph_Driver/src/stm32f4xx_tim.c ****   assert_param(IS_TIM_ALL_PERIPH(TIMx));
2558:Drivers/STM32F4xx_StdPeriph_Driver/src/stm32f4xx_tim.c **** 
2559:Drivers/STM32F4xx_StdPeriph_Driver/src/stm32f4xx_tim.c ****   /* Clear the IT pending Bit */
2560:Drivers/STM32F4xx_StdPeriph_Driver/src/stm32f4xx_tim.c ****   TIMx->SR = (uint16_t)~TIM_IT;
 5536              		.loc 1 2560 14
 5537 000c 7B88     		ldrh	r3, [r7, #2]	@ movhi
 5538 000e DB43     		mvns	r3, r3
 5539 0010 9AB2     		uxth	r2, r3
 5540              		.loc 1 2560 12
 5541 0012 7B68     		ldr	r3, [r7, #4]
 5542 0014 1A82     		strh	r2, [r3, #16]	@ movhi
2561:Drivers/STM32F4xx_StdPeriph_Driver/src/stm32f4xx_tim.c **** }
 5543              		.loc 1 2561 1
 5544 0016 00BF     		nop
 5545 0018 0C37     		adds	r7, r7, #12
 5546              	.LCFI426:
 5547              		.cfi_def_cfa_offset 4
 5548 001a BD46     		mov	sp, r7
 5549              	.LCFI427:
 5550              		.cfi_def_cfa_register 13
 5551              		@ sp needed
ARM GAS  C:\Users\Admin\AppData\Local\Temp\ccwOX7Bd.s 			page 142


 5552 001c 5DF8047B 		ldr	r7, [sp], #4
 5553              	.LCFI428:
 5554              		.cfi_restore 7
 5555              		.cfi_def_cfa_offset 0
 5556 0020 7047     		bx	lr
 5557              		.cfi_endproc
 5558              	.LFE201:
 5560              		.section	.text.TIM_DMAConfig,"ax",%progbits
 5561              		.align	1
 5562              		.global	TIM_DMAConfig
 5563              		.syntax unified
 5564              		.thumb
 5565              		.thumb_func
 5567              	TIM_DMAConfig:
 5568              	.LFB202:
2562:Drivers/STM32F4xx_StdPeriph_Driver/src/stm32f4xx_tim.c **** 
2563:Drivers/STM32F4xx_StdPeriph_Driver/src/stm32f4xx_tim.c **** /**
2564:Drivers/STM32F4xx_StdPeriph_Driver/src/stm32f4xx_tim.c ****   * @brief  Configures the TIMx's DMA interface.
2565:Drivers/STM32F4xx_StdPeriph_Driver/src/stm32f4xx_tim.c ****   * @param  TIMx: where x can be 1, 2, 3, 4, 5 or 8 to select the TIM peripheral.
2566:Drivers/STM32F4xx_StdPeriph_Driver/src/stm32f4xx_tim.c ****   * @param  TIM_DMABase: DMA Base address.
2567:Drivers/STM32F4xx_StdPeriph_Driver/src/stm32f4xx_tim.c ****   *          This parameter can be one of the following values:
2568:Drivers/STM32F4xx_StdPeriph_Driver/src/stm32f4xx_tim.c ****   *            @arg TIM_DMABase_CR1  
2569:Drivers/STM32F4xx_StdPeriph_Driver/src/stm32f4xx_tim.c ****   *            @arg TIM_DMABase_CR2
2570:Drivers/STM32F4xx_StdPeriph_Driver/src/stm32f4xx_tim.c ****   *            @arg TIM_DMABase_SMCR
2571:Drivers/STM32F4xx_StdPeriph_Driver/src/stm32f4xx_tim.c ****   *            @arg TIM_DMABase_DIER
2572:Drivers/STM32F4xx_StdPeriph_Driver/src/stm32f4xx_tim.c ****   *            @arg TIM1_DMABase_SR
2573:Drivers/STM32F4xx_StdPeriph_Driver/src/stm32f4xx_tim.c ****   *            @arg TIM_DMABase_EGR
2574:Drivers/STM32F4xx_StdPeriph_Driver/src/stm32f4xx_tim.c ****   *            @arg TIM_DMABase_CCMR1
2575:Drivers/STM32F4xx_StdPeriph_Driver/src/stm32f4xx_tim.c ****   *            @arg TIM_DMABase_CCMR2
2576:Drivers/STM32F4xx_StdPeriph_Driver/src/stm32f4xx_tim.c ****   *            @arg TIM_DMABase_CCER
2577:Drivers/STM32F4xx_StdPeriph_Driver/src/stm32f4xx_tim.c ****   *            @arg TIM_DMABase_CNT   
2578:Drivers/STM32F4xx_StdPeriph_Driver/src/stm32f4xx_tim.c ****   *            @arg TIM_DMABase_PSC   
2579:Drivers/STM32F4xx_StdPeriph_Driver/src/stm32f4xx_tim.c ****   *            @arg TIM_DMABase_ARR
2580:Drivers/STM32F4xx_StdPeriph_Driver/src/stm32f4xx_tim.c ****   *            @arg TIM_DMABase_RCR
2581:Drivers/STM32F4xx_StdPeriph_Driver/src/stm32f4xx_tim.c ****   *            @arg TIM_DMABase_CCR1
2582:Drivers/STM32F4xx_StdPeriph_Driver/src/stm32f4xx_tim.c ****   *            @arg TIM_DMABase_CCR2
2583:Drivers/STM32F4xx_StdPeriph_Driver/src/stm32f4xx_tim.c ****   *            @arg TIM_DMABase_CCR3  
2584:Drivers/STM32F4xx_StdPeriph_Driver/src/stm32f4xx_tim.c ****   *            @arg TIM_DMABase_CCR4
2585:Drivers/STM32F4xx_StdPeriph_Driver/src/stm32f4xx_tim.c ****   *            @arg TIM_DMABase_BDTR
2586:Drivers/STM32F4xx_StdPeriph_Driver/src/stm32f4xx_tim.c ****   *            @arg TIM_DMABase_DCR
2587:Drivers/STM32F4xx_StdPeriph_Driver/src/stm32f4xx_tim.c ****   * @param  TIM_DMABurstLength: DMA Burst length. This parameter can be one value
2588:Drivers/STM32F4xx_StdPeriph_Driver/src/stm32f4xx_tim.c ****   *         between: TIM_DMABurstLength_1Transfer and TIM_DMABurstLength_18Transfers.
2589:Drivers/STM32F4xx_StdPeriph_Driver/src/stm32f4xx_tim.c ****   * @retval None
2590:Drivers/STM32F4xx_StdPeriph_Driver/src/stm32f4xx_tim.c ****   */
2591:Drivers/STM32F4xx_StdPeriph_Driver/src/stm32f4xx_tim.c **** void TIM_DMAConfig(TIM_TypeDef* TIMx, uint16_t TIM_DMABase, uint16_t TIM_DMABurstLength)
2592:Drivers/STM32F4xx_StdPeriph_Driver/src/stm32f4xx_tim.c **** {
 5569              		.loc 1 2592 1
 5570              		.cfi_startproc
 5571              		@ args = 0, pretend = 0, frame = 8
 5572              		@ frame_needed = 1, uses_anonymous_args = 0
 5573              		@ link register save eliminated.
 5574 0000 80B4     		push	{r7}
 5575              	.LCFI429:
 5576              		.cfi_def_cfa_offset 4
 5577              		.cfi_offset 7, -4
 5578 0002 83B0     		sub	sp, sp, #12
 5579              	.LCFI430:
ARM GAS  C:\Users\Admin\AppData\Local\Temp\ccwOX7Bd.s 			page 143


 5580              		.cfi_def_cfa_offset 16
 5581 0004 00AF     		add	r7, sp, #0
 5582              	.LCFI431:
 5583              		.cfi_def_cfa_register 7
 5584 0006 7860     		str	r0, [r7, #4]
 5585 0008 0B46     		mov	r3, r1
 5586 000a 7B80     		strh	r3, [r7, #2]	@ movhi
 5587 000c 1346     		mov	r3, r2	@ movhi
 5588 000e 3B80     		strh	r3, [r7]	@ movhi
2593:Drivers/STM32F4xx_StdPeriph_Driver/src/stm32f4xx_tim.c ****   /* Check the parameters */
2594:Drivers/STM32F4xx_StdPeriph_Driver/src/stm32f4xx_tim.c ****   assert_param(IS_TIM_LIST3_PERIPH(TIMx));
2595:Drivers/STM32F4xx_StdPeriph_Driver/src/stm32f4xx_tim.c ****   assert_param(IS_TIM_DMA_BASE(TIM_DMABase)); 
2596:Drivers/STM32F4xx_StdPeriph_Driver/src/stm32f4xx_tim.c ****   assert_param(IS_TIM_DMA_LENGTH(TIM_DMABurstLength));
2597:Drivers/STM32F4xx_StdPeriph_Driver/src/stm32f4xx_tim.c **** 
2598:Drivers/STM32F4xx_StdPeriph_Driver/src/stm32f4xx_tim.c ****   /* Set the DMA Base and the DMA Burst Length */
2599:Drivers/STM32F4xx_StdPeriph_Driver/src/stm32f4xx_tim.c ****   TIMx->DCR = TIM_DMABase | TIM_DMABurstLength;
 5589              		.loc 1 2599 13
 5590 0010 7A88     		ldrh	r2, [r7, #2]	@ movhi
 5591 0012 3B88     		ldrh	r3, [r7]	@ movhi
 5592 0014 1343     		orrs	r3, r3, r2
 5593 0016 9AB2     		uxth	r2, r3
 5594 0018 7B68     		ldr	r3, [r7, #4]
 5595 001a A3F84820 		strh	r2, [r3, #72]	@ movhi
2600:Drivers/STM32F4xx_StdPeriph_Driver/src/stm32f4xx_tim.c **** }
 5596              		.loc 1 2600 1
 5597 001e 00BF     		nop
 5598 0020 0C37     		adds	r7, r7, #12
 5599              	.LCFI432:
 5600              		.cfi_def_cfa_offset 4
 5601 0022 BD46     		mov	sp, r7
 5602              	.LCFI433:
 5603              		.cfi_def_cfa_register 13
 5604              		@ sp needed
 5605 0024 5DF8047B 		ldr	r7, [sp], #4
 5606              	.LCFI434:
 5607              		.cfi_restore 7
 5608              		.cfi_def_cfa_offset 0
 5609 0028 7047     		bx	lr
 5610              		.cfi_endproc
 5611              	.LFE202:
 5613              		.section	.text.TIM_DMACmd,"ax",%progbits
 5614              		.align	1
 5615              		.global	TIM_DMACmd
 5616              		.syntax unified
 5617              		.thumb
 5618              		.thumb_func
 5620              	TIM_DMACmd:
 5621              	.LFB203:
2601:Drivers/STM32F4xx_StdPeriph_Driver/src/stm32f4xx_tim.c **** 
2602:Drivers/STM32F4xx_StdPeriph_Driver/src/stm32f4xx_tim.c **** /**
2603:Drivers/STM32F4xx_StdPeriph_Driver/src/stm32f4xx_tim.c ****   * @brief  Enables or disables the TIMx's DMA Requests.
2604:Drivers/STM32F4xx_StdPeriph_Driver/src/stm32f4xx_tim.c ****   * @param  TIMx: where x can be 1, 2, 3, 4, 5, 6, 7 or 8 to select the TIM peripheral.
2605:Drivers/STM32F4xx_StdPeriph_Driver/src/stm32f4xx_tim.c ****   * @param  TIM_DMASource: specifies the DMA Request sources.
2606:Drivers/STM32F4xx_StdPeriph_Driver/src/stm32f4xx_tim.c ****   *          This parameter can be any combination of the following values:
2607:Drivers/STM32F4xx_StdPeriph_Driver/src/stm32f4xx_tim.c ****   *            @arg TIM_DMA_Update: TIM update Interrupt source
2608:Drivers/STM32F4xx_StdPeriph_Driver/src/stm32f4xx_tim.c ****   *            @arg TIM_DMA_CC1: TIM Capture Compare 1 DMA source
2609:Drivers/STM32F4xx_StdPeriph_Driver/src/stm32f4xx_tim.c ****   *            @arg TIM_DMA_CC2: TIM Capture Compare 2 DMA source
ARM GAS  C:\Users\Admin\AppData\Local\Temp\ccwOX7Bd.s 			page 144


2610:Drivers/STM32F4xx_StdPeriph_Driver/src/stm32f4xx_tim.c ****   *            @arg TIM_DMA_CC3: TIM Capture Compare 3 DMA source
2611:Drivers/STM32F4xx_StdPeriph_Driver/src/stm32f4xx_tim.c ****   *            @arg TIM_DMA_CC4: TIM Capture Compare 4 DMA source
2612:Drivers/STM32F4xx_StdPeriph_Driver/src/stm32f4xx_tim.c ****   *            @arg TIM_DMA_COM: TIM Commutation DMA source
2613:Drivers/STM32F4xx_StdPeriph_Driver/src/stm32f4xx_tim.c ****   *            @arg TIM_DMA_Trigger: TIM Trigger DMA source
2614:Drivers/STM32F4xx_StdPeriph_Driver/src/stm32f4xx_tim.c ****   * @param  NewState: new state of the DMA Request sources.
2615:Drivers/STM32F4xx_StdPeriph_Driver/src/stm32f4xx_tim.c ****   *          This parameter can be: ENABLE or DISABLE.
2616:Drivers/STM32F4xx_StdPeriph_Driver/src/stm32f4xx_tim.c ****   * @retval None
2617:Drivers/STM32F4xx_StdPeriph_Driver/src/stm32f4xx_tim.c ****   */
2618:Drivers/STM32F4xx_StdPeriph_Driver/src/stm32f4xx_tim.c **** void TIM_DMACmd(TIM_TypeDef* TIMx, uint16_t TIM_DMASource, FunctionalState NewState)
2619:Drivers/STM32F4xx_StdPeriph_Driver/src/stm32f4xx_tim.c **** { 
 5622              		.loc 1 2619 1
 5623              		.cfi_startproc
 5624              		@ args = 0, pretend = 0, frame = 8
 5625              		@ frame_needed = 1, uses_anonymous_args = 0
 5626              		@ link register save eliminated.
 5627 0000 80B4     		push	{r7}
 5628              	.LCFI435:
 5629              		.cfi_def_cfa_offset 4
 5630              		.cfi_offset 7, -4
 5631 0002 83B0     		sub	sp, sp, #12
 5632              	.LCFI436:
 5633              		.cfi_def_cfa_offset 16
 5634 0004 00AF     		add	r7, sp, #0
 5635              	.LCFI437:
 5636              		.cfi_def_cfa_register 7
 5637 0006 7860     		str	r0, [r7, #4]
 5638 0008 0B46     		mov	r3, r1
 5639 000a 7B80     		strh	r3, [r7, #2]	@ movhi
 5640 000c 1346     		mov	r3, r2
 5641 000e 7B70     		strb	r3, [r7, #1]
2620:Drivers/STM32F4xx_StdPeriph_Driver/src/stm32f4xx_tim.c ****   /* Check the parameters */
2621:Drivers/STM32F4xx_StdPeriph_Driver/src/stm32f4xx_tim.c ****   assert_param(IS_TIM_LIST5_PERIPH(TIMx)); 
2622:Drivers/STM32F4xx_StdPeriph_Driver/src/stm32f4xx_tim.c ****   assert_param(IS_TIM_DMA_SOURCE(TIM_DMASource));
2623:Drivers/STM32F4xx_StdPeriph_Driver/src/stm32f4xx_tim.c ****   assert_param(IS_FUNCTIONAL_STATE(NewState));
2624:Drivers/STM32F4xx_StdPeriph_Driver/src/stm32f4xx_tim.c ****   
2625:Drivers/STM32F4xx_StdPeriph_Driver/src/stm32f4xx_tim.c ****   if (NewState != DISABLE)
 5642              		.loc 1 2625 6
 5643 0010 7B78     		ldrb	r3, [r7, #1]	@ zero_extendqisi2
 5644 0012 002B     		cmp	r3, #0
 5645 0014 08D0     		beq	.L166
2626:Drivers/STM32F4xx_StdPeriph_Driver/src/stm32f4xx_tim.c ****   {
2627:Drivers/STM32F4xx_StdPeriph_Driver/src/stm32f4xx_tim.c ****     /* Enable the DMA sources */
2628:Drivers/STM32F4xx_StdPeriph_Driver/src/stm32f4xx_tim.c ****     TIMx->DIER |= TIM_DMASource; 
 5646              		.loc 1 2628 16
 5647 0016 7B68     		ldr	r3, [r7, #4]
 5648 0018 9B89     		ldrh	r3, [r3, #12]	@ movhi
 5649 001a 9AB2     		uxth	r2, r3
 5650 001c 7B88     		ldrh	r3, [r7, #2]	@ movhi
 5651 001e 1343     		orrs	r3, r3, r2
 5652 0020 9AB2     		uxth	r2, r3
 5653 0022 7B68     		ldr	r3, [r7, #4]
 5654 0024 9A81     		strh	r2, [r3, #12]	@ movhi
2629:Drivers/STM32F4xx_StdPeriph_Driver/src/stm32f4xx_tim.c ****   }
2630:Drivers/STM32F4xx_StdPeriph_Driver/src/stm32f4xx_tim.c ****   else
2631:Drivers/STM32F4xx_StdPeriph_Driver/src/stm32f4xx_tim.c ****   {
2632:Drivers/STM32F4xx_StdPeriph_Driver/src/stm32f4xx_tim.c ****     /* Disable the DMA sources */
2633:Drivers/STM32F4xx_StdPeriph_Driver/src/stm32f4xx_tim.c ****     TIMx->DIER &= (uint16_t)~TIM_DMASource;
ARM GAS  C:\Users\Admin\AppData\Local\Temp\ccwOX7Bd.s 			page 145


2634:Drivers/STM32F4xx_StdPeriph_Driver/src/stm32f4xx_tim.c ****   }
2635:Drivers/STM32F4xx_StdPeriph_Driver/src/stm32f4xx_tim.c **** }
 5655              		.loc 1 2635 1
 5656 0026 09E0     		b	.L168
 5657              	.L166:
2633:Drivers/STM32F4xx_StdPeriph_Driver/src/stm32f4xx_tim.c ****   }
 5658              		.loc 1 2633 16
 5659 0028 7B68     		ldr	r3, [r7, #4]
 5660 002a 9B89     		ldrh	r3, [r3, #12]	@ movhi
 5661 002c 9AB2     		uxth	r2, r3
2633:Drivers/STM32F4xx_StdPeriph_Driver/src/stm32f4xx_tim.c ****   }
 5662              		.loc 1 2633 19
 5663 002e 7B88     		ldrh	r3, [r7, #2]	@ movhi
 5664 0030 DB43     		mvns	r3, r3
 5665 0032 9BB2     		uxth	r3, r3
2633:Drivers/STM32F4xx_StdPeriph_Driver/src/stm32f4xx_tim.c ****   }
 5666              		.loc 1 2633 16
 5667 0034 1340     		ands	r3, r3, r2
 5668 0036 9AB2     		uxth	r2, r3
 5669 0038 7B68     		ldr	r3, [r7, #4]
 5670 003a 9A81     		strh	r2, [r3, #12]	@ movhi
 5671              	.L168:
 5672              		.loc 1 2635 1
 5673 003c 00BF     		nop
 5674 003e 0C37     		adds	r7, r7, #12
 5675              	.LCFI438:
 5676              		.cfi_def_cfa_offset 4
 5677 0040 BD46     		mov	sp, r7
 5678              	.LCFI439:
 5679              		.cfi_def_cfa_register 13
 5680              		@ sp needed
 5681 0042 5DF8047B 		ldr	r7, [sp], #4
 5682              	.LCFI440:
 5683              		.cfi_restore 7
 5684              		.cfi_def_cfa_offset 0
 5685 0046 7047     		bx	lr
 5686              		.cfi_endproc
 5687              	.LFE203:
 5689              		.section	.text.TIM_SelectCCDMA,"ax",%progbits
 5690              		.align	1
 5691              		.global	TIM_SelectCCDMA
 5692              		.syntax unified
 5693              		.thumb
 5694              		.thumb_func
 5696              	TIM_SelectCCDMA:
 5697              	.LFB204:
2636:Drivers/STM32F4xx_StdPeriph_Driver/src/stm32f4xx_tim.c **** 
2637:Drivers/STM32F4xx_StdPeriph_Driver/src/stm32f4xx_tim.c **** /**
2638:Drivers/STM32F4xx_StdPeriph_Driver/src/stm32f4xx_tim.c ****   * @brief  Selects the TIMx peripheral Capture Compare DMA source.
2639:Drivers/STM32F4xx_StdPeriph_Driver/src/stm32f4xx_tim.c ****   * @param  TIMx: where x can be  1, 2, 3, 4, 5 or 8 to select the TIM peripheral.
2640:Drivers/STM32F4xx_StdPeriph_Driver/src/stm32f4xx_tim.c ****   * @param  NewState: new state of the Capture Compare DMA source
2641:Drivers/STM32F4xx_StdPeriph_Driver/src/stm32f4xx_tim.c ****   *          This parameter can be: ENABLE or DISABLE.
2642:Drivers/STM32F4xx_StdPeriph_Driver/src/stm32f4xx_tim.c ****   * @retval None
2643:Drivers/STM32F4xx_StdPeriph_Driver/src/stm32f4xx_tim.c ****   */
2644:Drivers/STM32F4xx_StdPeriph_Driver/src/stm32f4xx_tim.c **** void TIM_SelectCCDMA(TIM_TypeDef* TIMx, FunctionalState NewState)
2645:Drivers/STM32F4xx_StdPeriph_Driver/src/stm32f4xx_tim.c **** {
 5698              		.loc 1 2645 1
ARM GAS  C:\Users\Admin\AppData\Local\Temp\ccwOX7Bd.s 			page 146


 5699              		.cfi_startproc
 5700              		@ args = 0, pretend = 0, frame = 8
 5701              		@ frame_needed = 1, uses_anonymous_args = 0
 5702              		@ link register save eliminated.
 5703 0000 80B4     		push	{r7}
 5704              	.LCFI441:
 5705              		.cfi_def_cfa_offset 4
 5706              		.cfi_offset 7, -4
 5707 0002 83B0     		sub	sp, sp, #12
 5708              	.LCFI442:
 5709              		.cfi_def_cfa_offset 16
 5710 0004 00AF     		add	r7, sp, #0
 5711              	.LCFI443:
 5712              		.cfi_def_cfa_register 7
 5713 0006 7860     		str	r0, [r7, #4]
 5714 0008 0B46     		mov	r3, r1
 5715 000a FB70     		strb	r3, [r7, #3]
2646:Drivers/STM32F4xx_StdPeriph_Driver/src/stm32f4xx_tim.c ****   /* Check the parameters */
2647:Drivers/STM32F4xx_StdPeriph_Driver/src/stm32f4xx_tim.c ****   assert_param(IS_TIM_LIST3_PERIPH(TIMx));
2648:Drivers/STM32F4xx_StdPeriph_Driver/src/stm32f4xx_tim.c ****   assert_param(IS_FUNCTIONAL_STATE(NewState));
2649:Drivers/STM32F4xx_StdPeriph_Driver/src/stm32f4xx_tim.c **** 
2650:Drivers/STM32F4xx_StdPeriph_Driver/src/stm32f4xx_tim.c ****   if (NewState != DISABLE)
 5716              		.loc 1 2650 6
 5717 000c FB78     		ldrb	r3, [r7, #3]	@ zero_extendqisi2
 5718 000e 002B     		cmp	r3, #0
 5719 0010 08D0     		beq	.L170
2651:Drivers/STM32F4xx_StdPeriph_Driver/src/stm32f4xx_tim.c ****   {
2652:Drivers/STM32F4xx_StdPeriph_Driver/src/stm32f4xx_tim.c ****     /* Set the CCDS Bit */
2653:Drivers/STM32F4xx_StdPeriph_Driver/src/stm32f4xx_tim.c ****     TIMx->CR2 |= TIM_CR2_CCDS;
 5720              		.loc 1 2653 15
 5721 0012 7B68     		ldr	r3, [r7, #4]
 5722 0014 9B88     		ldrh	r3, [r3, #4]	@ movhi
 5723 0016 9BB2     		uxth	r3, r3
 5724 0018 43F00803 		orr	r3, r3, #8
 5725 001c 9AB2     		uxth	r2, r3
 5726 001e 7B68     		ldr	r3, [r7, #4]
 5727 0020 9A80     		strh	r2, [r3, #4]	@ movhi
2654:Drivers/STM32F4xx_StdPeriph_Driver/src/stm32f4xx_tim.c ****   }
2655:Drivers/STM32F4xx_StdPeriph_Driver/src/stm32f4xx_tim.c ****   else
2656:Drivers/STM32F4xx_StdPeriph_Driver/src/stm32f4xx_tim.c ****   {
2657:Drivers/STM32F4xx_StdPeriph_Driver/src/stm32f4xx_tim.c ****     /* Reset the CCDS Bit */
2658:Drivers/STM32F4xx_StdPeriph_Driver/src/stm32f4xx_tim.c ****     TIMx->CR2 &= (uint16_t)~TIM_CR2_CCDS;
2659:Drivers/STM32F4xx_StdPeriph_Driver/src/stm32f4xx_tim.c ****   }
2660:Drivers/STM32F4xx_StdPeriph_Driver/src/stm32f4xx_tim.c **** }
 5728              		.loc 1 2660 1
 5729 0022 07E0     		b	.L172
 5730              	.L170:
2658:Drivers/STM32F4xx_StdPeriph_Driver/src/stm32f4xx_tim.c ****   }
 5731              		.loc 1 2658 15
 5732 0024 7B68     		ldr	r3, [r7, #4]
 5733 0026 9B88     		ldrh	r3, [r3, #4]	@ movhi
 5734 0028 9BB2     		uxth	r3, r3
 5735 002a 23F00803 		bic	r3, r3, #8
 5736 002e 9AB2     		uxth	r2, r3
 5737 0030 7B68     		ldr	r3, [r7, #4]
 5738 0032 9A80     		strh	r2, [r3, #4]	@ movhi
 5739              	.L172:
ARM GAS  C:\Users\Admin\AppData\Local\Temp\ccwOX7Bd.s 			page 147


 5740              		.loc 1 2660 1
 5741 0034 00BF     		nop
 5742 0036 0C37     		adds	r7, r7, #12
 5743              	.LCFI444:
 5744              		.cfi_def_cfa_offset 4
 5745 0038 BD46     		mov	sp, r7
 5746              	.LCFI445:
 5747              		.cfi_def_cfa_register 13
 5748              		@ sp needed
 5749 003a 5DF8047B 		ldr	r7, [sp], #4
 5750              	.LCFI446:
 5751              		.cfi_restore 7
 5752              		.cfi_def_cfa_offset 0
 5753 003e 7047     		bx	lr
 5754              		.cfi_endproc
 5755              	.LFE204:
 5757              		.section	.text.TIM_InternalClockConfig,"ax",%progbits
 5758              		.align	1
 5759              		.global	TIM_InternalClockConfig
 5760              		.syntax unified
 5761              		.thumb
 5762              		.thumb_func
 5764              	TIM_InternalClockConfig:
 5765              	.LFB205:
2661:Drivers/STM32F4xx_StdPeriph_Driver/src/stm32f4xx_tim.c **** /**
2662:Drivers/STM32F4xx_StdPeriph_Driver/src/stm32f4xx_tim.c ****   * @}
2663:Drivers/STM32F4xx_StdPeriph_Driver/src/stm32f4xx_tim.c ****   */
2664:Drivers/STM32F4xx_StdPeriph_Driver/src/stm32f4xx_tim.c **** 
2665:Drivers/STM32F4xx_StdPeriph_Driver/src/stm32f4xx_tim.c **** /** @defgroup TIM_Group6 Clocks management functions
2666:Drivers/STM32F4xx_StdPeriph_Driver/src/stm32f4xx_tim.c ****  *  @brief    Clocks management functions
2667:Drivers/STM32F4xx_StdPeriph_Driver/src/stm32f4xx_tim.c ****  *
2668:Drivers/STM32F4xx_StdPeriph_Driver/src/stm32f4xx_tim.c **** @verbatim   
2669:Drivers/STM32F4xx_StdPeriph_Driver/src/stm32f4xx_tim.c ****  ===============================================================================
2670:Drivers/STM32F4xx_StdPeriph_Driver/src/stm32f4xx_tim.c ****                   ##### Clocks management functions #####
2671:Drivers/STM32F4xx_StdPeriph_Driver/src/stm32f4xx_tim.c ****  ===============================================================================  
2672:Drivers/STM32F4xx_StdPeriph_Driver/src/stm32f4xx_tim.c **** 
2673:Drivers/STM32F4xx_StdPeriph_Driver/src/stm32f4xx_tim.c **** @endverbatim
2674:Drivers/STM32F4xx_StdPeriph_Driver/src/stm32f4xx_tim.c ****   * @{
2675:Drivers/STM32F4xx_StdPeriph_Driver/src/stm32f4xx_tim.c ****   */
2676:Drivers/STM32F4xx_StdPeriph_Driver/src/stm32f4xx_tim.c **** 
2677:Drivers/STM32F4xx_StdPeriph_Driver/src/stm32f4xx_tim.c **** /**
2678:Drivers/STM32F4xx_StdPeriph_Driver/src/stm32f4xx_tim.c ****   * @brief  Configures the TIMx internal Clock
2679:Drivers/STM32F4xx_StdPeriph_Driver/src/stm32f4xx_tim.c ****   * @param  TIMx: where x can be 1, 2, 3, 4, 5, 8, 9 or 12 to select the TIM 
2680:Drivers/STM32F4xx_StdPeriph_Driver/src/stm32f4xx_tim.c ****   *         peripheral.
2681:Drivers/STM32F4xx_StdPeriph_Driver/src/stm32f4xx_tim.c ****   * @retval None
2682:Drivers/STM32F4xx_StdPeriph_Driver/src/stm32f4xx_tim.c ****   */
2683:Drivers/STM32F4xx_StdPeriph_Driver/src/stm32f4xx_tim.c **** void TIM_InternalClockConfig(TIM_TypeDef* TIMx)
2684:Drivers/STM32F4xx_StdPeriph_Driver/src/stm32f4xx_tim.c **** {
 5766              		.loc 1 2684 1
 5767              		.cfi_startproc
 5768              		@ args = 0, pretend = 0, frame = 8
 5769              		@ frame_needed = 1, uses_anonymous_args = 0
 5770              		@ link register save eliminated.
 5771 0000 80B4     		push	{r7}
 5772              	.LCFI447:
 5773              		.cfi_def_cfa_offset 4
 5774              		.cfi_offset 7, -4
ARM GAS  C:\Users\Admin\AppData\Local\Temp\ccwOX7Bd.s 			page 148


 5775 0002 83B0     		sub	sp, sp, #12
 5776              	.LCFI448:
 5777              		.cfi_def_cfa_offset 16
 5778 0004 00AF     		add	r7, sp, #0
 5779              	.LCFI449:
 5780              		.cfi_def_cfa_register 7
 5781 0006 7860     		str	r0, [r7, #4]
2685:Drivers/STM32F4xx_StdPeriph_Driver/src/stm32f4xx_tim.c ****   /* Check the parameters */
2686:Drivers/STM32F4xx_StdPeriph_Driver/src/stm32f4xx_tim.c ****   assert_param(IS_TIM_LIST2_PERIPH(TIMx));
2687:Drivers/STM32F4xx_StdPeriph_Driver/src/stm32f4xx_tim.c **** 
2688:Drivers/STM32F4xx_StdPeriph_Driver/src/stm32f4xx_tim.c ****   /* Disable slave mode to clock the prescaler directly with the internal clock */
2689:Drivers/STM32F4xx_StdPeriph_Driver/src/stm32f4xx_tim.c ****   TIMx->SMCR &=  (uint16_t)~TIM_SMCR_SMS;
 5782              		.loc 1 2689 14
 5783 0008 7B68     		ldr	r3, [r7, #4]
 5784 000a 1B89     		ldrh	r3, [r3, #8]	@ movhi
 5785 000c 9BB2     		uxth	r3, r3
 5786 000e 23F00703 		bic	r3, r3, #7
 5787 0012 9AB2     		uxth	r2, r3
 5788 0014 7B68     		ldr	r3, [r7, #4]
 5789 0016 1A81     		strh	r2, [r3, #8]	@ movhi
2690:Drivers/STM32F4xx_StdPeriph_Driver/src/stm32f4xx_tim.c **** }
 5790              		.loc 1 2690 1
 5791 0018 00BF     		nop
 5792 001a 0C37     		adds	r7, r7, #12
 5793              	.LCFI450:
 5794              		.cfi_def_cfa_offset 4
 5795 001c BD46     		mov	sp, r7
 5796              	.LCFI451:
 5797              		.cfi_def_cfa_register 13
 5798              		@ sp needed
 5799 001e 5DF8047B 		ldr	r7, [sp], #4
 5800              	.LCFI452:
 5801              		.cfi_restore 7
 5802              		.cfi_def_cfa_offset 0
 5803 0022 7047     		bx	lr
 5804              		.cfi_endproc
 5805              	.LFE205:
 5807              		.section	.text.TIM_ITRxExternalClockConfig,"ax",%progbits
 5808              		.align	1
 5809              		.global	TIM_ITRxExternalClockConfig
 5810              		.syntax unified
 5811              		.thumb
 5812              		.thumb_func
 5814              	TIM_ITRxExternalClockConfig:
 5815              	.LFB206:
2691:Drivers/STM32F4xx_StdPeriph_Driver/src/stm32f4xx_tim.c **** 
2692:Drivers/STM32F4xx_StdPeriph_Driver/src/stm32f4xx_tim.c **** /**
2693:Drivers/STM32F4xx_StdPeriph_Driver/src/stm32f4xx_tim.c ****   * @brief  Configures the TIMx Internal Trigger as External Clock
2694:Drivers/STM32F4xx_StdPeriph_Driver/src/stm32f4xx_tim.c ****   * @param  TIMx: where x can be 1, 2, 3, 4, 5, 8, 9 or 12 to select the TIM 
2695:Drivers/STM32F4xx_StdPeriph_Driver/src/stm32f4xx_tim.c ****   *         peripheral.
2696:Drivers/STM32F4xx_StdPeriph_Driver/src/stm32f4xx_tim.c ****   * @param  TIM_InputTriggerSource: Trigger source.
2697:Drivers/STM32F4xx_StdPeriph_Driver/src/stm32f4xx_tim.c ****   *          This parameter can be one of the following values:
2698:Drivers/STM32F4xx_StdPeriph_Driver/src/stm32f4xx_tim.c ****   *            @arg TIM_TS_ITR0: Internal Trigger 0
2699:Drivers/STM32F4xx_StdPeriph_Driver/src/stm32f4xx_tim.c ****   *            @arg TIM_TS_ITR1: Internal Trigger 1
2700:Drivers/STM32F4xx_StdPeriph_Driver/src/stm32f4xx_tim.c ****   *            @arg TIM_TS_ITR2: Internal Trigger 2
2701:Drivers/STM32F4xx_StdPeriph_Driver/src/stm32f4xx_tim.c ****   *            @arg TIM_TS_ITR3: Internal Trigger 3
2702:Drivers/STM32F4xx_StdPeriph_Driver/src/stm32f4xx_tim.c ****   * @retval None
ARM GAS  C:\Users\Admin\AppData\Local\Temp\ccwOX7Bd.s 			page 149


2703:Drivers/STM32F4xx_StdPeriph_Driver/src/stm32f4xx_tim.c ****   */
2704:Drivers/STM32F4xx_StdPeriph_Driver/src/stm32f4xx_tim.c **** void TIM_ITRxExternalClockConfig(TIM_TypeDef* TIMx, uint16_t TIM_InputTriggerSource)
2705:Drivers/STM32F4xx_StdPeriph_Driver/src/stm32f4xx_tim.c **** {
 5816              		.loc 1 2705 1
 5817              		.cfi_startproc
 5818              		@ args = 0, pretend = 0, frame = 8
 5819              		@ frame_needed = 1, uses_anonymous_args = 0
 5820 0000 80B5     		push	{r7, lr}
 5821              	.LCFI453:
 5822              		.cfi_def_cfa_offset 8
 5823              		.cfi_offset 7, -8
 5824              		.cfi_offset 14, -4
 5825 0002 82B0     		sub	sp, sp, #8
 5826              	.LCFI454:
 5827              		.cfi_def_cfa_offset 16
 5828 0004 00AF     		add	r7, sp, #0
 5829              	.LCFI455:
 5830              		.cfi_def_cfa_register 7
 5831 0006 7860     		str	r0, [r7, #4]
 5832 0008 0B46     		mov	r3, r1
 5833 000a 7B80     		strh	r3, [r7, #2]	@ movhi
2706:Drivers/STM32F4xx_StdPeriph_Driver/src/stm32f4xx_tim.c ****   /* Check the parameters */
2707:Drivers/STM32F4xx_StdPeriph_Driver/src/stm32f4xx_tim.c ****   assert_param(IS_TIM_LIST2_PERIPH(TIMx));
2708:Drivers/STM32F4xx_StdPeriph_Driver/src/stm32f4xx_tim.c ****   assert_param(IS_TIM_INTERNAL_TRIGGER_SELECTION(TIM_InputTriggerSource));
2709:Drivers/STM32F4xx_StdPeriph_Driver/src/stm32f4xx_tim.c **** 
2710:Drivers/STM32F4xx_StdPeriph_Driver/src/stm32f4xx_tim.c ****   /* Select the Internal Trigger */
2711:Drivers/STM32F4xx_StdPeriph_Driver/src/stm32f4xx_tim.c ****   TIM_SelectInputTrigger(TIMx, TIM_InputTriggerSource);
 5834              		.loc 1 2711 3
 5835 000c 7B88     		ldrh	r3, [r7, #2]
 5836 000e 1946     		mov	r1, r3
 5837 0010 7868     		ldr	r0, [r7, #4]
 5838 0012 FFF7FEFF 		bl	TIM_SelectInputTrigger
2712:Drivers/STM32F4xx_StdPeriph_Driver/src/stm32f4xx_tim.c **** 
2713:Drivers/STM32F4xx_StdPeriph_Driver/src/stm32f4xx_tim.c ****   /* Select the External clock mode1 */
2714:Drivers/STM32F4xx_StdPeriph_Driver/src/stm32f4xx_tim.c ****   TIMx->SMCR |= TIM_SlaveMode_External1;
 5839              		.loc 1 2714 14
 5840 0016 7B68     		ldr	r3, [r7, #4]
 5841 0018 1B89     		ldrh	r3, [r3, #8]	@ movhi
 5842 001a 9BB2     		uxth	r3, r3
 5843 001c 43F00703 		orr	r3, r3, #7
 5844 0020 9AB2     		uxth	r2, r3
 5845 0022 7B68     		ldr	r3, [r7, #4]
 5846 0024 1A81     		strh	r2, [r3, #8]	@ movhi
2715:Drivers/STM32F4xx_StdPeriph_Driver/src/stm32f4xx_tim.c **** }
 5847              		.loc 1 2715 1
 5848 0026 00BF     		nop
 5849 0028 0837     		adds	r7, r7, #8
 5850              	.LCFI456:
 5851              		.cfi_def_cfa_offset 8
 5852 002a BD46     		mov	sp, r7
 5853              	.LCFI457:
 5854              		.cfi_def_cfa_register 13
 5855              		@ sp needed
 5856 002c 80BD     		pop	{r7, pc}
 5857              		.cfi_endproc
 5858              	.LFE206:
 5860              		.section	.text.TIM_TIxExternalClockConfig,"ax",%progbits
ARM GAS  C:\Users\Admin\AppData\Local\Temp\ccwOX7Bd.s 			page 150


 5861              		.align	1
 5862              		.global	TIM_TIxExternalClockConfig
 5863              		.syntax unified
 5864              		.thumb
 5865              		.thumb_func
 5867              	TIM_TIxExternalClockConfig:
 5868              	.LFB207:
2716:Drivers/STM32F4xx_StdPeriph_Driver/src/stm32f4xx_tim.c **** 
2717:Drivers/STM32F4xx_StdPeriph_Driver/src/stm32f4xx_tim.c **** /**
2718:Drivers/STM32F4xx_StdPeriph_Driver/src/stm32f4xx_tim.c ****   * @brief  Configures the TIMx Trigger as External Clock
2719:Drivers/STM32F4xx_StdPeriph_Driver/src/stm32f4xx_tim.c ****   * @param  TIMx: where x can be 1, 2, 3, 4, 5, 8, 9, 10, 11, 12, 13 or 14  
2720:Drivers/STM32F4xx_StdPeriph_Driver/src/stm32f4xx_tim.c ****   *         to select the TIM peripheral.
2721:Drivers/STM32F4xx_StdPeriph_Driver/src/stm32f4xx_tim.c ****   * @param  TIM_TIxExternalCLKSource: Trigger source.
2722:Drivers/STM32F4xx_StdPeriph_Driver/src/stm32f4xx_tim.c ****   *          This parameter can be one of the following values:
2723:Drivers/STM32F4xx_StdPeriph_Driver/src/stm32f4xx_tim.c ****   *            @arg TIM_TIxExternalCLK1Source_TI1ED: TI1 Edge Detector
2724:Drivers/STM32F4xx_StdPeriph_Driver/src/stm32f4xx_tim.c ****   *            @arg TIM_TIxExternalCLK1Source_TI1: Filtered Timer Input 1
2725:Drivers/STM32F4xx_StdPeriph_Driver/src/stm32f4xx_tim.c ****   *            @arg TIM_TIxExternalCLK1Source_TI2: Filtered Timer Input 2
2726:Drivers/STM32F4xx_StdPeriph_Driver/src/stm32f4xx_tim.c ****   * @param  TIM_ICPolarity: specifies the TIx Polarity.
2727:Drivers/STM32F4xx_StdPeriph_Driver/src/stm32f4xx_tim.c ****   *          This parameter can be one of the following values:
2728:Drivers/STM32F4xx_StdPeriph_Driver/src/stm32f4xx_tim.c ****   *            @arg TIM_ICPolarity_Rising
2729:Drivers/STM32F4xx_StdPeriph_Driver/src/stm32f4xx_tim.c ****   *            @arg TIM_ICPolarity_Falling
2730:Drivers/STM32F4xx_StdPeriph_Driver/src/stm32f4xx_tim.c ****   * @param  ICFilter: specifies the filter value.
2731:Drivers/STM32F4xx_StdPeriph_Driver/src/stm32f4xx_tim.c ****   *          This parameter must be a value between 0x0 and 0xF.
2732:Drivers/STM32F4xx_StdPeriph_Driver/src/stm32f4xx_tim.c ****   * @retval None
2733:Drivers/STM32F4xx_StdPeriph_Driver/src/stm32f4xx_tim.c ****   */
2734:Drivers/STM32F4xx_StdPeriph_Driver/src/stm32f4xx_tim.c **** void TIM_TIxExternalClockConfig(TIM_TypeDef* TIMx, uint16_t TIM_TIxExternalCLKSource,
2735:Drivers/STM32F4xx_StdPeriph_Driver/src/stm32f4xx_tim.c ****                                 uint16_t TIM_ICPolarity, uint16_t ICFilter)
2736:Drivers/STM32F4xx_StdPeriph_Driver/src/stm32f4xx_tim.c **** {
 5869              		.loc 1 2736 1
 5870              		.cfi_startproc
 5871              		@ args = 0, pretend = 0, frame = 16
 5872              		@ frame_needed = 1, uses_anonymous_args = 0
 5873 0000 80B5     		push	{r7, lr}
 5874              	.LCFI458:
 5875              		.cfi_def_cfa_offset 8
 5876              		.cfi_offset 7, -8
 5877              		.cfi_offset 14, -4
 5878 0002 84B0     		sub	sp, sp, #16
 5879              	.LCFI459:
 5880              		.cfi_def_cfa_offset 24
 5881 0004 00AF     		add	r7, sp, #0
 5882              	.LCFI460:
 5883              		.cfi_def_cfa_register 7
 5884 0006 F860     		str	r0, [r7, #12]
 5885 0008 0846     		mov	r0, r1
 5886 000a 1146     		mov	r1, r2
 5887 000c 1A46     		mov	r2, r3
 5888 000e 0346     		mov	r3, r0	@ movhi
 5889 0010 7B81     		strh	r3, [r7, #10]	@ movhi
 5890 0012 0B46     		mov	r3, r1	@ movhi
 5891 0014 3B81     		strh	r3, [r7, #8]	@ movhi
 5892 0016 1346     		mov	r3, r2	@ movhi
 5893 0018 FB80     		strh	r3, [r7, #6]	@ movhi
2737:Drivers/STM32F4xx_StdPeriph_Driver/src/stm32f4xx_tim.c ****   /* Check the parameters */
2738:Drivers/STM32F4xx_StdPeriph_Driver/src/stm32f4xx_tim.c ****   assert_param(IS_TIM_LIST1_PERIPH(TIMx));
2739:Drivers/STM32F4xx_StdPeriph_Driver/src/stm32f4xx_tim.c ****   assert_param(IS_TIM_IC_POLARITY(TIM_ICPolarity));
2740:Drivers/STM32F4xx_StdPeriph_Driver/src/stm32f4xx_tim.c ****   assert_param(IS_TIM_IC_FILTER(ICFilter));
ARM GAS  C:\Users\Admin\AppData\Local\Temp\ccwOX7Bd.s 			page 151


2741:Drivers/STM32F4xx_StdPeriph_Driver/src/stm32f4xx_tim.c **** 
2742:Drivers/STM32F4xx_StdPeriph_Driver/src/stm32f4xx_tim.c ****   /* Configure the Timer Input Clock Source */
2743:Drivers/STM32F4xx_StdPeriph_Driver/src/stm32f4xx_tim.c ****   if (TIM_TIxExternalCLKSource == TIM_TIxExternalCLK1Source_TI2)
 5894              		.loc 1 2743 6
 5895 001a 7B89     		ldrh	r3, [r7, #10]
 5896 001c 602B     		cmp	r3, #96
 5897 001e 06D1     		bne	.L176
2744:Drivers/STM32F4xx_StdPeriph_Driver/src/stm32f4xx_tim.c ****   {
2745:Drivers/STM32F4xx_StdPeriph_Driver/src/stm32f4xx_tim.c ****     TI2_Config(TIMx, TIM_ICPolarity, TIM_ICSelection_DirectTI, ICFilter);
 5898              		.loc 1 2745 5
 5899 0020 FB88     		ldrh	r3, [r7, #6]
 5900 0022 3989     		ldrh	r1, [r7, #8]
 5901 0024 0122     		movs	r2, #1
 5902 0026 F868     		ldr	r0, [r7, #12]
 5903 0028 FFF7FEFF 		bl	TI2_Config
 5904 002c 05E0     		b	.L177
 5905              	.L176:
2746:Drivers/STM32F4xx_StdPeriph_Driver/src/stm32f4xx_tim.c ****   }
2747:Drivers/STM32F4xx_StdPeriph_Driver/src/stm32f4xx_tim.c ****   else
2748:Drivers/STM32F4xx_StdPeriph_Driver/src/stm32f4xx_tim.c ****   {
2749:Drivers/STM32F4xx_StdPeriph_Driver/src/stm32f4xx_tim.c ****     TI1_Config(TIMx, TIM_ICPolarity, TIM_ICSelection_DirectTI, ICFilter);
 5906              		.loc 1 2749 5
 5907 002e FB88     		ldrh	r3, [r7, #6]
 5908 0030 3989     		ldrh	r1, [r7, #8]
 5909 0032 0122     		movs	r2, #1
 5910 0034 F868     		ldr	r0, [r7, #12]
 5911 0036 FFF7FEFF 		bl	TI1_Config
 5912              	.L177:
2750:Drivers/STM32F4xx_StdPeriph_Driver/src/stm32f4xx_tim.c ****   }
2751:Drivers/STM32F4xx_StdPeriph_Driver/src/stm32f4xx_tim.c ****   /* Select the Trigger source */
2752:Drivers/STM32F4xx_StdPeriph_Driver/src/stm32f4xx_tim.c ****   TIM_SelectInputTrigger(TIMx, TIM_TIxExternalCLKSource);
 5913              		.loc 1 2752 3
 5914 003a 7B89     		ldrh	r3, [r7, #10]
 5915 003c 1946     		mov	r1, r3
 5916 003e F868     		ldr	r0, [r7, #12]
 5917 0040 FFF7FEFF 		bl	TIM_SelectInputTrigger
2753:Drivers/STM32F4xx_StdPeriph_Driver/src/stm32f4xx_tim.c ****   /* Select the External clock mode1 */
2754:Drivers/STM32F4xx_StdPeriph_Driver/src/stm32f4xx_tim.c ****   TIMx->SMCR |= TIM_SlaveMode_External1;
 5918              		.loc 1 2754 14
 5919 0044 FB68     		ldr	r3, [r7, #12]
 5920 0046 1B89     		ldrh	r3, [r3, #8]	@ movhi
 5921 0048 9BB2     		uxth	r3, r3
 5922 004a 43F00703 		orr	r3, r3, #7
 5923 004e 9AB2     		uxth	r2, r3
 5924 0050 FB68     		ldr	r3, [r7, #12]
 5925 0052 1A81     		strh	r2, [r3, #8]	@ movhi
2755:Drivers/STM32F4xx_StdPeriph_Driver/src/stm32f4xx_tim.c **** }
 5926              		.loc 1 2755 1
 5927 0054 00BF     		nop
 5928 0056 1037     		adds	r7, r7, #16
 5929              	.LCFI461:
 5930              		.cfi_def_cfa_offset 8
 5931 0058 BD46     		mov	sp, r7
 5932              	.LCFI462:
 5933              		.cfi_def_cfa_register 13
 5934              		@ sp needed
 5935 005a 80BD     		pop	{r7, pc}
ARM GAS  C:\Users\Admin\AppData\Local\Temp\ccwOX7Bd.s 			page 152


 5936              		.cfi_endproc
 5937              	.LFE207:
 5939              		.section	.text.TIM_ETRClockMode1Config,"ax",%progbits
 5940              		.align	1
 5941              		.global	TIM_ETRClockMode1Config
 5942              		.syntax unified
 5943              		.thumb
 5944              		.thumb_func
 5946              	TIM_ETRClockMode1Config:
 5947              	.LFB208:
2756:Drivers/STM32F4xx_StdPeriph_Driver/src/stm32f4xx_tim.c **** 
2757:Drivers/STM32F4xx_StdPeriph_Driver/src/stm32f4xx_tim.c **** /**
2758:Drivers/STM32F4xx_StdPeriph_Driver/src/stm32f4xx_tim.c ****   * @brief  Configures the External clock Mode1
2759:Drivers/STM32F4xx_StdPeriph_Driver/src/stm32f4xx_tim.c ****   * @param  TIMx: where x can be  1, 2, 3, 4, 5 or 8 to select the TIM peripheral.
2760:Drivers/STM32F4xx_StdPeriph_Driver/src/stm32f4xx_tim.c ****   * @param  TIM_ExtTRGPrescaler: The external Trigger Prescaler.
2761:Drivers/STM32F4xx_StdPeriph_Driver/src/stm32f4xx_tim.c ****   *          This parameter can be one of the following values:
2762:Drivers/STM32F4xx_StdPeriph_Driver/src/stm32f4xx_tim.c ****   *            @arg TIM_ExtTRGPSC_OFF: ETRP Prescaler OFF.
2763:Drivers/STM32F4xx_StdPeriph_Driver/src/stm32f4xx_tim.c ****   *            @arg TIM_ExtTRGPSC_DIV2: ETRP frequency divided by 2.
2764:Drivers/STM32F4xx_StdPeriph_Driver/src/stm32f4xx_tim.c ****   *            @arg TIM_ExtTRGPSC_DIV4: ETRP frequency divided by 4.
2765:Drivers/STM32F4xx_StdPeriph_Driver/src/stm32f4xx_tim.c ****   *            @arg TIM_ExtTRGPSC_DIV8: ETRP frequency divided by 8.
2766:Drivers/STM32F4xx_StdPeriph_Driver/src/stm32f4xx_tim.c ****   * @param  TIM_ExtTRGPolarity: The external Trigger Polarity.
2767:Drivers/STM32F4xx_StdPeriph_Driver/src/stm32f4xx_tim.c ****   *          This parameter can be one of the following values:
2768:Drivers/STM32F4xx_StdPeriph_Driver/src/stm32f4xx_tim.c ****   *            @arg TIM_ExtTRGPolarity_Inverted: active low or falling edge active.
2769:Drivers/STM32F4xx_StdPeriph_Driver/src/stm32f4xx_tim.c ****   *            @arg TIM_ExtTRGPolarity_NonInverted: active high or rising edge active.
2770:Drivers/STM32F4xx_StdPeriph_Driver/src/stm32f4xx_tim.c ****   * @param  ExtTRGFilter: External Trigger Filter.
2771:Drivers/STM32F4xx_StdPeriph_Driver/src/stm32f4xx_tim.c ****   *          This parameter must be a value between 0x00 and 0x0F
2772:Drivers/STM32F4xx_StdPeriph_Driver/src/stm32f4xx_tim.c ****   * @retval None
2773:Drivers/STM32F4xx_StdPeriph_Driver/src/stm32f4xx_tim.c ****   */
2774:Drivers/STM32F4xx_StdPeriph_Driver/src/stm32f4xx_tim.c **** void TIM_ETRClockMode1Config(TIM_TypeDef* TIMx, uint16_t TIM_ExtTRGPrescaler,
2775:Drivers/STM32F4xx_StdPeriph_Driver/src/stm32f4xx_tim.c ****                             uint16_t TIM_ExtTRGPolarity, uint16_t ExtTRGFilter)
2776:Drivers/STM32F4xx_StdPeriph_Driver/src/stm32f4xx_tim.c **** {
 5948              		.loc 1 2776 1
 5949              		.cfi_startproc
 5950              		@ args = 0, pretend = 0, frame = 24
 5951              		@ frame_needed = 1, uses_anonymous_args = 0
 5952 0000 80B5     		push	{r7, lr}
 5953              	.LCFI463:
 5954              		.cfi_def_cfa_offset 8
 5955              		.cfi_offset 7, -8
 5956              		.cfi_offset 14, -4
 5957 0002 86B0     		sub	sp, sp, #24
 5958              	.LCFI464:
 5959              		.cfi_def_cfa_offset 32
 5960 0004 00AF     		add	r7, sp, #0
 5961              	.LCFI465:
 5962              		.cfi_def_cfa_register 7
 5963 0006 F860     		str	r0, [r7, #12]
 5964 0008 0846     		mov	r0, r1
 5965 000a 1146     		mov	r1, r2
 5966 000c 1A46     		mov	r2, r3
 5967 000e 0346     		mov	r3, r0	@ movhi
 5968 0010 7B81     		strh	r3, [r7, #10]	@ movhi
 5969 0012 0B46     		mov	r3, r1	@ movhi
 5970 0014 3B81     		strh	r3, [r7, #8]	@ movhi
 5971 0016 1346     		mov	r3, r2	@ movhi
 5972 0018 FB80     		strh	r3, [r7, #6]	@ movhi
2777:Drivers/STM32F4xx_StdPeriph_Driver/src/stm32f4xx_tim.c ****   uint16_t tmpsmcr = 0;
ARM GAS  C:\Users\Admin\AppData\Local\Temp\ccwOX7Bd.s 			page 153


 5973              		.loc 1 2777 12
 5974 001a 0023     		movs	r3, #0
 5975 001c FB82     		strh	r3, [r7, #22]	@ movhi
2778:Drivers/STM32F4xx_StdPeriph_Driver/src/stm32f4xx_tim.c **** 
2779:Drivers/STM32F4xx_StdPeriph_Driver/src/stm32f4xx_tim.c ****   /* Check the parameters */
2780:Drivers/STM32F4xx_StdPeriph_Driver/src/stm32f4xx_tim.c ****   assert_param(IS_TIM_LIST3_PERIPH(TIMx));
2781:Drivers/STM32F4xx_StdPeriph_Driver/src/stm32f4xx_tim.c ****   assert_param(IS_TIM_EXT_PRESCALER(TIM_ExtTRGPrescaler));
2782:Drivers/STM32F4xx_StdPeriph_Driver/src/stm32f4xx_tim.c ****   assert_param(IS_TIM_EXT_POLARITY(TIM_ExtTRGPolarity));
2783:Drivers/STM32F4xx_StdPeriph_Driver/src/stm32f4xx_tim.c ****   assert_param(IS_TIM_EXT_FILTER(ExtTRGFilter));
2784:Drivers/STM32F4xx_StdPeriph_Driver/src/stm32f4xx_tim.c ****   /* Configure the ETR Clock source */
2785:Drivers/STM32F4xx_StdPeriph_Driver/src/stm32f4xx_tim.c ****   TIM_ETRConfig(TIMx, TIM_ExtTRGPrescaler, TIM_ExtTRGPolarity, ExtTRGFilter);
 5976              		.loc 1 2785 3
 5977 001e FB88     		ldrh	r3, [r7, #6]
 5978 0020 3A89     		ldrh	r2, [r7, #8]
 5979 0022 7989     		ldrh	r1, [r7, #10]
 5980 0024 F868     		ldr	r0, [r7, #12]
 5981 0026 FFF7FEFF 		bl	TIM_ETRConfig
2786:Drivers/STM32F4xx_StdPeriph_Driver/src/stm32f4xx_tim.c ****   
2787:Drivers/STM32F4xx_StdPeriph_Driver/src/stm32f4xx_tim.c ****   /* Get the TIMx SMCR register value */
2788:Drivers/STM32F4xx_StdPeriph_Driver/src/stm32f4xx_tim.c ****   tmpsmcr = TIMx->SMCR;
 5982              		.loc 1 2788 11
 5983 002a FB68     		ldr	r3, [r7, #12]
 5984 002c 1B89     		ldrh	r3, [r3, #8]	@ movhi
 5985 002e FB82     		strh	r3, [r7, #22]	@ movhi
2789:Drivers/STM32F4xx_StdPeriph_Driver/src/stm32f4xx_tim.c **** 
2790:Drivers/STM32F4xx_StdPeriph_Driver/src/stm32f4xx_tim.c ****   /* Reset the SMS Bits */
2791:Drivers/STM32F4xx_StdPeriph_Driver/src/stm32f4xx_tim.c ****   tmpsmcr &= (uint16_t)~TIM_SMCR_SMS;
 5986              		.loc 1 2791 11
 5987 0030 FB8A     		ldrh	r3, [r7, #22]	@ movhi
 5988 0032 23F00703 		bic	r3, r3, #7
 5989 0036 FB82     		strh	r3, [r7, #22]	@ movhi
2792:Drivers/STM32F4xx_StdPeriph_Driver/src/stm32f4xx_tim.c **** 
2793:Drivers/STM32F4xx_StdPeriph_Driver/src/stm32f4xx_tim.c ****   /* Select the External clock mode1 */
2794:Drivers/STM32F4xx_StdPeriph_Driver/src/stm32f4xx_tim.c ****   tmpsmcr |= TIM_SlaveMode_External1;
 5990              		.loc 1 2794 11
 5991 0038 FB8A     		ldrh	r3, [r7, #22]	@ movhi
 5992 003a 43F00703 		orr	r3, r3, #7
 5993 003e FB82     		strh	r3, [r7, #22]	@ movhi
2795:Drivers/STM32F4xx_StdPeriph_Driver/src/stm32f4xx_tim.c **** 
2796:Drivers/STM32F4xx_StdPeriph_Driver/src/stm32f4xx_tim.c ****   /* Select the Trigger selection : ETRF */
2797:Drivers/STM32F4xx_StdPeriph_Driver/src/stm32f4xx_tim.c ****   tmpsmcr &= (uint16_t)~TIM_SMCR_TS;
 5994              		.loc 1 2797 11
 5995 0040 FB8A     		ldrh	r3, [r7, #22]	@ movhi
 5996 0042 23F07003 		bic	r3, r3, #112
 5997 0046 FB82     		strh	r3, [r7, #22]	@ movhi
2798:Drivers/STM32F4xx_StdPeriph_Driver/src/stm32f4xx_tim.c ****   tmpsmcr |= TIM_TS_ETRF;
 5998              		.loc 1 2798 11
 5999 0048 FB8A     		ldrh	r3, [r7, #22]	@ movhi
 6000 004a 43F07003 		orr	r3, r3, #112
 6001 004e FB82     		strh	r3, [r7, #22]	@ movhi
2799:Drivers/STM32F4xx_StdPeriph_Driver/src/stm32f4xx_tim.c **** 
2800:Drivers/STM32F4xx_StdPeriph_Driver/src/stm32f4xx_tim.c ****   /* Write to TIMx SMCR */
2801:Drivers/STM32F4xx_StdPeriph_Driver/src/stm32f4xx_tim.c ****   TIMx->SMCR = tmpsmcr;
 6002              		.loc 1 2801 14
 6003 0050 FB68     		ldr	r3, [r7, #12]
 6004 0052 FA8A     		ldrh	r2, [r7, #22]	@ movhi
 6005 0054 1A81     		strh	r2, [r3, #8]	@ movhi
ARM GAS  C:\Users\Admin\AppData\Local\Temp\ccwOX7Bd.s 			page 154


2802:Drivers/STM32F4xx_StdPeriph_Driver/src/stm32f4xx_tim.c **** }
 6006              		.loc 1 2802 1
 6007 0056 00BF     		nop
 6008 0058 1837     		adds	r7, r7, #24
 6009              	.LCFI466:
 6010              		.cfi_def_cfa_offset 8
 6011 005a BD46     		mov	sp, r7
 6012              	.LCFI467:
 6013              		.cfi_def_cfa_register 13
 6014              		@ sp needed
 6015 005c 80BD     		pop	{r7, pc}
 6016              		.cfi_endproc
 6017              	.LFE208:
 6019              		.section	.text.TIM_ETRClockMode2Config,"ax",%progbits
 6020              		.align	1
 6021              		.global	TIM_ETRClockMode2Config
 6022              		.syntax unified
 6023              		.thumb
 6024              		.thumb_func
 6026              	TIM_ETRClockMode2Config:
 6027              	.LFB209:
2803:Drivers/STM32F4xx_StdPeriph_Driver/src/stm32f4xx_tim.c **** 
2804:Drivers/STM32F4xx_StdPeriph_Driver/src/stm32f4xx_tim.c **** /**
2805:Drivers/STM32F4xx_StdPeriph_Driver/src/stm32f4xx_tim.c ****   * @brief  Configures the External clock Mode2
2806:Drivers/STM32F4xx_StdPeriph_Driver/src/stm32f4xx_tim.c ****   * @param  TIMx: where x can be  1, 2, 3, 4, 5 or 8 to select the TIM peripheral.
2807:Drivers/STM32F4xx_StdPeriph_Driver/src/stm32f4xx_tim.c ****   * @param  TIM_ExtTRGPrescaler: The external Trigger Prescaler.
2808:Drivers/STM32F4xx_StdPeriph_Driver/src/stm32f4xx_tim.c ****   *          This parameter can be one of the following values:
2809:Drivers/STM32F4xx_StdPeriph_Driver/src/stm32f4xx_tim.c ****   *            @arg TIM_ExtTRGPSC_OFF: ETRP Prescaler OFF.
2810:Drivers/STM32F4xx_StdPeriph_Driver/src/stm32f4xx_tim.c ****   *            @arg TIM_ExtTRGPSC_DIV2: ETRP frequency divided by 2.
2811:Drivers/STM32F4xx_StdPeriph_Driver/src/stm32f4xx_tim.c ****   *            @arg TIM_ExtTRGPSC_DIV4: ETRP frequency divided by 4.
2812:Drivers/STM32F4xx_StdPeriph_Driver/src/stm32f4xx_tim.c ****   *            @arg TIM_ExtTRGPSC_DIV8: ETRP frequency divided by 8.
2813:Drivers/STM32F4xx_StdPeriph_Driver/src/stm32f4xx_tim.c ****   * @param  TIM_ExtTRGPolarity: The external Trigger Polarity.
2814:Drivers/STM32F4xx_StdPeriph_Driver/src/stm32f4xx_tim.c ****   *          This parameter can be one of the following values:
2815:Drivers/STM32F4xx_StdPeriph_Driver/src/stm32f4xx_tim.c ****   *            @arg TIM_ExtTRGPolarity_Inverted: active low or falling edge active.
2816:Drivers/STM32F4xx_StdPeriph_Driver/src/stm32f4xx_tim.c ****   *            @arg TIM_ExtTRGPolarity_NonInverted: active high or rising edge active.
2817:Drivers/STM32F4xx_StdPeriph_Driver/src/stm32f4xx_tim.c ****   * @param  ExtTRGFilter: External Trigger Filter.
2818:Drivers/STM32F4xx_StdPeriph_Driver/src/stm32f4xx_tim.c ****   *          This parameter must be a value between 0x00 and 0x0F
2819:Drivers/STM32F4xx_StdPeriph_Driver/src/stm32f4xx_tim.c ****   * @retval None
2820:Drivers/STM32F4xx_StdPeriph_Driver/src/stm32f4xx_tim.c ****   */
2821:Drivers/STM32F4xx_StdPeriph_Driver/src/stm32f4xx_tim.c **** void TIM_ETRClockMode2Config(TIM_TypeDef* TIMx, uint16_t TIM_ExtTRGPrescaler, 
2822:Drivers/STM32F4xx_StdPeriph_Driver/src/stm32f4xx_tim.c ****                              uint16_t TIM_ExtTRGPolarity, uint16_t ExtTRGFilter)
2823:Drivers/STM32F4xx_StdPeriph_Driver/src/stm32f4xx_tim.c **** {
 6028              		.loc 1 2823 1
 6029              		.cfi_startproc
 6030              		@ args = 0, pretend = 0, frame = 16
 6031              		@ frame_needed = 1, uses_anonymous_args = 0
 6032 0000 80B5     		push	{r7, lr}
 6033              	.LCFI468:
 6034              		.cfi_def_cfa_offset 8
 6035              		.cfi_offset 7, -8
 6036              		.cfi_offset 14, -4
 6037 0002 84B0     		sub	sp, sp, #16
 6038              	.LCFI469:
 6039              		.cfi_def_cfa_offset 24
 6040 0004 00AF     		add	r7, sp, #0
 6041              	.LCFI470:
 6042              		.cfi_def_cfa_register 7
ARM GAS  C:\Users\Admin\AppData\Local\Temp\ccwOX7Bd.s 			page 155


 6043 0006 F860     		str	r0, [r7, #12]
 6044 0008 0846     		mov	r0, r1
 6045 000a 1146     		mov	r1, r2
 6046 000c 1A46     		mov	r2, r3
 6047 000e 0346     		mov	r3, r0	@ movhi
 6048 0010 7B81     		strh	r3, [r7, #10]	@ movhi
 6049 0012 0B46     		mov	r3, r1	@ movhi
 6050 0014 3B81     		strh	r3, [r7, #8]	@ movhi
 6051 0016 1346     		mov	r3, r2	@ movhi
 6052 0018 FB80     		strh	r3, [r7, #6]	@ movhi
2824:Drivers/STM32F4xx_StdPeriph_Driver/src/stm32f4xx_tim.c ****   /* Check the parameters */
2825:Drivers/STM32F4xx_StdPeriph_Driver/src/stm32f4xx_tim.c ****   assert_param(IS_TIM_LIST3_PERIPH(TIMx));
2826:Drivers/STM32F4xx_StdPeriph_Driver/src/stm32f4xx_tim.c ****   assert_param(IS_TIM_EXT_PRESCALER(TIM_ExtTRGPrescaler));
2827:Drivers/STM32F4xx_StdPeriph_Driver/src/stm32f4xx_tim.c ****   assert_param(IS_TIM_EXT_POLARITY(TIM_ExtTRGPolarity));
2828:Drivers/STM32F4xx_StdPeriph_Driver/src/stm32f4xx_tim.c ****   assert_param(IS_TIM_EXT_FILTER(ExtTRGFilter));
2829:Drivers/STM32F4xx_StdPeriph_Driver/src/stm32f4xx_tim.c **** 
2830:Drivers/STM32F4xx_StdPeriph_Driver/src/stm32f4xx_tim.c ****   /* Configure the ETR Clock source */
2831:Drivers/STM32F4xx_StdPeriph_Driver/src/stm32f4xx_tim.c ****   TIM_ETRConfig(TIMx, TIM_ExtTRGPrescaler, TIM_ExtTRGPolarity, ExtTRGFilter);
 6053              		.loc 1 2831 3
 6054 001a FB88     		ldrh	r3, [r7, #6]
 6055 001c 3A89     		ldrh	r2, [r7, #8]
 6056 001e 7989     		ldrh	r1, [r7, #10]
 6057 0020 F868     		ldr	r0, [r7, #12]
 6058 0022 FFF7FEFF 		bl	TIM_ETRConfig
2832:Drivers/STM32F4xx_StdPeriph_Driver/src/stm32f4xx_tim.c **** 
2833:Drivers/STM32F4xx_StdPeriph_Driver/src/stm32f4xx_tim.c ****   /* Enable the External clock mode2 */
2834:Drivers/STM32F4xx_StdPeriph_Driver/src/stm32f4xx_tim.c ****   TIMx->SMCR |= TIM_SMCR_ECE;
 6059              		.loc 1 2834 14
 6060 0026 FB68     		ldr	r3, [r7, #12]
 6061 0028 1B89     		ldrh	r3, [r3, #8]	@ movhi
 6062 002a 9BB2     		uxth	r3, r3
 6063 002c 43F48043 		orr	r3, r3, #16384
 6064 0030 9AB2     		uxth	r2, r3
 6065 0032 FB68     		ldr	r3, [r7, #12]
 6066 0034 1A81     		strh	r2, [r3, #8]	@ movhi
2835:Drivers/STM32F4xx_StdPeriph_Driver/src/stm32f4xx_tim.c **** }
 6067              		.loc 1 2835 1
 6068 0036 00BF     		nop
 6069 0038 1037     		adds	r7, r7, #16
 6070              	.LCFI471:
 6071              		.cfi_def_cfa_offset 8
 6072 003a BD46     		mov	sp, r7
 6073              	.LCFI472:
 6074              		.cfi_def_cfa_register 13
 6075              		@ sp needed
 6076 003c 80BD     		pop	{r7, pc}
 6077              		.cfi_endproc
 6078              	.LFE209:
 6080              		.section	.text.TIM_SelectInputTrigger,"ax",%progbits
 6081              		.align	1
 6082              		.global	TIM_SelectInputTrigger
 6083              		.syntax unified
 6084              		.thumb
 6085              		.thumb_func
 6087              	TIM_SelectInputTrigger:
 6088              	.LFB210:
2836:Drivers/STM32F4xx_StdPeriph_Driver/src/stm32f4xx_tim.c **** /**
ARM GAS  C:\Users\Admin\AppData\Local\Temp\ccwOX7Bd.s 			page 156


2837:Drivers/STM32F4xx_StdPeriph_Driver/src/stm32f4xx_tim.c ****   * @}
2838:Drivers/STM32F4xx_StdPeriph_Driver/src/stm32f4xx_tim.c ****   */
2839:Drivers/STM32F4xx_StdPeriph_Driver/src/stm32f4xx_tim.c **** 
2840:Drivers/STM32F4xx_StdPeriph_Driver/src/stm32f4xx_tim.c **** /** @defgroup TIM_Group7 Synchronization management functions
2841:Drivers/STM32F4xx_StdPeriph_Driver/src/stm32f4xx_tim.c ****  *  @brief    Synchronization management functions 
2842:Drivers/STM32F4xx_StdPeriph_Driver/src/stm32f4xx_tim.c ****  *
2843:Drivers/STM32F4xx_StdPeriph_Driver/src/stm32f4xx_tim.c **** @verbatim   
2844:Drivers/STM32F4xx_StdPeriph_Driver/src/stm32f4xx_tim.c ****  ===============================================================================
2845:Drivers/STM32F4xx_StdPeriph_Driver/src/stm32f4xx_tim.c ****                 ##### Synchronization management functions #####
2846:Drivers/STM32F4xx_StdPeriph_Driver/src/stm32f4xx_tim.c ****  ===============================================================================  
2847:Drivers/STM32F4xx_StdPeriph_Driver/src/stm32f4xx_tim.c ****                          
2848:Drivers/STM32F4xx_StdPeriph_Driver/src/stm32f4xx_tim.c ****           ##### TIM Driver: how to use it in synchronization Mode #####
2849:Drivers/STM32F4xx_StdPeriph_Driver/src/stm32f4xx_tim.c ****  ===============================================================================
2850:Drivers/STM32F4xx_StdPeriph_Driver/src/stm32f4xx_tim.c ****     [..] 
2851:Drivers/STM32F4xx_StdPeriph_Driver/src/stm32f4xx_tim.c ****     
2852:Drivers/STM32F4xx_StdPeriph_Driver/src/stm32f4xx_tim.c ****     *** Case of two/several Timers ***
2853:Drivers/STM32F4xx_StdPeriph_Driver/src/stm32f4xx_tim.c ****     ==================================
2854:Drivers/STM32F4xx_StdPeriph_Driver/src/stm32f4xx_tim.c ****     [..]
2855:Drivers/STM32F4xx_StdPeriph_Driver/src/stm32f4xx_tim.c ****       (#) Configure the Master Timers using the following functions:
2856:Drivers/STM32F4xx_StdPeriph_Driver/src/stm32f4xx_tim.c ****         (++) void TIM_SelectOutputTrigger(TIM_TypeDef* TIMx, uint16_t TIM_TRGOSource); 
2857:Drivers/STM32F4xx_StdPeriph_Driver/src/stm32f4xx_tim.c ****         (++) void TIM_SelectMasterSlaveMode(TIM_TypeDef* TIMx, uint16_t TIM_MasterSlaveMode);  
2858:Drivers/STM32F4xx_StdPeriph_Driver/src/stm32f4xx_tim.c ****       (#) Configure the Slave Timers using the following functions: 
2859:Drivers/STM32F4xx_StdPeriph_Driver/src/stm32f4xx_tim.c ****         (++) void TIM_SelectInputTrigger(TIM_TypeDef* TIMx, uint16_t TIM_InputTriggerSource);  
2860:Drivers/STM32F4xx_StdPeriph_Driver/src/stm32f4xx_tim.c ****         (++) void TIM_SelectSlaveMode(TIM_TypeDef* TIMx, uint16_t TIM_SlaveMode); 
2861:Drivers/STM32F4xx_StdPeriph_Driver/src/stm32f4xx_tim.c ****           
2862:Drivers/STM32F4xx_StdPeriph_Driver/src/stm32f4xx_tim.c ****     *** Case of Timers and external trigger(ETR pin) ***
2863:Drivers/STM32F4xx_StdPeriph_Driver/src/stm32f4xx_tim.c ****     ====================================================
2864:Drivers/STM32F4xx_StdPeriph_Driver/src/stm32f4xx_tim.c ****     [..]           
2865:Drivers/STM32F4xx_StdPeriph_Driver/src/stm32f4xx_tim.c ****       (#) Configure the External trigger using this function:
2866:Drivers/STM32F4xx_StdPeriph_Driver/src/stm32f4xx_tim.c ****         (++) void TIM_ETRConfig(TIM_TypeDef* TIMx, uint16_t TIM_ExtTRGPrescaler, uint16_t TIM_ExtTR
2867:Drivers/STM32F4xx_StdPeriph_Driver/src/stm32f4xx_tim.c ****                                uint16_t ExtTRGFilter);
2868:Drivers/STM32F4xx_StdPeriph_Driver/src/stm32f4xx_tim.c ****       (#) Configure the Slave Timers using the following functions: 
2869:Drivers/STM32F4xx_StdPeriph_Driver/src/stm32f4xx_tim.c ****         (++) void TIM_SelectInputTrigger(TIM_TypeDef* TIMx, uint16_t TIM_InputTriggerSource);  
2870:Drivers/STM32F4xx_StdPeriph_Driver/src/stm32f4xx_tim.c ****         (++) void TIM_SelectSlaveMode(TIM_TypeDef* TIMx, uint16_t TIM_SlaveMode); 
2871:Drivers/STM32F4xx_StdPeriph_Driver/src/stm32f4xx_tim.c **** 
2872:Drivers/STM32F4xx_StdPeriph_Driver/src/stm32f4xx_tim.c **** @endverbatim
2873:Drivers/STM32F4xx_StdPeriph_Driver/src/stm32f4xx_tim.c ****   * @{
2874:Drivers/STM32F4xx_StdPeriph_Driver/src/stm32f4xx_tim.c ****   */
2875:Drivers/STM32F4xx_StdPeriph_Driver/src/stm32f4xx_tim.c **** 
2876:Drivers/STM32F4xx_StdPeriph_Driver/src/stm32f4xx_tim.c **** /**
2877:Drivers/STM32F4xx_StdPeriph_Driver/src/stm32f4xx_tim.c ****   * @brief  Selects the Input Trigger source
2878:Drivers/STM32F4xx_StdPeriph_Driver/src/stm32f4xx_tim.c ****   * @param  TIMx: where x can be  1, 2, 3, 4, 5, 8, 9, 10, 11, 12, 13 or 14  
2879:Drivers/STM32F4xx_StdPeriph_Driver/src/stm32f4xx_tim.c ****   *         to select the TIM peripheral.
2880:Drivers/STM32F4xx_StdPeriph_Driver/src/stm32f4xx_tim.c ****   * @param  TIM_InputTriggerSource: The Input Trigger source.
2881:Drivers/STM32F4xx_StdPeriph_Driver/src/stm32f4xx_tim.c ****   *          This parameter can be one of the following values:
2882:Drivers/STM32F4xx_StdPeriph_Driver/src/stm32f4xx_tim.c ****   *            @arg TIM_TS_ITR0: Internal Trigger 0
2883:Drivers/STM32F4xx_StdPeriph_Driver/src/stm32f4xx_tim.c ****   *            @arg TIM_TS_ITR1: Internal Trigger 1
2884:Drivers/STM32F4xx_StdPeriph_Driver/src/stm32f4xx_tim.c ****   *            @arg TIM_TS_ITR2: Internal Trigger 2
2885:Drivers/STM32F4xx_StdPeriph_Driver/src/stm32f4xx_tim.c ****   *            @arg TIM_TS_ITR3: Internal Trigger 3
2886:Drivers/STM32F4xx_StdPeriph_Driver/src/stm32f4xx_tim.c ****   *            @arg TIM_TS_TI1F_ED: TI1 Edge Detector
2887:Drivers/STM32F4xx_StdPeriph_Driver/src/stm32f4xx_tim.c ****   *            @arg TIM_TS_TI1FP1: Filtered Timer Input 1
2888:Drivers/STM32F4xx_StdPeriph_Driver/src/stm32f4xx_tim.c ****   *            @arg TIM_TS_TI2FP2: Filtered Timer Input 2
2889:Drivers/STM32F4xx_StdPeriph_Driver/src/stm32f4xx_tim.c ****   *            @arg TIM_TS_ETRF: External Trigger input
2890:Drivers/STM32F4xx_StdPeriph_Driver/src/stm32f4xx_tim.c ****   * @retval None
2891:Drivers/STM32F4xx_StdPeriph_Driver/src/stm32f4xx_tim.c ****   */
2892:Drivers/STM32F4xx_StdPeriph_Driver/src/stm32f4xx_tim.c **** void TIM_SelectInputTrigger(TIM_TypeDef* TIMx, uint16_t TIM_InputTriggerSource)
2893:Drivers/STM32F4xx_StdPeriph_Driver/src/stm32f4xx_tim.c **** {
ARM GAS  C:\Users\Admin\AppData\Local\Temp\ccwOX7Bd.s 			page 157


 6089              		.loc 1 2893 1
 6090              		.cfi_startproc
 6091              		@ args = 0, pretend = 0, frame = 16
 6092              		@ frame_needed = 1, uses_anonymous_args = 0
 6093              		@ link register save eliminated.
 6094 0000 80B4     		push	{r7}
 6095              	.LCFI473:
 6096              		.cfi_def_cfa_offset 4
 6097              		.cfi_offset 7, -4
 6098 0002 85B0     		sub	sp, sp, #20
 6099              	.LCFI474:
 6100              		.cfi_def_cfa_offset 24
 6101 0004 00AF     		add	r7, sp, #0
 6102              	.LCFI475:
 6103              		.cfi_def_cfa_register 7
 6104 0006 7860     		str	r0, [r7, #4]
 6105 0008 0B46     		mov	r3, r1
 6106 000a 7B80     		strh	r3, [r7, #2]	@ movhi
2894:Drivers/STM32F4xx_StdPeriph_Driver/src/stm32f4xx_tim.c ****   uint16_t tmpsmcr = 0;
 6107              		.loc 1 2894 12
 6108 000c 0023     		movs	r3, #0
 6109 000e FB81     		strh	r3, [r7, #14]	@ movhi
2895:Drivers/STM32F4xx_StdPeriph_Driver/src/stm32f4xx_tim.c **** 
2896:Drivers/STM32F4xx_StdPeriph_Driver/src/stm32f4xx_tim.c ****   /* Check the parameters */
2897:Drivers/STM32F4xx_StdPeriph_Driver/src/stm32f4xx_tim.c ****   assert_param(IS_TIM_LIST1_PERIPH(TIMx)); 
2898:Drivers/STM32F4xx_StdPeriph_Driver/src/stm32f4xx_tim.c ****   assert_param(IS_TIM_TRIGGER_SELECTION(TIM_InputTriggerSource));
2899:Drivers/STM32F4xx_StdPeriph_Driver/src/stm32f4xx_tim.c **** 
2900:Drivers/STM32F4xx_StdPeriph_Driver/src/stm32f4xx_tim.c ****   /* Get the TIMx SMCR register value */
2901:Drivers/STM32F4xx_StdPeriph_Driver/src/stm32f4xx_tim.c ****   tmpsmcr = TIMx->SMCR;
 6110              		.loc 1 2901 11
 6111 0010 7B68     		ldr	r3, [r7, #4]
 6112 0012 1B89     		ldrh	r3, [r3, #8]	@ movhi
 6113 0014 FB81     		strh	r3, [r7, #14]	@ movhi
2902:Drivers/STM32F4xx_StdPeriph_Driver/src/stm32f4xx_tim.c **** 
2903:Drivers/STM32F4xx_StdPeriph_Driver/src/stm32f4xx_tim.c ****   /* Reset the TS Bits */
2904:Drivers/STM32F4xx_StdPeriph_Driver/src/stm32f4xx_tim.c ****   tmpsmcr &= (uint16_t)~TIM_SMCR_TS;
 6114              		.loc 1 2904 11
 6115 0016 FB89     		ldrh	r3, [r7, #14]	@ movhi
 6116 0018 23F07003 		bic	r3, r3, #112
 6117 001c FB81     		strh	r3, [r7, #14]	@ movhi
2905:Drivers/STM32F4xx_StdPeriph_Driver/src/stm32f4xx_tim.c **** 
2906:Drivers/STM32F4xx_StdPeriph_Driver/src/stm32f4xx_tim.c ****   /* Set the Input Trigger source */
2907:Drivers/STM32F4xx_StdPeriph_Driver/src/stm32f4xx_tim.c ****   tmpsmcr |= TIM_InputTriggerSource;
 6118              		.loc 1 2907 11
 6119 001e FA89     		ldrh	r2, [r7, #14]	@ movhi
 6120 0020 7B88     		ldrh	r3, [r7, #2]	@ movhi
 6121 0022 1343     		orrs	r3, r3, r2
 6122 0024 FB81     		strh	r3, [r7, #14]	@ movhi
2908:Drivers/STM32F4xx_StdPeriph_Driver/src/stm32f4xx_tim.c **** 
2909:Drivers/STM32F4xx_StdPeriph_Driver/src/stm32f4xx_tim.c ****   /* Write to TIMx SMCR */
2910:Drivers/STM32F4xx_StdPeriph_Driver/src/stm32f4xx_tim.c ****   TIMx->SMCR = tmpsmcr;
 6123              		.loc 1 2910 14
 6124 0026 7B68     		ldr	r3, [r7, #4]
 6125 0028 FA89     		ldrh	r2, [r7, #14]	@ movhi
 6126 002a 1A81     		strh	r2, [r3, #8]	@ movhi
2911:Drivers/STM32F4xx_StdPeriph_Driver/src/stm32f4xx_tim.c **** }
 6127              		.loc 1 2911 1
ARM GAS  C:\Users\Admin\AppData\Local\Temp\ccwOX7Bd.s 			page 158


 6128 002c 00BF     		nop
 6129 002e 1437     		adds	r7, r7, #20
 6130              	.LCFI476:
 6131              		.cfi_def_cfa_offset 4
 6132 0030 BD46     		mov	sp, r7
 6133              	.LCFI477:
 6134              		.cfi_def_cfa_register 13
 6135              		@ sp needed
 6136 0032 5DF8047B 		ldr	r7, [sp], #4
 6137              	.LCFI478:
 6138              		.cfi_restore 7
 6139              		.cfi_def_cfa_offset 0
 6140 0036 7047     		bx	lr
 6141              		.cfi_endproc
 6142              	.LFE210:
 6144              		.section	.text.TIM_SelectOutputTrigger,"ax",%progbits
 6145              		.align	1
 6146              		.global	TIM_SelectOutputTrigger
 6147              		.syntax unified
 6148              		.thumb
 6149              		.thumb_func
 6151              	TIM_SelectOutputTrigger:
 6152              	.LFB211:
2912:Drivers/STM32F4xx_StdPeriph_Driver/src/stm32f4xx_tim.c **** 
2913:Drivers/STM32F4xx_StdPeriph_Driver/src/stm32f4xx_tim.c **** /**
2914:Drivers/STM32F4xx_StdPeriph_Driver/src/stm32f4xx_tim.c ****   * @brief  Selects the TIMx Trigger Output Mode.
2915:Drivers/STM32F4xx_StdPeriph_Driver/src/stm32f4xx_tim.c ****   * @param  TIMx: where x can be 1, 2, 3, 4, 5, 6, 7 or 8 to select the TIM peripheral.
2916:Drivers/STM32F4xx_StdPeriph_Driver/src/stm32f4xx_tim.c ****   *     
2917:Drivers/STM32F4xx_StdPeriph_Driver/src/stm32f4xx_tim.c ****   * @param  TIM_TRGOSource: specifies the Trigger Output source.
2918:Drivers/STM32F4xx_StdPeriph_Driver/src/stm32f4xx_tim.c ****   *   This parameter can be one of the following values:
2919:Drivers/STM32F4xx_StdPeriph_Driver/src/stm32f4xx_tim.c ****   *
2920:Drivers/STM32F4xx_StdPeriph_Driver/src/stm32f4xx_tim.c ****   *  - For all TIMx
2921:Drivers/STM32F4xx_StdPeriph_Driver/src/stm32f4xx_tim.c ****   *            @arg TIM_TRGOSource_Reset:  The UG bit in the TIM_EGR register is used as the trigge
2922:Drivers/STM32F4xx_StdPeriph_Driver/src/stm32f4xx_tim.c ****   *            @arg TIM_TRGOSource_Enable: The Counter Enable CEN is used as the trigger output(TRG
2923:Drivers/STM32F4xx_StdPeriph_Driver/src/stm32f4xx_tim.c ****   *            @arg TIM_TRGOSource_Update: The update event is selected as the trigger output(TRGO)
2924:Drivers/STM32F4xx_StdPeriph_Driver/src/stm32f4xx_tim.c ****   *
2925:Drivers/STM32F4xx_StdPeriph_Driver/src/stm32f4xx_tim.c ****   *  - For all TIMx except TIM6 and TIM7
2926:Drivers/STM32F4xx_StdPeriph_Driver/src/stm32f4xx_tim.c ****   *            @arg TIM_TRGOSource_OC1: The trigger output sends a positive pulse when the CC1IF fl
2927:Drivers/STM32F4xx_StdPeriph_Driver/src/stm32f4xx_tim.c ****   *                                     is to be set, as soon as a capture or compare match occurs(
2928:Drivers/STM32F4xx_StdPeriph_Driver/src/stm32f4xx_tim.c ****   *            @arg TIM_TRGOSource_OC1Ref: OC1REF signal is used as the trigger output(TRGO)
2929:Drivers/STM32F4xx_StdPeriph_Driver/src/stm32f4xx_tim.c ****   *            @arg TIM_TRGOSource_OC2Ref: OC2REF signal is used as the trigger output(TRGO)
2930:Drivers/STM32F4xx_StdPeriph_Driver/src/stm32f4xx_tim.c ****   *            @arg TIM_TRGOSource_OC3Ref: OC3REF signal is used as the trigger output(TRGO)
2931:Drivers/STM32F4xx_StdPeriph_Driver/src/stm32f4xx_tim.c ****   *            @arg TIM_TRGOSource_OC4Ref: OC4REF signal is used as the trigger output(TRGO)
2932:Drivers/STM32F4xx_StdPeriph_Driver/src/stm32f4xx_tim.c ****   *
2933:Drivers/STM32F4xx_StdPeriph_Driver/src/stm32f4xx_tim.c ****   * @retval None
2934:Drivers/STM32F4xx_StdPeriph_Driver/src/stm32f4xx_tim.c ****   */
2935:Drivers/STM32F4xx_StdPeriph_Driver/src/stm32f4xx_tim.c **** void TIM_SelectOutputTrigger(TIM_TypeDef* TIMx, uint16_t TIM_TRGOSource)
2936:Drivers/STM32F4xx_StdPeriph_Driver/src/stm32f4xx_tim.c **** {
 6153              		.loc 1 2936 1
 6154              		.cfi_startproc
 6155              		@ args = 0, pretend = 0, frame = 8
 6156              		@ frame_needed = 1, uses_anonymous_args = 0
 6157              		@ link register save eliminated.
 6158 0000 80B4     		push	{r7}
 6159              	.LCFI479:
 6160              		.cfi_def_cfa_offset 4
 6161              		.cfi_offset 7, -4
ARM GAS  C:\Users\Admin\AppData\Local\Temp\ccwOX7Bd.s 			page 159


 6162 0002 83B0     		sub	sp, sp, #12
 6163              	.LCFI480:
 6164              		.cfi_def_cfa_offset 16
 6165 0004 00AF     		add	r7, sp, #0
 6166              	.LCFI481:
 6167              		.cfi_def_cfa_register 7
 6168 0006 7860     		str	r0, [r7, #4]
 6169 0008 0B46     		mov	r3, r1
 6170 000a 7B80     		strh	r3, [r7, #2]	@ movhi
2937:Drivers/STM32F4xx_StdPeriph_Driver/src/stm32f4xx_tim.c ****   /* Check the parameters */
2938:Drivers/STM32F4xx_StdPeriph_Driver/src/stm32f4xx_tim.c ****   assert_param(IS_TIM_LIST5_PERIPH(TIMx));
2939:Drivers/STM32F4xx_StdPeriph_Driver/src/stm32f4xx_tim.c ****   assert_param(IS_TIM_TRGO_SOURCE(TIM_TRGOSource));
2940:Drivers/STM32F4xx_StdPeriph_Driver/src/stm32f4xx_tim.c **** 
2941:Drivers/STM32F4xx_StdPeriph_Driver/src/stm32f4xx_tim.c ****   /* Reset the MMS Bits */
2942:Drivers/STM32F4xx_StdPeriph_Driver/src/stm32f4xx_tim.c ****   TIMx->CR2 &= (uint16_t)~TIM_CR2_MMS;
 6171              		.loc 1 2942 13
 6172 000c 7B68     		ldr	r3, [r7, #4]
 6173 000e 9B88     		ldrh	r3, [r3, #4]	@ movhi
 6174 0010 9BB2     		uxth	r3, r3
 6175 0012 23F07003 		bic	r3, r3, #112
 6176 0016 9AB2     		uxth	r2, r3
 6177 0018 7B68     		ldr	r3, [r7, #4]
 6178 001a 9A80     		strh	r2, [r3, #4]	@ movhi
2943:Drivers/STM32F4xx_StdPeriph_Driver/src/stm32f4xx_tim.c ****   /* Select the TRGO source */
2944:Drivers/STM32F4xx_StdPeriph_Driver/src/stm32f4xx_tim.c ****   TIMx->CR2 |=  TIM_TRGOSource;
 6179              		.loc 1 2944 13
 6180 001c 7B68     		ldr	r3, [r7, #4]
 6181 001e 9B88     		ldrh	r3, [r3, #4]	@ movhi
 6182 0020 9AB2     		uxth	r2, r3
 6183 0022 7B88     		ldrh	r3, [r7, #2]	@ movhi
 6184 0024 1343     		orrs	r3, r3, r2
 6185 0026 9AB2     		uxth	r2, r3
 6186 0028 7B68     		ldr	r3, [r7, #4]
 6187 002a 9A80     		strh	r2, [r3, #4]	@ movhi
2945:Drivers/STM32F4xx_StdPeriph_Driver/src/stm32f4xx_tim.c **** }
 6188              		.loc 1 2945 1
 6189 002c 00BF     		nop
 6190 002e 0C37     		adds	r7, r7, #12
 6191              	.LCFI482:
 6192              		.cfi_def_cfa_offset 4
 6193 0030 BD46     		mov	sp, r7
 6194              	.LCFI483:
 6195              		.cfi_def_cfa_register 13
 6196              		@ sp needed
 6197 0032 5DF8047B 		ldr	r7, [sp], #4
 6198              	.LCFI484:
 6199              		.cfi_restore 7
 6200              		.cfi_def_cfa_offset 0
 6201 0036 7047     		bx	lr
 6202              		.cfi_endproc
 6203              	.LFE211:
 6205              		.section	.text.TIM_SelectSlaveMode,"ax",%progbits
 6206              		.align	1
 6207              		.global	TIM_SelectSlaveMode
 6208              		.syntax unified
 6209              		.thumb
 6210              		.thumb_func
ARM GAS  C:\Users\Admin\AppData\Local\Temp\ccwOX7Bd.s 			page 160


 6212              	TIM_SelectSlaveMode:
 6213              	.LFB212:
2946:Drivers/STM32F4xx_StdPeriph_Driver/src/stm32f4xx_tim.c **** 
2947:Drivers/STM32F4xx_StdPeriph_Driver/src/stm32f4xx_tim.c **** /**
2948:Drivers/STM32F4xx_StdPeriph_Driver/src/stm32f4xx_tim.c ****   * @brief  Selects the TIMx Slave Mode.
2949:Drivers/STM32F4xx_StdPeriph_Driver/src/stm32f4xx_tim.c ****   * @param  TIMx: where x can be 1, 2, 3, 4, 5, 8, 9 or 12 to select the TIM peripheral.
2950:Drivers/STM32F4xx_StdPeriph_Driver/src/stm32f4xx_tim.c ****   * @param  TIM_SlaveMode: specifies the Timer Slave Mode.
2951:Drivers/STM32F4xx_StdPeriph_Driver/src/stm32f4xx_tim.c ****   *          This parameter can be one of the following values:
2952:Drivers/STM32F4xx_StdPeriph_Driver/src/stm32f4xx_tim.c ****   *            @arg TIM_SlaveMode_Reset: Rising edge of the selected trigger signal(TRGI) reinitial
2953:Drivers/STM32F4xx_StdPeriph_Driver/src/stm32f4xx_tim.c ****   *                                      the counter and triggers an update of the registers
2954:Drivers/STM32F4xx_StdPeriph_Driver/src/stm32f4xx_tim.c ****   *            @arg TIM_SlaveMode_Gated:     The counter clock is enabled when the trigger signal (
2955:Drivers/STM32F4xx_StdPeriph_Driver/src/stm32f4xx_tim.c ****   *            @arg TIM_SlaveMode_Trigger:   The counter starts at a rising edge of the trigger TRG
2956:Drivers/STM32F4xx_StdPeriph_Driver/src/stm32f4xx_tim.c ****   *            @arg TIM_SlaveMode_External1: Rising edges of the selected trigger (TRGI) clock the 
2957:Drivers/STM32F4xx_StdPeriph_Driver/src/stm32f4xx_tim.c ****   * @retval None
2958:Drivers/STM32F4xx_StdPeriph_Driver/src/stm32f4xx_tim.c ****   */
2959:Drivers/STM32F4xx_StdPeriph_Driver/src/stm32f4xx_tim.c **** void TIM_SelectSlaveMode(TIM_TypeDef* TIMx, uint16_t TIM_SlaveMode)
2960:Drivers/STM32F4xx_StdPeriph_Driver/src/stm32f4xx_tim.c **** {
 6214              		.loc 1 2960 1
 6215              		.cfi_startproc
 6216              		@ args = 0, pretend = 0, frame = 8
 6217              		@ frame_needed = 1, uses_anonymous_args = 0
 6218              		@ link register save eliminated.
 6219 0000 80B4     		push	{r7}
 6220              	.LCFI485:
 6221              		.cfi_def_cfa_offset 4
 6222              		.cfi_offset 7, -4
 6223 0002 83B0     		sub	sp, sp, #12
 6224              	.LCFI486:
 6225              		.cfi_def_cfa_offset 16
 6226 0004 00AF     		add	r7, sp, #0
 6227              	.LCFI487:
 6228              		.cfi_def_cfa_register 7
 6229 0006 7860     		str	r0, [r7, #4]
 6230 0008 0B46     		mov	r3, r1
 6231 000a 7B80     		strh	r3, [r7, #2]	@ movhi
2961:Drivers/STM32F4xx_StdPeriph_Driver/src/stm32f4xx_tim.c ****   /* Check the parameters */
2962:Drivers/STM32F4xx_StdPeriph_Driver/src/stm32f4xx_tim.c ****   assert_param(IS_TIM_LIST2_PERIPH(TIMx));
2963:Drivers/STM32F4xx_StdPeriph_Driver/src/stm32f4xx_tim.c ****   assert_param(IS_TIM_SLAVE_MODE(TIM_SlaveMode));
2964:Drivers/STM32F4xx_StdPeriph_Driver/src/stm32f4xx_tim.c **** 
2965:Drivers/STM32F4xx_StdPeriph_Driver/src/stm32f4xx_tim.c ****   /* Reset the SMS Bits */
2966:Drivers/STM32F4xx_StdPeriph_Driver/src/stm32f4xx_tim.c ****   TIMx->SMCR &= (uint16_t)~TIM_SMCR_SMS;
 6232              		.loc 1 2966 14
 6233 000c 7B68     		ldr	r3, [r7, #4]
 6234 000e 1B89     		ldrh	r3, [r3, #8]	@ movhi
 6235 0010 9BB2     		uxth	r3, r3
 6236 0012 23F00703 		bic	r3, r3, #7
 6237 0016 9AB2     		uxth	r2, r3
 6238 0018 7B68     		ldr	r3, [r7, #4]
 6239 001a 1A81     		strh	r2, [r3, #8]	@ movhi
2967:Drivers/STM32F4xx_StdPeriph_Driver/src/stm32f4xx_tim.c **** 
2968:Drivers/STM32F4xx_StdPeriph_Driver/src/stm32f4xx_tim.c ****   /* Select the Slave Mode */
2969:Drivers/STM32F4xx_StdPeriph_Driver/src/stm32f4xx_tim.c ****   TIMx->SMCR |= TIM_SlaveMode;
 6240              		.loc 1 2969 14
 6241 001c 7B68     		ldr	r3, [r7, #4]
 6242 001e 1B89     		ldrh	r3, [r3, #8]	@ movhi
 6243 0020 9AB2     		uxth	r2, r3
 6244 0022 7B88     		ldrh	r3, [r7, #2]	@ movhi
ARM GAS  C:\Users\Admin\AppData\Local\Temp\ccwOX7Bd.s 			page 161


 6245 0024 1343     		orrs	r3, r3, r2
 6246 0026 9AB2     		uxth	r2, r3
 6247 0028 7B68     		ldr	r3, [r7, #4]
 6248 002a 1A81     		strh	r2, [r3, #8]	@ movhi
2970:Drivers/STM32F4xx_StdPeriph_Driver/src/stm32f4xx_tim.c **** }
 6249              		.loc 1 2970 1
 6250 002c 00BF     		nop
 6251 002e 0C37     		adds	r7, r7, #12
 6252              	.LCFI488:
 6253              		.cfi_def_cfa_offset 4
 6254 0030 BD46     		mov	sp, r7
 6255              	.LCFI489:
 6256              		.cfi_def_cfa_register 13
 6257              		@ sp needed
 6258 0032 5DF8047B 		ldr	r7, [sp], #4
 6259              	.LCFI490:
 6260              		.cfi_restore 7
 6261              		.cfi_def_cfa_offset 0
 6262 0036 7047     		bx	lr
 6263              		.cfi_endproc
 6264              	.LFE212:
 6266              		.section	.text.TIM_SelectMasterSlaveMode,"ax",%progbits
 6267              		.align	1
 6268              		.global	TIM_SelectMasterSlaveMode
 6269              		.syntax unified
 6270              		.thumb
 6271              		.thumb_func
 6273              	TIM_SelectMasterSlaveMode:
 6274              	.LFB213:
2971:Drivers/STM32F4xx_StdPeriph_Driver/src/stm32f4xx_tim.c **** 
2972:Drivers/STM32F4xx_StdPeriph_Driver/src/stm32f4xx_tim.c **** /**
2973:Drivers/STM32F4xx_StdPeriph_Driver/src/stm32f4xx_tim.c ****   * @brief  Sets or Resets the TIMx Master/Slave Mode.
2974:Drivers/STM32F4xx_StdPeriph_Driver/src/stm32f4xx_tim.c ****   * @param  TIMx: where x can be 1, 2, 3, 4, 5, 8, 9 or 12 to select the TIM peripheral.
2975:Drivers/STM32F4xx_StdPeriph_Driver/src/stm32f4xx_tim.c ****   * @param  TIM_MasterSlaveMode: specifies the Timer Master Slave Mode.
2976:Drivers/STM32F4xx_StdPeriph_Driver/src/stm32f4xx_tim.c ****   *          This parameter can be one of the following values:
2977:Drivers/STM32F4xx_StdPeriph_Driver/src/stm32f4xx_tim.c ****   *            @arg TIM_MasterSlaveMode_Enable: synchronization between the current timer
2978:Drivers/STM32F4xx_StdPeriph_Driver/src/stm32f4xx_tim.c ****   *                                             and its slaves (through TRGO)
2979:Drivers/STM32F4xx_StdPeriph_Driver/src/stm32f4xx_tim.c ****   *            @arg TIM_MasterSlaveMode_Disable: No action
2980:Drivers/STM32F4xx_StdPeriph_Driver/src/stm32f4xx_tim.c ****   * @retval None
2981:Drivers/STM32F4xx_StdPeriph_Driver/src/stm32f4xx_tim.c ****   */
2982:Drivers/STM32F4xx_StdPeriph_Driver/src/stm32f4xx_tim.c **** void TIM_SelectMasterSlaveMode(TIM_TypeDef* TIMx, uint16_t TIM_MasterSlaveMode)
2983:Drivers/STM32F4xx_StdPeriph_Driver/src/stm32f4xx_tim.c **** {
 6275              		.loc 1 2983 1
 6276              		.cfi_startproc
 6277              		@ args = 0, pretend = 0, frame = 8
 6278              		@ frame_needed = 1, uses_anonymous_args = 0
 6279              		@ link register save eliminated.
 6280 0000 80B4     		push	{r7}
 6281              	.LCFI491:
 6282              		.cfi_def_cfa_offset 4
 6283              		.cfi_offset 7, -4
 6284 0002 83B0     		sub	sp, sp, #12
 6285              	.LCFI492:
 6286              		.cfi_def_cfa_offset 16
 6287 0004 00AF     		add	r7, sp, #0
 6288              	.LCFI493:
 6289              		.cfi_def_cfa_register 7
ARM GAS  C:\Users\Admin\AppData\Local\Temp\ccwOX7Bd.s 			page 162


 6290 0006 7860     		str	r0, [r7, #4]
 6291 0008 0B46     		mov	r3, r1
 6292 000a 7B80     		strh	r3, [r7, #2]	@ movhi
2984:Drivers/STM32F4xx_StdPeriph_Driver/src/stm32f4xx_tim.c ****   /* Check the parameters */
2985:Drivers/STM32F4xx_StdPeriph_Driver/src/stm32f4xx_tim.c ****   assert_param(IS_TIM_LIST2_PERIPH(TIMx));
2986:Drivers/STM32F4xx_StdPeriph_Driver/src/stm32f4xx_tim.c ****   assert_param(IS_TIM_MSM_STATE(TIM_MasterSlaveMode));
2987:Drivers/STM32F4xx_StdPeriph_Driver/src/stm32f4xx_tim.c **** 
2988:Drivers/STM32F4xx_StdPeriph_Driver/src/stm32f4xx_tim.c ****   /* Reset the MSM Bit */
2989:Drivers/STM32F4xx_StdPeriph_Driver/src/stm32f4xx_tim.c ****   TIMx->SMCR &= (uint16_t)~TIM_SMCR_MSM;
 6293              		.loc 1 2989 14
 6294 000c 7B68     		ldr	r3, [r7, #4]
 6295 000e 1B89     		ldrh	r3, [r3, #8]	@ movhi
 6296 0010 9BB2     		uxth	r3, r3
 6297 0012 23F08003 		bic	r3, r3, #128
 6298 0016 9AB2     		uxth	r2, r3
 6299 0018 7B68     		ldr	r3, [r7, #4]
 6300 001a 1A81     		strh	r2, [r3, #8]	@ movhi
2990:Drivers/STM32F4xx_StdPeriph_Driver/src/stm32f4xx_tim.c ****   
2991:Drivers/STM32F4xx_StdPeriph_Driver/src/stm32f4xx_tim.c ****   /* Set or Reset the MSM Bit */
2992:Drivers/STM32F4xx_StdPeriph_Driver/src/stm32f4xx_tim.c ****   TIMx->SMCR |= TIM_MasterSlaveMode;
 6301              		.loc 1 2992 14
 6302 001c 7B68     		ldr	r3, [r7, #4]
 6303 001e 1B89     		ldrh	r3, [r3, #8]	@ movhi
 6304 0020 9AB2     		uxth	r2, r3
 6305 0022 7B88     		ldrh	r3, [r7, #2]	@ movhi
 6306 0024 1343     		orrs	r3, r3, r2
 6307 0026 9AB2     		uxth	r2, r3
 6308 0028 7B68     		ldr	r3, [r7, #4]
 6309 002a 1A81     		strh	r2, [r3, #8]	@ movhi
2993:Drivers/STM32F4xx_StdPeriph_Driver/src/stm32f4xx_tim.c **** }
 6310              		.loc 1 2993 1
 6311 002c 00BF     		nop
 6312 002e 0C37     		adds	r7, r7, #12
 6313              	.LCFI494:
 6314              		.cfi_def_cfa_offset 4
 6315 0030 BD46     		mov	sp, r7
 6316              	.LCFI495:
 6317              		.cfi_def_cfa_register 13
 6318              		@ sp needed
 6319 0032 5DF8047B 		ldr	r7, [sp], #4
 6320              	.LCFI496:
 6321              		.cfi_restore 7
 6322              		.cfi_def_cfa_offset 0
 6323 0036 7047     		bx	lr
 6324              		.cfi_endproc
 6325              	.LFE213:
 6327              		.section	.text.TIM_ETRConfig,"ax",%progbits
 6328              		.align	1
 6329              		.global	TIM_ETRConfig
 6330              		.syntax unified
 6331              		.thumb
 6332              		.thumb_func
 6334              	TIM_ETRConfig:
 6335              	.LFB214:
2994:Drivers/STM32F4xx_StdPeriph_Driver/src/stm32f4xx_tim.c **** 
2995:Drivers/STM32F4xx_StdPeriph_Driver/src/stm32f4xx_tim.c **** /**
2996:Drivers/STM32F4xx_StdPeriph_Driver/src/stm32f4xx_tim.c ****   * @brief  Configures the TIMx External Trigger (ETR).
ARM GAS  C:\Users\Admin\AppData\Local\Temp\ccwOX7Bd.s 			page 163


2997:Drivers/STM32F4xx_StdPeriph_Driver/src/stm32f4xx_tim.c ****   * @param  TIMx: where x can be  1, 2, 3, 4, 5 or 8 to select the TIM peripheral.
2998:Drivers/STM32F4xx_StdPeriph_Driver/src/stm32f4xx_tim.c ****   * @param  TIM_ExtTRGPrescaler: The external Trigger Prescaler.
2999:Drivers/STM32F4xx_StdPeriph_Driver/src/stm32f4xx_tim.c ****   *          This parameter can be one of the following values:
3000:Drivers/STM32F4xx_StdPeriph_Driver/src/stm32f4xx_tim.c ****   *            @arg TIM_ExtTRGPSC_OFF: ETRP Prescaler OFF.
3001:Drivers/STM32F4xx_StdPeriph_Driver/src/stm32f4xx_tim.c ****   *            @arg TIM_ExtTRGPSC_DIV2: ETRP frequency divided by 2.
3002:Drivers/STM32F4xx_StdPeriph_Driver/src/stm32f4xx_tim.c ****   *            @arg TIM_ExtTRGPSC_DIV4: ETRP frequency divided by 4.
3003:Drivers/STM32F4xx_StdPeriph_Driver/src/stm32f4xx_tim.c ****   *            @arg TIM_ExtTRGPSC_DIV8: ETRP frequency divided by 8.
3004:Drivers/STM32F4xx_StdPeriph_Driver/src/stm32f4xx_tim.c ****   * @param  TIM_ExtTRGPolarity: The external Trigger Polarity.
3005:Drivers/STM32F4xx_StdPeriph_Driver/src/stm32f4xx_tim.c ****   *          This parameter can be one of the following values:
3006:Drivers/STM32F4xx_StdPeriph_Driver/src/stm32f4xx_tim.c ****   *            @arg TIM_ExtTRGPolarity_Inverted: active low or falling edge active.
3007:Drivers/STM32F4xx_StdPeriph_Driver/src/stm32f4xx_tim.c ****   *            @arg TIM_ExtTRGPolarity_NonInverted: active high or rising edge active.
3008:Drivers/STM32F4xx_StdPeriph_Driver/src/stm32f4xx_tim.c ****   * @param  ExtTRGFilter: External Trigger Filter.
3009:Drivers/STM32F4xx_StdPeriph_Driver/src/stm32f4xx_tim.c ****   *          This parameter must be a value between 0x00 and 0x0F
3010:Drivers/STM32F4xx_StdPeriph_Driver/src/stm32f4xx_tim.c ****   * @retval None
3011:Drivers/STM32F4xx_StdPeriph_Driver/src/stm32f4xx_tim.c ****   */
3012:Drivers/STM32F4xx_StdPeriph_Driver/src/stm32f4xx_tim.c **** void TIM_ETRConfig(TIM_TypeDef* TIMx, uint16_t TIM_ExtTRGPrescaler,
3013:Drivers/STM32F4xx_StdPeriph_Driver/src/stm32f4xx_tim.c ****                    uint16_t TIM_ExtTRGPolarity, uint16_t ExtTRGFilter)
3014:Drivers/STM32F4xx_StdPeriph_Driver/src/stm32f4xx_tim.c **** {
 6336              		.loc 1 3014 1
 6337              		.cfi_startproc
 6338              		@ args = 0, pretend = 0, frame = 24
 6339              		@ frame_needed = 1, uses_anonymous_args = 0
 6340              		@ link register save eliminated.
 6341 0000 80B4     		push	{r7}
 6342              	.LCFI497:
 6343              		.cfi_def_cfa_offset 4
 6344              		.cfi_offset 7, -4
 6345 0002 87B0     		sub	sp, sp, #28
 6346              	.LCFI498:
 6347              		.cfi_def_cfa_offset 32
 6348 0004 00AF     		add	r7, sp, #0
 6349              	.LCFI499:
 6350              		.cfi_def_cfa_register 7
 6351 0006 F860     		str	r0, [r7, #12]
 6352 0008 0846     		mov	r0, r1
 6353 000a 1146     		mov	r1, r2
 6354 000c 1A46     		mov	r2, r3
 6355 000e 0346     		mov	r3, r0	@ movhi
 6356 0010 7B81     		strh	r3, [r7, #10]	@ movhi
 6357 0012 0B46     		mov	r3, r1	@ movhi
 6358 0014 3B81     		strh	r3, [r7, #8]	@ movhi
 6359 0016 1346     		mov	r3, r2	@ movhi
 6360 0018 FB80     		strh	r3, [r7, #6]	@ movhi
3015:Drivers/STM32F4xx_StdPeriph_Driver/src/stm32f4xx_tim.c ****   uint16_t tmpsmcr = 0;
 6361              		.loc 1 3015 12
 6362 001a 0023     		movs	r3, #0
 6363 001c FB82     		strh	r3, [r7, #22]	@ movhi
3016:Drivers/STM32F4xx_StdPeriph_Driver/src/stm32f4xx_tim.c **** 
3017:Drivers/STM32F4xx_StdPeriph_Driver/src/stm32f4xx_tim.c ****   /* Check the parameters */
3018:Drivers/STM32F4xx_StdPeriph_Driver/src/stm32f4xx_tim.c ****   assert_param(IS_TIM_LIST3_PERIPH(TIMx));
3019:Drivers/STM32F4xx_StdPeriph_Driver/src/stm32f4xx_tim.c ****   assert_param(IS_TIM_EXT_PRESCALER(TIM_ExtTRGPrescaler));
3020:Drivers/STM32F4xx_StdPeriph_Driver/src/stm32f4xx_tim.c ****   assert_param(IS_TIM_EXT_POLARITY(TIM_ExtTRGPolarity));
3021:Drivers/STM32F4xx_StdPeriph_Driver/src/stm32f4xx_tim.c ****   assert_param(IS_TIM_EXT_FILTER(ExtTRGFilter));
3022:Drivers/STM32F4xx_StdPeriph_Driver/src/stm32f4xx_tim.c **** 
3023:Drivers/STM32F4xx_StdPeriph_Driver/src/stm32f4xx_tim.c ****   tmpsmcr = TIMx->SMCR;
 6364              		.loc 1 3023 11
 6365 001e FB68     		ldr	r3, [r7, #12]
ARM GAS  C:\Users\Admin\AppData\Local\Temp\ccwOX7Bd.s 			page 164


 6366 0020 1B89     		ldrh	r3, [r3, #8]	@ movhi
 6367 0022 FB82     		strh	r3, [r7, #22]	@ movhi
3024:Drivers/STM32F4xx_StdPeriph_Driver/src/stm32f4xx_tim.c **** 
3025:Drivers/STM32F4xx_StdPeriph_Driver/src/stm32f4xx_tim.c ****   /* Reset the ETR Bits */
3026:Drivers/STM32F4xx_StdPeriph_Driver/src/stm32f4xx_tim.c ****   tmpsmcr &= SMCR_ETR_MASK;
 6368              		.loc 1 3026 11
 6369 0024 FB8A     		ldrh	r3, [r7, #22]	@ movhi
 6370 0026 DBB2     		uxtb	r3, r3
 6371 0028 FB82     		strh	r3, [r7, #22]	@ movhi
3027:Drivers/STM32F4xx_StdPeriph_Driver/src/stm32f4xx_tim.c **** 
3028:Drivers/STM32F4xx_StdPeriph_Driver/src/stm32f4xx_tim.c ****   /* Set the Prescaler, the Filter value and the Polarity */
3029:Drivers/STM32F4xx_StdPeriph_Driver/src/stm32f4xx_tim.c ****   tmpsmcr |= (uint16_t)(TIM_ExtTRGPrescaler | (uint16_t)(TIM_ExtTRGPolarity | (uint16_t)(ExtTRGFilt
 6372              		.loc 1 3029 79
 6373 002a FB88     		ldrh	r3, [r7, #6]	@ movhi
 6374 002c 1B02     		lsls	r3, r3, #8
 6375 002e 9AB2     		uxth	r2, r3
 6376              		.loc 1 3029 47
 6377 0030 3B89     		ldrh	r3, [r7, #8]	@ movhi
 6378 0032 1343     		orrs	r3, r3, r2
 6379 0034 9AB2     		uxth	r2, r3
 6380              		.loc 1 3029 14
 6381 0036 7B89     		ldrh	r3, [r7, #10]	@ movhi
 6382 0038 1343     		orrs	r3, r3, r2
 6383 003a 9AB2     		uxth	r2, r3
 6384              		.loc 1 3029 11
 6385 003c FB8A     		ldrh	r3, [r7, #22]	@ movhi
 6386 003e 1343     		orrs	r3, r3, r2
 6387 0040 FB82     		strh	r3, [r7, #22]	@ movhi
3030:Drivers/STM32F4xx_StdPeriph_Driver/src/stm32f4xx_tim.c **** 
3031:Drivers/STM32F4xx_StdPeriph_Driver/src/stm32f4xx_tim.c ****   /* Write to TIMx SMCR */
3032:Drivers/STM32F4xx_StdPeriph_Driver/src/stm32f4xx_tim.c ****   TIMx->SMCR = tmpsmcr;
 6388              		.loc 1 3032 14
 6389 0042 FB68     		ldr	r3, [r7, #12]
 6390 0044 FA8A     		ldrh	r2, [r7, #22]	@ movhi
 6391 0046 1A81     		strh	r2, [r3, #8]	@ movhi
3033:Drivers/STM32F4xx_StdPeriph_Driver/src/stm32f4xx_tim.c **** }
 6392              		.loc 1 3033 1
 6393 0048 00BF     		nop
 6394 004a 1C37     		adds	r7, r7, #28
 6395              	.LCFI500:
 6396              		.cfi_def_cfa_offset 4
 6397 004c BD46     		mov	sp, r7
 6398              	.LCFI501:
 6399              		.cfi_def_cfa_register 13
 6400              		@ sp needed
 6401 004e 5DF8047B 		ldr	r7, [sp], #4
 6402              	.LCFI502:
 6403              		.cfi_restore 7
 6404              		.cfi_def_cfa_offset 0
 6405 0052 7047     		bx	lr
 6406              		.cfi_endproc
 6407              	.LFE214:
 6409              		.section	.text.TIM_EncoderInterfaceConfig,"ax",%progbits
 6410              		.align	1
 6411              		.global	TIM_EncoderInterfaceConfig
 6412              		.syntax unified
 6413              		.thumb
ARM GAS  C:\Users\Admin\AppData\Local\Temp\ccwOX7Bd.s 			page 165


 6414              		.thumb_func
 6416              	TIM_EncoderInterfaceConfig:
 6417              	.LFB215:
3034:Drivers/STM32F4xx_StdPeriph_Driver/src/stm32f4xx_tim.c **** /**
3035:Drivers/STM32F4xx_StdPeriph_Driver/src/stm32f4xx_tim.c ****   * @}
3036:Drivers/STM32F4xx_StdPeriph_Driver/src/stm32f4xx_tim.c ****   */
3037:Drivers/STM32F4xx_StdPeriph_Driver/src/stm32f4xx_tim.c **** 
3038:Drivers/STM32F4xx_StdPeriph_Driver/src/stm32f4xx_tim.c **** /** @defgroup TIM_Group8 Specific interface management functions
3039:Drivers/STM32F4xx_StdPeriph_Driver/src/stm32f4xx_tim.c ****  *  @brief    Specific interface management functions 
3040:Drivers/STM32F4xx_StdPeriph_Driver/src/stm32f4xx_tim.c ****  *
3041:Drivers/STM32F4xx_StdPeriph_Driver/src/stm32f4xx_tim.c **** @verbatim   
3042:Drivers/STM32F4xx_StdPeriph_Driver/src/stm32f4xx_tim.c ****  ===============================================================================
3043:Drivers/STM32F4xx_StdPeriph_Driver/src/stm32f4xx_tim.c ****             ##### Specific interface management functions #####
3044:Drivers/STM32F4xx_StdPeriph_Driver/src/stm32f4xx_tim.c ****  ===============================================================================  
3045:Drivers/STM32F4xx_StdPeriph_Driver/src/stm32f4xx_tim.c **** 
3046:Drivers/STM32F4xx_StdPeriph_Driver/src/stm32f4xx_tim.c **** @endverbatim
3047:Drivers/STM32F4xx_StdPeriph_Driver/src/stm32f4xx_tim.c ****   * @{
3048:Drivers/STM32F4xx_StdPeriph_Driver/src/stm32f4xx_tim.c ****   */
3049:Drivers/STM32F4xx_StdPeriph_Driver/src/stm32f4xx_tim.c **** 
3050:Drivers/STM32F4xx_StdPeriph_Driver/src/stm32f4xx_tim.c **** /**
3051:Drivers/STM32F4xx_StdPeriph_Driver/src/stm32f4xx_tim.c ****   * @brief  Configures the TIMx Encoder Interface.
3052:Drivers/STM32F4xx_StdPeriph_Driver/src/stm32f4xx_tim.c ****   * @param  TIMx: where x can be 1, 2, 3, 4, 5, 8, 9 or 12 to select the TIM 
3053:Drivers/STM32F4xx_StdPeriph_Driver/src/stm32f4xx_tim.c ****   *         peripheral.
3054:Drivers/STM32F4xx_StdPeriph_Driver/src/stm32f4xx_tim.c ****   * @param  TIM_EncoderMode: specifies the TIMx Encoder Mode.
3055:Drivers/STM32F4xx_StdPeriph_Driver/src/stm32f4xx_tim.c ****   *          This parameter can be one of the following values:
3056:Drivers/STM32F4xx_StdPeriph_Driver/src/stm32f4xx_tim.c ****   *            @arg TIM_EncoderMode_TI1: Counter counts on TI1FP1 edge depending on TI2FP2 level.
3057:Drivers/STM32F4xx_StdPeriph_Driver/src/stm32f4xx_tim.c ****   *            @arg TIM_EncoderMode_TI2: Counter counts on TI2FP2 edge depending on TI1FP1 level.
3058:Drivers/STM32F4xx_StdPeriph_Driver/src/stm32f4xx_tim.c ****   *            @arg TIM_EncoderMode_TI12: Counter counts on both TI1FP1 and TI2FP2 edges depending
3059:Drivers/STM32F4xx_StdPeriph_Driver/src/stm32f4xx_tim.c ****   *                                       on the level of the other input.
3060:Drivers/STM32F4xx_StdPeriph_Driver/src/stm32f4xx_tim.c ****   * @param  TIM_IC1Polarity: specifies the IC1 Polarity
3061:Drivers/STM32F4xx_StdPeriph_Driver/src/stm32f4xx_tim.c ****   *          This parameter can be one of the following values:
3062:Drivers/STM32F4xx_StdPeriph_Driver/src/stm32f4xx_tim.c ****   *            @arg TIM_ICPolarity_Falling: IC Falling edge.
3063:Drivers/STM32F4xx_StdPeriph_Driver/src/stm32f4xx_tim.c ****   *            @arg TIM_ICPolarity_Rising: IC Rising edge.
3064:Drivers/STM32F4xx_StdPeriph_Driver/src/stm32f4xx_tim.c ****   * @param  TIM_IC2Polarity: specifies the IC2 Polarity
3065:Drivers/STM32F4xx_StdPeriph_Driver/src/stm32f4xx_tim.c ****   *          This parameter can be one of the following values:
3066:Drivers/STM32F4xx_StdPeriph_Driver/src/stm32f4xx_tim.c ****   *            @arg TIM_ICPolarity_Falling: IC Falling edge.
3067:Drivers/STM32F4xx_StdPeriph_Driver/src/stm32f4xx_tim.c ****   *            @arg TIM_ICPolarity_Rising: IC Rising edge.
3068:Drivers/STM32F4xx_StdPeriph_Driver/src/stm32f4xx_tim.c ****   * @retval None
3069:Drivers/STM32F4xx_StdPeriph_Driver/src/stm32f4xx_tim.c ****   */
3070:Drivers/STM32F4xx_StdPeriph_Driver/src/stm32f4xx_tim.c **** void TIM_EncoderInterfaceConfig(TIM_TypeDef* TIMx, uint16_t TIM_EncoderMode,
3071:Drivers/STM32F4xx_StdPeriph_Driver/src/stm32f4xx_tim.c ****                                 uint16_t TIM_IC1Polarity, uint16_t TIM_IC2Polarity)
3072:Drivers/STM32F4xx_StdPeriph_Driver/src/stm32f4xx_tim.c **** {
 6418              		.loc 1 3072 1
 6419              		.cfi_startproc
 6420              		@ args = 0, pretend = 0, frame = 24
 6421              		@ frame_needed = 1, uses_anonymous_args = 0
 6422              		@ link register save eliminated.
 6423 0000 80B4     		push	{r7}
 6424              	.LCFI503:
 6425              		.cfi_def_cfa_offset 4
 6426              		.cfi_offset 7, -4
 6427 0002 87B0     		sub	sp, sp, #28
 6428              	.LCFI504:
 6429              		.cfi_def_cfa_offset 32
 6430 0004 00AF     		add	r7, sp, #0
 6431              	.LCFI505:
 6432              		.cfi_def_cfa_register 7
ARM GAS  C:\Users\Admin\AppData\Local\Temp\ccwOX7Bd.s 			page 166


 6433 0006 F860     		str	r0, [r7, #12]
 6434 0008 0846     		mov	r0, r1
 6435 000a 1146     		mov	r1, r2
 6436 000c 1A46     		mov	r2, r3
 6437 000e 0346     		mov	r3, r0	@ movhi
 6438 0010 7B81     		strh	r3, [r7, #10]	@ movhi
 6439 0012 0B46     		mov	r3, r1	@ movhi
 6440 0014 3B81     		strh	r3, [r7, #8]	@ movhi
 6441 0016 1346     		mov	r3, r2	@ movhi
 6442 0018 FB80     		strh	r3, [r7, #6]	@ movhi
3073:Drivers/STM32F4xx_StdPeriph_Driver/src/stm32f4xx_tim.c ****   uint16_t tmpsmcr = 0;
 6443              		.loc 1 3073 12
 6444 001a 0023     		movs	r3, #0
 6445 001c FB82     		strh	r3, [r7, #22]	@ movhi
3074:Drivers/STM32F4xx_StdPeriph_Driver/src/stm32f4xx_tim.c ****   uint16_t tmpccmr1 = 0;
 6446              		.loc 1 3074 12
 6447 001e 0023     		movs	r3, #0
 6448 0020 BB82     		strh	r3, [r7, #20]	@ movhi
3075:Drivers/STM32F4xx_StdPeriph_Driver/src/stm32f4xx_tim.c ****   uint16_t tmpccer = 0;
 6449              		.loc 1 3075 12
 6450 0022 0023     		movs	r3, #0
 6451 0024 7B82     		strh	r3, [r7, #18]	@ movhi
3076:Drivers/STM32F4xx_StdPeriph_Driver/src/stm32f4xx_tim.c ****     
3077:Drivers/STM32F4xx_StdPeriph_Driver/src/stm32f4xx_tim.c ****   /* Check the parameters */
3078:Drivers/STM32F4xx_StdPeriph_Driver/src/stm32f4xx_tim.c ****   assert_param(IS_TIM_LIST2_PERIPH(TIMx));
3079:Drivers/STM32F4xx_StdPeriph_Driver/src/stm32f4xx_tim.c ****   assert_param(IS_TIM_ENCODER_MODE(TIM_EncoderMode));
3080:Drivers/STM32F4xx_StdPeriph_Driver/src/stm32f4xx_tim.c ****   assert_param(IS_TIM_IC_POLARITY(TIM_IC1Polarity));
3081:Drivers/STM32F4xx_StdPeriph_Driver/src/stm32f4xx_tim.c ****   assert_param(IS_TIM_IC_POLARITY(TIM_IC2Polarity));
3082:Drivers/STM32F4xx_StdPeriph_Driver/src/stm32f4xx_tim.c **** 
3083:Drivers/STM32F4xx_StdPeriph_Driver/src/stm32f4xx_tim.c ****   /* Get the TIMx SMCR register value */
3084:Drivers/STM32F4xx_StdPeriph_Driver/src/stm32f4xx_tim.c ****   tmpsmcr = TIMx->SMCR;
 6452              		.loc 1 3084 11
 6453 0026 FB68     		ldr	r3, [r7, #12]
 6454 0028 1B89     		ldrh	r3, [r3, #8]	@ movhi
 6455 002a FB82     		strh	r3, [r7, #22]	@ movhi
3085:Drivers/STM32F4xx_StdPeriph_Driver/src/stm32f4xx_tim.c **** 
3086:Drivers/STM32F4xx_StdPeriph_Driver/src/stm32f4xx_tim.c ****   /* Get the TIMx CCMR1 register value */
3087:Drivers/STM32F4xx_StdPeriph_Driver/src/stm32f4xx_tim.c ****   tmpccmr1 = TIMx->CCMR1;
 6456              		.loc 1 3087 12
 6457 002c FB68     		ldr	r3, [r7, #12]
 6458 002e 1B8B     		ldrh	r3, [r3, #24]	@ movhi
 6459 0030 BB82     		strh	r3, [r7, #20]	@ movhi
3088:Drivers/STM32F4xx_StdPeriph_Driver/src/stm32f4xx_tim.c **** 
3089:Drivers/STM32F4xx_StdPeriph_Driver/src/stm32f4xx_tim.c ****   /* Get the TIMx CCER register value */
3090:Drivers/STM32F4xx_StdPeriph_Driver/src/stm32f4xx_tim.c ****   tmpccer = TIMx->CCER;
 6460              		.loc 1 3090 11
 6461 0032 FB68     		ldr	r3, [r7, #12]
 6462 0034 1B8C     		ldrh	r3, [r3, #32]	@ movhi
 6463 0036 7B82     		strh	r3, [r7, #18]	@ movhi
3091:Drivers/STM32F4xx_StdPeriph_Driver/src/stm32f4xx_tim.c **** 
3092:Drivers/STM32F4xx_StdPeriph_Driver/src/stm32f4xx_tim.c ****   /* Set the encoder Mode */
3093:Drivers/STM32F4xx_StdPeriph_Driver/src/stm32f4xx_tim.c ****   tmpsmcr &= (uint16_t)~TIM_SMCR_SMS;
 6464              		.loc 1 3093 11
 6465 0038 FB8A     		ldrh	r3, [r7, #22]	@ movhi
 6466 003a 23F00703 		bic	r3, r3, #7
 6467 003e FB82     		strh	r3, [r7, #22]	@ movhi
3094:Drivers/STM32F4xx_StdPeriph_Driver/src/stm32f4xx_tim.c ****   tmpsmcr |= TIM_EncoderMode;
ARM GAS  C:\Users\Admin\AppData\Local\Temp\ccwOX7Bd.s 			page 167


 6468              		.loc 1 3094 11
 6469 0040 FA8A     		ldrh	r2, [r7, #22]	@ movhi
 6470 0042 7B89     		ldrh	r3, [r7, #10]	@ movhi
 6471 0044 1343     		orrs	r3, r3, r2
 6472 0046 FB82     		strh	r3, [r7, #22]	@ movhi
3095:Drivers/STM32F4xx_StdPeriph_Driver/src/stm32f4xx_tim.c **** 
3096:Drivers/STM32F4xx_StdPeriph_Driver/src/stm32f4xx_tim.c ****   /* Select the Capture Compare 1 and the Capture Compare 2 as input */
3097:Drivers/STM32F4xx_StdPeriph_Driver/src/stm32f4xx_tim.c ****   tmpccmr1 &= ((uint16_t)~TIM_CCMR1_CC1S) & ((uint16_t)~TIM_CCMR1_CC2S);
 6473              		.loc 1 3097 12
 6474 0048 BB8A     		ldrh	r3, [r7, #20]	@ movhi
 6475 004a 23F44073 		bic	r3, r3, #768
 6476 004e 23F00303 		bic	r3, r3, #3
 6477 0052 BB82     		strh	r3, [r7, #20]	@ movhi
3098:Drivers/STM32F4xx_StdPeriph_Driver/src/stm32f4xx_tim.c ****   tmpccmr1 |= TIM_CCMR1_CC1S_0 | TIM_CCMR1_CC2S_0;
 6478              		.loc 1 3098 12
 6479 0054 BB8A     		ldrh	r3, [r7, #20]	@ movhi
 6480 0056 43F48073 		orr	r3, r3, #256
 6481 005a 43F00103 		orr	r3, r3, #1
 6482 005e BB82     		strh	r3, [r7, #20]	@ movhi
3099:Drivers/STM32F4xx_StdPeriph_Driver/src/stm32f4xx_tim.c **** 
3100:Drivers/STM32F4xx_StdPeriph_Driver/src/stm32f4xx_tim.c ****   /* Set the TI1 and the TI2 Polarities */
3101:Drivers/STM32F4xx_StdPeriph_Driver/src/stm32f4xx_tim.c ****   tmpccer &= ((uint16_t)~TIM_CCER_CC1P) & ((uint16_t)~TIM_CCER_CC2P);
 6483              		.loc 1 3101 11
 6484 0060 7B8A     		ldrh	r3, [r7, #18]	@ movhi
 6485 0062 23F02203 		bic	r3, r3, #34
 6486 0066 7B82     		strh	r3, [r7, #18]	@ movhi
3102:Drivers/STM32F4xx_StdPeriph_Driver/src/stm32f4xx_tim.c ****   tmpccer |= (uint16_t)(TIM_IC1Polarity | (uint16_t)(TIM_IC2Polarity << (uint16_t)4));
 6487              		.loc 1 3102 43
 6488 0068 FB88     		ldrh	r3, [r7, #6]	@ movhi
 6489 006a 1B01     		lsls	r3, r3, #4
 6490 006c 9AB2     		uxth	r2, r3
 6491              		.loc 1 3102 14
 6492 006e 3B89     		ldrh	r3, [r7, #8]	@ movhi
 6493 0070 1343     		orrs	r3, r3, r2
 6494 0072 9AB2     		uxth	r2, r3
 6495              		.loc 1 3102 11
 6496 0074 7B8A     		ldrh	r3, [r7, #18]	@ movhi
 6497 0076 1343     		orrs	r3, r3, r2
 6498 0078 7B82     		strh	r3, [r7, #18]	@ movhi
3103:Drivers/STM32F4xx_StdPeriph_Driver/src/stm32f4xx_tim.c **** 
3104:Drivers/STM32F4xx_StdPeriph_Driver/src/stm32f4xx_tim.c ****   /* Write to TIMx SMCR */
3105:Drivers/STM32F4xx_StdPeriph_Driver/src/stm32f4xx_tim.c ****   TIMx->SMCR = tmpsmcr;
 6499              		.loc 1 3105 14
 6500 007a FB68     		ldr	r3, [r7, #12]
 6501 007c FA8A     		ldrh	r2, [r7, #22]	@ movhi
 6502 007e 1A81     		strh	r2, [r3, #8]	@ movhi
3106:Drivers/STM32F4xx_StdPeriph_Driver/src/stm32f4xx_tim.c **** 
3107:Drivers/STM32F4xx_StdPeriph_Driver/src/stm32f4xx_tim.c ****   /* Write to TIMx CCMR1 */
3108:Drivers/STM32F4xx_StdPeriph_Driver/src/stm32f4xx_tim.c ****   TIMx->CCMR1 = tmpccmr1;
 6503              		.loc 1 3108 15
 6504 0080 FB68     		ldr	r3, [r7, #12]
 6505 0082 BA8A     		ldrh	r2, [r7, #20]	@ movhi
 6506 0084 1A83     		strh	r2, [r3, #24]	@ movhi
3109:Drivers/STM32F4xx_StdPeriph_Driver/src/stm32f4xx_tim.c **** 
3110:Drivers/STM32F4xx_StdPeriph_Driver/src/stm32f4xx_tim.c ****   /* Write to TIMx CCER */
3111:Drivers/STM32F4xx_StdPeriph_Driver/src/stm32f4xx_tim.c ****   TIMx->CCER = tmpccer;
 6507              		.loc 1 3111 14
ARM GAS  C:\Users\Admin\AppData\Local\Temp\ccwOX7Bd.s 			page 168


 6508 0086 FB68     		ldr	r3, [r7, #12]
 6509 0088 7A8A     		ldrh	r2, [r7, #18]	@ movhi
 6510 008a 1A84     		strh	r2, [r3, #32]	@ movhi
3112:Drivers/STM32F4xx_StdPeriph_Driver/src/stm32f4xx_tim.c **** }
 6511              		.loc 1 3112 1
 6512 008c 00BF     		nop
 6513 008e 1C37     		adds	r7, r7, #28
 6514              	.LCFI506:
 6515              		.cfi_def_cfa_offset 4
 6516 0090 BD46     		mov	sp, r7
 6517              	.LCFI507:
 6518              		.cfi_def_cfa_register 13
 6519              		@ sp needed
 6520 0092 5DF8047B 		ldr	r7, [sp], #4
 6521              	.LCFI508:
 6522              		.cfi_restore 7
 6523              		.cfi_def_cfa_offset 0
 6524 0096 7047     		bx	lr
 6525              		.cfi_endproc
 6526              	.LFE215:
 6528              		.section	.text.TIM_SelectHallSensor,"ax",%progbits
 6529              		.align	1
 6530              		.global	TIM_SelectHallSensor
 6531              		.syntax unified
 6532              		.thumb
 6533              		.thumb_func
 6535              	TIM_SelectHallSensor:
 6536              	.LFB216:
3113:Drivers/STM32F4xx_StdPeriph_Driver/src/stm32f4xx_tim.c **** 
3114:Drivers/STM32F4xx_StdPeriph_Driver/src/stm32f4xx_tim.c **** /**
3115:Drivers/STM32F4xx_StdPeriph_Driver/src/stm32f4xx_tim.c ****   * @brief  Enables or disables the TIMx's Hall sensor interface.
3116:Drivers/STM32F4xx_StdPeriph_Driver/src/stm32f4xx_tim.c ****   * @param  TIMx: where x can be 1, 2, 3, 4, 5, 8, 9 or 12 to select the TIM 
3117:Drivers/STM32F4xx_StdPeriph_Driver/src/stm32f4xx_tim.c ****   *         peripheral.
3118:Drivers/STM32F4xx_StdPeriph_Driver/src/stm32f4xx_tim.c ****   * @param  NewState: new state of the TIMx Hall sensor interface.
3119:Drivers/STM32F4xx_StdPeriph_Driver/src/stm32f4xx_tim.c ****   *          This parameter can be: ENABLE or DISABLE.
3120:Drivers/STM32F4xx_StdPeriph_Driver/src/stm32f4xx_tim.c ****   * @retval None
3121:Drivers/STM32F4xx_StdPeriph_Driver/src/stm32f4xx_tim.c ****   */
3122:Drivers/STM32F4xx_StdPeriph_Driver/src/stm32f4xx_tim.c **** void TIM_SelectHallSensor(TIM_TypeDef* TIMx, FunctionalState NewState)
3123:Drivers/STM32F4xx_StdPeriph_Driver/src/stm32f4xx_tim.c **** {
 6537              		.loc 1 3123 1
 6538              		.cfi_startproc
 6539              		@ args = 0, pretend = 0, frame = 8
 6540              		@ frame_needed = 1, uses_anonymous_args = 0
 6541              		@ link register save eliminated.
 6542 0000 80B4     		push	{r7}
 6543              	.LCFI509:
 6544              		.cfi_def_cfa_offset 4
 6545              		.cfi_offset 7, -4
 6546 0002 83B0     		sub	sp, sp, #12
 6547              	.LCFI510:
 6548              		.cfi_def_cfa_offset 16
 6549 0004 00AF     		add	r7, sp, #0
 6550              	.LCFI511:
 6551              		.cfi_def_cfa_register 7
 6552 0006 7860     		str	r0, [r7, #4]
 6553 0008 0B46     		mov	r3, r1
 6554 000a FB70     		strb	r3, [r7, #3]
ARM GAS  C:\Users\Admin\AppData\Local\Temp\ccwOX7Bd.s 			page 169


3124:Drivers/STM32F4xx_StdPeriph_Driver/src/stm32f4xx_tim.c ****   /* Check the parameters */
3125:Drivers/STM32F4xx_StdPeriph_Driver/src/stm32f4xx_tim.c ****   assert_param(IS_TIM_LIST2_PERIPH(TIMx));
3126:Drivers/STM32F4xx_StdPeriph_Driver/src/stm32f4xx_tim.c ****   assert_param(IS_FUNCTIONAL_STATE(NewState));
3127:Drivers/STM32F4xx_StdPeriph_Driver/src/stm32f4xx_tim.c **** 
3128:Drivers/STM32F4xx_StdPeriph_Driver/src/stm32f4xx_tim.c ****   if (NewState != DISABLE)
 6555              		.loc 1 3128 6
 6556 000c FB78     		ldrb	r3, [r7, #3]	@ zero_extendqisi2
 6557 000e 002B     		cmp	r3, #0
 6558 0010 08D0     		beq	.L187
3129:Drivers/STM32F4xx_StdPeriph_Driver/src/stm32f4xx_tim.c ****   {
3130:Drivers/STM32F4xx_StdPeriph_Driver/src/stm32f4xx_tim.c ****     /* Set the TI1S Bit */
3131:Drivers/STM32F4xx_StdPeriph_Driver/src/stm32f4xx_tim.c ****     TIMx->CR2 |= TIM_CR2_TI1S;
 6559              		.loc 1 3131 15
 6560 0012 7B68     		ldr	r3, [r7, #4]
 6561 0014 9B88     		ldrh	r3, [r3, #4]	@ movhi
 6562 0016 9BB2     		uxth	r3, r3
 6563 0018 43F08003 		orr	r3, r3, #128
 6564 001c 9AB2     		uxth	r2, r3
 6565 001e 7B68     		ldr	r3, [r7, #4]
 6566 0020 9A80     		strh	r2, [r3, #4]	@ movhi
3132:Drivers/STM32F4xx_StdPeriph_Driver/src/stm32f4xx_tim.c ****   }
3133:Drivers/STM32F4xx_StdPeriph_Driver/src/stm32f4xx_tim.c ****   else
3134:Drivers/STM32F4xx_StdPeriph_Driver/src/stm32f4xx_tim.c ****   {
3135:Drivers/STM32F4xx_StdPeriph_Driver/src/stm32f4xx_tim.c ****     /* Reset the TI1S Bit */
3136:Drivers/STM32F4xx_StdPeriph_Driver/src/stm32f4xx_tim.c ****     TIMx->CR2 &= (uint16_t)~TIM_CR2_TI1S;
3137:Drivers/STM32F4xx_StdPeriph_Driver/src/stm32f4xx_tim.c ****   }
3138:Drivers/STM32F4xx_StdPeriph_Driver/src/stm32f4xx_tim.c **** }
 6567              		.loc 1 3138 1
 6568 0022 07E0     		b	.L189
 6569              	.L187:
3136:Drivers/STM32F4xx_StdPeriph_Driver/src/stm32f4xx_tim.c ****   }
 6570              		.loc 1 3136 15
 6571 0024 7B68     		ldr	r3, [r7, #4]
 6572 0026 9B88     		ldrh	r3, [r3, #4]	@ movhi
 6573 0028 9BB2     		uxth	r3, r3
 6574 002a 23F08003 		bic	r3, r3, #128
 6575 002e 9AB2     		uxth	r2, r3
 6576 0030 7B68     		ldr	r3, [r7, #4]
 6577 0032 9A80     		strh	r2, [r3, #4]	@ movhi
 6578              	.L189:
 6579              		.loc 1 3138 1
 6580 0034 00BF     		nop
 6581 0036 0C37     		adds	r7, r7, #12
 6582              	.LCFI512:
 6583              		.cfi_def_cfa_offset 4
 6584 0038 BD46     		mov	sp, r7
 6585              	.LCFI513:
 6586              		.cfi_def_cfa_register 13
 6587              		@ sp needed
 6588 003a 5DF8047B 		ldr	r7, [sp], #4
 6589              	.LCFI514:
 6590              		.cfi_restore 7
 6591              		.cfi_def_cfa_offset 0
 6592 003e 7047     		bx	lr
 6593              		.cfi_endproc
 6594              	.LFE216:
 6596              		.section	.text.TIM_RemapConfig,"ax",%progbits
ARM GAS  C:\Users\Admin\AppData\Local\Temp\ccwOX7Bd.s 			page 170


 6597              		.align	1
 6598              		.global	TIM_RemapConfig
 6599              		.syntax unified
 6600              		.thumb
 6601              		.thumb_func
 6603              	TIM_RemapConfig:
 6604              	.LFB217:
3139:Drivers/STM32F4xx_StdPeriph_Driver/src/stm32f4xx_tim.c **** /**
3140:Drivers/STM32F4xx_StdPeriph_Driver/src/stm32f4xx_tim.c ****   * @}
3141:Drivers/STM32F4xx_StdPeriph_Driver/src/stm32f4xx_tim.c ****   */
3142:Drivers/STM32F4xx_StdPeriph_Driver/src/stm32f4xx_tim.c **** 
3143:Drivers/STM32F4xx_StdPeriph_Driver/src/stm32f4xx_tim.c **** /** @defgroup TIM_Group9 Specific remapping management function
3144:Drivers/STM32F4xx_StdPeriph_Driver/src/stm32f4xx_tim.c ****  *  @brief   Specific remapping management function
3145:Drivers/STM32F4xx_StdPeriph_Driver/src/stm32f4xx_tim.c ****  *
3146:Drivers/STM32F4xx_StdPeriph_Driver/src/stm32f4xx_tim.c **** @verbatim   
3147:Drivers/STM32F4xx_StdPeriph_Driver/src/stm32f4xx_tim.c ****  ===============================================================================
3148:Drivers/STM32F4xx_StdPeriph_Driver/src/stm32f4xx_tim.c ****               ##### Specific remapping management function #####
3149:Drivers/STM32F4xx_StdPeriph_Driver/src/stm32f4xx_tim.c ****  ===============================================================================  
3150:Drivers/STM32F4xx_StdPeriph_Driver/src/stm32f4xx_tim.c **** 
3151:Drivers/STM32F4xx_StdPeriph_Driver/src/stm32f4xx_tim.c **** @endverbatim
3152:Drivers/STM32F4xx_StdPeriph_Driver/src/stm32f4xx_tim.c ****   * @{
3153:Drivers/STM32F4xx_StdPeriph_Driver/src/stm32f4xx_tim.c ****   */
3154:Drivers/STM32F4xx_StdPeriph_Driver/src/stm32f4xx_tim.c **** 
3155:Drivers/STM32F4xx_StdPeriph_Driver/src/stm32f4xx_tim.c **** /**
3156:Drivers/STM32F4xx_StdPeriph_Driver/src/stm32f4xx_tim.c ****   * @brief  Configures the TIM2, TIM5 and TIM11 Remapping input capabilities.
3157:Drivers/STM32F4xx_StdPeriph_Driver/src/stm32f4xx_tim.c ****   * @param  TIMx: where x can be 2, 5 or 11 to select the TIM peripheral.
3158:Drivers/STM32F4xx_StdPeriph_Driver/src/stm32f4xx_tim.c ****   * @param  TIM_Remap: specifies the TIM input remapping source.
3159:Drivers/STM32F4xx_StdPeriph_Driver/src/stm32f4xx_tim.c ****   *          This parameter can be one of the following values:
3160:Drivers/STM32F4xx_StdPeriph_Driver/src/stm32f4xx_tim.c ****   *            @arg TIM2_TIM8_TRGO: TIM2 ITR1 input is connected to TIM8 Trigger output(default)
3161:Drivers/STM32F4xx_StdPeriph_Driver/src/stm32f4xx_tim.c ****   *            @arg TIM2_ETH_PTP:   TIM2 ITR1 input is connected to ETH PTP trigger output.
3162:Drivers/STM32F4xx_StdPeriph_Driver/src/stm32f4xx_tim.c ****   *            @arg TIM2_USBFS_SOF: TIM2 ITR1 input is connected to USB FS SOF. 
3163:Drivers/STM32F4xx_StdPeriph_Driver/src/stm32f4xx_tim.c ****   *            @arg TIM2_USBHS_SOF: TIM2 ITR1 input is connected to USB HS SOF. 
3164:Drivers/STM32F4xx_StdPeriph_Driver/src/stm32f4xx_tim.c ****   *            @arg TIM5_GPIO:      TIM5 CH4 input is connected to dedicated Timer pin(default)
3165:Drivers/STM32F4xx_StdPeriph_Driver/src/stm32f4xx_tim.c ****   *            @arg TIM5_LSI:       TIM5 CH4 input is connected to LSI clock.
3166:Drivers/STM32F4xx_StdPeriph_Driver/src/stm32f4xx_tim.c ****   *            @arg TIM5_LSE:       TIM5 CH4 input is connected to LSE clock.
3167:Drivers/STM32F4xx_StdPeriph_Driver/src/stm32f4xx_tim.c ****   *            @arg TIM5_RTC:       TIM5 CH4 input is connected to RTC Output event.
3168:Drivers/STM32F4xx_StdPeriph_Driver/src/stm32f4xx_tim.c ****   *            @arg TIM11_GPIO:     TIM11 CH4 input is connected to dedicated Timer pin(default) 
3169:Drivers/STM32F4xx_StdPeriph_Driver/src/stm32f4xx_tim.c ****   *            @arg TIM11_HSE:      TIM11 CH4 input is connected to HSE_RTC clock
3170:Drivers/STM32F4xx_StdPeriph_Driver/src/stm32f4xx_tim.c ****   *                                 (HSE divided by a programmable prescaler)  
3171:Drivers/STM32F4xx_StdPeriph_Driver/src/stm32f4xx_tim.c ****   * @retval None
3172:Drivers/STM32F4xx_StdPeriph_Driver/src/stm32f4xx_tim.c ****   */
3173:Drivers/STM32F4xx_StdPeriph_Driver/src/stm32f4xx_tim.c **** void TIM_RemapConfig(TIM_TypeDef* TIMx, uint16_t TIM_Remap)
3174:Drivers/STM32F4xx_StdPeriph_Driver/src/stm32f4xx_tim.c **** {
 6605              		.loc 1 3174 1
 6606              		.cfi_startproc
 6607              		@ args = 0, pretend = 0, frame = 8
 6608              		@ frame_needed = 1, uses_anonymous_args = 0
 6609              		@ link register save eliminated.
 6610 0000 80B4     		push	{r7}
 6611              	.LCFI515:
 6612              		.cfi_def_cfa_offset 4
 6613              		.cfi_offset 7, -4
 6614 0002 83B0     		sub	sp, sp, #12
 6615              	.LCFI516:
 6616              		.cfi_def_cfa_offset 16
 6617 0004 00AF     		add	r7, sp, #0
 6618              	.LCFI517:
ARM GAS  C:\Users\Admin\AppData\Local\Temp\ccwOX7Bd.s 			page 171


 6619              		.cfi_def_cfa_register 7
 6620 0006 7860     		str	r0, [r7, #4]
 6621 0008 0B46     		mov	r3, r1
 6622 000a 7B80     		strh	r3, [r7, #2]	@ movhi
3175:Drivers/STM32F4xx_StdPeriph_Driver/src/stm32f4xx_tim.c ****  /* Check the parameters */
3176:Drivers/STM32F4xx_StdPeriph_Driver/src/stm32f4xx_tim.c ****   assert_param(IS_TIM_LIST6_PERIPH(TIMx));
3177:Drivers/STM32F4xx_StdPeriph_Driver/src/stm32f4xx_tim.c ****   assert_param(IS_TIM_REMAP(TIM_Remap));
3178:Drivers/STM32F4xx_StdPeriph_Driver/src/stm32f4xx_tim.c **** 
3179:Drivers/STM32F4xx_StdPeriph_Driver/src/stm32f4xx_tim.c ****   /* Set the Timer remapping configuration */
3180:Drivers/STM32F4xx_StdPeriph_Driver/src/stm32f4xx_tim.c ****   TIMx->OR =  TIM_Remap;
 6623              		.loc 1 3180 12
 6624 000c 7B68     		ldr	r3, [r7, #4]
 6625 000e 7A88     		ldrh	r2, [r7, #2]	@ movhi
 6626 0010 A3F85020 		strh	r2, [r3, #80]	@ movhi
3181:Drivers/STM32F4xx_StdPeriph_Driver/src/stm32f4xx_tim.c **** }
 6627              		.loc 1 3181 1
 6628 0014 00BF     		nop
 6629 0016 0C37     		adds	r7, r7, #12
 6630              	.LCFI518:
 6631              		.cfi_def_cfa_offset 4
 6632 0018 BD46     		mov	sp, r7
 6633              	.LCFI519:
 6634              		.cfi_def_cfa_register 13
 6635              		@ sp needed
 6636 001a 5DF8047B 		ldr	r7, [sp], #4
 6637              	.LCFI520:
 6638              		.cfi_restore 7
 6639              		.cfi_def_cfa_offset 0
 6640 001e 7047     		bx	lr
 6641              		.cfi_endproc
 6642              	.LFE217:
 6644              		.section	.text.TI1_Config,"ax",%progbits
 6645              		.align	1
 6646              		.syntax unified
 6647              		.thumb
 6648              		.thumb_func
 6650              	TI1_Config:
 6651              	.LFB218:
3182:Drivers/STM32F4xx_StdPeriph_Driver/src/stm32f4xx_tim.c **** /**
3183:Drivers/STM32F4xx_StdPeriph_Driver/src/stm32f4xx_tim.c ****   * @}
3184:Drivers/STM32F4xx_StdPeriph_Driver/src/stm32f4xx_tim.c ****   */
3185:Drivers/STM32F4xx_StdPeriph_Driver/src/stm32f4xx_tim.c **** 
3186:Drivers/STM32F4xx_StdPeriph_Driver/src/stm32f4xx_tim.c **** /**
3187:Drivers/STM32F4xx_StdPeriph_Driver/src/stm32f4xx_tim.c ****   * @brief  Configure the TI1 as Input.
3188:Drivers/STM32F4xx_StdPeriph_Driver/src/stm32f4xx_tim.c ****   * @param  TIMx: where x can be 1, 2, 3, 4, 5, 8, 9, 10, 11, 12, 13 or 14 
3189:Drivers/STM32F4xx_StdPeriph_Driver/src/stm32f4xx_tim.c ****   *         to select the TIM peripheral.
3190:Drivers/STM32F4xx_StdPeriph_Driver/src/stm32f4xx_tim.c ****   * @param  TIM_ICPolarity : The Input Polarity.
3191:Drivers/STM32F4xx_StdPeriph_Driver/src/stm32f4xx_tim.c ****   *          This parameter can be one of the following values:
3192:Drivers/STM32F4xx_StdPeriph_Driver/src/stm32f4xx_tim.c ****   *            @arg TIM_ICPolarity_Rising
3193:Drivers/STM32F4xx_StdPeriph_Driver/src/stm32f4xx_tim.c ****   *            @arg TIM_ICPolarity_Falling
3194:Drivers/STM32F4xx_StdPeriph_Driver/src/stm32f4xx_tim.c ****   *            @arg TIM_ICPolarity_BothEdge  
3195:Drivers/STM32F4xx_StdPeriph_Driver/src/stm32f4xx_tim.c ****   * @param  TIM_ICSelection: specifies the input to be used.
3196:Drivers/STM32F4xx_StdPeriph_Driver/src/stm32f4xx_tim.c ****   *          This parameter can be one of the following values:
3197:Drivers/STM32F4xx_StdPeriph_Driver/src/stm32f4xx_tim.c ****   *            @arg TIM_ICSelection_DirectTI: TIM Input 1 is selected to be connected to IC1.
3198:Drivers/STM32F4xx_StdPeriph_Driver/src/stm32f4xx_tim.c ****   *            @arg TIM_ICSelection_IndirectTI: TIM Input 1 is selected to be connected to IC2.
3199:Drivers/STM32F4xx_StdPeriph_Driver/src/stm32f4xx_tim.c ****   *            @arg TIM_ICSelection_TRC: TIM Input 1 is selected to be connected to TRC.
3200:Drivers/STM32F4xx_StdPeriph_Driver/src/stm32f4xx_tim.c ****   * @param  TIM_ICFilter: Specifies the Input Capture Filter.
ARM GAS  C:\Users\Admin\AppData\Local\Temp\ccwOX7Bd.s 			page 172


3201:Drivers/STM32F4xx_StdPeriph_Driver/src/stm32f4xx_tim.c ****   *          This parameter must be a value between 0x00 and 0x0F.
3202:Drivers/STM32F4xx_StdPeriph_Driver/src/stm32f4xx_tim.c ****   * @retval None
3203:Drivers/STM32F4xx_StdPeriph_Driver/src/stm32f4xx_tim.c ****   */
3204:Drivers/STM32F4xx_StdPeriph_Driver/src/stm32f4xx_tim.c **** static void TI1_Config(TIM_TypeDef* TIMx, uint16_t TIM_ICPolarity, uint16_t TIM_ICSelection,
3205:Drivers/STM32F4xx_StdPeriph_Driver/src/stm32f4xx_tim.c ****                        uint16_t TIM_ICFilter)
3206:Drivers/STM32F4xx_StdPeriph_Driver/src/stm32f4xx_tim.c **** {
 6652              		.loc 1 3206 1
 6653              		.cfi_startproc
 6654              		@ args = 0, pretend = 0, frame = 24
 6655              		@ frame_needed = 1, uses_anonymous_args = 0
 6656              		@ link register save eliminated.
 6657 0000 80B4     		push	{r7}
 6658              	.LCFI521:
 6659              		.cfi_def_cfa_offset 4
 6660              		.cfi_offset 7, -4
 6661 0002 87B0     		sub	sp, sp, #28
 6662              	.LCFI522:
 6663              		.cfi_def_cfa_offset 32
 6664 0004 00AF     		add	r7, sp, #0
 6665              	.LCFI523:
 6666              		.cfi_def_cfa_register 7
 6667 0006 F860     		str	r0, [r7, #12]
 6668 0008 0846     		mov	r0, r1
 6669 000a 1146     		mov	r1, r2
 6670 000c 1A46     		mov	r2, r3
 6671 000e 0346     		mov	r3, r0	@ movhi
 6672 0010 7B81     		strh	r3, [r7, #10]	@ movhi
 6673 0012 0B46     		mov	r3, r1	@ movhi
 6674 0014 3B81     		strh	r3, [r7, #8]	@ movhi
 6675 0016 1346     		mov	r3, r2	@ movhi
 6676 0018 FB80     		strh	r3, [r7, #6]	@ movhi
3207:Drivers/STM32F4xx_StdPeriph_Driver/src/stm32f4xx_tim.c ****   uint16_t tmpccmr1 = 0, tmpccer = 0;
 6677              		.loc 1 3207 12
 6678 001a 0023     		movs	r3, #0
 6679 001c FB82     		strh	r3, [r7, #22]	@ movhi
 6680              		.loc 1 3207 26
 6681 001e 0023     		movs	r3, #0
 6682 0020 BB82     		strh	r3, [r7, #20]	@ movhi
3208:Drivers/STM32F4xx_StdPeriph_Driver/src/stm32f4xx_tim.c **** 
3209:Drivers/STM32F4xx_StdPeriph_Driver/src/stm32f4xx_tim.c ****   /* Disable the Channel 1: Reset the CC1E Bit */
3210:Drivers/STM32F4xx_StdPeriph_Driver/src/stm32f4xx_tim.c ****   TIMx->CCER &= (uint16_t)~TIM_CCER_CC1E;
 6683              		.loc 1 3210 14
 6684 0022 FB68     		ldr	r3, [r7, #12]
 6685 0024 1B8C     		ldrh	r3, [r3, #32]	@ movhi
 6686 0026 9BB2     		uxth	r3, r3
 6687 0028 23F00103 		bic	r3, r3, #1
 6688 002c 9AB2     		uxth	r2, r3
 6689 002e FB68     		ldr	r3, [r7, #12]
 6690 0030 1A84     		strh	r2, [r3, #32]	@ movhi
3211:Drivers/STM32F4xx_StdPeriph_Driver/src/stm32f4xx_tim.c ****   tmpccmr1 = TIMx->CCMR1;
 6691              		.loc 1 3211 12
 6692 0032 FB68     		ldr	r3, [r7, #12]
 6693 0034 1B8B     		ldrh	r3, [r3, #24]	@ movhi
 6694 0036 FB82     		strh	r3, [r7, #22]	@ movhi
3212:Drivers/STM32F4xx_StdPeriph_Driver/src/stm32f4xx_tim.c ****   tmpccer = TIMx->CCER;
 6695              		.loc 1 3212 11
 6696 0038 FB68     		ldr	r3, [r7, #12]
ARM GAS  C:\Users\Admin\AppData\Local\Temp\ccwOX7Bd.s 			page 173


 6697 003a 1B8C     		ldrh	r3, [r3, #32]	@ movhi
 6698 003c BB82     		strh	r3, [r7, #20]	@ movhi
3213:Drivers/STM32F4xx_StdPeriph_Driver/src/stm32f4xx_tim.c **** 
3214:Drivers/STM32F4xx_StdPeriph_Driver/src/stm32f4xx_tim.c ****   /* Select the Input and set the filter */
3215:Drivers/STM32F4xx_StdPeriph_Driver/src/stm32f4xx_tim.c ****   tmpccmr1 &= ((uint16_t)~TIM_CCMR1_CC1S) & ((uint16_t)~TIM_CCMR1_IC1F);
 6699              		.loc 1 3215 12
 6700 003e FB8A     		ldrh	r3, [r7, #22]	@ movhi
 6701 0040 23F0F303 		bic	r3, r3, #243
 6702 0044 FB82     		strh	r3, [r7, #22]	@ movhi
3216:Drivers/STM32F4xx_StdPeriph_Driver/src/stm32f4xx_tim.c ****   tmpccmr1 |= (uint16_t)(TIM_ICSelection | (uint16_t)(TIM_ICFilter << (uint16_t)4));
 6703              		.loc 1 3216 44
 6704 0046 FB88     		ldrh	r3, [r7, #6]	@ movhi
 6705 0048 1B01     		lsls	r3, r3, #4
 6706 004a 9AB2     		uxth	r2, r3
 6707              		.loc 1 3216 15
 6708 004c 3B89     		ldrh	r3, [r7, #8]	@ movhi
 6709 004e 1343     		orrs	r3, r3, r2
 6710 0050 9AB2     		uxth	r2, r3
 6711              		.loc 1 3216 12
 6712 0052 FB8A     		ldrh	r3, [r7, #22]	@ movhi
 6713 0054 1343     		orrs	r3, r3, r2
 6714 0056 FB82     		strh	r3, [r7, #22]	@ movhi
3217:Drivers/STM32F4xx_StdPeriph_Driver/src/stm32f4xx_tim.c **** 
3218:Drivers/STM32F4xx_StdPeriph_Driver/src/stm32f4xx_tim.c ****   /* Select the Polarity and set the CC1E Bit */
3219:Drivers/STM32F4xx_StdPeriph_Driver/src/stm32f4xx_tim.c ****   tmpccer &= (uint16_t)~(TIM_CCER_CC1P | TIM_CCER_CC1NP);
 6715              		.loc 1 3219 11
 6716 0058 BB8A     		ldrh	r3, [r7, #20]	@ movhi
 6717 005a 23F00A03 		bic	r3, r3, #10
 6718 005e BB82     		strh	r3, [r7, #20]	@ movhi
3220:Drivers/STM32F4xx_StdPeriph_Driver/src/stm32f4xx_tim.c ****   tmpccer |= (uint16_t)(TIM_ICPolarity | (uint16_t)TIM_CCER_CC1E);
 6719              		.loc 1 3220 11
 6720 0060 7A89     		ldrh	r2, [r7, #10]	@ movhi
 6721 0062 BB8A     		ldrh	r3, [r7, #20]	@ movhi
 6722 0064 1343     		orrs	r3, r3, r2
 6723 0066 9BB2     		uxth	r3, r3
 6724 0068 43F00103 		orr	r3, r3, #1
 6725 006c BB82     		strh	r3, [r7, #20]	@ movhi
3221:Drivers/STM32F4xx_StdPeriph_Driver/src/stm32f4xx_tim.c **** 
3222:Drivers/STM32F4xx_StdPeriph_Driver/src/stm32f4xx_tim.c ****   /* Write to TIMx CCMR1 and CCER registers */
3223:Drivers/STM32F4xx_StdPeriph_Driver/src/stm32f4xx_tim.c ****   TIMx->CCMR1 = tmpccmr1;
 6726              		.loc 1 3223 15
 6727 006e FB68     		ldr	r3, [r7, #12]
 6728 0070 FA8A     		ldrh	r2, [r7, #22]	@ movhi
 6729 0072 1A83     		strh	r2, [r3, #24]	@ movhi
3224:Drivers/STM32F4xx_StdPeriph_Driver/src/stm32f4xx_tim.c ****   TIMx->CCER = tmpccer;
 6730              		.loc 1 3224 14
 6731 0074 FB68     		ldr	r3, [r7, #12]
 6732 0076 BA8A     		ldrh	r2, [r7, #20]	@ movhi
 6733 0078 1A84     		strh	r2, [r3, #32]	@ movhi
3225:Drivers/STM32F4xx_StdPeriph_Driver/src/stm32f4xx_tim.c **** }
 6734              		.loc 1 3225 1
 6735 007a 00BF     		nop
 6736 007c 1C37     		adds	r7, r7, #28
 6737              	.LCFI524:
 6738              		.cfi_def_cfa_offset 4
 6739 007e BD46     		mov	sp, r7
 6740              	.LCFI525:
ARM GAS  C:\Users\Admin\AppData\Local\Temp\ccwOX7Bd.s 			page 174


 6741              		.cfi_def_cfa_register 13
 6742              		@ sp needed
 6743 0080 5DF8047B 		ldr	r7, [sp], #4
 6744              	.LCFI526:
 6745              		.cfi_restore 7
 6746              		.cfi_def_cfa_offset 0
 6747 0084 7047     		bx	lr
 6748              		.cfi_endproc
 6749              	.LFE218:
 6751              		.section	.text.TI2_Config,"ax",%progbits
 6752              		.align	1
 6753              		.syntax unified
 6754              		.thumb
 6755              		.thumb_func
 6757              	TI2_Config:
 6758              	.LFB219:
3226:Drivers/STM32F4xx_StdPeriph_Driver/src/stm32f4xx_tim.c **** 
3227:Drivers/STM32F4xx_StdPeriph_Driver/src/stm32f4xx_tim.c **** /**
3228:Drivers/STM32F4xx_StdPeriph_Driver/src/stm32f4xx_tim.c ****   * @brief  Configure the TI2 as Input.
3229:Drivers/STM32F4xx_StdPeriph_Driver/src/stm32f4xx_tim.c ****   * @param  TIMx: where x can be 1, 2, 3, 4, 5, 8, 9 or 12 to select the TIM 
3230:Drivers/STM32F4xx_StdPeriph_Driver/src/stm32f4xx_tim.c ****   *         peripheral.
3231:Drivers/STM32F4xx_StdPeriph_Driver/src/stm32f4xx_tim.c ****   * @param  TIM_ICPolarity : The Input Polarity.
3232:Drivers/STM32F4xx_StdPeriph_Driver/src/stm32f4xx_tim.c ****   *          This parameter can be one of the following values:
3233:Drivers/STM32F4xx_StdPeriph_Driver/src/stm32f4xx_tim.c ****   *            @arg TIM_ICPolarity_Rising
3234:Drivers/STM32F4xx_StdPeriph_Driver/src/stm32f4xx_tim.c ****   *            @arg TIM_ICPolarity_Falling
3235:Drivers/STM32F4xx_StdPeriph_Driver/src/stm32f4xx_tim.c ****   *            @arg TIM_ICPolarity_BothEdge   
3236:Drivers/STM32F4xx_StdPeriph_Driver/src/stm32f4xx_tim.c ****   * @param  TIM_ICSelection: specifies the input to be used.
3237:Drivers/STM32F4xx_StdPeriph_Driver/src/stm32f4xx_tim.c ****   *          This parameter can be one of the following values:
3238:Drivers/STM32F4xx_StdPeriph_Driver/src/stm32f4xx_tim.c ****   *            @arg TIM_ICSelection_DirectTI: TIM Input 2 is selected to be connected to IC2.
3239:Drivers/STM32F4xx_StdPeriph_Driver/src/stm32f4xx_tim.c ****   *            @arg TIM_ICSelection_IndirectTI: TIM Input 2 is selected to be connected to IC1.
3240:Drivers/STM32F4xx_StdPeriph_Driver/src/stm32f4xx_tim.c ****   *            @arg TIM_ICSelection_TRC: TIM Input 2 is selected to be connected to TRC.
3241:Drivers/STM32F4xx_StdPeriph_Driver/src/stm32f4xx_tim.c ****   * @param  TIM_ICFilter: Specifies the Input Capture Filter.
3242:Drivers/STM32F4xx_StdPeriph_Driver/src/stm32f4xx_tim.c ****   *          This parameter must be a value between 0x00 and 0x0F.
3243:Drivers/STM32F4xx_StdPeriph_Driver/src/stm32f4xx_tim.c ****   * @retval None
3244:Drivers/STM32F4xx_StdPeriph_Driver/src/stm32f4xx_tim.c ****   */
3245:Drivers/STM32F4xx_StdPeriph_Driver/src/stm32f4xx_tim.c **** static void TI2_Config(TIM_TypeDef* TIMx, uint16_t TIM_ICPolarity, uint16_t TIM_ICSelection,
3246:Drivers/STM32F4xx_StdPeriph_Driver/src/stm32f4xx_tim.c ****                        uint16_t TIM_ICFilter)
3247:Drivers/STM32F4xx_StdPeriph_Driver/src/stm32f4xx_tim.c **** {
 6759              		.loc 1 3247 1
 6760              		.cfi_startproc
 6761              		@ args = 0, pretend = 0, frame = 24
 6762              		@ frame_needed = 1, uses_anonymous_args = 0
 6763              		@ link register save eliminated.
 6764 0000 80B4     		push	{r7}
 6765              	.LCFI527:
 6766              		.cfi_def_cfa_offset 4
 6767              		.cfi_offset 7, -4
 6768 0002 87B0     		sub	sp, sp, #28
 6769              	.LCFI528:
 6770              		.cfi_def_cfa_offset 32
 6771 0004 00AF     		add	r7, sp, #0
 6772              	.LCFI529:
 6773              		.cfi_def_cfa_register 7
 6774 0006 F860     		str	r0, [r7, #12]
 6775 0008 0846     		mov	r0, r1
 6776 000a 1146     		mov	r1, r2
 6777 000c 1A46     		mov	r2, r3
ARM GAS  C:\Users\Admin\AppData\Local\Temp\ccwOX7Bd.s 			page 175


 6778 000e 0346     		mov	r3, r0	@ movhi
 6779 0010 7B81     		strh	r3, [r7, #10]	@ movhi
 6780 0012 0B46     		mov	r3, r1	@ movhi
 6781 0014 3B81     		strh	r3, [r7, #8]	@ movhi
 6782 0016 1346     		mov	r3, r2	@ movhi
 6783 0018 FB80     		strh	r3, [r7, #6]	@ movhi
3248:Drivers/STM32F4xx_StdPeriph_Driver/src/stm32f4xx_tim.c ****   uint16_t tmpccmr1 = 0, tmpccer = 0, tmp = 0;
 6784              		.loc 1 3248 12
 6785 001a 0023     		movs	r3, #0
 6786 001c FB82     		strh	r3, [r7, #22]	@ movhi
 6787              		.loc 1 3248 26
 6788 001e 0023     		movs	r3, #0
 6789 0020 BB82     		strh	r3, [r7, #20]	@ movhi
 6790              		.loc 1 3248 39
 6791 0022 0023     		movs	r3, #0
 6792 0024 7B82     		strh	r3, [r7, #18]	@ movhi
3249:Drivers/STM32F4xx_StdPeriph_Driver/src/stm32f4xx_tim.c **** 
3250:Drivers/STM32F4xx_StdPeriph_Driver/src/stm32f4xx_tim.c ****   /* Disable the Channel 2: Reset the CC2E Bit */
3251:Drivers/STM32F4xx_StdPeriph_Driver/src/stm32f4xx_tim.c ****   TIMx->CCER &= (uint16_t)~TIM_CCER_CC2E;
 6793              		.loc 1 3251 14
 6794 0026 FB68     		ldr	r3, [r7, #12]
 6795 0028 1B8C     		ldrh	r3, [r3, #32]	@ movhi
 6796 002a 9BB2     		uxth	r3, r3
 6797 002c 23F01003 		bic	r3, r3, #16
 6798 0030 9AB2     		uxth	r2, r3
 6799 0032 FB68     		ldr	r3, [r7, #12]
 6800 0034 1A84     		strh	r2, [r3, #32]	@ movhi
3252:Drivers/STM32F4xx_StdPeriph_Driver/src/stm32f4xx_tim.c ****   tmpccmr1 = TIMx->CCMR1;
 6801              		.loc 1 3252 12
 6802 0036 FB68     		ldr	r3, [r7, #12]
 6803 0038 1B8B     		ldrh	r3, [r3, #24]	@ movhi
 6804 003a FB82     		strh	r3, [r7, #22]	@ movhi
3253:Drivers/STM32F4xx_StdPeriph_Driver/src/stm32f4xx_tim.c ****   tmpccer = TIMx->CCER;
 6805              		.loc 1 3253 11
 6806 003c FB68     		ldr	r3, [r7, #12]
 6807 003e 1B8C     		ldrh	r3, [r3, #32]	@ movhi
 6808 0040 BB82     		strh	r3, [r7, #20]	@ movhi
3254:Drivers/STM32F4xx_StdPeriph_Driver/src/stm32f4xx_tim.c ****   tmp = (uint16_t)(TIM_ICPolarity << 4);
 6809              		.loc 1 3254 7
 6810 0042 7B89     		ldrh	r3, [r7, #10]	@ movhi
 6811 0044 1B01     		lsls	r3, r3, #4
 6812 0046 7B82     		strh	r3, [r7, #18]	@ movhi
3255:Drivers/STM32F4xx_StdPeriph_Driver/src/stm32f4xx_tim.c **** 
3256:Drivers/STM32F4xx_StdPeriph_Driver/src/stm32f4xx_tim.c ****   /* Select the Input and set the filter */
3257:Drivers/STM32F4xx_StdPeriph_Driver/src/stm32f4xx_tim.c ****   tmpccmr1 &= ((uint16_t)~TIM_CCMR1_CC2S) & ((uint16_t)~TIM_CCMR1_IC2F);
 6813              		.loc 1 3257 12
 6814 0048 FB8A     		ldrh	r3, [r7, #22]	@ movhi
 6815 004a 23F44073 		bic	r3, r3, #768
 6816 004e 1B05     		lsls	r3, r3, #20
 6817 0050 1B0D     		lsrs	r3, r3, #20
 6818 0052 FB82     		strh	r3, [r7, #22]	@ movhi
3258:Drivers/STM32F4xx_StdPeriph_Driver/src/stm32f4xx_tim.c ****   tmpccmr1 |= (uint16_t)(TIM_ICFilter << 12);
 6819              		.loc 1 3258 15
 6820 0054 FB88     		ldrh	r3, [r7, #6]	@ movhi
 6821 0056 1B03     		lsls	r3, r3, #12
 6822 0058 9AB2     		uxth	r2, r3
 6823              		.loc 1 3258 12
ARM GAS  C:\Users\Admin\AppData\Local\Temp\ccwOX7Bd.s 			page 176


 6824 005a FB8A     		ldrh	r3, [r7, #22]	@ movhi
 6825 005c 1343     		orrs	r3, r3, r2
 6826 005e FB82     		strh	r3, [r7, #22]	@ movhi
3259:Drivers/STM32F4xx_StdPeriph_Driver/src/stm32f4xx_tim.c ****   tmpccmr1 |= (uint16_t)(TIM_ICSelection << 8);
 6827              		.loc 1 3259 15
 6828 0060 3B89     		ldrh	r3, [r7, #8]	@ movhi
 6829 0062 1B02     		lsls	r3, r3, #8
 6830 0064 9AB2     		uxth	r2, r3
 6831              		.loc 1 3259 12
 6832 0066 FB8A     		ldrh	r3, [r7, #22]	@ movhi
 6833 0068 1343     		orrs	r3, r3, r2
 6834 006a FB82     		strh	r3, [r7, #22]	@ movhi
3260:Drivers/STM32F4xx_StdPeriph_Driver/src/stm32f4xx_tim.c **** 
3261:Drivers/STM32F4xx_StdPeriph_Driver/src/stm32f4xx_tim.c ****   /* Select the Polarity and set the CC2E Bit */
3262:Drivers/STM32F4xx_StdPeriph_Driver/src/stm32f4xx_tim.c ****   tmpccer &= (uint16_t)~(TIM_CCER_CC2P | TIM_CCER_CC2NP);
 6835              		.loc 1 3262 11
 6836 006c BB8A     		ldrh	r3, [r7, #20]	@ movhi
 6837 006e 23F0A003 		bic	r3, r3, #160
 6838 0072 BB82     		strh	r3, [r7, #20]	@ movhi
3263:Drivers/STM32F4xx_StdPeriph_Driver/src/stm32f4xx_tim.c ****   tmpccer |=  (uint16_t)(tmp | (uint16_t)TIM_CCER_CC2E);
 6839              		.loc 1 3263 11
 6840 0074 7A8A     		ldrh	r2, [r7, #18]	@ movhi
 6841 0076 BB8A     		ldrh	r3, [r7, #20]	@ movhi
 6842 0078 1343     		orrs	r3, r3, r2
 6843 007a 9BB2     		uxth	r3, r3
 6844 007c 43F01003 		orr	r3, r3, #16
 6845 0080 BB82     		strh	r3, [r7, #20]	@ movhi
3264:Drivers/STM32F4xx_StdPeriph_Driver/src/stm32f4xx_tim.c **** 
3265:Drivers/STM32F4xx_StdPeriph_Driver/src/stm32f4xx_tim.c ****   /* Write to TIMx CCMR1 and CCER registers */
3266:Drivers/STM32F4xx_StdPeriph_Driver/src/stm32f4xx_tim.c ****   TIMx->CCMR1 = tmpccmr1 ;
 6846              		.loc 1 3266 15
 6847 0082 FB68     		ldr	r3, [r7, #12]
 6848 0084 FA8A     		ldrh	r2, [r7, #22]	@ movhi
 6849 0086 1A83     		strh	r2, [r3, #24]	@ movhi
3267:Drivers/STM32F4xx_StdPeriph_Driver/src/stm32f4xx_tim.c ****   TIMx->CCER = tmpccer;
 6850              		.loc 1 3267 14
 6851 0088 FB68     		ldr	r3, [r7, #12]
 6852 008a BA8A     		ldrh	r2, [r7, #20]	@ movhi
 6853 008c 1A84     		strh	r2, [r3, #32]	@ movhi
3268:Drivers/STM32F4xx_StdPeriph_Driver/src/stm32f4xx_tim.c **** }
 6854              		.loc 1 3268 1
 6855 008e 00BF     		nop
 6856 0090 1C37     		adds	r7, r7, #28
 6857              	.LCFI530:
 6858              		.cfi_def_cfa_offset 4
 6859 0092 BD46     		mov	sp, r7
 6860              	.LCFI531:
 6861              		.cfi_def_cfa_register 13
 6862              		@ sp needed
 6863 0094 5DF8047B 		ldr	r7, [sp], #4
 6864              	.LCFI532:
 6865              		.cfi_restore 7
 6866              		.cfi_def_cfa_offset 0
 6867 0098 7047     		bx	lr
 6868              		.cfi_endproc
 6869              	.LFE219:
 6871              		.section	.text.TI3_Config,"ax",%progbits
ARM GAS  C:\Users\Admin\AppData\Local\Temp\ccwOX7Bd.s 			page 177


 6872              		.align	1
 6873              		.syntax unified
 6874              		.thumb
 6875              		.thumb_func
 6877              	TI3_Config:
 6878              	.LFB220:
3269:Drivers/STM32F4xx_StdPeriph_Driver/src/stm32f4xx_tim.c **** 
3270:Drivers/STM32F4xx_StdPeriph_Driver/src/stm32f4xx_tim.c **** /**
3271:Drivers/STM32F4xx_StdPeriph_Driver/src/stm32f4xx_tim.c ****   * @brief  Configure the TI3 as Input.
3272:Drivers/STM32F4xx_StdPeriph_Driver/src/stm32f4xx_tim.c ****   * @param  TIMx: where x can be 1, 2, 3, 4, 5 or 8 to select the TIM peripheral.
3273:Drivers/STM32F4xx_StdPeriph_Driver/src/stm32f4xx_tim.c ****   * @param  TIM_ICPolarity : The Input Polarity.
3274:Drivers/STM32F4xx_StdPeriph_Driver/src/stm32f4xx_tim.c ****   *          This parameter can be one of the following values:
3275:Drivers/STM32F4xx_StdPeriph_Driver/src/stm32f4xx_tim.c ****   *            @arg TIM_ICPolarity_Rising
3276:Drivers/STM32F4xx_StdPeriph_Driver/src/stm32f4xx_tim.c ****   *            @arg TIM_ICPolarity_Falling
3277:Drivers/STM32F4xx_StdPeriph_Driver/src/stm32f4xx_tim.c ****   *            @arg TIM_ICPolarity_BothEdge         
3278:Drivers/STM32F4xx_StdPeriph_Driver/src/stm32f4xx_tim.c ****   * @param  TIM_ICSelection: specifies the input to be used.
3279:Drivers/STM32F4xx_StdPeriph_Driver/src/stm32f4xx_tim.c ****   *          This parameter can be one of the following values:
3280:Drivers/STM32F4xx_StdPeriph_Driver/src/stm32f4xx_tim.c ****   *            @arg TIM_ICSelection_DirectTI: TIM Input 3 is selected to be connected to IC3.
3281:Drivers/STM32F4xx_StdPeriph_Driver/src/stm32f4xx_tim.c ****   *            @arg TIM_ICSelection_IndirectTI: TIM Input 3 is selected to be connected to IC4.
3282:Drivers/STM32F4xx_StdPeriph_Driver/src/stm32f4xx_tim.c ****   *            @arg TIM_ICSelection_TRC: TIM Input 3 is selected to be connected to TRC.
3283:Drivers/STM32F4xx_StdPeriph_Driver/src/stm32f4xx_tim.c ****   * @param  TIM_ICFilter: Specifies the Input Capture Filter.
3284:Drivers/STM32F4xx_StdPeriph_Driver/src/stm32f4xx_tim.c ****   *          This parameter must be a value between 0x00 and 0x0F.
3285:Drivers/STM32F4xx_StdPeriph_Driver/src/stm32f4xx_tim.c ****   * @retval None
3286:Drivers/STM32F4xx_StdPeriph_Driver/src/stm32f4xx_tim.c ****   */
3287:Drivers/STM32F4xx_StdPeriph_Driver/src/stm32f4xx_tim.c **** static void TI3_Config(TIM_TypeDef* TIMx, uint16_t TIM_ICPolarity, uint16_t TIM_ICSelection,
3288:Drivers/STM32F4xx_StdPeriph_Driver/src/stm32f4xx_tim.c ****                        uint16_t TIM_ICFilter)
3289:Drivers/STM32F4xx_StdPeriph_Driver/src/stm32f4xx_tim.c **** {
 6879              		.loc 1 3289 1
 6880              		.cfi_startproc
 6881              		@ args = 0, pretend = 0, frame = 24
 6882              		@ frame_needed = 1, uses_anonymous_args = 0
 6883              		@ link register save eliminated.
 6884 0000 80B4     		push	{r7}
 6885              	.LCFI533:
 6886              		.cfi_def_cfa_offset 4
 6887              		.cfi_offset 7, -4
 6888 0002 87B0     		sub	sp, sp, #28
 6889              	.LCFI534:
 6890              		.cfi_def_cfa_offset 32
 6891 0004 00AF     		add	r7, sp, #0
 6892              	.LCFI535:
 6893              		.cfi_def_cfa_register 7
 6894 0006 F860     		str	r0, [r7, #12]
 6895 0008 0846     		mov	r0, r1
 6896 000a 1146     		mov	r1, r2
 6897 000c 1A46     		mov	r2, r3
 6898 000e 0346     		mov	r3, r0	@ movhi
 6899 0010 7B81     		strh	r3, [r7, #10]	@ movhi
 6900 0012 0B46     		mov	r3, r1	@ movhi
 6901 0014 3B81     		strh	r3, [r7, #8]	@ movhi
 6902 0016 1346     		mov	r3, r2	@ movhi
 6903 0018 FB80     		strh	r3, [r7, #6]	@ movhi
3290:Drivers/STM32F4xx_StdPeriph_Driver/src/stm32f4xx_tim.c ****   uint16_t tmpccmr2 = 0, tmpccer = 0, tmp = 0;
 6904              		.loc 1 3290 12
 6905 001a 0023     		movs	r3, #0
 6906 001c FB82     		strh	r3, [r7, #22]	@ movhi
 6907              		.loc 1 3290 26
ARM GAS  C:\Users\Admin\AppData\Local\Temp\ccwOX7Bd.s 			page 178


 6908 001e 0023     		movs	r3, #0
 6909 0020 BB82     		strh	r3, [r7, #20]	@ movhi
 6910              		.loc 1 3290 39
 6911 0022 0023     		movs	r3, #0
 6912 0024 7B82     		strh	r3, [r7, #18]	@ movhi
3291:Drivers/STM32F4xx_StdPeriph_Driver/src/stm32f4xx_tim.c **** 
3292:Drivers/STM32F4xx_StdPeriph_Driver/src/stm32f4xx_tim.c ****   /* Disable the Channel 3: Reset the CC3E Bit */
3293:Drivers/STM32F4xx_StdPeriph_Driver/src/stm32f4xx_tim.c ****   TIMx->CCER &= (uint16_t)~TIM_CCER_CC3E;
 6913              		.loc 1 3293 14
 6914 0026 FB68     		ldr	r3, [r7, #12]
 6915 0028 1B8C     		ldrh	r3, [r3, #32]	@ movhi
 6916 002a 9BB2     		uxth	r3, r3
 6917 002c 23F48073 		bic	r3, r3, #256
 6918 0030 9AB2     		uxth	r2, r3
 6919 0032 FB68     		ldr	r3, [r7, #12]
 6920 0034 1A84     		strh	r2, [r3, #32]	@ movhi
3294:Drivers/STM32F4xx_StdPeriph_Driver/src/stm32f4xx_tim.c ****   tmpccmr2 = TIMx->CCMR2;
 6921              		.loc 1 3294 12
 6922 0036 FB68     		ldr	r3, [r7, #12]
 6923 0038 9B8B     		ldrh	r3, [r3, #28]	@ movhi
 6924 003a FB82     		strh	r3, [r7, #22]	@ movhi
3295:Drivers/STM32F4xx_StdPeriph_Driver/src/stm32f4xx_tim.c ****   tmpccer = TIMx->CCER;
 6925              		.loc 1 3295 11
 6926 003c FB68     		ldr	r3, [r7, #12]
 6927 003e 1B8C     		ldrh	r3, [r3, #32]	@ movhi
 6928 0040 BB82     		strh	r3, [r7, #20]	@ movhi
3296:Drivers/STM32F4xx_StdPeriph_Driver/src/stm32f4xx_tim.c ****   tmp = (uint16_t)(TIM_ICPolarity << 8);
 6929              		.loc 1 3296 7
 6930 0042 7B89     		ldrh	r3, [r7, #10]	@ movhi
 6931 0044 1B02     		lsls	r3, r3, #8
 6932 0046 7B82     		strh	r3, [r7, #18]	@ movhi
3297:Drivers/STM32F4xx_StdPeriph_Driver/src/stm32f4xx_tim.c **** 
3298:Drivers/STM32F4xx_StdPeriph_Driver/src/stm32f4xx_tim.c ****   /* Select the Input and set the filter */
3299:Drivers/STM32F4xx_StdPeriph_Driver/src/stm32f4xx_tim.c ****   tmpccmr2 &= ((uint16_t)~TIM_CCMR1_CC1S) & ((uint16_t)~TIM_CCMR2_IC3F);
 6933              		.loc 1 3299 12
 6934 0048 FB8A     		ldrh	r3, [r7, #22]	@ movhi
 6935 004a 23F0F303 		bic	r3, r3, #243
 6936 004e FB82     		strh	r3, [r7, #22]	@ movhi
3300:Drivers/STM32F4xx_StdPeriph_Driver/src/stm32f4xx_tim.c ****   tmpccmr2 |= (uint16_t)(TIM_ICSelection | (uint16_t)(TIM_ICFilter << (uint16_t)4));
 6937              		.loc 1 3300 44
 6938 0050 FB88     		ldrh	r3, [r7, #6]	@ movhi
 6939 0052 1B01     		lsls	r3, r3, #4
 6940 0054 9AB2     		uxth	r2, r3
 6941              		.loc 1 3300 15
 6942 0056 3B89     		ldrh	r3, [r7, #8]	@ movhi
 6943 0058 1343     		orrs	r3, r3, r2
 6944 005a 9AB2     		uxth	r2, r3
 6945              		.loc 1 3300 12
 6946 005c FB8A     		ldrh	r3, [r7, #22]	@ movhi
 6947 005e 1343     		orrs	r3, r3, r2
 6948 0060 FB82     		strh	r3, [r7, #22]	@ movhi
3301:Drivers/STM32F4xx_StdPeriph_Driver/src/stm32f4xx_tim.c **** 
3302:Drivers/STM32F4xx_StdPeriph_Driver/src/stm32f4xx_tim.c ****   /* Select the Polarity and set the CC3E Bit */
3303:Drivers/STM32F4xx_StdPeriph_Driver/src/stm32f4xx_tim.c ****   tmpccer &= (uint16_t)~(TIM_CCER_CC3P | TIM_CCER_CC3NP);
 6949              		.loc 1 3303 11
 6950 0062 BB8A     		ldrh	r3, [r7, #20]	@ movhi
 6951 0064 23F42063 		bic	r3, r3, #2560
ARM GAS  C:\Users\Admin\AppData\Local\Temp\ccwOX7Bd.s 			page 179


 6952 0068 BB82     		strh	r3, [r7, #20]	@ movhi
3304:Drivers/STM32F4xx_StdPeriph_Driver/src/stm32f4xx_tim.c ****   tmpccer |= (uint16_t)(tmp | (uint16_t)TIM_CCER_CC3E);
 6953              		.loc 1 3304 11
 6954 006a 7A8A     		ldrh	r2, [r7, #18]	@ movhi
 6955 006c BB8A     		ldrh	r3, [r7, #20]	@ movhi
 6956 006e 1343     		orrs	r3, r3, r2
 6957 0070 9BB2     		uxth	r3, r3
 6958 0072 43F48073 		orr	r3, r3, #256
 6959 0076 BB82     		strh	r3, [r7, #20]	@ movhi
3305:Drivers/STM32F4xx_StdPeriph_Driver/src/stm32f4xx_tim.c **** 
3306:Drivers/STM32F4xx_StdPeriph_Driver/src/stm32f4xx_tim.c ****   /* Write to TIMx CCMR2 and CCER registers */
3307:Drivers/STM32F4xx_StdPeriph_Driver/src/stm32f4xx_tim.c ****   TIMx->CCMR2 = tmpccmr2;
 6960              		.loc 1 3307 15
 6961 0078 FB68     		ldr	r3, [r7, #12]
 6962 007a FA8A     		ldrh	r2, [r7, #22]	@ movhi
 6963 007c 9A83     		strh	r2, [r3, #28]	@ movhi
3308:Drivers/STM32F4xx_StdPeriph_Driver/src/stm32f4xx_tim.c ****   TIMx->CCER = tmpccer;
 6964              		.loc 1 3308 14
 6965 007e FB68     		ldr	r3, [r7, #12]
 6966 0080 BA8A     		ldrh	r2, [r7, #20]	@ movhi
 6967 0082 1A84     		strh	r2, [r3, #32]	@ movhi
3309:Drivers/STM32F4xx_StdPeriph_Driver/src/stm32f4xx_tim.c **** }
 6968              		.loc 1 3309 1
 6969 0084 00BF     		nop
 6970 0086 1C37     		adds	r7, r7, #28
 6971              	.LCFI536:
 6972              		.cfi_def_cfa_offset 4
 6973 0088 BD46     		mov	sp, r7
 6974              	.LCFI537:
 6975              		.cfi_def_cfa_register 13
 6976              		@ sp needed
 6977 008a 5DF8047B 		ldr	r7, [sp], #4
 6978              	.LCFI538:
 6979              		.cfi_restore 7
 6980              		.cfi_def_cfa_offset 0
 6981 008e 7047     		bx	lr
 6982              		.cfi_endproc
 6983              	.LFE220:
 6985              		.section	.text.TI4_Config,"ax",%progbits
 6986              		.align	1
 6987              		.syntax unified
 6988              		.thumb
 6989              		.thumb_func
 6991              	TI4_Config:
 6992              	.LFB221:
3310:Drivers/STM32F4xx_StdPeriph_Driver/src/stm32f4xx_tim.c **** 
3311:Drivers/STM32F4xx_StdPeriph_Driver/src/stm32f4xx_tim.c **** /**
3312:Drivers/STM32F4xx_StdPeriph_Driver/src/stm32f4xx_tim.c ****   * @brief  Configure the TI4 as Input.
3313:Drivers/STM32F4xx_StdPeriph_Driver/src/stm32f4xx_tim.c ****   * @param  TIMx: where x can be 1, 2, 3, 4, 5 or 8 to select the TIM peripheral.
3314:Drivers/STM32F4xx_StdPeriph_Driver/src/stm32f4xx_tim.c ****   * @param  TIM_ICPolarity : The Input Polarity.
3315:Drivers/STM32F4xx_StdPeriph_Driver/src/stm32f4xx_tim.c ****   *          This parameter can be one of the following values:
3316:Drivers/STM32F4xx_StdPeriph_Driver/src/stm32f4xx_tim.c ****   *            @arg TIM_ICPolarity_Rising
3317:Drivers/STM32F4xx_StdPeriph_Driver/src/stm32f4xx_tim.c ****   *            @arg TIM_ICPolarity_Falling
3318:Drivers/STM32F4xx_StdPeriph_Driver/src/stm32f4xx_tim.c ****   *            @arg TIM_ICPolarity_BothEdge     
3319:Drivers/STM32F4xx_StdPeriph_Driver/src/stm32f4xx_tim.c ****   * @param  TIM_ICSelection: specifies the input to be used.
3320:Drivers/STM32F4xx_StdPeriph_Driver/src/stm32f4xx_tim.c ****   *          This parameter can be one of the following values:
3321:Drivers/STM32F4xx_StdPeriph_Driver/src/stm32f4xx_tim.c ****   *            @arg TIM_ICSelection_DirectTI: TIM Input 4 is selected to be connected to IC4.
ARM GAS  C:\Users\Admin\AppData\Local\Temp\ccwOX7Bd.s 			page 180


3322:Drivers/STM32F4xx_StdPeriph_Driver/src/stm32f4xx_tim.c ****   *            @arg TIM_ICSelection_IndirectTI: TIM Input 4 is selected to be connected to IC3.
3323:Drivers/STM32F4xx_StdPeriph_Driver/src/stm32f4xx_tim.c ****   *            @arg TIM_ICSelection_TRC: TIM Input 4 is selected to be connected to TRC.
3324:Drivers/STM32F4xx_StdPeriph_Driver/src/stm32f4xx_tim.c ****   * @param  TIM_ICFilter: Specifies the Input Capture Filter.
3325:Drivers/STM32F4xx_StdPeriph_Driver/src/stm32f4xx_tim.c ****   *          This parameter must be a value between 0x00 and 0x0F.
3326:Drivers/STM32F4xx_StdPeriph_Driver/src/stm32f4xx_tim.c ****   * @retval None
3327:Drivers/STM32F4xx_StdPeriph_Driver/src/stm32f4xx_tim.c ****   */
3328:Drivers/STM32F4xx_StdPeriph_Driver/src/stm32f4xx_tim.c **** static void TI4_Config(TIM_TypeDef* TIMx, uint16_t TIM_ICPolarity, uint16_t TIM_ICSelection,
3329:Drivers/STM32F4xx_StdPeriph_Driver/src/stm32f4xx_tim.c ****                        uint16_t TIM_ICFilter)
3330:Drivers/STM32F4xx_StdPeriph_Driver/src/stm32f4xx_tim.c **** {
 6993              		.loc 1 3330 1
 6994              		.cfi_startproc
 6995              		@ args = 0, pretend = 0, frame = 24
 6996              		@ frame_needed = 1, uses_anonymous_args = 0
 6997              		@ link register save eliminated.
 6998 0000 80B4     		push	{r7}
 6999              	.LCFI539:
 7000              		.cfi_def_cfa_offset 4
 7001              		.cfi_offset 7, -4
 7002 0002 87B0     		sub	sp, sp, #28
 7003              	.LCFI540:
 7004              		.cfi_def_cfa_offset 32
 7005 0004 00AF     		add	r7, sp, #0
 7006              	.LCFI541:
 7007              		.cfi_def_cfa_register 7
 7008 0006 F860     		str	r0, [r7, #12]
 7009 0008 0846     		mov	r0, r1
 7010 000a 1146     		mov	r1, r2
 7011 000c 1A46     		mov	r2, r3
 7012 000e 0346     		mov	r3, r0	@ movhi
 7013 0010 7B81     		strh	r3, [r7, #10]	@ movhi
 7014 0012 0B46     		mov	r3, r1	@ movhi
 7015 0014 3B81     		strh	r3, [r7, #8]	@ movhi
 7016 0016 1346     		mov	r3, r2	@ movhi
 7017 0018 FB80     		strh	r3, [r7, #6]	@ movhi
3331:Drivers/STM32F4xx_StdPeriph_Driver/src/stm32f4xx_tim.c ****   uint16_t tmpccmr2 = 0, tmpccer = 0, tmp = 0;
 7018              		.loc 1 3331 12
 7019 001a 0023     		movs	r3, #0
 7020 001c FB82     		strh	r3, [r7, #22]	@ movhi
 7021              		.loc 1 3331 26
 7022 001e 0023     		movs	r3, #0
 7023 0020 BB82     		strh	r3, [r7, #20]	@ movhi
 7024              		.loc 1 3331 39
 7025 0022 0023     		movs	r3, #0
 7026 0024 7B82     		strh	r3, [r7, #18]	@ movhi
3332:Drivers/STM32F4xx_StdPeriph_Driver/src/stm32f4xx_tim.c **** 
3333:Drivers/STM32F4xx_StdPeriph_Driver/src/stm32f4xx_tim.c ****   /* Disable the Channel 4: Reset the CC4E Bit */
3334:Drivers/STM32F4xx_StdPeriph_Driver/src/stm32f4xx_tim.c ****   TIMx->CCER &= (uint16_t)~TIM_CCER_CC4E;
 7027              		.loc 1 3334 14
 7028 0026 FB68     		ldr	r3, [r7, #12]
 7029 0028 1B8C     		ldrh	r3, [r3, #32]	@ movhi
 7030 002a 9BB2     		uxth	r3, r3
 7031 002c 23F48053 		bic	r3, r3, #4096
 7032 0030 9AB2     		uxth	r2, r3
 7033 0032 FB68     		ldr	r3, [r7, #12]
 7034 0034 1A84     		strh	r2, [r3, #32]	@ movhi
3335:Drivers/STM32F4xx_StdPeriph_Driver/src/stm32f4xx_tim.c ****   tmpccmr2 = TIMx->CCMR2;
 7035              		.loc 1 3335 12
ARM GAS  C:\Users\Admin\AppData\Local\Temp\ccwOX7Bd.s 			page 181


 7036 0036 FB68     		ldr	r3, [r7, #12]
 7037 0038 9B8B     		ldrh	r3, [r3, #28]	@ movhi
 7038 003a FB82     		strh	r3, [r7, #22]	@ movhi
3336:Drivers/STM32F4xx_StdPeriph_Driver/src/stm32f4xx_tim.c ****   tmpccer = TIMx->CCER;
 7039              		.loc 1 3336 11
 7040 003c FB68     		ldr	r3, [r7, #12]
 7041 003e 1B8C     		ldrh	r3, [r3, #32]	@ movhi
 7042 0040 BB82     		strh	r3, [r7, #20]	@ movhi
3337:Drivers/STM32F4xx_StdPeriph_Driver/src/stm32f4xx_tim.c ****   tmp = (uint16_t)(TIM_ICPolarity << 12);
 7043              		.loc 1 3337 7
 7044 0042 7B89     		ldrh	r3, [r7, #10]	@ movhi
 7045 0044 1B03     		lsls	r3, r3, #12
 7046 0046 7B82     		strh	r3, [r7, #18]	@ movhi
3338:Drivers/STM32F4xx_StdPeriph_Driver/src/stm32f4xx_tim.c **** 
3339:Drivers/STM32F4xx_StdPeriph_Driver/src/stm32f4xx_tim.c ****   /* Select the Input and set the filter */
3340:Drivers/STM32F4xx_StdPeriph_Driver/src/stm32f4xx_tim.c ****   tmpccmr2 &= ((uint16_t)~TIM_CCMR1_CC2S) & ((uint16_t)~TIM_CCMR1_IC2F);
 7047              		.loc 1 3340 12
 7048 0048 FB8A     		ldrh	r3, [r7, #22]	@ movhi
 7049 004a 23F44073 		bic	r3, r3, #768
 7050 004e 1B05     		lsls	r3, r3, #20
 7051 0050 1B0D     		lsrs	r3, r3, #20
 7052 0052 FB82     		strh	r3, [r7, #22]	@ movhi
3341:Drivers/STM32F4xx_StdPeriph_Driver/src/stm32f4xx_tim.c ****   tmpccmr2 |= (uint16_t)(TIM_ICSelection << 8);
 7053              		.loc 1 3341 15
 7054 0054 3B89     		ldrh	r3, [r7, #8]	@ movhi
 7055 0056 1B02     		lsls	r3, r3, #8
 7056 0058 9AB2     		uxth	r2, r3
 7057              		.loc 1 3341 12
 7058 005a FB8A     		ldrh	r3, [r7, #22]	@ movhi
 7059 005c 1343     		orrs	r3, r3, r2
 7060 005e FB82     		strh	r3, [r7, #22]	@ movhi
3342:Drivers/STM32F4xx_StdPeriph_Driver/src/stm32f4xx_tim.c ****   tmpccmr2 |= (uint16_t)(TIM_ICFilter << 12);
 7061              		.loc 1 3342 15
 7062 0060 FB88     		ldrh	r3, [r7, #6]	@ movhi
 7063 0062 1B03     		lsls	r3, r3, #12
 7064 0064 9AB2     		uxth	r2, r3
 7065              		.loc 1 3342 12
 7066 0066 FB8A     		ldrh	r3, [r7, #22]	@ movhi
 7067 0068 1343     		orrs	r3, r3, r2
 7068 006a FB82     		strh	r3, [r7, #22]	@ movhi
3343:Drivers/STM32F4xx_StdPeriph_Driver/src/stm32f4xx_tim.c **** 
3344:Drivers/STM32F4xx_StdPeriph_Driver/src/stm32f4xx_tim.c ****   /* Select the Polarity and set the CC4E Bit */
3345:Drivers/STM32F4xx_StdPeriph_Driver/src/stm32f4xx_tim.c ****   tmpccer &= (uint16_t)~(TIM_CCER_CC4P | TIM_CCER_CC4NP);
 7069              		.loc 1 3345 11
 7070 006c BB8A     		ldrh	r3, [r7, #20]	@ movhi
 7071 006e 23F40053 		bic	r3, r3, #8192
 7072 0072 5B04     		lsls	r3, r3, #17
 7073 0074 5B0C     		lsrs	r3, r3, #17
 7074 0076 BB82     		strh	r3, [r7, #20]	@ movhi
3346:Drivers/STM32F4xx_StdPeriph_Driver/src/stm32f4xx_tim.c ****   tmpccer |= (uint16_t)(tmp | (uint16_t)TIM_CCER_CC4E);
 7075              		.loc 1 3346 11
 7076 0078 7A8A     		ldrh	r2, [r7, #18]	@ movhi
 7077 007a BB8A     		ldrh	r3, [r7, #20]	@ movhi
 7078 007c 1343     		orrs	r3, r3, r2
 7079 007e 9BB2     		uxth	r3, r3
 7080 0080 43F48053 		orr	r3, r3, #4096
 7081 0084 BB82     		strh	r3, [r7, #20]	@ movhi
ARM GAS  C:\Users\Admin\AppData\Local\Temp\ccwOX7Bd.s 			page 182


3347:Drivers/STM32F4xx_StdPeriph_Driver/src/stm32f4xx_tim.c **** 
3348:Drivers/STM32F4xx_StdPeriph_Driver/src/stm32f4xx_tim.c ****   /* Write to TIMx CCMR2 and CCER registers */
3349:Drivers/STM32F4xx_StdPeriph_Driver/src/stm32f4xx_tim.c ****   TIMx->CCMR2 = tmpccmr2;
 7082              		.loc 1 3349 15
 7083 0086 FB68     		ldr	r3, [r7, #12]
 7084 0088 FA8A     		ldrh	r2, [r7, #22]	@ movhi
 7085 008a 9A83     		strh	r2, [r3, #28]	@ movhi
3350:Drivers/STM32F4xx_StdPeriph_Driver/src/stm32f4xx_tim.c ****   TIMx->CCER = tmpccer ;
 7086              		.loc 1 3350 14
 7087 008c FB68     		ldr	r3, [r7, #12]
 7088 008e BA8A     		ldrh	r2, [r7, #20]	@ movhi
 7089 0090 1A84     		strh	r2, [r3, #32]	@ movhi
3351:Drivers/STM32F4xx_StdPeriph_Driver/src/stm32f4xx_tim.c **** }
 7090              		.loc 1 3351 1
 7091 0092 00BF     		nop
 7092 0094 1C37     		adds	r7, r7, #28
 7093              	.LCFI542:
 7094              		.cfi_def_cfa_offset 4
 7095 0096 BD46     		mov	sp, r7
 7096              	.LCFI543:
 7097              		.cfi_def_cfa_register 13
 7098              		@ sp needed
 7099 0098 5DF8047B 		ldr	r7, [sp], #4
 7100              	.LCFI544:
 7101              		.cfi_restore 7
 7102              		.cfi_def_cfa_offset 0
 7103 009c 7047     		bx	lr
 7104              		.cfi_endproc
 7105              	.LFE221:
 7107              		.text
 7108              	.Letext0:
 7109              		.file 2 "c:\\program files (x86)\\gnu arm embedded toolchain\\10 2021.10\\arm-none-eabi\\include\\
 7110              		.file 3 "c:\\program files (x86)\\gnu arm embedded toolchain\\10 2021.10\\arm-none-eabi\\include\\
 7111              		.file 4 "Drivers/CMSIS/Device/ST/STM32F4xx/Include/stm32f4xx.h"
 7112              		.file 5 "Drivers/STM32F4xx_StdPeriph_Driver/inc/stm32f4xx_tim.h"
ARM GAS  C:\Users\Admin\AppData\Local\Temp\ccwOX7Bd.s 			page 183


DEFINED SYMBOLS
                            *ABS*:00000000 stm32f4xx_tim.c
C:\Users\Admin\AppData\Local\Temp\ccwOX7Bd.s:20     .text.TIM_DeInit:00000000 $t
C:\Users\Admin\AppData\Local\Temp\ccwOX7Bd.s:26     .text.TIM_DeInit:00000000 TIM_DeInit
C:\Users\Admin\AppData\Local\Temp\ccwOX7Bd.s:279    .text.TIM_DeInit:0000018c $d
C:\Users\Admin\AppData\Local\Temp\ccwOX7Bd.s:296    .text.TIM_TimeBaseInit:00000000 $t
C:\Users\Admin\AppData\Local\Temp\ccwOX7Bd.s:302    .text.TIM_TimeBaseInit:00000000 TIM_TimeBaseInit
C:\Users\Admin\AppData\Local\Temp\ccwOX7Bd.s:448    .text.TIM_TimeBaseInit:000000bc $d
C:\Users\Admin\AppData\Local\Temp\ccwOX7Bd.s:459    .text.TIM_TimeBaseStructInit:00000000 $t
C:\Users\Admin\AppData\Local\Temp\ccwOX7Bd.s:465    .text.TIM_TimeBaseStructInit:00000000 TIM_TimeBaseStructInit
C:\Users\Admin\AppData\Local\Temp\ccwOX7Bd.s:521    .text.TIM_PrescalerConfig:00000000 $t
C:\Users\Admin\AppData\Local\Temp\ccwOX7Bd.s:527    .text.TIM_PrescalerConfig:00000000 TIM_PrescalerConfig
C:\Users\Admin\AppData\Local\Temp\ccwOX7Bd.s:575    .text.TIM_CounterModeConfig:00000000 $t
C:\Users\Admin\AppData\Local\Temp\ccwOX7Bd.s:581    .text.TIM_CounterModeConfig:00000000 TIM_CounterModeConfig
C:\Users\Admin\AppData\Local\Temp\ccwOX7Bd.s:639    .text.TIM_SetCounter:00000000 $t
C:\Users\Admin\AppData\Local\Temp\ccwOX7Bd.s:645    .text.TIM_SetCounter:00000000 TIM_SetCounter
C:\Users\Admin\AppData\Local\Temp\ccwOX7Bd.s:686    .text.TIM_SetAutoreload:00000000 $t
C:\Users\Admin\AppData\Local\Temp\ccwOX7Bd.s:692    .text.TIM_SetAutoreload:00000000 TIM_SetAutoreload
C:\Users\Admin\AppData\Local\Temp\ccwOX7Bd.s:733    .text.TIM_GetCounter:00000000 $t
C:\Users\Admin\AppData\Local\Temp\ccwOX7Bd.s:739    .text.TIM_GetCounter:00000000 TIM_GetCounter
C:\Users\Admin\AppData\Local\Temp\ccwOX7Bd.s:778    .text.TIM_GetPrescaler:00000000 $t
C:\Users\Admin\AppData\Local\Temp\ccwOX7Bd.s:784    .text.TIM_GetPrescaler:00000000 TIM_GetPrescaler
C:\Users\Admin\AppData\Local\Temp\ccwOX7Bd.s:824    .text.TIM_UpdateDisableConfig:00000000 $t
C:\Users\Admin\AppData\Local\Temp\ccwOX7Bd.s:830    .text.TIM_UpdateDisableConfig:00000000 TIM_UpdateDisableConfig
C:\Users\Admin\AppData\Local\Temp\ccwOX7Bd.s:892    .text.TIM_UpdateRequestConfig:00000000 $t
C:\Users\Admin\AppData\Local\Temp\ccwOX7Bd.s:898    .text.TIM_UpdateRequestConfig:00000000 TIM_UpdateRequestConfig
C:\Users\Admin\AppData\Local\Temp\ccwOX7Bd.s:960    .text.TIM_ARRPreloadConfig:00000000 $t
C:\Users\Admin\AppData\Local\Temp\ccwOX7Bd.s:966    .text.TIM_ARRPreloadConfig:00000000 TIM_ARRPreloadConfig
C:\Users\Admin\AppData\Local\Temp\ccwOX7Bd.s:1028   .text.TIM_SelectOnePulseMode:00000000 $t
C:\Users\Admin\AppData\Local\Temp\ccwOX7Bd.s:1034   .text.TIM_SelectOnePulseMode:00000000 TIM_SelectOnePulseMode
C:\Users\Admin\AppData\Local\Temp\ccwOX7Bd.s:1089   .text.TIM_SetClockDivision:00000000 $t
C:\Users\Admin\AppData\Local\Temp\ccwOX7Bd.s:1095   .text.TIM_SetClockDivision:00000000 TIM_SetClockDivision
C:\Users\Admin\AppData\Local\Temp\ccwOX7Bd.s:1150   .text.TIM_Cmd:00000000 $t
C:\Users\Admin\AppData\Local\Temp\ccwOX7Bd.s:1156   .text.TIM_Cmd:00000000 TIM_Cmd
C:\Users\Admin\AppData\Local\Temp\ccwOX7Bd.s:1218   .text.TIM_OC1Init:00000000 $t
C:\Users\Admin\AppData\Local\Temp\ccwOX7Bd.s:1224   .text.TIM_OC1Init:00000000 TIM_OC1Init
C:\Users\Admin\AppData\Local\Temp\ccwOX7Bd.s:1396   .text.TIM_OC1Init:000000ec $d
C:\Users\Admin\AppData\Local\Temp\ccwOX7Bd.s:1402   .text.TIM_OC2Init:00000000 $t
C:\Users\Admin\AppData\Local\Temp\ccwOX7Bd.s:1408   .text.TIM_OC2Init:00000000 TIM_OC2Init
C:\Users\Admin\AppData\Local\Temp\ccwOX7Bd.s:1601   .text.TIM_OC2Init:00000108 $d
C:\Users\Admin\AppData\Local\Temp\ccwOX7Bd.s:1607   .text.TIM_OC3Init:00000000 $t
C:\Users\Admin\AppData\Local\Temp\ccwOX7Bd.s:1613   .text.TIM_OC3Init:00000000 TIM_OC3Init
C:\Users\Admin\AppData\Local\Temp\ccwOX7Bd.s:1803   .text.TIM_OC3Init:00000104 $d
C:\Users\Admin\AppData\Local\Temp\ccwOX7Bd.s:1809   .text.TIM_OC4Init:00000000 $t
C:\Users\Admin\AppData\Local\Temp\ccwOX7Bd.s:1815   .text.TIM_OC4Init:00000000 TIM_OC4Init
C:\Users\Admin\AppData\Local\Temp\ccwOX7Bd.s:1966   .text.TIM_OC4Init:000000c8 $d
C:\Users\Admin\AppData\Local\Temp\ccwOX7Bd.s:1972   .text.TIM_OCStructInit:00000000 $t
C:\Users\Admin\AppData\Local\Temp\ccwOX7Bd.s:1978   .text.TIM_OCStructInit:00000000 TIM_OCStructInit
C:\Users\Admin\AppData\Local\Temp\ccwOX7Bd.s:2046   .text.TIM_SelectOCxM:00000000 $t
C:\Users\Admin\AppData\Local\Temp\ccwOX7Bd.s:2052   .text.TIM_SelectOCxM:00000000 TIM_SelectOCxM
C:\Users\Admin\AppData\Local\Temp\ccwOX7Bd.s:2192   .text.TIM_SetCompare1:00000000 $t
C:\Users\Admin\AppData\Local\Temp\ccwOX7Bd.s:2198   .text.TIM_SetCompare1:00000000 TIM_SetCompare1
C:\Users\Admin\AppData\Local\Temp\ccwOX7Bd.s:2239   .text.TIM_SetCompare2:00000000 $t
C:\Users\Admin\AppData\Local\Temp\ccwOX7Bd.s:2245   .text.TIM_SetCompare2:00000000 TIM_SetCompare2
C:\Users\Admin\AppData\Local\Temp\ccwOX7Bd.s:2286   .text.TIM_SetCompare3:00000000 $t
C:\Users\Admin\AppData\Local\Temp\ccwOX7Bd.s:2292   .text.TIM_SetCompare3:00000000 TIM_SetCompare3
C:\Users\Admin\AppData\Local\Temp\ccwOX7Bd.s:2333   .text.TIM_SetCompare4:00000000 $t
ARM GAS  C:\Users\Admin\AppData\Local\Temp\ccwOX7Bd.s 			page 184


C:\Users\Admin\AppData\Local\Temp\ccwOX7Bd.s:2339   .text.TIM_SetCompare4:00000000 TIM_SetCompare4
C:\Users\Admin\AppData\Local\Temp\ccwOX7Bd.s:2380   .text.TIM_ForcedOC1Config:00000000 $t
C:\Users\Admin\AppData\Local\Temp\ccwOX7Bd.s:2386   .text.TIM_ForcedOC1Config:00000000 TIM_ForcedOC1Config
C:\Users\Admin\AppData\Local\Temp\ccwOX7Bd.s:2444   .text.TIM_ForcedOC2Config:00000000 $t
C:\Users\Admin\AppData\Local\Temp\ccwOX7Bd.s:2450   .text.TIM_ForcedOC2Config:00000000 TIM_ForcedOC2Config
C:\Users\Admin\AppData\Local\Temp\ccwOX7Bd.s:2511   .text.TIM_ForcedOC3Config:00000000 $t
C:\Users\Admin\AppData\Local\Temp\ccwOX7Bd.s:2517   .text.TIM_ForcedOC3Config:00000000 TIM_ForcedOC3Config
C:\Users\Admin\AppData\Local\Temp\ccwOX7Bd.s:2575   .text.TIM_ForcedOC4Config:00000000 $t
C:\Users\Admin\AppData\Local\Temp\ccwOX7Bd.s:2581   .text.TIM_ForcedOC4Config:00000000 TIM_ForcedOC4Config
C:\Users\Admin\AppData\Local\Temp\ccwOX7Bd.s:2642   .text.TIM_OC1PreloadConfig:00000000 $t
C:\Users\Admin\AppData\Local\Temp\ccwOX7Bd.s:2648   .text.TIM_OC1PreloadConfig:00000000 TIM_OC1PreloadConfig
C:\Users\Admin\AppData\Local\Temp\ccwOX7Bd.s:2706   .text.TIM_OC2PreloadConfig:00000000 $t
C:\Users\Admin\AppData\Local\Temp\ccwOX7Bd.s:2712   .text.TIM_OC2PreloadConfig:00000000 TIM_OC2PreloadConfig
C:\Users\Admin\AppData\Local\Temp\ccwOX7Bd.s:2773   .text.TIM_OC3PreloadConfig:00000000 $t
C:\Users\Admin\AppData\Local\Temp\ccwOX7Bd.s:2779   .text.TIM_OC3PreloadConfig:00000000 TIM_OC3PreloadConfig
C:\Users\Admin\AppData\Local\Temp\ccwOX7Bd.s:2837   .text.TIM_OC4PreloadConfig:00000000 $t
C:\Users\Admin\AppData\Local\Temp\ccwOX7Bd.s:2843   .text.TIM_OC4PreloadConfig:00000000 TIM_OC4PreloadConfig
C:\Users\Admin\AppData\Local\Temp\ccwOX7Bd.s:2904   .text.TIM_OC1FastConfig:00000000 $t
C:\Users\Admin\AppData\Local\Temp\ccwOX7Bd.s:2910   .text.TIM_OC1FastConfig:00000000 TIM_OC1FastConfig
C:\Users\Admin\AppData\Local\Temp\ccwOX7Bd.s:2968   .text.TIM_OC2FastConfig:00000000 $t
C:\Users\Admin\AppData\Local\Temp\ccwOX7Bd.s:2974   .text.TIM_OC2FastConfig:00000000 TIM_OC2FastConfig
C:\Users\Admin\AppData\Local\Temp\ccwOX7Bd.s:3035   .text.TIM_OC3FastConfig:00000000 $t
C:\Users\Admin\AppData\Local\Temp\ccwOX7Bd.s:3041   .text.TIM_OC3FastConfig:00000000 TIM_OC3FastConfig
C:\Users\Admin\AppData\Local\Temp\ccwOX7Bd.s:3099   .text.TIM_OC4FastConfig:00000000 $t
C:\Users\Admin\AppData\Local\Temp\ccwOX7Bd.s:3105   .text.TIM_OC4FastConfig:00000000 TIM_OC4FastConfig
C:\Users\Admin\AppData\Local\Temp\ccwOX7Bd.s:3166   .text.TIM_ClearOC1Ref:00000000 $t
C:\Users\Admin\AppData\Local\Temp\ccwOX7Bd.s:3172   .text.TIM_ClearOC1Ref:00000000 TIM_ClearOC1Ref
C:\Users\Admin\AppData\Local\Temp\ccwOX7Bd.s:3230   .text.TIM_ClearOC2Ref:00000000 $t
C:\Users\Admin\AppData\Local\Temp\ccwOX7Bd.s:3236   .text.TIM_ClearOC2Ref:00000000 TIM_ClearOC2Ref
C:\Users\Admin\AppData\Local\Temp\ccwOX7Bd.s:3297   .text.TIM_ClearOC3Ref:00000000 $t
C:\Users\Admin\AppData\Local\Temp\ccwOX7Bd.s:3303   .text.TIM_ClearOC3Ref:00000000 TIM_ClearOC3Ref
C:\Users\Admin\AppData\Local\Temp\ccwOX7Bd.s:3361   .text.TIM_ClearOC4Ref:00000000 $t
C:\Users\Admin\AppData\Local\Temp\ccwOX7Bd.s:3367   .text.TIM_ClearOC4Ref:00000000 TIM_ClearOC4Ref
C:\Users\Admin\AppData\Local\Temp\ccwOX7Bd.s:3428   .text.TIM_OC1PolarityConfig:00000000 $t
C:\Users\Admin\AppData\Local\Temp\ccwOX7Bd.s:3434   .text.TIM_OC1PolarityConfig:00000000 TIM_OC1PolarityConfig
C:\Users\Admin\AppData\Local\Temp\ccwOX7Bd.s:3492   .text.TIM_OC1NPolarityConfig:00000000 $t
C:\Users\Admin\AppData\Local\Temp\ccwOX7Bd.s:3498   .text.TIM_OC1NPolarityConfig:00000000 TIM_OC1NPolarityConfig
C:\Users\Admin\AppData\Local\Temp\ccwOX7Bd.s:3556   .text.TIM_OC2PolarityConfig:00000000 $t
C:\Users\Admin\AppData\Local\Temp\ccwOX7Bd.s:3562   .text.TIM_OC2PolarityConfig:00000000 TIM_OC2PolarityConfig
C:\Users\Admin\AppData\Local\Temp\ccwOX7Bd.s:3623   .text.TIM_OC2NPolarityConfig:00000000 $t
C:\Users\Admin\AppData\Local\Temp\ccwOX7Bd.s:3629   .text.TIM_OC2NPolarityConfig:00000000 TIM_OC2NPolarityConfig
C:\Users\Admin\AppData\Local\Temp\ccwOX7Bd.s:3690   .text.TIM_OC3PolarityConfig:00000000 $t
C:\Users\Admin\AppData\Local\Temp\ccwOX7Bd.s:3696   .text.TIM_OC3PolarityConfig:00000000 TIM_OC3PolarityConfig
C:\Users\Admin\AppData\Local\Temp\ccwOX7Bd.s:3757   .text.TIM_OC3NPolarityConfig:00000000 $t
C:\Users\Admin\AppData\Local\Temp\ccwOX7Bd.s:3763   .text.TIM_OC3NPolarityConfig:00000000 TIM_OC3NPolarityConfig
C:\Users\Admin\AppData\Local\Temp\ccwOX7Bd.s:3824   .text.TIM_OC4PolarityConfig:00000000 $t
C:\Users\Admin\AppData\Local\Temp\ccwOX7Bd.s:3830   .text.TIM_OC4PolarityConfig:00000000 TIM_OC4PolarityConfig
C:\Users\Admin\AppData\Local\Temp\ccwOX7Bd.s:3891   .text.TIM_CCxCmd:00000000 $t
C:\Users\Admin\AppData\Local\Temp\ccwOX7Bd.s:3897   .text.TIM_CCxCmd:00000000 TIM_CCxCmd
C:\Users\Admin\AppData\Local\Temp\ccwOX7Bd.s:3974   .text.TIM_CCxNCmd:00000000 $t
C:\Users\Admin\AppData\Local\Temp\ccwOX7Bd.s:3980   .text.TIM_CCxNCmd:00000000 TIM_CCxNCmd
C:\Users\Admin\AppData\Local\Temp\ccwOX7Bd.s:4057   .text.TIM_ICInit:00000000 $t
C:\Users\Admin\AppData\Local\Temp\ccwOX7Bd.s:4063   .text.TIM_ICInit:00000000 TIM_ICInit
C:\Users\Admin\AppData\Local\Temp\ccwOX7Bd.s:6650   .text.TI1_Config:00000000 TI1_Config
C:\Users\Admin\AppData\Local\Temp\ccwOX7Bd.s:4573   .text.TIM_SetIC1Prescaler:00000000 TIM_SetIC1Prescaler
C:\Users\Admin\AppData\Local\Temp\ccwOX7Bd.s:6757   .text.TI2_Config:00000000 TI2_Config
C:\Users\Admin\AppData\Local\Temp\ccwOX7Bd.s:4634   .text.TIM_SetIC2Prescaler:00000000 TIM_SetIC2Prescaler
ARM GAS  C:\Users\Admin\AppData\Local\Temp\ccwOX7Bd.s 			page 185


C:\Users\Admin\AppData\Local\Temp\ccwOX7Bd.s:6877   .text.TI3_Config:00000000 TI3_Config
C:\Users\Admin\AppData\Local\Temp\ccwOX7Bd.s:4699   .text.TIM_SetIC3Prescaler:00000000 TIM_SetIC3Prescaler
C:\Users\Admin\AppData\Local\Temp\ccwOX7Bd.s:6991   .text.TI4_Config:00000000 TI4_Config
C:\Users\Admin\AppData\Local\Temp\ccwOX7Bd.s:4760   .text.TIM_SetIC4Prescaler:00000000 TIM_SetIC4Prescaler
C:\Users\Admin\AppData\Local\Temp\ccwOX7Bd.s:4184   .text.TIM_ICStructInit:00000000 $t
C:\Users\Admin\AppData\Local\Temp\ccwOX7Bd.s:4190   .text.TIM_ICStructInit:00000000 TIM_ICStructInit
C:\Users\Admin\AppData\Local\Temp\ccwOX7Bd.s:4246   .text.TIM_PWMIConfig:00000000 $t
C:\Users\Admin\AppData\Local\Temp\ccwOX7Bd.s:4252   .text.TIM_PWMIConfig:00000000 TIM_PWMIConfig
C:\Users\Admin\AppData\Local\Temp\ccwOX7Bd.s:4387   .text.TIM_GetCapture1:00000000 $t
C:\Users\Admin\AppData\Local\Temp\ccwOX7Bd.s:4393   .text.TIM_GetCapture1:00000000 TIM_GetCapture1
C:\Users\Admin\AppData\Local\Temp\ccwOX7Bd.s:4432   .text.TIM_GetCapture2:00000000 $t
C:\Users\Admin\AppData\Local\Temp\ccwOX7Bd.s:4438   .text.TIM_GetCapture2:00000000 TIM_GetCapture2
C:\Users\Admin\AppData\Local\Temp\ccwOX7Bd.s:4477   .text.TIM_GetCapture3:00000000 $t
C:\Users\Admin\AppData\Local\Temp\ccwOX7Bd.s:4483   .text.TIM_GetCapture3:00000000 TIM_GetCapture3
C:\Users\Admin\AppData\Local\Temp\ccwOX7Bd.s:4522   .text.TIM_GetCapture4:00000000 $t
C:\Users\Admin\AppData\Local\Temp\ccwOX7Bd.s:4528   .text.TIM_GetCapture4:00000000 TIM_GetCapture4
C:\Users\Admin\AppData\Local\Temp\ccwOX7Bd.s:4567   .text.TIM_SetIC1Prescaler:00000000 $t
C:\Users\Admin\AppData\Local\Temp\ccwOX7Bd.s:4628   .text.TIM_SetIC2Prescaler:00000000 $t
C:\Users\Admin\AppData\Local\Temp\ccwOX7Bd.s:4693   .text.TIM_SetIC3Prescaler:00000000 $t
C:\Users\Admin\AppData\Local\Temp\ccwOX7Bd.s:4754   .text.TIM_SetIC4Prescaler:00000000 $t
C:\Users\Admin\AppData\Local\Temp\ccwOX7Bd.s:4819   .text.TIM_BDTRConfig:00000000 $t
C:\Users\Admin\AppData\Local\Temp\ccwOX7Bd.s:4825   .text.TIM_BDTRConfig:00000000 TIM_BDTRConfig
C:\Users\Admin\AppData\Local\Temp\ccwOX7Bd.s:4903   .text.TIM_BDTRStructInit:00000000 $t
C:\Users\Admin\AppData\Local\Temp\ccwOX7Bd.s:4909   .text.TIM_BDTRStructInit:00000000 TIM_BDTRStructInit
C:\Users\Admin\AppData\Local\Temp\ccwOX7Bd.s:4973   .text.TIM_CtrlPWMOutputs:00000000 $t
C:\Users\Admin\AppData\Local\Temp\ccwOX7Bd.s:4979   .text.TIM_CtrlPWMOutputs:00000000 TIM_CtrlPWMOutputs
C:\Users\Admin\AppData\Local\Temp\ccwOX7Bd.s:5042   .text.TIM_SelectCOM:00000000 $t
C:\Users\Admin\AppData\Local\Temp\ccwOX7Bd.s:5048   .text.TIM_SelectCOM:00000000 TIM_SelectCOM
C:\Users\Admin\AppData\Local\Temp\ccwOX7Bd.s:5110   .text.TIM_CCPreloadControl:00000000 $t
C:\Users\Admin\AppData\Local\Temp\ccwOX7Bd.s:5116   .text.TIM_CCPreloadControl:00000000 TIM_CCPreloadControl
C:\Users\Admin\AppData\Local\Temp\ccwOX7Bd.s:5178   .text.TIM_ITConfig:00000000 $t
C:\Users\Admin\AppData\Local\Temp\ccwOX7Bd.s:5184   .text.TIM_ITConfig:00000000 TIM_ITConfig
C:\Users\Admin\AppData\Local\Temp\ccwOX7Bd.s:5254   .text.TIM_GenerateEvent:00000000 $t
C:\Users\Admin\AppData\Local\Temp\ccwOX7Bd.s:5260   .text.TIM_GenerateEvent:00000000 TIM_GenerateEvent
C:\Users\Admin\AppData\Local\Temp\ccwOX7Bd.s:5302   .text.TIM_GetFlagStatus:00000000 $t
C:\Users\Admin\AppData\Local\Temp\ccwOX7Bd.s:5308   .text.TIM_GetFlagStatus:00000000 TIM_GetFlagStatus
C:\Users\Admin\AppData\Local\Temp\ccwOX7Bd.s:5371   .text.TIM_ClearFlag:00000000 $t
C:\Users\Admin\AppData\Local\Temp\ccwOX7Bd.s:5377   .text.TIM_ClearFlag:00000000 TIM_ClearFlag
C:\Users\Admin\AppData\Local\Temp\ccwOX7Bd.s:5422   .text.TIM_GetITStatus:00000000 $t
C:\Users\Admin\AppData\Local\Temp\ccwOX7Bd.s:5428   .text.TIM_GetITStatus:00000000 TIM_GetITStatus
C:\Users\Admin\AppData\Local\Temp\ccwOX7Bd.s:5510   .text.TIM_ClearITPendingBit:00000000 $t
C:\Users\Admin\AppData\Local\Temp\ccwOX7Bd.s:5516   .text.TIM_ClearITPendingBit:00000000 TIM_ClearITPendingBit
C:\Users\Admin\AppData\Local\Temp\ccwOX7Bd.s:5561   .text.TIM_DMAConfig:00000000 $t
C:\Users\Admin\AppData\Local\Temp\ccwOX7Bd.s:5567   .text.TIM_DMAConfig:00000000 TIM_DMAConfig
C:\Users\Admin\AppData\Local\Temp\ccwOX7Bd.s:5614   .text.TIM_DMACmd:00000000 $t
C:\Users\Admin\AppData\Local\Temp\ccwOX7Bd.s:5620   .text.TIM_DMACmd:00000000 TIM_DMACmd
C:\Users\Admin\AppData\Local\Temp\ccwOX7Bd.s:5690   .text.TIM_SelectCCDMA:00000000 $t
C:\Users\Admin\AppData\Local\Temp\ccwOX7Bd.s:5696   .text.TIM_SelectCCDMA:00000000 TIM_SelectCCDMA
C:\Users\Admin\AppData\Local\Temp\ccwOX7Bd.s:5758   .text.TIM_InternalClockConfig:00000000 $t
C:\Users\Admin\AppData\Local\Temp\ccwOX7Bd.s:5764   .text.TIM_InternalClockConfig:00000000 TIM_InternalClockConfig
C:\Users\Admin\AppData\Local\Temp\ccwOX7Bd.s:5808   .text.TIM_ITRxExternalClockConfig:00000000 $t
C:\Users\Admin\AppData\Local\Temp\ccwOX7Bd.s:5814   .text.TIM_ITRxExternalClockConfig:00000000 TIM_ITRxExternalClockConfig
C:\Users\Admin\AppData\Local\Temp\ccwOX7Bd.s:6087   .text.TIM_SelectInputTrigger:00000000 TIM_SelectInputTrigger
C:\Users\Admin\AppData\Local\Temp\ccwOX7Bd.s:5861   .text.TIM_TIxExternalClockConfig:00000000 $t
C:\Users\Admin\AppData\Local\Temp\ccwOX7Bd.s:5867   .text.TIM_TIxExternalClockConfig:00000000 TIM_TIxExternalClockConfig
C:\Users\Admin\AppData\Local\Temp\ccwOX7Bd.s:5940   .text.TIM_ETRClockMode1Config:00000000 $t
C:\Users\Admin\AppData\Local\Temp\ccwOX7Bd.s:5946   .text.TIM_ETRClockMode1Config:00000000 TIM_ETRClockMode1Config
ARM GAS  C:\Users\Admin\AppData\Local\Temp\ccwOX7Bd.s 			page 186


C:\Users\Admin\AppData\Local\Temp\ccwOX7Bd.s:6334   .text.TIM_ETRConfig:00000000 TIM_ETRConfig
C:\Users\Admin\AppData\Local\Temp\ccwOX7Bd.s:6020   .text.TIM_ETRClockMode2Config:00000000 $t
C:\Users\Admin\AppData\Local\Temp\ccwOX7Bd.s:6026   .text.TIM_ETRClockMode2Config:00000000 TIM_ETRClockMode2Config
C:\Users\Admin\AppData\Local\Temp\ccwOX7Bd.s:6081   .text.TIM_SelectInputTrigger:00000000 $t
C:\Users\Admin\AppData\Local\Temp\ccwOX7Bd.s:6145   .text.TIM_SelectOutputTrigger:00000000 $t
C:\Users\Admin\AppData\Local\Temp\ccwOX7Bd.s:6151   .text.TIM_SelectOutputTrigger:00000000 TIM_SelectOutputTrigger
C:\Users\Admin\AppData\Local\Temp\ccwOX7Bd.s:6206   .text.TIM_SelectSlaveMode:00000000 $t
C:\Users\Admin\AppData\Local\Temp\ccwOX7Bd.s:6212   .text.TIM_SelectSlaveMode:00000000 TIM_SelectSlaveMode
C:\Users\Admin\AppData\Local\Temp\ccwOX7Bd.s:6267   .text.TIM_SelectMasterSlaveMode:00000000 $t
C:\Users\Admin\AppData\Local\Temp\ccwOX7Bd.s:6273   .text.TIM_SelectMasterSlaveMode:00000000 TIM_SelectMasterSlaveMode
C:\Users\Admin\AppData\Local\Temp\ccwOX7Bd.s:6328   .text.TIM_ETRConfig:00000000 $t
C:\Users\Admin\AppData\Local\Temp\ccwOX7Bd.s:6410   .text.TIM_EncoderInterfaceConfig:00000000 $t
C:\Users\Admin\AppData\Local\Temp\ccwOX7Bd.s:6416   .text.TIM_EncoderInterfaceConfig:00000000 TIM_EncoderInterfaceConfig
C:\Users\Admin\AppData\Local\Temp\ccwOX7Bd.s:6529   .text.TIM_SelectHallSensor:00000000 $t
C:\Users\Admin\AppData\Local\Temp\ccwOX7Bd.s:6535   .text.TIM_SelectHallSensor:00000000 TIM_SelectHallSensor
C:\Users\Admin\AppData\Local\Temp\ccwOX7Bd.s:6597   .text.TIM_RemapConfig:00000000 $t
C:\Users\Admin\AppData\Local\Temp\ccwOX7Bd.s:6603   .text.TIM_RemapConfig:00000000 TIM_RemapConfig
C:\Users\Admin\AppData\Local\Temp\ccwOX7Bd.s:6645   .text.TI1_Config:00000000 $t
C:\Users\Admin\AppData\Local\Temp\ccwOX7Bd.s:6752   .text.TI2_Config:00000000 $t
C:\Users\Admin\AppData\Local\Temp\ccwOX7Bd.s:6872   .text.TI3_Config:00000000 $t
C:\Users\Admin\AppData\Local\Temp\ccwOX7Bd.s:6986   .text.TI4_Config:00000000 $t

UNDEFINED SYMBOLS
RCC_APB2PeriphResetCmd
RCC_APB1PeriphResetCmd
