ARM GAS  C:\Users\Admin\AppData\Local\Temp\ccwOX7Bd.s 			page 1


   1              		.cpu cortex-m4
   2              		.arch armv7e-m
   3              		.fpu fpv4-sp-d16
   4              		.eabi_attribute 27, 1
   5              		.eabi_attribute 28, 1
   6              		.eabi_attribute 20, 1
   7              		.eabi_attribute 21, 1
   8              		.eabi_attribute 23, 3
   9              		.eabi_attribute 24, 1
  10              		.eabi_attribute 25, 1
  11              		.eabi_attribute 26, 1
  12              		.eabi_attribute 30, 6
  13              		.eabi_attribute 34, 1
  14              		.eabi_attribute 18, 4
  15              		.file	"stm32f4xx_tim.c"
  16              		.text
  17              	.Ltext0:
  18              		.cfi_sections	.debug_frame
  19              		.section	.text.TIM_DeInit,"ax",%progbits
  20              		.align	1
  21              		.global	TIM_DeInit
  22              		.syntax unified
  23              		.thumb
  24              		.thumb_func
  26              	TIM_DeInit:
  27              	.LFB130:
  28              		.file 1 "Drivers/STM32F4xx_StdPeriph_Driver/src/stm32f4xx_tim.c"
   1:Drivers/STM32F4xx_StdPeriph_Driver/src/stm32f4xx_tim.c **** /**
   2:Drivers/STM32F4xx_StdPeriph_Driver/src/stm32f4xx_tim.c ****   ******************************************************************************
   3:Drivers/STM32F4xx_StdPeriph_Driver/src/stm32f4xx_tim.c ****   * @file    stm32f4xx_tim.c
   4:Drivers/STM32F4xx_StdPeriph_Driver/src/stm32f4xx_tim.c ****   * @author  MCD Application Team
   5:Drivers/STM32F4xx_StdPeriph_Driver/src/stm32f4xx_tim.c ****   * @version V1.8.0
   6:Drivers/STM32F4xx_StdPeriph_Driver/src/stm32f4xx_tim.c ****   * @date    04-November-2016
   7:Drivers/STM32F4xx_StdPeriph_Driver/src/stm32f4xx_tim.c ****   * @brief   This file provides firmware functions to manage the following 
   8:Drivers/STM32F4xx_StdPeriph_Driver/src/stm32f4xx_tim.c ****   *          functionalities of the TIM peripheral:
   9:Drivers/STM32F4xx_StdPeriph_Driver/src/stm32f4xx_tim.c ****   *            + TimeBase management
  10:Drivers/STM32F4xx_StdPeriph_Driver/src/stm32f4xx_tim.c ****   *            + Output Compare management
  11:Drivers/STM32F4xx_StdPeriph_Driver/src/stm32f4xx_tim.c ****   *            + Input Capture management
  12:Drivers/STM32F4xx_StdPeriph_Driver/src/stm32f4xx_tim.c ****   *            + Advanced-control timers (TIM1 and TIM8) specific features  
  13:Drivers/STM32F4xx_StdPeriph_Driver/src/stm32f4xx_tim.c ****   *            + Interrupts, DMA and flags management
  14:Drivers/STM32F4xx_StdPeriph_Driver/src/stm32f4xx_tim.c ****   *            + Clocks management
  15:Drivers/STM32F4xx_StdPeriph_Driver/src/stm32f4xx_tim.c ****   *            + Synchronization management
  16:Drivers/STM32F4xx_StdPeriph_Driver/src/stm32f4xx_tim.c ****   *            + Specific interface management
  17:Drivers/STM32F4xx_StdPeriph_Driver/src/stm32f4xx_tim.c ****   *            + Specific remapping management      
  18:Drivers/STM32F4xx_StdPeriph_Driver/src/stm32f4xx_tim.c ****   *              
  19:Drivers/STM32F4xx_StdPeriph_Driver/src/stm32f4xx_tim.c ****   @verbatim   
  20:Drivers/STM32F4xx_StdPeriph_Driver/src/stm32f4xx_tim.c ****  ===============================================================================
  21:Drivers/STM32F4xx_StdPeriph_Driver/src/stm32f4xx_tim.c ****                    #####  How to use this driver #####
  22:Drivers/STM32F4xx_StdPeriph_Driver/src/stm32f4xx_tim.c ****  ===============================================================================
  23:Drivers/STM32F4xx_StdPeriph_Driver/src/stm32f4xx_tim.c ****     [..]
  24:Drivers/STM32F4xx_StdPeriph_Driver/src/stm32f4xx_tim.c ****     This driver provides functions to configure and program the TIM 
  25:Drivers/STM32F4xx_StdPeriph_Driver/src/stm32f4xx_tim.c ****     of all STM32F4xx devices.
  26:Drivers/STM32F4xx_StdPeriph_Driver/src/stm32f4xx_tim.c ****     These functions are split in 9 groups: 
  27:Drivers/STM32F4xx_StdPeriph_Driver/src/stm32f4xx_tim.c ****      
  28:Drivers/STM32F4xx_StdPeriph_Driver/src/stm32f4xx_tim.c ****       (#) TIM TimeBase management: this group includes all needed functions 
  29:Drivers/STM32F4xx_StdPeriph_Driver/src/stm32f4xx_tim.c ****           to configure the TM Timebase unit:
  30:Drivers/STM32F4xx_StdPeriph_Driver/src/stm32f4xx_tim.c ****         (++) Set/Get Prescaler
ARM GAS  C:\Users\Admin\AppData\Local\Temp\ccwOX7Bd.s 			page 2


  31:Drivers/STM32F4xx_StdPeriph_Driver/src/stm32f4xx_tim.c ****         (++) Set/Get Autoreload  
  32:Drivers/STM32F4xx_StdPeriph_Driver/src/stm32f4xx_tim.c ****         (++) Counter modes configuration
  33:Drivers/STM32F4xx_StdPeriph_Driver/src/stm32f4xx_tim.c ****         (++) Set Clock division  
  34:Drivers/STM32F4xx_StdPeriph_Driver/src/stm32f4xx_tim.c ****         (++) Select the One Pulse mode
  35:Drivers/STM32F4xx_StdPeriph_Driver/src/stm32f4xx_tim.c ****         (++) Update Request Configuration
  36:Drivers/STM32F4xx_StdPeriph_Driver/src/stm32f4xx_tim.c ****         (++) Update Disable Configuration
  37:Drivers/STM32F4xx_StdPeriph_Driver/src/stm32f4xx_tim.c ****         (++) Auto-Preload Configuration 
  38:Drivers/STM32F4xx_StdPeriph_Driver/src/stm32f4xx_tim.c ****         (++) Enable/Disable the counter     
  39:Drivers/STM32F4xx_StdPeriph_Driver/src/stm32f4xx_tim.c ****                    
  40:Drivers/STM32F4xx_StdPeriph_Driver/src/stm32f4xx_tim.c ****       (#) TIM Output Compare management: this group includes all needed 
  41:Drivers/STM32F4xx_StdPeriph_Driver/src/stm32f4xx_tim.c ****           functions to configure the Capture/Compare unit used in Output 
  42:Drivers/STM32F4xx_StdPeriph_Driver/src/stm32f4xx_tim.c ****           compare mode: 
  43:Drivers/STM32F4xx_StdPeriph_Driver/src/stm32f4xx_tim.c ****         (++) Configure each channel, independently, in Output Compare mode
  44:Drivers/STM32F4xx_StdPeriph_Driver/src/stm32f4xx_tim.c ****         (++) Select the output compare modes
  45:Drivers/STM32F4xx_StdPeriph_Driver/src/stm32f4xx_tim.c ****         (++) Select the Polarities of each channel
  46:Drivers/STM32F4xx_StdPeriph_Driver/src/stm32f4xx_tim.c ****         (++) Set/Get the Capture/Compare register values
  47:Drivers/STM32F4xx_StdPeriph_Driver/src/stm32f4xx_tim.c ****         (++) Select the Output Compare Fast mode 
  48:Drivers/STM32F4xx_StdPeriph_Driver/src/stm32f4xx_tim.c ****         (++) Select the Output Compare Forced mode  
  49:Drivers/STM32F4xx_StdPeriph_Driver/src/stm32f4xx_tim.c ****         (++) Output Compare-Preload Configuration 
  50:Drivers/STM32F4xx_StdPeriph_Driver/src/stm32f4xx_tim.c ****         (++) Clear Output Compare Reference
  51:Drivers/STM32F4xx_StdPeriph_Driver/src/stm32f4xx_tim.c ****         (++) Select the OCREF Clear signal
  52:Drivers/STM32F4xx_StdPeriph_Driver/src/stm32f4xx_tim.c ****         (++) Enable/Disable the Capture/Compare Channels    
  53:Drivers/STM32F4xx_StdPeriph_Driver/src/stm32f4xx_tim.c ****                      
  54:Drivers/STM32F4xx_StdPeriph_Driver/src/stm32f4xx_tim.c ****       (#) TIM Input Capture management: this group includes all needed 
  55:Drivers/STM32F4xx_StdPeriph_Driver/src/stm32f4xx_tim.c ****           functions to configure the Capture/Compare unit used in 
  56:Drivers/STM32F4xx_StdPeriph_Driver/src/stm32f4xx_tim.c ****           Input Capture mode:
  57:Drivers/STM32F4xx_StdPeriph_Driver/src/stm32f4xx_tim.c ****         (++) Configure each channel in input capture mode
  58:Drivers/STM32F4xx_StdPeriph_Driver/src/stm32f4xx_tim.c ****         (++) Configure Channel1/2 in PWM Input mode
  59:Drivers/STM32F4xx_StdPeriph_Driver/src/stm32f4xx_tim.c ****         (++) Set the Input Capture Prescaler
  60:Drivers/STM32F4xx_StdPeriph_Driver/src/stm32f4xx_tim.c ****         (++) Get the Capture/Compare values      
  61:Drivers/STM32F4xx_StdPeriph_Driver/src/stm32f4xx_tim.c ****                      
  62:Drivers/STM32F4xx_StdPeriph_Driver/src/stm32f4xx_tim.c ****       (#) Advanced-control timers (TIM1 and TIM8) specific features
  63:Drivers/STM32F4xx_StdPeriph_Driver/src/stm32f4xx_tim.c ****         (++) Configures the Break input, dead time, Lock level, the OSSI,
  64:Drivers/STM32F4xx_StdPeriph_Driver/src/stm32f4xx_tim.c ****              the OSSR State and the AOE(automatic output enable)
  65:Drivers/STM32F4xx_StdPeriph_Driver/src/stm32f4xx_tim.c ****         (++) Enable/Disable the TIM peripheral Main Outputs
  66:Drivers/STM32F4xx_StdPeriph_Driver/src/stm32f4xx_tim.c ****         (++) Select the Commutation event
  67:Drivers/STM32F4xx_StdPeriph_Driver/src/stm32f4xx_tim.c ****         (++) Set/Reset the Capture Compare Preload Control bit
  68:Drivers/STM32F4xx_StdPeriph_Driver/src/stm32f4xx_tim.c ****                                 
  69:Drivers/STM32F4xx_StdPeriph_Driver/src/stm32f4xx_tim.c ****       (#) TIM interrupts, DMA and flags management
  70:Drivers/STM32F4xx_StdPeriph_Driver/src/stm32f4xx_tim.c ****         (++) Enable/Disable interrupt sources
  71:Drivers/STM32F4xx_StdPeriph_Driver/src/stm32f4xx_tim.c ****         (++) Get flags status
  72:Drivers/STM32F4xx_StdPeriph_Driver/src/stm32f4xx_tim.c ****         (++) Clear flags/ Pending bits
  73:Drivers/STM32F4xx_StdPeriph_Driver/src/stm32f4xx_tim.c ****         (++) Enable/Disable DMA requests 
  74:Drivers/STM32F4xx_StdPeriph_Driver/src/stm32f4xx_tim.c ****         (++) Configure DMA burst mode
  75:Drivers/STM32F4xx_StdPeriph_Driver/src/stm32f4xx_tim.c ****         (++) Select CaptureCompare DMA request  
  76:Drivers/STM32F4xx_StdPeriph_Driver/src/stm32f4xx_tim.c ****                 
  77:Drivers/STM32F4xx_StdPeriph_Driver/src/stm32f4xx_tim.c ****       (#) TIM clocks management: this group includes all needed functions 
  78:Drivers/STM32F4xx_StdPeriph_Driver/src/stm32f4xx_tim.c ****           to configure the clock controller unit:
  79:Drivers/STM32F4xx_StdPeriph_Driver/src/stm32f4xx_tim.c ****         (++) Select internal/External clock
  80:Drivers/STM32F4xx_StdPeriph_Driver/src/stm32f4xx_tim.c ****         (++) Select the external clock mode: ETR(Mode1/Mode2), TIx or ITRx
  81:Drivers/STM32F4xx_StdPeriph_Driver/src/stm32f4xx_tim.c ****            
  82:Drivers/STM32F4xx_StdPeriph_Driver/src/stm32f4xx_tim.c ****       (#) TIM synchronization management: this group includes all needed 
  83:Drivers/STM32F4xx_StdPeriph_Driver/src/stm32f4xx_tim.c ****           functions to configure the Synchronization unit:
  84:Drivers/STM32F4xx_StdPeriph_Driver/src/stm32f4xx_tim.c ****         (++) Select Input Trigger  
  85:Drivers/STM32F4xx_StdPeriph_Driver/src/stm32f4xx_tim.c ****         (++) Select Output Trigger  
  86:Drivers/STM32F4xx_StdPeriph_Driver/src/stm32f4xx_tim.c ****         (++) Select Master Slave Mode 
  87:Drivers/STM32F4xx_StdPeriph_Driver/src/stm32f4xx_tim.c ****         (++) ETR Configuration when used as external trigger   
ARM GAS  C:\Users\Admin\AppData\Local\Temp\ccwOX7Bd.s 			page 3


  88:Drivers/STM32F4xx_StdPeriph_Driver/src/stm32f4xx_tim.c ****        
  89:Drivers/STM32F4xx_StdPeriph_Driver/src/stm32f4xx_tim.c ****       (#) TIM specific interface management, this group includes all 
  90:Drivers/STM32F4xx_StdPeriph_Driver/src/stm32f4xx_tim.c ****           needed functions to use the specific TIM interface:
  91:Drivers/STM32F4xx_StdPeriph_Driver/src/stm32f4xx_tim.c ****         (++) Encoder Interface Configuration
  92:Drivers/STM32F4xx_StdPeriph_Driver/src/stm32f4xx_tim.c ****         (++) Select Hall Sensor   
  93:Drivers/STM32F4xx_StdPeriph_Driver/src/stm32f4xx_tim.c ****            
  94:Drivers/STM32F4xx_StdPeriph_Driver/src/stm32f4xx_tim.c ****       (#) TIM specific remapping management includes the Remapping 
  95:Drivers/STM32F4xx_StdPeriph_Driver/src/stm32f4xx_tim.c ****           configuration of specific timers               
  96:Drivers/STM32F4xx_StdPeriph_Driver/src/stm32f4xx_tim.c ****      
  97:Drivers/STM32F4xx_StdPeriph_Driver/src/stm32f4xx_tim.c ****   @endverbatim    
  98:Drivers/STM32F4xx_StdPeriph_Driver/src/stm32f4xx_tim.c ****   ******************************************************************************
  99:Drivers/STM32F4xx_StdPeriph_Driver/src/stm32f4xx_tim.c ****   * @attention
 100:Drivers/STM32F4xx_StdPeriph_Driver/src/stm32f4xx_tim.c ****   *
 101:Drivers/STM32F4xx_StdPeriph_Driver/src/stm32f4xx_tim.c ****   * <h2><center>&copy; COPYRIGHT 2016 STMicroelectronics</center></h2>
 102:Drivers/STM32F4xx_StdPeriph_Driver/src/stm32f4xx_tim.c ****   *
 103:Drivers/STM32F4xx_StdPeriph_Driver/src/stm32f4xx_tim.c ****   * Licensed under MCD-ST Liberty SW License Agreement V2, (the "License");
 104:Drivers/STM32F4xx_StdPeriph_Driver/src/stm32f4xx_tim.c ****   * You may not use this file except in compliance with the License.
 105:Drivers/STM32F4xx_StdPeriph_Driver/src/stm32f4xx_tim.c ****   * You may obtain a copy of the License at:
 106:Drivers/STM32F4xx_StdPeriph_Driver/src/stm32f4xx_tim.c ****   *
 107:Drivers/STM32F4xx_StdPeriph_Driver/src/stm32f4xx_tim.c ****   *        http://www.st.com/software_license_agreement_liberty_v2
 108:Drivers/STM32F4xx_StdPeriph_Driver/src/stm32f4xx_tim.c ****   *
 109:Drivers/STM32F4xx_StdPeriph_Driver/src/stm32f4xx_tim.c ****   * Unless required by applicable law or agreed to in writing, software 
 110:Drivers/STM32F4xx_StdPeriph_Driver/src/stm32f4xx_tim.c ****   * distributed under the License is distributed on an "AS IS" BASIS, 
 111:Drivers/STM32F4xx_StdPeriph_Driver/src/stm32f4xx_tim.c ****   * WITHOUT WARRANTIES OR CONDITIONS OF ANY KIND, either express or implied.
 112:Drivers/STM32F4xx_StdPeriph_Driver/src/stm32f4xx_tim.c ****   * See the License for the specific language governing permissions and
 113:Drivers/STM32F4xx_StdPeriph_Driver/src/stm32f4xx_tim.c ****   * limitations under the License.
 114:Drivers/STM32F4xx_StdPeriph_Driver/src/stm32f4xx_tim.c ****   *
 115:Drivers/STM32F4xx_StdPeriph_Driver/src/stm32f4xx_tim.c ****   ******************************************************************************
 116:Drivers/STM32F4xx_StdPeriph_Driver/src/stm32f4xx_tim.c ****   */
 117:Drivers/STM32F4xx_StdPeriph_Driver/src/stm32f4xx_tim.c **** 
 118:Drivers/STM32F4xx_StdPeriph_Driver/src/stm32f4xx_tim.c **** /* Includes ------------------------------------------------------------------*/
 119:Drivers/STM32F4xx_StdPeriph_Driver/src/stm32f4xx_tim.c **** #include "stm32f4xx_tim.h"
 120:Drivers/STM32F4xx_StdPeriph_Driver/src/stm32f4xx_tim.c **** #include "stm32f4xx_rcc.h"
 121:Drivers/STM32F4xx_StdPeriph_Driver/src/stm32f4xx_tim.c **** 
 122:Drivers/STM32F4xx_StdPeriph_Driver/src/stm32f4xx_tim.c **** /** @addtogroup STM32F4xx_StdPeriph_Driver
 123:Drivers/STM32F4xx_StdPeriph_Driver/src/stm32f4xx_tim.c ****   * @{
 124:Drivers/STM32F4xx_StdPeriph_Driver/src/stm32f4xx_tim.c ****   */
 125:Drivers/STM32F4xx_StdPeriph_Driver/src/stm32f4xx_tim.c **** 
 126:Drivers/STM32F4xx_StdPeriph_Driver/src/stm32f4xx_tim.c **** /** @defgroup TIM 
 127:Drivers/STM32F4xx_StdPeriph_Driver/src/stm32f4xx_tim.c ****   * @brief TIM driver modules
 128:Drivers/STM32F4xx_StdPeriph_Driver/src/stm32f4xx_tim.c ****   * @{
 129:Drivers/STM32F4xx_StdPeriph_Driver/src/stm32f4xx_tim.c ****   */
 130:Drivers/STM32F4xx_StdPeriph_Driver/src/stm32f4xx_tim.c **** 
 131:Drivers/STM32F4xx_StdPeriph_Driver/src/stm32f4xx_tim.c **** /* Private typedef -----------------------------------------------------------*/
 132:Drivers/STM32F4xx_StdPeriph_Driver/src/stm32f4xx_tim.c **** /* Private define ------------------------------------------------------------*/
 133:Drivers/STM32F4xx_StdPeriph_Driver/src/stm32f4xx_tim.c **** 
 134:Drivers/STM32F4xx_StdPeriph_Driver/src/stm32f4xx_tim.c **** /* ---------------------- TIM registers bit mask ------------------------ */
 135:Drivers/STM32F4xx_StdPeriph_Driver/src/stm32f4xx_tim.c **** #define SMCR_ETR_MASK      ((uint16_t)0x00FF) 
 136:Drivers/STM32F4xx_StdPeriph_Driver/src/stm32f4xx_tim.c **** #define CCMR_OFFSET        ((uint16_t)0x0018)
 137:Drivers/STM32F4xx_StdPeriph_Driver/src/stm32f4xx_tim.c **** #define CCER_CCE_SET       ((uint16_t)0x0001)  
 138:Drivers/STM32F4xx_StdPeriph_Driver/src/stm32f4xx_tim.c **** #define	CCER_CCNE_SET      ((uint16_t)0x0004) 
 139:Drivers/STM32F4xx_StdPeriph_Driver/src/stm32f4xx_tim.c **** #define CCMR_OC13M_MASK    ((uint16_t)0xFF8F)
 140:Drivers/STM32F4xx_StdPeriph_Driver/src/stm32f4xx_tim.c **** #define CCMR_OC24M_MASK    ((uint16_t)0x8FFF) 
 141:Drivers/STM32F4xx_StdPeriph_Driver/src/stm32f4xx_tim.c **** 
 142:Drivers/STM32F4xx_StdPeriph_Driver/src/stm32f4xx_tim.c **** /* Private macro -------------------------------------------------------------*/
 143:Drivers/STM32F4xx_StdPeriph_Driver/src/stm32f4xx_tim.c **** /* Private variables ---------------------------------------------------------*/
 144:Drivers/STM32F4xx_StdPeriph_Driver/src/stm32f4xx_tim.c **** /* Private function prototypes -----------------------------------------------*/
ARM GAS  C:\Users\Admin\AppData\Local\Temp\ccwOX7Bd.s 			page 4


 145:Drivers/STM32F4xx_StdPeriph_Driver/src/stm32f4xx_tim.c **** static void TI1_Config(TIM_TypeDef* TIMx, uint16_t TIM_ICPolarity, uint16_t TIM_ICSelection,
 146:Drivers/STM32F4xx_StdPeriph_Driver/src/stm32f4xx_tim.c ****                        uint16_t TIM_ICFilter);
 147:Drivers/STM32F4xx_StdPeriph_Driver/src/stm32f4xx_tim.c **** static void TI2_Config(TIM_TypeDef* TIMx, uint16_t TIM_ICPolarity, uint16_t TIM_ICSelection,
 148:Drivers/STM32F4xx_StdPeriph_Driver/src/stm32f4xx_tim.c ****                        uint16_t TIM_ICFilter);
 149:Drivers/STM32F4xx_StdPeriph_Driver/src/stm32f4xx_tim.c **** static void TI3_Config(TIM_TypeDef* TIMx, uint16_t TIM_ICPolarity, uint16_t TIM_ICSelection,
 150:Drivers/STM32F4xx_StdPeriph_Driver/src/stm32f4xx_tim.c ****                        uint16_t TIM_ICFilter);
 151:Drivers/STM32F4xx_StdPeriph_Driver/src/stm32f4xx_tim.c **** static void TI4_Config(TIM_TypeDef* TIMx, uint16_t TIM_ICPolarity, uint16_t TIM_ICSelection,
 152:Drivers/STM32F4xx_StdPeriph_Driver/src/stm32f4xx_tim.c ****                        uint16_t TIM_ICFilter);
 153:Drivers/STM32F4xx_StdPeriph_Driver/src/stm32f4xx_tim.c **** 
 154:Drivers/STM32F4xx_StdPeriph_Driver/src/stm32f4xx_tim.c **** /* Private functions ---------------------------------------------------------*/
 155:Drivers/STM32F4xx_StdPeriph_Driver/src/stm32f4xx_tim.c **** 
 156:Drivers/STM32F4xx_StdPeriph_Driver/src/stm32f4xx_tim.c **** /** @defgroup TIM_Private_Functions
 157:Drivers/STM32F4xx_StdPeriph_Driver/src/stm32f4xx_tim.c ****   * @{
 158:Drivers/STM32F4xx_StdPeriph_Driver/src/stm32f4xx_tim.c ****   */
 159:Drivers/STM32F4xx_StdPeriph_Driver/src/stm32f4xx_tim.c **** 
 160:Drivers/STM32F4xx_StdPeriph_Driver/src/stm32f4xx_tim.c **** /** @defgroup TIM_Group1 TimeBase management functions
 161:Drivers/STM32F4xx_StdPeriph_Driver/src/stm32f4xx_tim.c ****  *  @brief   TimeBase management functions 
 162:Drivers/STM32F4xx_StdPeriph_Driver/src/stm32f4xx_tim.c ****  *
 163:Drivers/STM32F4xx_StdPeriph_Driver/src/stm32f4xx_tim.c **** @verbatim   
 164:Drivers/STM32F4xx_StdPeriph_Driver/src/stm32f4xx_tim.c ****  ===============================================================================
 165:Drivers/STM32F4xx_StdPeriph_Driver/src/stm32f4xx_tim.c ****                      ##### TimeBase management functions #####
 166:Drivers/STM32F4xx_StdPeriph_Driver/src/stm32f4xx_tim.c ****  ===============================================================================  
 167:Drivers/STM32F4xx_StdPeriph_Driver/src/stm32f4xx_tim.c ****   
 168:Drivers/STM32F4xx_StdPeriph_Driver/src/stm32f4xx_tim.c ****      
 169:Drivers/STM32F4xx_StdPeriph_Driver/src/stm32f4xx_tim.c ****             ##### TIM Driver: how to use it in Timing(Time base) Mode #####
 170:Drivers/STM32F4xx_StdPeriph_Driver/src/stm32f4xx_tim.c ****  ===============================================================================
 171:Drivers/STM32F4xx_StdPeriph_Driver/src/stm32f4xx_tim.c ****     [..] 
 172:Drivers/STM32F4xx_StdPeriph_Driver/src/stm32f4xx_tim.c ****     To use the Timer in Timing(Time base) mode, the following steps are mandatory:
 173:Drivers/STM32F4xx_StdPeriph_Driver/src/stm32f4xx_tim.c ****        
 174:Drivers/STM32F4xx_StdPeriph_Driver/src/stm32f4xx_tim.c ****       (#) Enable TIM clock using RCC_APBxPeriphClockCmd(RCC_APBxPeriph_TIMx, ENABLE) function
 175:Drivers/STM32F4xx_StdPeriph_Driver/src/stm32f4xx_tim.c ****                     
 176:Drivers/STM32F4xx_StdPeriph_Driver/src/stm32f4xx_tim.c ****       (#) Fill the TIM_TimeBaseInitStruct with the desired parameters.
 177:Drivers/STM32F4xx_StdPeriph_Driver/src/stm32f4xx_tim.c ****        
 178:Drivers/STM32F4xx_StdPeriph_Driver/src/stm32f4xx_tim.c ****       (#) Call TIM_TimeBaseInit(TIMx, &TIM_TimeBaseInitStruct) to configure the Time Base unit
 179:Drivers/STM32F4xx_StdPeriph_Driver/src/stm32f4xx_tim.c ****           with the corresponding configuration
 180:Drivers/STM32F4xx_StdPeriph_Driver/src/stm32f4xx_tim.c ****           
 181:Drivers/STM32F4xx_StdPeriph_Driver/src/stm32f4xx_tim.c ****       (#) Enable the NVIC if you need to generate the update interrupt. 
 182:Drivers/STM32F4xx_StdPeriph_Driver/src/stm32f4xx_tim.c ****           
 183:Drivers/STM32F4xx_StdPeriph_Driver/src/stm32f4xx_tim.c ****       (#) Enable the corresponding interrupt using the function TIM_ITConfig(TIMx, TIM_IT_Update) 
 184:Drivers/STM32F4xx_StdPeriph_Driver/src/stm32f4xx_tim.c ****        
 185:Drivers/STM32F4xx_StdPeriph_Driver/src/stm32f4xx_tim.c ****       (#) Call the TIM_Cmd(ENABLE) function to enable the TIM counter.
 186:Drivers/STM32F4xx_StdPeriph_Driver/src/stm32f4xx_tim.c ****              
 187:Drivers/STM32F4xx_StdPeriph_Driver/src/stm32f4xx_tim.c ****        -@- All other functions can be used separately to modify, if needed,
 188:Drivers/STM32F4xx_StdPeriph_Driver/src/stm32f4xx_tim.c ****            a specific feature of the Timer. 
 189:Drivers/STM32F4xx_StdPeriph_Driver/src/stm32f4xx_tim.c **** 
 190:Drivers/STM32F4xx_StdPeriph_Driver/src/stm32f4xx_tim.c **** @endverbatim
 191:Drivers/STM32F4xx_StdPeriph_Driver/src/stm32f4xx_tim.c ****   * @{
 192:Drivers/STM32F4xx_StdPeriph_Driver/src/stm32f4xx_tim.c ****   */
 193:Drivers/STM32F4xx_StdPeriph_Driver/src/stm32f4xx_tim.c ****   
 194:Drivers/STM32F4xx_StdPeriph_Driver/src/stm32f4xx_tim.c **** /**
 195:Drivers/STM32F4xx_StdPeriph_Driver/src/stm32f4xx_tim.c ****   * @brief  Deinitializes the TIMx peripheral registers to their default reset values.
 196:Drivers/STM32F4xx_StdPeriph_Driver/src/stm32f4xx_tim.c ****   * @param  TIMx: where x can be 1 to 14 to select the TIM peripheral.
 197:Drivers/STM32F4xx_StdPeriph_Driver/src/stm32f4xx_tim.c ****   * @retval None
 198:Drivers/STM32F4xx_StdPeriph_Driver/src/stm32f4xx_tim.c **** 
 199:Drivers/STM32F4xx_StdPeriph_Driver/src/stm32f4xx_tim.c ****   */
 200:Drivers/STM32F4xx_StdPeriph_Driver/src/stm32f4xx_tim.c **** void TIM_DeInit(TIM_TypeDef* TIMx)
 201:Drivers/STM32F4xx_StdPeriph_Driver/src/stm32f4xx_tim.c **** {
ARM GAS  C:\Users\Admin\AppData\Local\Temp\ccwOX7Bd.s 			page 5


  29              		.loc 1 201 1
  30              		.cfi_startproc
  31              		@ args = 0, pretend = 0, frame = 8
  32              		@ frame_needed = 1, uses_anonymous_args = 0
  33 0000 80B5     		push	{r7, lr}
  34              	.LCFI0:
  35              		.cfi_def_cfa_offset 8
  36              		.cfi_offset 7, -8
  37              		.cfi_offset 14, -4
  38 0002 82B0     		sub	sp, sp, #8
  39              	.LCFI1:
  40              		.cfi_def_cfa_offset 16
  41 0004 00AF     		add	r7, sp, #0
  42              	.LCFI2:
  43              		.cfi_def_cfa_register 7
  44 0006 7860     		str	r0, [r7, #4]
 202:Drivers/STM32F4xx_StdPeriph_Driver/src/stm32f4xx_tim.c ****   /* Check the parameters */
 203:Drivers/STM32F4xx_StdPeriph_Driver/src/stm32f4xx_tim.c ****   assert_param(IS_TIM_ALL_PERIPH(TIMx)); 
 204:Drivers/STM32F4xx_StdPeriph_Driver/src/stm32f4xx_tim.c ****  
 205:Drivers/STM32F4xx_StdPeriph_Driver/src/stm32f4xx_tim.c ****   if (TIMx == TIM1)
  45              		.loc 1 205 6
  46 0008 7B68     		ldr	r3, [r7, #4]
  47 000a 604A     		ldr	r2, .L17
  48 000c 9342     		cmp	r3, r2
  49 000e 08D1     		bne	.L2
 206:Drivers/STM32F4xx_StdPeriph_Driver/src/stm32f4xx_tim.c ****   {
 207:Drivers/STM32F4xx_StdPeriph_Driver/src/stm32f4xx_tim.c ****     RCC_APB2PeriphResetCmd(RCC_APB2Periph_TIM1, ENABLE);
  50              		.loc 1 207 5
  51 0010 0121     		movs	r1, #1
  52 0012 0120     		movs	r0, #1
  53 0014 FFF7FEFF 		bl	RCC_APB2PeriphResetCmd
 208:Drivers/STM32F4xx_StdPeriph_Driver/src/stm32f4xx_tim.c ****     RCC_APB2PeriphResetCmd(RCC_APB2Periph_TIM1, DISABLE);  
  54              		.loc 1 208 5
  55 0018 0021     		movs	r1, #0
  56 001a 0120     		movs	r0, #1
  57 001c FFF7FEFF 		bl	RCC_APB2PeriphResetCmd
 209:Drivers/STM32F4xx_StdPeriph_Driver/src/stm32f4xx_tim.c ****   } 
 210:Drivers/STM32F4xx_StdPeriph_Driver/src/stm32f4xx_tim.c ****   else if (TIMx == TIM2) 
 211:Drivers/STM32F4xx_StdPeriph_Driver/src/stm32f4xx_tim.c ****   {     
 212:Drivers/STM32F4xx_StdPeriph_Driver/src/stm32f4xx_tim.c ****     RCC_APB1PeriphResetCmd(RCC_APB1Periph_TIM2, ENABLE);
 213:Drivers/STM32F4xx_StdPeriph_Driver/src/stm32f4xx_tim.c ****     RCC_APB1PeriphResetCmd(RCC_APB1Periph_TIM2, DISABLE);
 214:Drivers/STM32F4xx_StdPeriph_Driver/src/stm32f4xx_tim.c ****   }  
 215:Drivers/STM32F4xx_StdPeriph_Driver/src/stm32f4xx_tim.c ****   else if (TIMx == TIM3)
 216:Drivers/STM32F4xx_StdPeriph_Driver/src/stm32f4xx_tim.c ****   { 
 217:Drivers/STM32F4xx_StdPeriph_Driver/src/stm32f4xx_tim.c ****     RCC_APB1PeriphResetCmd(RCC_APB1Periph_TIM3, ENABLE);
 218:Drivers/STM32F4xx_StdPeriph_Driver/src/stm32f4xx_tim.c ****     RCC_APB1PeriphResetCmd(RCC_APB1Periph_TIM3, DISABLE);
 219:Drivers/STM32F4xx_StdPeriph_Driver/src/stm32f4xx_tim.c ****   }  
 220:Drivers/STM32F4xx_StdPeriph_Driver/src/stm32f4xx_tim.c ****   else if (TIMx == TIM4)
 221:Drivers/STM32F4xx_StdPeriph_Driver/src/stm32f4xx_tim.c ****   { 
 222:Drivers/STM32F4xx_StdPeriph_Driver/src/stm32f4xx_tim.c ****     RCC_APB1PeriphResetCmd(RCC_APB1Periph_TIM4, ENABLE);
 223:Drivers/STM32F4xx_StdPeriph_Driver/src/stm32f4xx_tim.c ****     RCC_APB1PeriphResetCmd(RCC_APB1Periph_TIM4, DISABLE);
 224:Drivers/STM32F4xx_StdPeriph_Driver/src/stm32f4xx_tim.c ****   }  
 225:Drivers/STM32F4xx_StdPeriph_Driver/src/stm32f4xx_tim.c ****   else if (TIMx == TIM5)
 226:Drivers/STM32F4xx_StdPeriph_Driver/src/stm32f4xx_tim.c ****   {      
 227:Drivers/STM32F4xx_StdPeriph_Driver/src/stm32f4xx_tim.c ****     RCC_APB1PeriphResetCmd(RCC_APB1Periph_TIM5, ENABLE);
 228:Drivers/STM32F4xx_StdPeriph_Driver/src/stm32f4xx_tim.c ****     RCC_APB1PeriphResetCmd(RCC_APB1Periph_TIM5, DISABLE);
 229:Drivers/STM32F4xx_StdPeriph_Driver/src/stm32f4xx_tim.c ****   }  
ARM GAS  C:\Users\Admin\AppData\Local\Temp\ccwOX7Bd.s 			page 6


 230:Drivers/STM32F4xx_StdPeriph_Driver/src/stm32f4xx_tim.c ****   else if (TIMx == TIM6)  
 231:Drivers/STM32F4xx_StdPeriph_Driver/src/stm32f4xx_tim.c ****   {    
 232:Drivers/STM32F4xx_StdPeriph_Driver/src/stm32f4xx_tim.c ****     RCC_APB1PeriphResetCmd(RCC_APB1Periph_TIM6, ENABLE);
 233:Drivers/STM32F4xx_StdPeriph_Driver/src/stm32f4xx_tim.c ****     RCC_APB1PeriphResetCmd(RCC_APB1Periph_TIM6, DISABLE);
 234:Drivers/STM32F4xx_StdPeriph_Driver/src/stm32f4xx_tim.c ****   }  
 235:Drivers/STM32F4xx_StdPeriph_Driver/src/stm32f4xx_tim.c ****   else if (TIMx == TIM7)
 236:Drivers/STM32F4xx_StdPeriph_Driver/src/stm32f4xx_tim.c ****   {      
 237:Drivers/STM32F4xx_StdPeriph_Driver/src/stm32f4xx_tim.c ****     RCC_APB1PeriphResetCmd(RCC_APB1Periph_TIM7, ENABLE);
 238:Drivers/STM32F4xx_StdPeriph_Driver/src/stm32f4xx_tim.c ****     RCC_APB1PeriphResetCmd(RCC_APB1Periph_TIM7, DISABLE);
 239:Drivers/STM32F4xx_StdPeriph_Driver/src/stm32f4xx_tim.c ****   }  
 240:Drivers/STM32F4xx_StdPeriph_Driver/src/stm32f4xx_tim.c ****   else if (TIMx == TIM8)
 241:Drivers/STM32F4xx_StdPeriph_Driver/src/stm32f4xx_tim.c ****   {      
 242:Drivers/STM32F4xx_StdPeriph_Driver/src/stm32f4xx_tim.c ****     RCC_APB2PeriphResetCmd(RCC_APB2Periph_TIM8, ENABLE);
 243:Drivers/STM32F4xx_StdPeriph_Driver/src/stm32f4xx_tim.c ****     RCC_APB2PeriphResetCmd(RCC_APB2Periph_TIM8, DISABLE);  
 244:Drivers/STM32F4xx_StdPeriph_Driver/src/stm32f4xx_tim.c ****   }  
 245:Drivers/STM32F4xx_StdPeriph_Driver/src/stm32f4xx_tim.c ****   else if (TIMx == TIM9)
 246:Drivers/STM32F4xx_StdPeriph_Driver/src/stm32f4xx_tim.c ****   {      
 247:Drivers/STM32F4xx_StdPeriph_Driver/src/stm32f4xx_tim.c ****     RCC_APB2PeriphResetCmd(RCC_APB2Periph_TIM9, ENABLE);
 248:Drivers/STM32F4xx_StdPeriph_Driver/src/stm32f4xx_tim.c ****     RCC_APB2PeriphResetCmd(RCC_APB2Periph_TIM9, DISABLE);  
 249:Drivers/STM32F4xx_StdPeriph_Driver/src/stm32f4xx_tim.c ****    }  
 250:Drivers/STM32F4xx_StdPeriph_Driver/src/stm32f4xx_tim.c ****   else if (TIMx == TIM10)
 251:Drivers/STM32F4xx_StdPeriph_Driver/src/stm32f4xx_tim.c ****   {      
 252:Drivers/STM32F4xx_StdPeriph_Driver/src/stm32f4xx_tim.c ****     RCC_APB2PeriphResetCmd(RCC_APB2Periph_TIM10, ENABLE);
 253:Drivers/STM32F4xx_StdPeriph_Driver/src/stm32f4xx_tim.c ****     RCC_APB2PeriphResetCmd(RCC_APB2Periph_TIM10, DISABLE);  
 254:Drivers/STM32F4xx_StdPeriph_Driver/src/stm32f4xx_tim.c ****   }  
 255:Drivers/STM32F4xx_StdPeriph_Driver/src/stm32f4xx_tim.c ****   else if (TIMx == TIM11) 
 256:Drivers/STM32F4xx_StdPeriph_Driver/src/stm32f4xx_tim.c ****   {     
 257:Drivers/STM32F4xx_StdPeriph_Driver/src/stm32f4xx_tim.c ****     RCC_APB2PeriphResetCmd(RCC_APB2Periph_TIM11, ENABLE);
 258:Drivers/STM32F4xx_StdPeriph_Driver/src/stm32f4xx_tim.c ****     RCC_APB2PeriphResetCmd(RCC_APB2Periph_TIM11, DISABLE);  
 259:Drivers/STM32F4xx_StdPeriph_Driver/src/stm32f4xx_tim.c ****   }  
 260:Drivers/STM32F4xx_StdPeriph_Driver/src/stm32f4xx_tim.c ****   else if (TIMx == TIM12)
 261:Drivers/STM32F4xx_StdPeriph_Driver/src/stm32f4xx_tim.c ****   {      
 262:Drivers/STM32F4xx_StdPeriph_Driver/src/stm32f4xx_tim.c ****     RCC_APB1PeriphResetCmd(RCC_APB1Periph_TIM12, ENABLE);
 263:Drivers/STM32F4xx_StdPeriph_Driver/src/stm32f4xx_tim.c ****     RCC_APB1PeriphResetCmd(RCC_APB1Periph_TIM12, DISABLE);  
 264:Drivers/STM32F4xx_StdPeriph_Driver/src/stm32f4xx_tim.c ****   }  
 265:Drivers/STM32F4xx_StdPeriph_Driver/src/stm32f4xx_tim.c ****   else if (TIMx == TIM13) 
 266:Drivers/STM32F4xx_StdPeriph_Driver/src/stm32f4xx_tim.c ****   {       
 267:Drivers/STM32F4xx_StdPeriph_Driver/src/stm32f4xx_tim.c ****     RCC_APB1PeriphResetCmd(RCC_APB1Periph_TIM13, ENABLE);
 268:Drivers/STM32F4xx_StdPeriph_Driver/src/stm32f4xx_tim.c ****     RCC_APB1PeriphResetCmd(RCC_APB1Periph_TIM13, DISABLE);  
 269:Drivers/STM32F4xx_StdPeriph_Driver/src/stm32f4xx_tim.c ****   }  
 270:Drivers/STM32F4xx_StdPeriph_Driver/src/stm32f4xx_tim.c ****   else
 271:Drivers/STM32F4xx_StdPeriph_Driver/src/stm32f4xx_tim.c ****   { 
 272:Drivers/STM32F4xx_StdPeriph_Driver/src/stm32f4xx_tim.c ****     if (TIMx == TIM14) 
 273:Drivers/STM32F4xx_StdPeriph_Driver/src/stm32f4xx_tim.c ****     {     
 274:Drivers/STM32F4xx_StdPeriph_Driver/src/stm32f4xx_tim.c ****       RCC_APB1PeriphResetCmd(RCC_APB1Periph_TIM14, ENABLE);
 275:Drivers/STM32F4xx_StdPeriph_Driver/src/stm32f4xx_tim.c ****       RCC_APB1PeriphResetCmd(RCC_APB1Periph_TIM14, DISABLE); 
 276:Drivers/STM32F4xx_StdPeriph_Driver/src/stm32f4xx_tim.c ****     }   
 277:Drivers/STM32F4xx_StdPeriph_Driver/src/stm32f4xx_tim.c ****   }
 278:Drivers/STM32F4xx_StdPeriph_Driver/src/stm32f4xx_tim.c **** }
  58              		.loc 1 278 1
  59 0020 AFE0     		b	.L16
  60              	.L2:
 210:Drivers/STM32F4xx_StdPeriph_Driver/src/stm32f4xx_tim.c ****   {     
  61              		.loc 1 210 11
  62 0022 7B68     		ldr	r3, [r7, #4]
  63 0024 B3F1804F 		cmp	r3, #1073741824
  64 0028 08D1     		bne	.L4
ARM GAS  C:\Users\Admin\AppData\Local\Temp\ccwOX7Bd.s 			page 7


 212:Drivers/STM32F4xx_StdPeriph_Driver/src/stm32f4xx_tim.c ****     RCC_APB1PeriphResetCmd(RCC_APB1Periph_TIM2, DISABLE);
  65              		.loc 1 212 5
  66 002a 0121     		movs	r1, #1
  67 002c 0120     		movs	r0, #1
  68 002e FFF7FEFF 		bl	RCC_APB1PeriphResetCmd
 213:Drivers/STM32F4xx_StdPeriph_Driver/src/stm32f4xx_tim.c ****   }  
  69              		.loc 1 213 5
  70 0032 0021     		movs	r1, #0
  71 0034 0120     		movs	r0, #1
  72 0036 FFF7FEFF 		bl	RCC_APB1PeriphResetCmd
  73              		.loc 1 278 1
  74 003a A2E0     		b	.L16
  75              	.L4:
 215:Drivers/STM32F4xx_StdPeriph_Driver/src/stm32f4xx_tim.c ****   { 
  76              		.loc 1 215 11
  77 003c 7B68     		ldr	r3, [r7, #4]
  78 003e 544A     		ldr	r2, .L17+4
  79 0040 9342     		cmp	r3, r2
  80 0042 08D1     		bne	.L5
 217:Drivers/STM32F4xx_StdPeriph_Driver/src/stm32f4xx_tim.c ****     RCC_APB1PeriphResetCmd(RCC_APB1Periph_TIM3, DISABLE);
  81              		.loc 1 217 5
  82 0044 0121     		movs	r1, #1
  83 0046 0220     		movs	r0, #2
  84 0048 FFF7FEFF 		bl	RCC_APB1PeriphResetCmd
 218:Drivers/STM32F4xx_StdPeriph_Driver/src/stm32f4xx_tim.c ****   }  
  85              		.loc 1 218 5
  86 004c 0021     		movs	r1, #0
  87 004e 0220     		movs	r0, #2
  88 0050 FFF7FEFF 		bl	RCC_APB1PeriphResetCmd
  89              		.loc 1 278 1
  90 0054 95E0     		b	.L16
  91              	.L5:
 220:Drivers/STM32F4xx_StdPeriph_Driver/src/stm32f4xx_tim.c ****   { 
  92              		.loc 1 220 11
  93 0056 7B68     		ldr	r3, [r7, #4]
  94 0058 4E4A     		ldr	r2, .L17+8
  95 005a 9342     		cmp	r3, r2
  96 005c 08D1     		bne	.L6
 222:Drivers/STM32F4xx_StdPeriph_Driver/src/stm32f4xx_tim.c ****     RCC_APB1PeriphResetCmd(RCC_APB1Periph_TIM4, DISABLE);
  97              		.loc 1 222 5
  98 005e 0121     		movs	r1, #1
  99 0060 0420     		movs	r0, #4
 100 0062 FFF7FEFF 		bl	RCC_APB1PeriphResetCmd
 223:Drivers/STM32F4xx_StdPeriph_Driver/src/stm32f4xx_tim.c ****   }  
 101              		.loc 1 223 5
 102 0066 0021     		movs	r1, #0
 103 0068 0420     		movs	r0, #4
 104 006a FFF7FEFF 		bl	RCC_APB1PeriphResetCmd
 105              		.loc 1 278 1
 106 006e 88E0     		b	.L16
 107              	.L6:
 225:Drivers/STM32F4xx_StdPeriph_Driver/src/stm32f4xx_tim.c ****   {      
 108              		.loc 1 225 11
 109 0070 7B68     		ldr	r3, [r7, #4]
 110 0072 494A     		ldr	r2, .L17+12
 111 0074 9342     		cmp	r3, r2
 112 0076 08D1     		bne	.L7
ARM GAS  C:\Users\Admin\AppData\Local\Temp\ccwOX7Bd.s 			page 8


 227:Drivers/STM32F4xx_StdPeriph_Driver/src/stm32f4xx_tim.c ****     RCC_APB1PeriphResetCmd(RCC_APB1Periph_TIM5, DISABLE);
 113              		.loc 1 227 5
 114 0078 0121     		movs	r1, #1
 115 007a 0820     		movs	r0, #8
 116 007c FFF7FEFF 		bl	RCC_APB1PeriphResetCmd
 228:Drivers/STM32F4xx_StdPeriph_Driver/src/stm32f4xx_tim.c ****   }  
 117              		.loc 1 228 5
 118 0080 0021     		movs	r1, #0
 119 0082 0820     		movs	r0, #8
 120 0084 FFF7FEFF 		bl	RCC_APB1PeriphResetCmd
 121              		.loc 1 278 1
 122 0088 7BE0     		b	.L16
 123              	.L7:
 230:Drivers/STM32F4xx_StdPeriph_Driver/src/stm32f4xx_tim.c ****   {    
 124              		.loc 1 230 11
 125 008a 7B68     		ldr	r3, [r7, #4]
 126 008c 434A     		ldr	r2, .L17+16
 127 008e 9342     		cmp	r3, r2
 128 0090 08D1     		bne	.L8
 232:Drivers/STM32F4xx_StdPeriph_Driver/src/stm32f4xx_tim.c ****     RCC_APB1PeriphResetCmd(RCC_APB1Periph_TIM6, DISABLE);
 129              		.loc 1 232 5
 130 0092 0121     		movs	r1, #1
 131 0094 1020     		movs	r0, #16
 132 0096 FFF7FEFF 		bl	RCC_APB1PeriphResetCmd
 233:Drivers/STM32F4xx_StdPeriph_Driver/src/stm32f4xx_tim.c ****   }  
 133              		.loc 1 233 5
 134 009a 0021     		movs	r1, #0
 135 009c 1020     		movs	r0, #16
 136 009e FFF7FEFF 		bl	RCC_APB1PeriphResetCmd
 137              		.loc 1 278 1
 138 00a2 6EE0     		b	.L16
 139              	.L8:
 235:Drivers/STM32F4xx_StdPeriph_Driver/src/stm32f4xx_tim.c ****   {      
 140              		.loc 1 235 11
 141 00a4 7B68     		ldr	r3, [r7, #4]
 142 00a6 3E4A     		ldr	r2, .L17+20
 143 00a8 9342     		cmp	r3, r2
 144 00aa 08D1     		bne	.L9
 237:Drivers/STM32F4xx_StdPeriph_Driver/src/stm32f4xx_tim.c ****     RCC_APB1PeriphResetCmd(RCC_APB1Periph_TIM7, DISABLE);
 145              		.loc 1 237 5
 146 00ac 0121     		movs	r1, #1
 147 00ae 2020     		movs	r0, #32
 148 00b0 FFF7FEFF 		bl	RCC_APB1PeriphResetCmd
 238:Drivers/STM32F4xx_StdPeriph_Driver/src/stm32f4xx_tim.c ****   }  
 149              		.loc 1 238 5
 150 00b4 0021     		movs	r1, #0
 151 00b6 2020     		movs	r0, #32
 152 00b8 FFF7FEFF 		bl	RCC_APB1PeriphResetCmd
 153              		.loc 1 278 1
 154 00bc 61E0     		b	.L16
 155              	.L9:
 240:Drivers/STM32F4xx_StdPeriph_Driver/src/stm32f4xx_tim.c ****   {      
 156              		.loc 1 240 11
 157 00be 7B68     		ldr	r3, [r7, #4]
 158 00c0 384A     		ldr	r2, .L17+24
 159 00c2 9342     		cmp	r3, r2
 160 00c4 08D1     		bne	.L10
ARM GAS  C:\Users\Admin\AppData\Local\Temp\ccwOX7Bd.s 			page 9


 242:Drivers/STM32F4xx_StdPeriph_Driver/src/stm32f4xx_tim.c ****     RCC_APB2PeriphResetCmd(RCC_APB2Periph_TIM8, DISABLE);  
 161              		.loc 1 242 5
 162 00c6 0121     		movs	r1, #1
 163 00c8 0220     		movs	r0, #2
 164 00ca FFF7FEFF 		bl	RCC_APB2PeriphResetCmd
 243:Drivers/STM32F4xx_StdPeriph_Driver/src/stm32f4xx_tim.c ****   }  
 165              		.loc 1 243 5
 166 00ce 0021     		movs	r1, #0
 167 00d0 0220     		movs	r0, #2
 168 00d2 FFF7FEFF 		bl	RCC_APB2PeriphResetCmd
 169              		.loc 1 278 1
 170 00d6 54E0     		b	.L16
 171              	.L10:
 245:Drivers/STM32F4xx_StdPeriph_Driver/src/stm32f4xx_tim.c ****   {      
 172              		.loc 1 245 11
 173 00d8 7B68     		ldr	r3, [r7, #4]
 174 00da 334A     		ldr	r2, .L17+28
 175 00dc 9342     		cmp	r3, r2
 176 00de 0AD1     		bne	.L11
 247:Drivers/STM32F4xx_StdPeriph_Driver/src/stm32f4xx_tim.c ****     RCC_APB2PeriphResetCmd(RCC_APB2Periph_TIM9, DISABLE);  
 177              		.loc 1 247 5
 178 00e0 0121     		movs	r1, #1
 179 00e2 4FF48030 		mov	r0, #65536
 180 00e6 FFF7FEFF 		bl	RCC_APB2PeriphResetCmd
 248:Drivers/STM32F4xx_StdPeriph_Driver/src/stm32f4xx_tim.c ****    }  
 181              		.loc 1 248 5
 182 00ea 0021     		movs	r1, #0
 183 00ec 4FF48030 		mov	r0, #65536
 184 00f0 FFF7FEFF 		bl	RCC_APB2PeriphResetCmd
 185              		.loc 1 278 1
 186 00f4 45E0     		b	.L16
 187              	.L11:
 250:Drivers/STM32F4xx_StdPeriph_Driver/src/stm32f4xx_tim.c ****   {      
 188              		.loc 1 250 11
 189 00f6 7B68     		ldr	r3, [r7, #4]
 190 00f8 2C4A     		ldr	r2, .L17+32
 191 00fa 9342     		cmp	r3, r2
 192 00fc 0AD1     		bne	.L12
 252:Drivers/STM32F4xx_StdPeriph_Driver/src/stm32f4xx_tim.c ****     RCC_APB2PeriphResetCmd(RCC_APB2Periph_TIM10, DISABLE);  
 193              		.loc 1 252 5
 194 00fe 0121     		movs	r1, #1
 195 0100 4FF40030 		mov	r0, #131072
 196 0104 FFF7FEFF 		bl	RCC_APB2PeriphResetCmd
 253:Drivers/STM32F4xx_StdPeriph_Driver/src/stm32f4xx_tim.c ****   }  
 197              		.loc 1 253 5
 198 0108 0021     		movs	r1, #0
 199 010a 4FF40030 		mov	r0, #131072
 200 010e FFF7FEFF 		bl	RCC_APB2PeriphResetCmd
 201              		.loc 1 278 1
 202 0112 36E0     		b	.L16
 203              	.L12:
 255:Drivers/STM32F4xx_StdPeriph_Driver/src/stm32f4xx_tim.c ****   {     
 204              		.loc 1 255 11
 205 0114 7B68     		ldr	r3, [r7, #4]
 206 0116 264A     		ldr	r2, .L17+36
 207 0118 9342     		cmp	r3, r2
 208 011a 0AD1     		bne	.L13
ARM GAS  C:\Users\Admin\AppData\Local\Temp\ccwOX7Bd.s 			page 10


 257:Drivers/STM32F4xx_StdPeriph_Driver/src/stm32f4xx_tim.c ****     RCC_APB2PeriphResetCmd(RCC_APB2Periph_TIM11, DISABLE);  
 209              		.loc 1 257 5
 210 011c 0121     		movs	r1, #1
 211 011e 4FF48020 		mov	r0, #262144
 212 0122 FFF7FEFF 		bl	RCC_APB2PeriphResetCmd
 258:Drivers/STM32F4xx_StdPeriph_Driver/src/stm32f4xx_tim.c ****   }  
 213              		.loc 1 258 5
 214 0126 0021     		movs	r1, #0
 215 0128 4FF48020 		mov	r0, #262144
 216 012c FFF7FEFF 		bl	RCC_APB2PeriphResetCmd
 217              		.loc 1 278 1
 218 0130 27E0     		b	.L16
 219              	.L13:
 260:Drivers/STM32F4xx_StdPeriph_Driver/src/stm32f4xx_tim.c ****   {      
 220              		.loc 1 260 11
 221 0132 7B68     		ldr	r3, [r7, #4]
 222 0134 1F4A     		ldr	r2, .L17+40
 223 0136 9342     		cmp	r3, r2
 224 0138 08D1     		bne	.L14
 262:Drivers/STM32F4xx_StdPeriph_Driver/src/stm32f4xx_tim.c ****     RCC_APB1PeriphResetCmd(RCC_APB1Periph_TIM12, DISABLE);  
 225              		.loc 1 262 5
 226 013a 0121     		movs	r1, #1
 227 013c 4020     		movs	r0, #64
 228 013e FFF7FEFF 		bl	RCC_APB1PeriphResetCmd
 263:Drivers/STM32F4xx_StdPeriph_Driver/src/stm32f4xx_tim.c ****   }  
 229              		.loc 1 263 5
 230 0142 0021     		movs	r1, #0
 231 0144 4020     		movs	r0, #64
 232 0146 FFF7FEFF 		bl	RCC_APB1PeriphResetCmd
 233              		.loc 1 278 1
 234 014a 1AE0     		b	.L16
 235              	.L14:
 265:Drivers/STM32F4xx_StdPeriph_Driver/src/stm32f4xx_tim.c ****   {       
 236              		.loc 1 265 11
 237 014c 7B68     		ldr	r3, [r7, #4]
 238 014e 1A4A     		ldr	r2, .L17+44
 239 0150 9342     		cmp	r3, r2
 240 0152 08D1     		bne	.L15
 267:Drivers/STM32F4xx_StdPeriph_Driver/src/stm32f4xx_tim.c ****     RCC_APB1PeriphResetCmd(RCC_APB1Periph_TIM13, DISABLE);  
 241              		.loc 1 267 5
 242 0154 0121     		movs	r1, #1
 243 0156 8020     		movs	r0, #128
 244 0158 FFF7FEFF 		bl	RCC_APB1PeriphResetCmd
 268:Drivers/STM32F4xx_StdPeriph_Driver/src/stm32f4xx_tim.c ****   }  
 245              		.loc 1 268 5
 246 015c 0021     		movs	r1, #0
 247 015e 8020     		movs	r0, #128
 248 0160 FFF7FEFF 		bl	RCC_APB1PeriphResetCmd
 249              		.loc 1 278 1
 250 0164 0DE0     		b	.L16
 251              	.L15:
 272:Drivers/STM32F4xx_StdPeriph_Driver/src/stm32f4xx_tim.c ****     {     
 252              		.loc 1 272 8
 253 0166 7B68     		ldr	r3, [r7, #4]
 254 0168 144A     		ldr	r2, .L17+48
 255 016a 9342     		cmp	r3, r2
 256 016c 09D1     		bne	.L16
ARM GAS  C:\Users\Admin\AppData\Local\Temp\ccwOX7Bd.s 			page 11


 274:Drivers/STM32F4xx_StdPeriph_Driver/src/stm32f4xx_tim.c ****       RCC_APB1PeriphResetCmd(RCC_APB1Periph_TIM14, DISABLE); 
 257              		.loc 1 274 7
 258 016e 0121     		movs	r1, #1
 259 0170 4FF48070 		mov	r0, #256
 260 0174 FFF7FEFF 		bl	RCC_APB1PeriphResetCmd
 275:Drivers/STM32F4xx_StdPeriph_Driver/src/stm32f4xx_tim.c ****     }   
 261              		.loc 1 275 7
 262 0178 0021     		movs	r1, #0
 263 017a 4FF48070 		mov	r0, #256
 264 017e FFF7FEFF 		bl	RCC_APB1PeriphResetCmd
 265              	.L16:
 266              		.loc 1 278 1
 267 0182 00BF     		nop
 268 0184 0837     		adds	r7, r7, #8
 269              	.LCFI3:
 270              		.cfi_def_cfa_offset 8
 271 0186 BD46     		mov	sp, r7
 272              	.LCFI4:
 273              		.cfi_def_cfa_register 13
 274              		@ sp needed
 275 0188 80BD     		pop	{r7, pc}
 276              	.L18:
 277 018a 00BF     		.align	2
 278              	.L17:
 279 018c 00000140 		.word	1073807360
 280 0190 00040040 		.word	1073742848
 281 0194 00080040 		.word	1073743872
 282 0198 000C0040 		.word	1073744896
 283 019c 00100040 		.word	1073745920
 284 01a0 00140040 		.word	1073746944
 285 01a4 00040140 		.word	1073808384
 286 01a8 00400140 		.word	1073823744
 287 01ac 00440140 		.word	1073824768
 288 01b0 00480140 		.word	1073825792
 289 01b4 00180040 		.word	1073747968
 290 01b8 001C0040 		.word	1073748992
 291 01bc 00200040 		.word	1073750016
 292              		.cfi_endproc
 293              	.LFE130:
 295              		.section	.text.TIM_TimeBaseInit,"ax",%progbits
 296              		.align	1
 297              		.global	TIM_TimeBaseInit
 298              		.syntax unified
 299              		.thumb
 300              		.thumb_func
 302              	TIM_TimeBaseInit:
 303              	.LFB131:
 279:Drivers/STM32F4xx_StdPeriph_Driver/src/stm32f4xx_tim.c **** 
 280:Drivers/STM32F4xx_StdPeriph_Driver/src/stm32f4xx_tim.c **** /**
 281:Drivers/STM32F4xx_StdPeriph_Driver/src/stm32f4xx_tim.c ****   * @brief  Initializes the TIMx Time Base Unit peripheral according to 
 282:Drivers/STM32F4xx_StdPeriph_Driver/src/stm32f4xx_tim.c ****   *         the specified parameters in the TIM_TimeBaseInitStruct.
 283:Drivers/STM32F4xx_StdPeriph_Driver/src/stm32f4xx_tim.c ****   * @param  TIMx: where x can be  1 to 14 to select the TIM peripheral.
 284:Drivers/STM32F4xx_StdPeriph_Driver/src/stm32f4xx_tim.c ****   * @param  TIM_TimeBaseInitStruct: pointer to a TIM_TimeBaseInitTypeDef structure
 285:Drivers/STM32F4xx_StdPeriph_Driver/src/stm32f4xx_tim.c ****   *         that contains the configuration information for the specified TIM peripheral.
 286:Drivers/STM32F4xx_StdPeriph_Driver/src/stm32f4xx_tim.c ****   * @retval None
 287:Drivers/STM32F4xx_StdPeriph_Driver/src/stm32f4xx_tim.c ****   */
 288:Drivers/STM32F4xx_StdPeriph_Driver/src/stm32f4xx_tim.c **** void TIM_TimeBaseInit(TIM_TypeDef* TIMx, TIM_TimeBaseInitTypeDef* TIM_TimeBaseInitStruct)
ARM GAS  C:\Users\Admin\AppData\Local\Temp\ccwOX7Bd.s 			page 12


 289:Drivers/STM32F4xx_StdPeriph_Driver/src/stm32f4xx_tim.c **** {
 304              		.loc 1 289 1
 305              		.cfi_startproc
 306              		@ args = 0, pretend = 0, frame = 16
 307              		@ frame_needed = 1, uses_anonymous_args = 0
 308              		@ link register save eliminated.
 309 0000 80B4     		push	{r7}
 310              	.LCFI5:
 311              		.cfi_def_cfa_offset 4
 312              		.cfi_offset 7, -4
 313 0002 85B0     		sub	sp, sp, #20
 314              	.LCFI6:
 315              		.cfi_def_cfa_offset 24
 316 0004 00AF     		add	r7, sp, #0
 317              	.LCFI7:
 318              		.cfi_def_cfa_register 7
 319 0006 7860     		str	r0, [r7, #4]
 320 0008 3960     		str	r1, [r7]
 290:Drivers/STM32F4xx_StdPeriph_Driver/src/stm32f4xx_tim.c ****   uint16_t tmpcr1 = 0;
 321              		.loc 1 290 12
 322 000a 0023     		movs	r3, #0
 323 000c FB81     		strh	r3, [r7, #14]	@ movhi
 291:Drivers/STM32F4xx_StdPeriph_Driver/src/stm32f4xx_tim.c **** 
 292:Drivers/STM32F4xx_StdPeriph_Driver/src/stm32f4xx_tim.c ****   /* Check the parameters */
 293:Drivers/STM32F4xx_StdPeriph_Driver/src/stm32f4xx_tim.c ****   assert_param(IS_TIM_ALL_PERIPH(TIMx)); 
 294:Drivers/STM32F4xx_StdPeriph_Driver/src/stm32f4xx_tim.c ****   assert_param(IS_TIM_COUNTER_MODE(TIM_TimeBaseInitStruct->TIM_CounterMode));
 295:Drivers/STM32F4xx_StdPeriph_Driver/src/stm32f4xx_tim.c ****   assert_param(IS_TIM_CKD_DIV(TIM_TimeBaseInitStruct->TIM_ClockDivision));
 296:Drivers/STM32F4xx_StdPeriph_Driver/src/stm32f4xx_tim.c **** 
 297:Drivers/STM32F4xx_StdPeriph_Driver/src/stm32f4xx_tim.c ****   tmpcr1 = TIMx->CR1;  
 324              		.loc 1 297 10
 325 000e 7B68     		ldr	r3, [r7, #4]
 326 0010 1B88     		ldrh	r3, [r3]	@ movhi
 327 0012 FB81     		strh	r3, [r7, #14]	@ movhi
 298:Drivers/STM32F4xx_StdPeriph_Driver/src/stm32f4xx_tim.c **** 
 299:Drivers/STM32F4xx_StdPeriph_Driver/src/stm32f4xx_tim.c ****   if((TIMx == TIM1) || (TIMx == TIM8)||
 328              		.loc 1 299 5
 329 0014 7B68     		ldr	r3, [r7, #4]
 330 0016 294A     		ldr	r2, .L25
 331 0018 9342     		cmp	r3, r2
 332 001a 13D0     		beq	.L20
 333              		.loc 1 299 21 discriminator 1
 334 001c 7B68     		ldr	r3, [r7, #4]
 335 001e 284A     		ldr	r2, .L25+4
 336 0020 9342     		cmp	r3, r2
 337 0022 0FD0     		beq	.L20
 338              		.loc 1 299 38 discriminator 2
 339 0024 7B68     		ldr	r3, [r7, #4]
 340 0026 B3F1804F 		cmp	r3, #1073741824
 341 002a 0BD0     		beq	.L20
 300:Drivers/STM32F4xx_StdPeriph_Driver/src/stm32f4xx_tim.c ****      (TIMx == TIM2) || (TIMx == TIM3)||
 342              		.loc 1 300 21
 343 002c 7B68     		ldr	r3, [r7, #4]
 344 002e 254A     		ldr	r2, .L25+8
 345 0030 9342     		cmp	r3, r2
 346 0032 07D0     		beq	.L20
 347              		.loc 1 300 38 discriminator 1
 348 0034 7B68     		ldr	r3, [r7, #4]
ARM GAS  C:\Users\Admin\AppData\Local\Temp\ccwOX7Bd.s 			page 13


 349 0036 244A     		ldr	r2, .L25+12
 350 0038 9342     		cmp	r3, r2
 351 003a 03D0     		beq	.L20
 301:Drivers/STM32F4xx_StdPeriph_Driver/src/stm32f4xx_tim.c ****      (TIMx == TIM4) || (TIMx == TIM5)) 
 352              		.loc 1 301 21
 353 003c 7B68     		ldr	r3, [r7, #4]
 354 003e 234A     		ldr	r2, .L25+16
 355 0040 9342     		cmp	r3, r2
 356 0042 08D1     		bne	.L21
 357              	.L20:
 302:Drivers/STM32F4xx_StdPeriph_Driver/src/stm32f4xx_tim.c ****   {
 303:Drivers/STM32F4xx_StdPeriph_Driver/src/stm32f4xx_tim.c ****     /* Select the Counter Mode */
 304:Drivers/STM32F4xx_StdPeriph_Driver/src/stm32f4xx_tim.c ****     tmpcr1 &= (uint16_t)(~(TIM_CR1_DIR | TIM_CR1_CMS));
 358              		.loc 1 304 12
 359 0044 FB89     		ldrh	r3, [r7, #14]	@ movhi
 360 0046 23F07003 		bic	r3, r3, #112
 361 004a FB81     		strh	r3, [r7, #14]	@ movhi
 305:Drivers/STM32F4xx_StdPeriph_Driver/src/stm32f4xx_tim.c ****     tmpcr1 |= (uint32_t)TIM_TimeBaseInitStruct->TIM_CounterMode;
 362              		.loc 1 305 47
 363 004c 3B68     		ldr	r3, [r7]
 364 004e 5A88     		ldrh	r2, [r3, #2]
 365              		.loc 1 305 12
 366 0050 FB89     		ldrh	r3, [r7, #14]	@ movhi
 367 0052 1343     		orrs	r3, r3, r2
 368 0054 FB81     		strh	r3, [r7, #14]	@ movhi
 369              	.L21:
 306:Drivers/STM32F4xx_StdPeriph_Driver/src/stm32f4xx_tim.c ****   }
 307:Drivers/STM32F4xx_StdPeriph_Driver/src/stm32f4xx_tim.c ****  
 308:Drivers/STM32F4xx_StdPeriph_Driver/src/stm32f4xx_tim.c ****   if((TIMx != TIM6) && (TIMx != TIM7))
 370              		.loc 1 308 5
 371 0056 7B68     		ldr	r3, [r7, #4]
 372 0058 1D4A     		ldr	r2, .L25+20
 373 005a 9342     		cmp	r3, r2
 374 005c 0CD0     		beq	.L22
 375              		.loc 1 308 21 discriminator 1
 376 005e 7B68     		ldr	r3, [r7, #4]
 377 0060 1C4A     		ldr	r2, .L25+24
 378 0062 9342     		cmp	r3, r2
 379 0064 08D0     		beq	.L22
 309:Drivers/STM32F4xx_StdPeriph_Driver/src/stm32f4xx_tim.c ****   {
 310:Drivers/STM32F4xx_StdPeriph_Driver/src/stm32f4xx_tim.c ****     /* Set the clock division */
 311:Drivers/STM32F4xx_StdPeriph_Driver/src/stm32f4xx_tim.c ****     tmpcr1 &=  (uint16_t)(~TIM_CR1_CKD);
 380              		.loc 1 311 12
 381 0066 FB89     		ldrh	r3, [r7, #14]	@ movhi
 382 0068 23F44073 		bic	r3, r3, #768
 383 006c FB81     		strh	r3, [r7, #14]	@ movhi
 312:Drivers/STM32F4xx_StdPeriph_Driver/src/stm32f4xx_tim.c ****     tmpcr1 |= (uint32_t)TIM_TimeBaseInitStruct->TIM_ClockDivision;
 384              		.loc 1 312 47
 385 006e 3B68     		ldr	r3, [r7]
 386 0070 1A89     		ldrh	r2, [r3, #8]
 387              		.loc 1 312 12
 388 0072 FB89     		ldrh	r3, [r7, #14]	@ movhi
 389 0074 1343     		orrs	r3, r3, r2
 390 0076 FB81     		strh	r3, [r7, #14]	@ movhi
 391              	.L22:
 313:Drivers/STM32F4xx_StdPeriph_Driver/src/stm32f4xx_tim.c ****   }
 314:Drivers/STM32F4xx_StdPeriph_Driver/src/stm32f4xx_tim.c **** 
ARM GAS  C:\Users\Admin\AppData\Local\Temp\ccwOX7Bd.s 			page 14


 315:Drivers/STM32F4xx_StdPeriph_Driver/src/stm32f4xx_tim.c ****   TIMx->CR1 = tmpcr1;
 392              		.loc 1 315 13
 393 0078 7B68     		ldr	r3, [r7, #4]
 394 007a FA89     		ldrh	r2, [r7, #14]	@ movhi
 395 007c 1A80     		strh	r2, [r3]	@ movhi
 316:Drivers/STM32F4xx_StdPeriph_Driver/src/stm32f4xx_tim.c **** 
 317:Drivers/STM32F4xx_StdPeriph_Driver/src/stm32f4xx_tim.c ****   /* Set the Autoreload value */
 318:Drivers/STM32F4xx_StdPeriph_Driver/src/stm32f4xx_tim.c ****   TIMx->ARR = TIM_TimeBaseInitStruct->TIM_Period ;
 396              		.loc 1 318 37
 397 007e 3B68     		ldr	r3, [r7]
 398 0080 5A68     		ldr	r2, [r3, #4]
 399              		.loc 1 318 13
 400 0082 7B68     		ldr	r3, [r7, #4]
 401 0084 DA62     		str	r2, [r3, #44]
 319:Drivers/STM32F4xx_StdPeriph_Driver/src/stm32f4xx_tim.c ****  
 320:Drivers/STM32F4xx_StdPeriph_Driver/src/stm32f4xx_tim.c ****   /* Set the Prescaler value */
 321:Drivers/STM32F4xx_StdPeriph_Driver/src/stm32f4xx_tim.c ****   TIMx->PSC = TIM_TimeBaseInitStruct->TIM_Prescaler;
 402              		.loc 1 321 37
 403 0086 3B68     		ldr	r3, [r7]
 404 0088 1A88     		ldrh	r2, [r3]
 405              		.loc 1 321 13
 406 008a 7B68     		ldr	r3, [r7, #4]
 407 008c 1A85     		strh	r2, [r3, #40]	@ movhi
 322:Drivers/STM32F4xx_StdPeriph_Driver/src/stm32f4xx_tim.c ****     
 323:Drivers/STM32F4xx_StdPeriph_Driver/src/stm32f4xx_tim.c ****   if ((TIMx == TIM1) || (TIMx == TIM8))  
 408              		.loc 1 323 6
 409 008e 7B68     		ldr	r3, [r7, #4]
 410 0090 0A4A     		ldr	r2, .L25
 411 0092 9342     		cmp	r3, r2
 412 0094 03D0     		beq	.L23
 413              		.loc 1 323 22 discriminator 1
 414 0096 7B68     		ldr	r3, [r7, #4]
 415 0098 094A     		ldr	r2, .L25+4
 416 009a 9342     		cmp	r3, r2
 417 009c 04D1     		bne	.L24
 418              	.L23:
 324:Drivers/STM32F4xx_StdPeriph_Driver/src/stm32f4xx_tim.c ****   {
 325:Drivers/STM32F4xx_StdPeriph_Driver/src/stm32f4xx_tim.c ****     /* Set the Repetition Counter value */
 326:Drivers/STM32F4xx_StdPeriph_Driver/src/stm32f4xx_tim.c ****     TIMx->RCR = TIM_TimeBaseInitStruct->TIM_RepetitionCounter;
 419              		.loc 1 326 39
 420 009e 3B68     		ldr	r3, [r7]
 421 00a0 9B7A     		ldrb	r3, [r3, #10]	@ zero_extendqisi2
 422 00a2 9AB2     		uxth	r2, r3
 423              		.loc 1 326 15
 424 00a4 7B68     		ldr	r3, [r7, #4]
 425 00a6 1A86     		strh	r2, [r3, #48]	@ movhi
 426              	.L24:
 327:Drivers/STM32F4xx_StdPeriph_Driver/src/stm32f4xx_tim.c ****   }
 328:Drivers/STM32F4xx_StdPeriph_Driver/src/stm32f4xx_tim.c **** 
 329:Drivers/STM32F4xx_StdPeriph_Driver/src/stm32f4xx_tim.c ****   /* Generate an update event to reload the Prescaler 
 330:Drivers/STM32F4xx_StdPeriph_Driver/src/stm32f4xx_tim.c ****      and the repetition counter(only for TIM1 and TIM8) value immediately */
 331:Drivers/STM32F4xx_StdPeriph_Driver/src/stm32f4xx_tim.c ****   TIMx->EGR = TIM_PSCReloadMode_Immediate;          
 427              		.loc 1 331 13
 428 00a8 7B68     		ldr	r3, [r7, #4]
 429 00aa 0122     		movs	r2, #1
 430 00ac 9A82     		strh	r2, [r3, #20]	@ movhi
 332:Drivers/STM32F4xx_StdPeriph_Driver/src/stm32f4xx_tim.c **** }
ARM GAS  C:\Users\Admin\AppData\Local\Temp\ccwOX7Bd.s 			page 15


 431              		.loc 1 332 1
 432 00ae 00BF     		nop
 433 00b0 1437     		adds	r7, r7, #20
 434              	.LCFI8:
 435              		.cfi_def_cfa_offset 4
 436 00b2 BD46     		mov	sp, r7
 437              	.LCFI9:
 438              		.cfi_def_cfa_register 13
 439              		@ sp needed
 440 00b4 5DF8047B 		ldr	r7, [sp], #4
 441              	.LCFI10:
 442              		.cfi_restore 7
 443              		.cfi_def_cfa_offset 0
 444 00b8 7047     		bx	lr
 445              	.L26:
 446 00ba 00BF     		.align	2
 447              	.L25:
 448 00bc 00000140 		.word	1073807360
 449 00c0 00040140 		.word	1073808384
 450 00c4 00040040 		.word	1073742848
 451 00c8 00080040 		.word	1073743872
 452 00cc 000C0040 		.word	1073744896
 453 00d0 00100040 		.word	1073745920
 454 00d4 00140040 		.word	1073746944
 455              		.cfi_endproc
 456              	.LFE131:
 458              		.section	.text.TIM_TimeBaseStructInit,"ax",%progbits
 459              		.align	1
 460              		.global	TIM_TimeBaseStructInit
 461              		.syntax unified
 462              		.thumb
 463              		.thumb_func
 465              	TIM_TimeBaseStructInit:
 466              	.LFB132:
 333:Drivers/STM32F4xx_StdPeriph_Driver/src/stm32f4xx_tim.c **** 
 334:Drivers/STM32F4xx_StdPeriph_Driver/src/stm32f4xx_tim.c **** /**
 335:Drivers/STM32F4xx_StdPeriph_Driver/src/stm32f4xx_tim.c ****   * @brief  Fills each TIM_TimeBaseInitStruct member with its default value.
 336:Drivers/STM32F4xx_StdPeriph_Driver/src/stm32f4xx_tim.c ****   * @param  TIM_TimeBaseInitStruct : pointer to a TIM_TimeBaseInitTypeDef
 337:Drivers/STM32F4xx_StdPeriph_Driver/src/stm32f4xx_tim.c ****   *         structure which will be initialized.
 338:Drivers/STM32F4xx_StdPeriph_Driver/src/stm32f4xx_tim.c ****   * @retval None
 339:Drivers/STM32F4xx_StdPeriph_Driver/src/stm32f4xx_tim.c ****   */
 340:Drivers/STM32F4xx_StdPeriph_Driver/src/stm32f4xx_tim.c **** void TIM_TimeBaseStructInit(TIM_TimeBaseInitTypeDef* TIM_TimeBaseInitStruct)
 341:Drivers/STM32F4xx_StdPeriph_Driver/src/stm32f4xx_tim.c **** {
 467              		.loc 1 341 1
 468              		.cfi_startproc
 469              		@ args = 0, pretend = 0, frame = 8
 470              		@ frame_needed = 1, uses_anonymous_args = 0
 471              		@ link register save eliminated.
 472 0000 80B4     		push	{r7}
 473              	.LCFI11:
 474              		.cfi_def_cfa_offset 4
 475              		.cfi_offset 7, -4
 476 0002 83B0     		sub	sp, sp, #12
 477              	.LCFI12:
 478              		.cfi_def_cfa_offset 16
 479 0004 00AF     		add	r7, sp, #0
 480              	.LCFI13:
ARM GAS  C:\Users\Admin\AppData\Local\Temp\ccwOX7Bd.s 			page 16


 481              		.cfi_def_cfa_register 7
 482 0006 7860     		str	r0, [r7, #4]
 342:Drivers/STM32F4xx_StdPeriph_Driver/src/stm32f4xx_tim.c ****   /* Set the default configuration */
 343:Drivers/STM32F4xx_StdPeriph_Driver/src/stm32f4xx_tim.c ****   TIM_TimeBaseInitStruct->TIM_Period = 0xFFFFFFFF;
 483              		.loc 1 343 38
 484 0008 7B68     		ldr	r3, [r7, #4]
 485 000a 4FF0FF32 		mov	r2, #-1
 486 000e 5A60     		str	r2, [r3, #4]
 344:Drivers/STM32F4xx_StdPeriph_Driver/src/stm32f4xx_tim.c ****   TIM_TimeBaseInitStruct->TIM_Prescaler = 0x0000;
 487              		.loc 1 344 41
 488 0010 7B68     		ldr	r3, [r7, #4]
 489 0012 0022     		movs	r2, #0
 490 0014 1A80     		strh	r2, [r3]	@ movhi
 345:Drivers/STM32F4xx_StdPeriph_Driver/src/stm32f4xx_tim.c ****   TIM_TimeBaseInitStruct->TIM_ClockDivision = TIM_CKD_DIV1;
 491              		.loc 1 345 45
 492 0016 7B68     		ldr	r3, [r7, #4]
 493 0018 0022     		movs	r2, #0
 494 001a 1A81     		strh	r2, [r3, #8]	@ movhi
 346:Drivers/STM32F4xx_StdPeriph_Driver/src/stm32f4xx_tim.c ****   TIM_TimeBaseInitStruct->TIM_CounterMode = TIM_CounterMode_Up;
 495              		.loc 1 346 43
 496 001c 7B68     		ldr	r3, [r7, #4]
 497 001e 0022     		movs	r2, #0
 498 0020 5A80     		strh	r2, [r3, #2]	@ movhi
 347:Drivers/STM32F4xx_StdPeriph_Driver/src/stm32f4xx_tim.c ****   TIM_TimeBaseInitStruct->TIM_RepetitionCounter = 0x0000;
 499              		.loc 1 347 49
 500 0022 7B68     		ldr	r3, [r7, #4]
 501 0024 0022     		movs	r2, #0
 502 0026 9A72     		strb	r2, [r3, #10]
 348:Drivers/STM32F4xx_StdPeriph_Driver/src/stm32f4xx_tim.c **** }
 503              		.loc 1 348 1
 504 0028 00BF     		nop
 505 002a 0C37     		adds	r7, r7, #12
 506              	.LCFI14:
 507              		.cfi_def_cfa_offset 4
 508 002c BD46     		mov	sp, r7
 509              	.LCFI15:
 510              		.cfi_def_cfa_register 13
 511              		@ sp needed
 512 002e 5DF8047B 		ldr	r7, [sp], #4
 513              	.LCFI16:
 514              		.cfi_restore 7
 515              		.cfi_def_cfa_offset 0
 516 0032 7047     		bx	lr
 517              		.cfi_endproc
 518              	.LFE132:
 520              		.section	.text.TIM_PrescalerConfig,"ax",%progbits
 521              		.align	1
 522              		.global	TIM_PrescalerConfig
 523              		.syntax unified
 524              		.thumb
 525              		.thumb_func
 527              	TIM_PrescalerConfig:
 528              	.LFB133:
 349:Drivers/STM32F4xx_StdPeriph_Driver/src/stm32f4xx_tim.c **** 
 350:Drivers/STM32F4xx_StdPeriph_Driver/src/stm32f4xx_tim.c **** /**
 351:Drivers/STM32F4xx_StdPeriph_Driver/src/stm32f4xx_tim.c ****   * @brief  Configures the TIMx Prescaler.
 352:Drivers/STM32F4xx_StdPeriph_Driver/src/stm32f4xx_tim.c ****   * @param  TIMx: where x can be  1 to 14 to select the TIM peripheral.
ARM GAS  C:\Users\Admin\AppData\Local\Temp\ccwOX7Bd.s 			page 17


 353:Drivers/STM32F4xx_StdPeriph_Driver/src/stm32f4xx_tim.c ****   * @param  Prescaler: specifies the Prescaler Register value
 354:Drivers/STM32F4xx_StdPeriph_Driver/src/stm32f4xx_tim.c ****   * @param  TIM_PSCReloadMode: specifies the TIM Prescaler Reload mode
 355:Drivers/STM32F4xx_StdPeriph_Driver/src/stm32f4xx_tim.c ****   *          This parameter can be one of the following values:
 356:Drivers/STM32F4xx_StdPeriph_Driver/src/stm32f4xx_tim.c ****   *            @arg TIM_PSCReloadMode_Update: The Prescaler is loaded at the update event.
 357:Drivers/STM32F4xx_StdPeriph_Driver/src/stm32f4xx_tim.c ****   *            @arg TIM_PSCReloadMode_Immediate: The Prescaler is loaded immediately.
 358:Drivers/STM32F4xx_StdPeriph_Driver/src/stm32f4xx_tim.c ****   * @retval None
 359:Drivers/STM32F4xx_StdPeriph_Driver/src/stm32f4xx_tim.c ****   */
 360:Drivers/STM32F4xx_StdPeriph_Driver/src/stm32f4xx_tim.c **** void TIM_PrescalerConfig(TIM_TypeDef* TIMx, uint16_t Prescaler, uint16_t TIM_PSCReloadMode)
 361:Drivers/STM32F4xx_StdPeriph_Driver/src/stm32f4xx_tim.c **** {
 529              		.loc 1 361 1
 530              		.cfi_startproc
 531              		@ args = 0, pretend = 0, frame = 8
 532              		@ frame_needed = 1, uses_anonymous_args = 0
 533              		@ link register save eliminated.
 534 0000 80B4     		push	{r7}
 535              	.LCFI17:
 536              		.cfi_def_cfa_offset 4
 537              		.cfi_offset 7, -4
 538 0002 83B0     		sub	sp, sp, #12
 539              	.LCFI18:
 540              		.cfi_def_cfa_offset 16
 541 0004 00AF     		add	r7, sp, #0
 542              	.LCFI19:
 543              		.cfi_def_cfa_register 7
 544 0006 7860     		str	r0, [r7, #4]
 545 0008 0B46     		mov	r3, r1
 546 000a 7B80     		strh	r3, [r7, #2]	@ movhi
 547 000c 1346     		mov	r3, r2	@ movhi
 548 000e 3B80     		strh	r3, [r7]	@ movhi
 362:Drivers/STM32F4xx_StdPeriph_Driver/src/stm32f4xx_tim.c ****   /* Check the parameters */
 363:Drivers/STM32F4xx_StdPeriph_Driver/src/stm32f4xx_tim.c ****   assert_param(IS_TIM_ALL_PERIPH(TIMx));
 364:Drivers/STM32F4xx_StdPeriph_Driver/src/stm32f4xx_tim.c ****   assert_param(IS_TIM_PRESCALER_RELOAD(TIM_PSCReloadMode));
 365:Drivers/STM32F4xx_StdPeriph_Driver/src/stm32f4xx_tim.c ****   /* Set the Prescaler value */
 366:Drivers/STM32F4xx_StdPeriph_Driver/src/stm32f4xx_tim.c ****   TIMx->PSC = Prescaler;
 549              		.loc 1 366 13
 550 0010 7B68     		ldr	r3, [r7, #4]
 551 0012 7A88     		ldrh	r2, [r7, #2]	@ movhi
 552 0014 1A85     		strh	r2, [r3, #40]	@ movhi
 367:Drivers/STM32F4xx_StdPeriph_Driver/src/stm32f4xx_tim.c ****   /* Set or reset the UG Bit */
 368:Drivers/STM32F4xx_StdPeriph_Driver/src/stm32f4xx_tim.c ****   TIMx->EGR = TIM_PSCReloadMode;
 553              		.loc 1 368 13
 554 0016 7B68     		ldr	r3, [r7, #4]
 555 0018 3A88     		ldrh	r2, [r7]	@ movhi
 556 001a 9A82     		strh	r2, [r3, #20]	@ movhi
 369:Drivers/STM32F4xx_StdPeriph_Driver/src/stm32f4xx_tim.c **** }
 557              		.loc 1 369 1
 558 001c 00BF     		nop
 559 001e 0C37     		adds	r7, r7, #12
 560              	.LCFI20:
 561              		.cfi_def_cfa_offset 4
 562 0020 BD46     		mov	sp, r7
 563              	.LCFI21:
 564              		.cfi_def_cfa_register 13
 565              		@ sp needed
 566 0022 5DF8047B 		ldr	r7, [sp], #4
 567              	.LCFI22:
 568              		.cfi_restore 7
ARM GAS  C:\Users\Admin\AppData\Local\Temp\ccwOX7Bd.s 			page 18


 569              		.cfi_def_cfa_offset 0
 570 0026 7047     		bx	lr
 571              		.cfi_endproc
 572              	.LFE133:
 574              		.section	.text.TIM_CounterModeConfig,"ax",%progbits
 575              		.align	1
 576              		.global	TIM_CounterModeConfig
 577              		.syntax unified
 578              		.thumb
 579              		.thumb_func
 581              	TIM_CounterModeConfig:
 582              	.LFB134:
 370:Drivers/STM32F4xx_StdPeriph_Driver/src/stm32f4xx_tim.c **** 
 371:Drivers/STM32F4xx_StdPeriph_Driver/src/stm32f4xx_tim.c **** /**
 372:Drivers/STM32F4xx_StdPeriph_Driver/src/stm32f4xx_tim.c ****   * @brief  Specifies the TIMx Counter Mode to be used.
 373:Drivers/STM32F4xx_StdPeriph_Driver/src/stm32f4xx_tim.c ****   * @param  TIMx: where x can be  1, 2, 3, 4, 5 or 8 to select the TIM peripheral.
 374:Drivers/STM32F4xx_StdPeriph_Driver/src/stm32f4xx_tim.c ****   * @param  TIM_CounterMode: specifies the Counter Mode to be used
 375:Drivers/STM32F4xx_StdPeriph_Driver/src/stm32f4xx_tim.c ****   *          This parameter can be one of the following values:
 376:Drivers/STM32F4xx_StdPeriph_Driver/src/stm32f4xx_tim.c ****   *            @arg TIM_CounterMode_Up: TIM Up Counting Mode
 377:Drivers/STM32F4xx_StdPeriph_Driver/src/stm32f4xx_tim.c ****   *            @arg TIM_CounterMode_Down: TIM Down Counting Mode
 378:Drivers/STM32F4xx_StdPeriph_Driver/src/stm32f4xx_tim.c ****   *            @arg TIM_CounterMode_CenterAligned1: TIM Center Aligned Mode1
 379:Drivers/STM32F4xx_StdPeriph_Driver/src/stm32f4xx_tim.c ****   *            @arg TIM_CounterMode_CenterAligned2: TIM Center Aligned Mode2
 380:Drivers/STM32F4xx_StdPeriph_Driver/src/stm32f4xx_tim.c ****   *            @arg TIM_CounterMode_CenterAligned3: TIM Center Aligned Mode3
 381:Drivers/STM32F4xx_StdPeriph_Driver/src/stm32f4xx_tim.c ****   * @retval None
 382:Drivers/STM32F4xx_StdPeriph_Driver/src/stm32f4xx_tim.c ****   */
 383:Drivers/STM32F4xx_StdPeriph_Driver/src/stm32f4xx_tim.c **** void TIM_CounterModeConfig(TIM_TypeDef* TIMx, uint16_t TIM_CounterMode)
 384:Drivers/STM32F4xx_StdPeriph_Driver/src/stm32f4xx_tim.c **** {
 583              		.loc 1 384 1
 584              		.cfi_startproc
 585              		@ args = 0, pretend = 0, frame = 16
 586              		@ frame_needed = 1, uses_anonymous_args = 0
 587              		@ link register save eliminated.
 588 0000 80B4     		push	{r7}
 589              	.LCFI23:
 590              		.cfi_def_cfa_offset 4
 591              		.cfi_offset 7, -4
 592 0002 85B0     		sub	sp, sp, #20
 593              	.LCFI24:
 594              		.cfi_def_cfa_offset 24
 595 0004 00AF     		add	r7, sp, #0
 596              	.LCFI25:
 597              		.cfi_def_cfa_register 7
 598 0006 7860     		str	r0, [r7, #4]
 599 0008 0B46     		mov	r3, r1
 600 000a 7B80     		strh	r3, [r7, #2]	@ movhi
 385:Drivers/STM32F4xx_StdPeriph_Driver/src/stm32f4xx_tim.c ****   uint16_t tmpcr1 = 0;
 601              		.loc 1 385 12
 602 000c 0023     		movs	r3, #0
 603 000e FB81     		strh	r3, [r7, #14]	@ movhi
 386:Drivers/STM32F4xx_StdPeriph_Driver/src/stm32f4xx_tim.c **** 
 387:Drivers/STM32F4xx_StdPeriph_Driver/src/stm32f4xx_tim.c ****   /* Check the parameters */
 388:Drivers/STM32F4xx_StdPeriph_Driver/src/stm32f4xx_tim.c ****   assert_param(IS_TIM_LIST3_PERIPH(TIMx));
 389:Drivers/STM32F4xx_StdPeriph_Driver/src/stm32f4xx_tim.c ****   assert_param(IS_TIM_COUNTER_MODE(TIM_CounterMode));
 390:Drivers/STM32F4xx_StdPeriph_Driver/src/stm32f4xx_tim.c **** 
 391:Drivers/STM32F4xx_StdPeriph_Driver/src/stm32f4xx_tim.c ****   tmpcr1 = TIMx->CR1;
 604              		.loc 1 391 10
 605 0010 7B68     		ldr	r3, [r7, #4]
ARM GAS  C:\Users\Admin\AppData\Local\Temp\ccwOX7Bd.s 			page 19


 606 0012 1B88     		ldrh	r3, [r3]	@ movhi
 607 0014 FB81     		strh	r3, [r7, #14]	@ movhi
 392:Drivers/STM32F4xx_StdPeriph_Driver/src/stm32f4xx_tim.c **** 
 393:Drivers/STM32F4xx_StdPeriph_Driver/src/stm32f4xx_tim.c ****   /* Reset the CMS and DIR Bits */
 394:Drivers/STM32F4xx_StdPeriph_Driver/src/stm32f4xx_tim.c ****   tmpcr1 &= (uint16_t)~(TIM_CR1_DIR | TIM_CR1_CMS);
 608              		.loc 1 394 10
 609 0016 FB89     		ldrh	r3, [r7, #14]	@ movhi
 610 0018 23F07003 		bic	r3, r3, #112
 611 001c FB81     		strh	r3, [r7, #14]	@ movhi
 395:Drivers/STM32F4xx_StdPeriph_Driver/src/stm32f4xx_tim.c **** 
 396:Drivers/STM32F4xx_StdPeriph_Driver/src/stm32f4xx_tim.c ****   /* Set the Counter Mode */
 397:Drivers/STM32F4xx_StdPeriph_Driver/src/stm32f4xx_tim.c ****   tmpcr1 |= TIM_CounterMode;
 612              		.loc 1 397 10
 613 001e FA89     		ldrh	r2, [r7, #14]	@ movhi
 614 0020 7B88     		ldrh	r3, [r7, #2]	@ movhi
 615 0022 1343     		orrs	r3, r3, r2
 616 0024 FB81     		strh	r3, [r7, #14]	@ movhi
 398:Drivers/STM32F4xx_StdPeriph_Driver/src/stm32f4xx_tim.c **** 
 399:Drivers/STM32F4xx_StdPeriph_Driver/src/stm32f4xx_tim.c ****   /* Write to TIMx CR1 register */
 400:Drivers/STM32F4xx_StdPeriph_Driver/src/stm32f4xx_tim.c ****   TIMx->CR1 = tmpcr1;
 617              		.loc 1 400 13
 618 0026 7B68     		ldr	r3, [r7, #4]
 619 0028 FA89     		ldrh	r2, [r7, #14]	@ movhi
 620 002a 1A80     		strh	r2, [r3]	@ movhi
 401:Drivers/STM32F4xx_StdPeriph_Driver/src/stm32f4xx_tim.c **** }
 621              		.loc 1 401 1
 622 002c 00BF     		nop
 623 002e 1437     		adds	r7, r7, #20
 624              	.LCFI26:
 625              		.cfi_def_cfa_offset 4
 626 0030 BD46     		mov	sp, r7
 627              	.LCFI27:
 628              		.cfi_def_cfa_register 13
 629              		@ sp needed
 630 0032 5DF8047B 		ldr	r7, [sp], #4
 631              	.LCFI28:
 632              		.cfi_restore 7
 633              		.cfi_def_cfa_offset 0
 634 0036 7047     		bx	lr
 635              		.cfi_endproc
 636              	.LFE134:
 638              		.section	.text.TIM_SetCounter,"ax",%progbits
 639              		.align	1
 640              		.global	TIM_SetCounter
 641              		.syntax unified
 642              		.thumb
 643              		.thumb_func
 645              	TIM_SetCounter:
 646              	.LFB135:
 402:Drivers/STM32F4xx_StdPeriph_Driver/src/stm32f4xx_tim.c **** 
 403:Drivers/STM32F4xx_StdPeriph_Driver/src/stm32f4xx_tim.c **** /**
 404:Drivers/STM32F4xx_StdPeriph_Driver/src/stm32f4xx_tim.c ****   * @brief  Sets the TIMx Counter Register value
 405:Drivers/STM32F4xx_StdPeriph_Driver/src/stm32f4xx_tim.c ****   * @param  TIMx: where x can be 1 to 14 to select the TIM peripheral.
 406:Drivers/STM32F4xx_StdPeriph_Driver/src/stm32f4xx_tim.c ****   * @param  Counter: specifies the Counter register new value.
 407:Drivers/STM32F4xx_StdPeriph_Driver/src/stm32f4xx_tim.c ****   * @retval None
 408:Drivers/STM32F4xx_StdPeriph_Driver/src/stm32f4xx_tim.c ****   */
 409:Drivers/STM32F4xx_StdPeriph_Driver/src/stm32f4xx_tim.c **** void TIM_SetCounter(TIM_TypeDef* TIMx, uint32_t Counter)
ARM GAS  C:\Users\Admin\AppData\Local\Temp\ccwOX7Bd.s 			page 20


 410:Drivers/STM32F4xx_StdPeriph_Driver/src/stm32f4xx_tim.c **** {
 647              		.loc 1 410 1
 648              		.cfi_startproc
 649              		@ args = 0, pretend = 0, frame = 8
 650              		@ frame_needed = 1, uses_anonymous_args = 0
 651              		@ link register save eliminated.
 652 0000 80B4     		push	{r7}
 653              	.LCFI29:
 654              		.cfi_def_cfa_offset 4
 655              		.cfi_offset 7, -4
 656 0002 83B0     		sub	sp, sp, #12
 657              	.LCFI30:
 658              		.cfi_def_cfa_offset 16
 659 0004 00AF     		add	r7, sp, #0
 660              	.LCFI31:
 661              		.cfi_def_cfa_register 7
 662 0006 7860     		str	r0, [r7, #4]
 663 0008 3960     		str	r1, [r7]
 411:Drivers/STM32F4xx_StdPeriph_Driver/src/stm32f4xx_tim.c ****   /* Check the parameters */
 412:Drivers/STM32F4xx_StdPeriph_Driver/src/stm32f4xx_tim.c ****    assert_param(IS_TIM_ALL_PERIPH(TIMx));
 413:Drivers/STM32F4xx_StdPeriph_Driver/src/stm32f4xx_tim.c **** 
 414:Drivers/STM32F4xx_StdPeriph_Driver/src/stm32f4xx_tim.c ****   /* Set the Counter Register value */
 415:Drivers/STM32F4xx_StdPeriph_Driver/src/stm32f4xx_tim.c ****   TIMx->CNT = Counter;
 664              		.loc 1 415 13
 665 000a 7B68     		ldr	r3, [r7, #4]
 666 000c 3A68     		ldr	r2, [r7]
 667 000e 5A62     		str	r2, [r3, #36]
 416:Drivers/STM32F4xx_StdPeriph_Driver/src/stm32f4xx_tim.c **** }
 668              		.loc 1 416 1
 669 0010 00BF     		nop
 670 0012 0C37     		adds	r7, r7, #12
 671              	.LCFI32:
 672              		.cfi_def_cfa_offset 4
 673 0014 BD46     		mov	sp, r7
 674              	.LCFI33:
 675              		.cfi_def_cfa_register 13
 676              		@ sp needed
 677 0016 5DF8047B 		ldr	r7, [sp], #4
 678              	.LCFI34:
 679              		.cfi_restore 7
 680              		.cfi_def_cfa_offset 0
 681 001a 7047     		bx	lr
 682              		.cfi_endproc
 683              	.LFE135:
 685              		.section	.text.TIM_SetAutoreload,"ax",%progbits
 686              		.align	1
 687              		.global	TIM_SetAutoreload
 688              		.syntax unified
 689              		.thumb
 690              		.thumb_func
 692              	TIM_SetAutoreload:
 693              	.LFB136:
 417:Drivers/STM32F4xx_StdPeriph_Driver/src/stm32f4xx_tim.c **** 
 418:Drivers/STM32F4xx_StdPeriph_Driver/src/stm32f4xx_tim.c **** /**
 419:Drivers/STM32F4xx_StdPeriph_Driver/src/stm32f4xx_tim.c ****   * @brief  Sets the TIMx Autoreload Register value
 420:Drivers/STM32F4xx_StdPeriph_Driver/src/stm32f4xx_tim.c ****   * @param  TIMx: where x can be 1 to 14 to select the TIM peripheral.
 421:Drivers/STM32F4xx_StdPeriph_Driver/src/stm32f4xx_tim.c ****   * @param  Autoreload: specifies the Autoreload register new value.
ARM GAS  C:\Users\Admin\AppData\Local\Temp\ccwOX7Bd.s 			page 21


 422:Drivers/STM32F4xx_StdPeriph_Driver/src/stm32f4xx_tim.c ****   * @retval None
 423:Drivers/STM32F4xx_StdPeriph_Driver/src/stm32f4xx_tim.c ****   */
 424:Drivers/STM32F4xx_StdPeriph_Driver/src/stm32f4xx_tim.c **** void TIM_SetAutoreload(TIM_TypeDef* TIMx, uint32_t Autoreload)
 425:Drivers/STM32F4xx_StdPeriph_Driver/src/stm32f4xx_tim.c **** {
 694              		.loc 1 425 1
 695              		.cfi_startproc
 696              		@ args = 0, pretend = 0, frame = 8
 697              		@ frame_needed = 1, uses_anonymous_args = 0
 698              		@ link register save eliminated.
 699 0000 80B4     		push	{r7}
 700              	.LCFI35:
 701              		.cfi_def_cfa_offset 4
 702              		.cfi_offset 7, -4
 703 0002 83B0     		sub	sp, sp, #12
 704              	.LCFI36:
 705              		.cfi_def_cfa_offset 16
 706 0004 00AF     		add	r7, sp, #0
 707              	.LCFI37:
 708              		.cfi_def_cfa_register 7
 709 0006 7860     		str	r0, [r7, #4]
 710 0008 3960     		str	r1, [r7]
 426:Drivers/STM32F4xx_StdPeriph_Driver/src/stm32f4xx_tim.c ****   /* Check the parameters */
 427:Drivers/STM32F4xx_StdPeriph_Driver/src/stm32f4xx_tim.c ****   assert_param(IS_TIM_ALL_PERIPH(TIMx));
 428:Drivers/STM32F4xx_StdPeriph_Driver/src/stm32f4xx_tim.c ****   
 429:Drivers/STM32F4xx_StdPeriph_Driver/src/stm32f4xx_tim.c ****   /* Set the Autoreload Register value */
 430:Drivers/STM32F4xx_StdPeriph_Driver/src/stm32f4xx_tim.c ****   TIMx->ARR = Autoreload;
 711              		.loc 1 430 13
 712 000a 7B68     		ldr	r3, [r7, #4]
 713 000c 3A68     		ldr	r2, [r7]
 714 000e DA62     		str	r2, [r3, #44]
 431:Drivers/STM32F4xx_StdPeriph_Driver/src/stm32f4xx_tim.c **** }
 715              		.loc 1 431 1
 716 0010 00BF     		nop
 717 0012 0C37     		adds	r7, r7, #12
 718              	.LCFI38:
 719              		.cfi_def_cfa_offset 4
 720 0014 BD46     		mov	sp, r7
 721              	.LCFI39:
 722              		.cfi_def_cfa_register 13
 723              		@ sp needed
 724 0016 5DF8047B 		ldr	r7, [sp], #4
 725              	.LCFI40:
 726              		.cfi_restore 7
 727              		.cfi_def_cfa_offset 0
 728 001a 7047     		bx	lr
 729              		.cfi_endproc
 730              	.LFE136:
 732              		.section	.text.TIM_GetCounter,"ax",%progbits
 733              		.align	1
 734              		.global	TIM_GetCounter
 735              		.syntax unified
 736              		.thumb
 737              		.thumb_func
 739              	TIM_GetCounter:
 740              	.LFB137:
 432:Drivers/STM32F4xx_StdPeriph_Driver/src/stm32f4xx_tim.c **** 
 433:Drivers/STM32F4xx_StdPeriph_Driver/src/stm32f4xx_tim.c **** /**
ARM GAS  C:\Users\Admin\AppData\Local\Temp\ccwOX7Bd.s 			page 22


 434:Drivers/STM32F4xx_StdPeriph_Driver/src/stm32f4xx_tim.c ****   * @brief  Gets the TIMx Counter value.
 435:Drivers/STM32F4xx_StdPeriph_Driver/src/stm32f4xx_tim.c ****   * @param  TIMx: where x can be 1 to 14 to select the TIM peripheral.
 436:Drivers/STM32F4xx_StdPeriph_Driver/src/stm32f4xx_tim.c ****   * @retval Counter Register value
 437:Drivers/STM32F4xx_StdPeriph_Driver/src/stm32f4xx_tim.c ****   */
 438:Drivers/STM32F4xx_StdPeriph_Driver/src/stm32f4xx_tim.c **** uint32_t TIM_GetCounter(TIM_TypeDef* TIMx)
 439:Drivers/STM32F4xx_StdPeriph_Driver/src/stm32f4xx_tim.c **** {
 741              		.loc 1 439 1
 742              		.cfi_startproc
 743              		@ args = 0, pretend = 0, frame = 8
 744              		@ frame_needed = 1, uses_anonymous_args = 0
 745              		@ link register save eliminated.
 746 0000 80B4     		push	{r7}
 747              	.LCFI41:
 748              		.cfi_def_cfa_offset 4
 749              		.cfi_offset 7, -4
 750 0002 83B0     		sub	sp, sp, #12
 751              	.LCFI42:
 752              		.cfi_def_cfa_offset 16
 753 0004 00AF     		add	r7, sp, #0
 754              	.LCFI43:
 755              		.cfi_def_cfa_register 7
 756 0006 7860     		str	r0, [r7, #4]
 440:Drivers/STM32F4xx_StdPeriph_Driver/src/stm32f4xx_tim.c ****   /* Check the parameters */
 441:Drivers/STM32F4xx_StdPeriph_Driver/src/stm32f4xx_tim.c ****   assert_param(IS_TIM_ALL_PERIPH(TIMx));
 442:Drivers/STM32F4xx_StdPeriph_Driver/src/stm32f4xx_tim.c **** 
 443:Drivers/STM32F4xx_StdPeriph_Driver/src/stm32f4xx_tim.c ****   /* Get the Counter Register value */
 444:Drivers/STM32F4xx_StdPeriph_Driver/src/stm32f4xx_tim.c ****   return TIMx->CNT;
 757              		.loc 1 444 14
 758 0008 7B68     		ldr	r3, [r7, #4]
 759 000a 5B6A     		ldr	r3, [r3, #36]
 445:Drivers/STM32F4xx_StdPeriph_Driver/src/stm32f4xx_tim.c **** }
 760              		.loc 1 445 1
 761 000c 1846     		mov	r0, r3
 762 000e 0C37     		adds	r7, r7, #12
 763              	.LCFI44:
 764              		.cfi_def_cfa_offset 4
 765 0010 BD46     		mov	sp, r7
 766              	.LCFI45:
 767              		.cfi_def_cfa_register 13
 768              		@ sp needed
 769 0012 5DF8047B 		ldr	r7, [sp], #4
 770              	.LCFI46:
 771              		.cfi_restore 7
 772              		.cfi_def_cfa_offset 0
 773 0016 7047     		bx	lr
 774              		.cfi_endproc
 775              	.LFE137:
 777              		.section	.text.TIM_GetPrescaler,"ax",%progbits
 778              		.align	1
 779              		.global	TIM_GetPrescaler
 780              		.syntax unified
 781              		.thumb
 782              		.thumb_func
 784              	TIM_GetPrescaler:
 785              	.LFB138:
 446:Drivers/STM32F4xx_StdPeriph_Driver/src/stm32f4xx_tim.c **** 
 447:Drivers/STM32F4xx_StdPeriph_Driver/src/stm32f4xx_tim.c **** /**
ARM GAS  C:\Users\Admin\AppData\Local\Temp\ccwOX7Bd.s 			page 23


 448:Drivers/STM32F4xx_StdPeriph_Driver/src/stm32f4xx_tim.c ****   * @brief  Gets the TIMx Prescaler value.
 449:Drivers/STM32F4xx_StdPeriph_Driver/src/stm32f4xx_tim.c ****   * @param  TIMx: where x can be 1 to 14 to select the TIM peripheral.
 450:Drivers/STM32F4xx_StdPeriph_Driver/src/stm32f4xx_tim.c ****   * @retval Prescaler Register value.
 451:Drivers/STM32F4xx_StdPeriph_Driver/src/stm32f4xx_tim.c ****   */
 452:Drivers/STM32F4xx_StdPeriph_Driver/src/stm32f4xx_tim.c **** uint16_t TIM_GetPrescaler(TIM_TypeDef* TIMx)
 453:Drivers/STM32F4xx_StdPeriph_Driver/src/stm32f4xx_tim.c **** {
 786              		.loc 1 453 1
 787              		.cfi_startproc
 788              		@ args = 0, pretend = 0, frame = 8
 789              		@ frame_needed = 1, uses_anonymous_args = 0
 790              		@ link register save eliminated.
 791 0000 80B4     		push	{r7}
 792              	.LCFI47:
 793              		.cfi_def_cfa_offset 4
 794              		.cfi_offset 7, -4
 795 0002 83B0     		sub	sp, sp, #12
 796              	.LCFI48:
 797              		.cfi_def_cfa_offset 16
 798 0004 00AF     		add	r7, sp, #0
 799              	.LCFI49:
 800              		.cfi_def_cfa_register 7
 801 0006 7860     		str	r0, [r7, #4]
 454:Drivers/STM32F4xx_StdPeriph_Driver/src/stm32f4xx_tim.c ****   /* Check the parameters */
 455:Drivers/STM32F4xx_StdPeriph_Driver/src/stm32f4xx_tim.c ****   assert_param(IS_TIM_ALL_PERIPH(TIMx));
 456:Drivers/STM32F4xx_StdPeriph_Driver/src/stm32f4xx_tim.c **** 
 457:Drivers/STM32F4xx_StdPeriph_Driver/src/stm32f4xx_tim.c ****   /* Get the Prescaler Register value */
 458:Drivers/STM32F4xx_StdPeriph_Driver/src/stm32f4xx_tim.c ****   return TIMx->PSC;
 802              		.loc 1 458 14
 803 0008 7B68     		ldr	r3, [r7, #4]
 804 000a 1B8D     		ldrh	r3, [r3, #40]	@ movhi
 805 000c 9BB2     		uxth	r3, r3
 459:Drivers/STM32F4xx_StdPeriph_Driver/src/stm32f4xx_tim.c **** }
 806              		.loc 1 459 1
 807 000e 1846     		mov	r0, r3
 808 0010 0C37     		adds	r7, r7, #12
 809              	.LCFI50:
 810              		.cfi_def_cfa_offset 4
 811 0012 BD46     		mov	sp, r7
 812              	.LCFI51:
 813              		.cfi_def_cfa_register 13
 814              		@ sp needed
 815 0014 5DF8047B 		ldr	r7, [sp], #4
 816              	.LCFI52:
 817              		.cfi_restore 7
 818              		.cfi_def_cfa_offset 0
 819 0018 7047     		bx	lr
 820              		.cfi_endproc
 821              	.LFE138:
 823              		.section	.text.TIM_UpdateDisableConfig,"ax",%progbits
 824              		.align	1
 825              		.global	TIM_UpdateDisableConfig
 826              		.syntax unified
 827              		.thumb
 828              		.thumb_func
 830              	TIM_UpdateDisableConfig:
 831              	.LFB139:
 460:Drivers/STM32F4xx_StdPeriph_Driver/src/stm32f4xx_tim.c **** 
ARM GAS  C:\Users\Admin\AppData\Local\Temp\ccwOX7Bd.s 			page 24


 461:Drivers/STM32F4xx_StdPeriph_Driver/src/stm32f4xx_tim.c **** /**
 462:Drivers/STM32F4xx_StdPeriph_Driver/src/stm32f4xx_tim.c ****   * @brief  Enables or Disables the TIMx Update event.
 463:Drivers/STM32F4xx_StdPeriph_Driver/src/stm32f4xx_tim.c ****   * @param  TIMx: where x can be 1 to 14 to select the TIM peripheral.
 464:Drivers/STM32F4xx_StdPeriph_Driver/src/stm32f4xx_tim.c ****   * @param  NewState: new state of the TIMx UDIS bit
 465:Drivers/STM32F4xx_StdPeriph_Driver/src/stm32f4xx_tim.c ****   *          This parameter can be: ENABLE or DISABLE.
 466:Drivers/STM32F4xx_StdPeriph_Driver/src/stm32f4xx_tim.c ****   * @retval None
 467:Drivers/STM32F4xx_StdPeriph_Driver/src/stm32f4xx_tim.c ****   */
 468:Drivers/STM32F4xx_StdPeriph_Driver/src/stm32f4xx_tim.c **** void TIM_UpdateDisableConfig(TIM_TypeDef* TIMx, FunctionalState NewState)
 469:Drivers/STM32F4xx_StdPeriph_Driver/src/stm32f4xx_tim.c **** {
 832              		.loc 1 469 1
 833              		.cfi_startproc
 834              		@ args = 0, pretend = 0, frame = 8
 835              		@ frame_needed = 1, uses_anonymous_args = 0
 836              		@ link register save eliminated.
 837 0000 80B4     		push	{r7}
 838              	.LCFI53:
 839              		.cfi_def_cfa_offset 4
 840              		.cfi_offset 7, -4
 841 0002 83B0     		sub	sp, sp, #12
 842              	.LCFI54:
 843              		.cfi_def_cfa_offset 16
 844 0004 00AF     		add	r7, sp, #0
 845              	.LCFI55:
 846              		.cfi_def_cfa_register 7
 847 0006 7860     		str	r0, [r7, #4]
 848 0008 0B46     		mov	r3, r1
 849 000a FB70     		strb	r3, [r7, #3]
 470:Drivers/STM32F4xx_StdPeriph_Driver/src/stm32f4xx_tim.c ****   /* Check the parameters */
 471:Drivers/STM32F4xx_StdPeriph_Driver/src/stm32f4xx_tim.c ****   assert_param(IS_TIM_ALL_PERIPH(TIMx));
 472:Drivers/STM32F4xx_StdPeriph_Driver/src/stm32f4xx_tim.c ****   assert_param(IS_FUNCTIONAL_STATE(NewState));
 473:Drivers/STM32F4xx_StdPeriph_Driver/src/stm32f4xx_tim.c **** 
 474:Drivers/STM32F4xx_StdPeriph_Driver/src/stm32f4xx_tim.c ****   if (NewState != DISABLE)
 850              		.loc 1 474 6
 851 000c FB78     		ldrb	r3, [r7, #3]	@ zero_extendqisi2
 852 000e 002B     		cmp	r3, #0
 853 0010 08D0     		beq	.L37
 475:Drivers/STM32F4xx_StdPeriph_Driver/src/stm32f4xx_tim.c ****   {
 476:Drivers/STM32F4xx_StdPeriph_Driver/src/stm32f4xx_tim.c ****     /* Set the Update Disable Bit */
 477:Drivers/STM32F4xx_StdPeriph_Driver/src/stm32f4xx_tim.c ****     TIMx->CR1 |= TIM_CR1_UDIS;
 854              		.loc 1 477 15
 855 0012 7B68     		ldr	r3, [r7, #4]
 856 0014 1B88     		ldrh	r3, [r3]	@ movhi
 857 0016 9BB2     		uxth	r3, r3
 858 0018 43F00203 		orr	r3, r3, #2
 859 001c 9AB2     		uxth	r2, r3
 860 001e 7B68     		ldr	r3, [r7, #4]
 861 0020 1A80     		strh	r2, [r3]	@ movhi
 478:Drivers/STM32F4xx_StdPeriph_Driver/src/stm32f4xx_tim.c ****   }
 479:Drivers/STM32F4xx_StdPeriph_Driver/src/stm32f4xx_tim.c ****   else
 480:Drivers/STM32F4xx_StdPeriph_Driver/src/stm32f4xx_tim.c ****   {
 481:Drivers/STM32F4xx_StdPeriph_Driver/src/stm32f4xx_tim.c ****     /* Reset the Update Disable Bit */
 482:Drivers/STM32F4xx_StdPeriph_Driver/src/stm32f4xx_tim.c ****     TIMx->CR1 &= (uint16_t)~TIM_CR1_UDIS;
 483:Drivers/STM32F4xx_StdPeriph_Driver/src/stm32f4xx_tim.c ****   }
 484:Drivers/STM32F4xx_StdPeriph_Driver/src/stm32f4xx_tim.c **** }
 862              		.loc 1 484 1
 863 0022 07E0     		b	.L39
 864              	.L37:
ARM GAS  C:\Users\Admin\AppData\Local\Temp\ccwOX7Bd.s 			page 25


 482:Drivers/STM32F4xx_StdPeriph_Driver/src/stm32f4xx_tim.c ****   }
 865              		.loc 1 482 15
 866 0024 7B68     		ldr	r3, [r7, #4]
 867 0026 1B88     		ldrh	r3, [r3]	@ movhi
 868 0028 9BB2     		uxth	r3, r3
 869 002a 23F00203 		bic	r3, r3, #2
 870 002e 9AB2     		uxth	r2, r3
 871 0030 7B68     		ldr	r3, [r7, #4]
 872 0032 1A80     		strh	r2, [r3]	@ movhi
 873              	.L39:
 874              		.loc 1 484 1
 875 0034 00BF     		nop
 876 0036 0C37     		adds	r7, r7, #12
 877              	.LCFI56:
 878              		.cfi_def_cfa_offset 4
 879 0038 BD46     		mov	sp, r7
 880              	.LCFI57:
 881              		.cfi_def_cfa_register 13
 882              		@ sp needed
 883 003a 5DF8047B 		ldr	r7, [sp], #4
 884              	.LCFI58:
 885              		.cfi_restore 7
 886              		.cfi_def_cfa_offset 0
 887 003e 7047     		bx	lr
 888              		.cfi_endproc
 889              	.LFE139:
 891              		.section	.text.TIM_UpdateRequestConfig,"ax",%progbits
 892              		.align	1
 893              		.global	TIM_UpdateRequestConfig
 894              		.syntax unified
 895              		.thumb
 896              		.thumb_func
 898              	TIM_UpdateRequestConfig:
 899              	.LFB140:
 485:Drivers/STM32F4xx_StdPeriph_Driver/src/stm32f4xx_tim.c **** 
 486:Drivers/STM32F4xx_StdPeriph_Driver/src/stm32f4xx_tim.c **** /**
 487:Drivers/STM32F4xx_StdPeriph_Driver/src/stm32f4xx_tim.c ****   * @brief  Configures the TIMx Update Request Interrupt source.
 488:Drivers/STM32F4xx_StdPeriph_Driver/src/stm32f4xx_tim.c ****   * @param  TIMx: where x can be 1 to 14 to select the TIM peripheral.
 489:Drivers/STM32F4xx_StdPeriph_Driver/src/stm32f4xx_tim.c ****   * @param  TIM_UpdateSource: specifies the Update source.
 490:Drivers/STM32F4xx_StdPeriph_Driver/src/stm32f4xx_tim.c ****   *          This parameter can be one of the following values:
 491:Drivers/STM32F4xx_StdPeriph_Driver/src/stm32f4xx_tim.c ****   *            @arg TIM_UpdateSource_Global: Source of update is the counter
 492:Drivers/STM32F4xx_StdPeriph_Driver/src/stm32f4xx_tim.c ****   *                 overflow/underflow or the setting of UG bit, or an update
 493:Drivers/STM32F4xx_StdPeriph_Driver/src/stm32f4xx_tim.c ****   *                 generation through the slave mode controller.
 494:Drivers/STM32F4xx_StdPeriph_Driver/src/stm32f4xx_tim.c ****   *            @arg TIM_UpdateSource_Regular: Source of update is counter overflow/underflow.
 495:Drivers/STM32F4xx_StdPeriph_Driver/src/stm32f4xx_tim.c ****   * @retval None
 496:Drivers/STM32F4xx_StdPeriph_Driver/src/stm32f4xx_tim.c ****   */
 497:Drivers/STM32F4xx_StdPeriph_Driver/src/stm32f4xx_tim.c **** void TIM_UpdateRequestConfig(TIM_TypeDef* TIMx, uint16_t TIM_UpdateSource)
 498:Drivers/STM32F4xx_StdPeriph_Driver/src/stm32f4xx_tim.c **** {
 900              		.loc 1 498 1
 901              		.cfi_startproc
 902              		@ args = 0, pretend = 0, frame = 8
 903              		@ frame_needed = 1, uses_anonymous_args = 0
 904              		@ link register save eliminated.
 905 0000 80B4     		push	{r7}
 906              	.LCFI59:
 907              		.cfi_def_cfa_offset 4
 908              		.cfi_offset 7, -4
ARM GAS  C:\Users\Admin\AppData\Local\Temp\ccwOX7Bd.s 			page 26


 909 0002 83B0     		sub	sp, sp, #12
 910              	.LCFI60:
 911              		.cfi_def_cfa_offset 16
 912 0004 00AF     		add	r7, sp, #0
 913              	.LCFI61:
 914              		.cfi_def_cfa_register 7
 915 0006 7860     		str	r0, [r7, #4]
 916 0008 0B46     		mov	r3, r1
 917 000a 7B80     		strh	r3, [r7, #2]	@ movhi
 499:Drivers/STM32F4xx_StdPeriph_Driver/src/stm32f4xx_tim.c ****   /* Check the parameters */
 500:Drivers/STM32F4xx_StdPeriph_Driver/src/stm32f4xx_tim.c ****   assert_param(IS_TIM_ALL_PERIPH(TIMx));
 501:Drivers/STM32F4xx_StdPeriph_Driver/src/stm32f4xx_tim.c ****   assert_param(IS_TIM_UPDATE_SOURCE(TIM_UpdateSource));
 502:Drivers/STM32F4xx_StdPeriph_Driver/src/stm32f4xx_tim.c **** 
 503:Drivers/STM32F4xx_StdPeriph_Driver/src/stm32f4xx_tim.c ****   if (TIM_UpdateSource != TIM_UpdateSource_Global)
 918              		.loc 1 503 6
 919 000c 7B88     		ldrh	r3, [r7, #2]
 920 000e 002B     		cmp	r3, #0
 921 0010 08D0     		beq	.L41
 504:Drivers/STM32F4xx_StdPeriph_Driver/src/stm32f4xx_tim.c ****   {
 505:Drivers/STM32F4xx_StdPeriph_Driver/src/stm32f4xx_tim.c ****     /* Set the URS Bit */
 506:Drivers/STM32F4xx_StdPeriph_Driver/src/stm32f4xx_tim.c ****     TIMx->CR1 |= TIM_CR1_URS;
 922              		.loc 1 506 15
 923 0012 7B68     		ldr	r3, [r7, #4]
 924 0014 1B88     		ldrh	r3, [r3]	@ movhi
 925 0016 9BB2     		uxth	r3, r3
 926 0018 43F00403 		orr	r3, r3, #4
 927 001c 9AB2     		uxth	r2, r3
 928 001e 7B68     		ldr	r3, [r7, #4]
 929 0020 1A80     		strh	r2, [r3]	@ movhi
 507:Drivers/STM32F4xx_StdPeriph_Driver/src/stm32f4xx_tim.c ****   }
 508:Drivers/STM32F4xx_StdPeriph_Driver/src/stm32f4xx_tim.c ****   else
 509:Drivers/STM32F4xx_StdPeriph_Driver/src/stm32f4xx_tim.c ****   {
 510:Drivers/STM32F4xx_StdPeriph_Driver/src/stm32f4xx_tim.c ****     /* Reset the URS Bit */
 511:Drivers/STM32F4xx_StdPeriph_Driver/src/stm32f4xx_tim.c ****     TIMx->CR1 &= (uint16_t)~TIM_CR1_URS;
 512:Drivers/STM32F4xx_StdPeriph_Driver/src/stm32f4xx_tim.c ****   }
 513:Drivers/STM32F4xx_StdPeriph_Driver/src/stm32f4xx_tim.c **** }
 930              		.loc 1 513 1
 931 0022 07E0     		b	.L43
 932              	.L41:
 511:Drivers/STM32F4xx_StdPeriph_Driver/src/stm32f4xx_tim.c ****   }
 933              		.loc 1 511 15
 934 0024 7B68     		ldr	r3, [r7, #4]
 935 0026 1B88     		ldrh	r3, [r3]	@ movhi
 936 0028 9BB2     		uxth	r3, r3
 937 002a 23F00403 		bic	r3, r3, #4
 938 002e 9AB2     		uxth	r2, r3
 939 0030 7B68     		ldr	r3, [r7, #4]
 940 0032 1A80     		strh	r2, [r3]	@ movhi
 941              	.L43:
 942              		.loc 1 513 1
 943 0034 00BF     		nop
 944 0036 0C37     		adds	r7, r7, #12
 945              	.LCFI62:
 946              		.cfi_def_cfa_offset 4
 947 0038 BD46     		mov	sp, r7
 948              	.LCFI63:
 949              		.cfi_def_cfa_register 13
ARM GAS  C:\Users\Admin\AppData\Local\Temp\ccwOX7Bd.s 			page 27


 950              		@ sp needed
 951 003a 5DF8047B 		ldr	r7, [sp], #4
 952              	.LCFI64:
 953              		.cfi_restore 7
 954              		.cfi_def_cfa_offset 0
 955 003e 7047     		bx	lr
 956              		.cfi_endproc
 957              	.LFE140:
 959              		.section	.text.TIM_ARRPreloadConfig,"ax",%progbits
 960              		.align	1
 961              		.global	TIM_ARRPreloadConfig
 962              		.syntax unified
 963              		.thumb
 964              		.thumb_func
 966              	TIM_ARRPreloadConfig:
 967              	.LFB141:
 514:Drivers/STM32F4xx_StdPeriph_Driver/src/stm32f4xx_tim.c **** 
 515:Drivers/STM32F4xx_StdPeriph_Driver/src/stm32f4xx_tim.c **** /**
 516:Drivers/STM32F4xx_StdPeriph_Driver/src/stm32f4xx_tim.c ****   * @brief  Enables or disables TIMx peripheral Preload register on ARR.
 517:Drivers/STM32F4xx_StdPeriph_Driver/src/stm32f4xx_tim.c ****   * @param  TIMx: where x can be 1 to 14 to select the TIM peripheral.
 518:Drivers/STM32F4xx_StdPeriph_Driver/src/stm32f4xx_tim.c ****   * @param  NewState: new state of the TIMx peripheral Preload register
 519:Drivers/STM32F4xx_StdPeriph_Driver/src/stm32f4xx_tim.c ****   *          This parameter can be: ENABLE or DISABLE.
 520:Drivers/STM32F4xx_StdPeriph_Driver/src/stm32f4xx_tim.c ****   * @retval None
 521:Drivers/STM32F4xx_StdPeriph_Driver/src/stm32f4xx_tim.c ****   */
 522:Drivers/STM32F4xx_StdPeriph_Driver/src/stm32f4xx_tim.c **** void TIM_ARRPreloadConfig(TIM_TypeDef* TIMx, FunctionalState NewState)
 523:Drivers/STM32F4xx_StdPeriph_Driver/src/stm32f4xx_tim.c **** {
 968              		.loc 1 523 1
 969              		.cfi_startproc
 970              		@ args = 0, pretend = 0, frame = 8
 971              		@ frame_needed = 1, uses_anonymous_args = 0
 972              		@ link register save eliminated.
 973 0000 80B4     		push	{r7}
 974              	.LCFI65:
 975              		.cfi_def_cfa_offset 4
 976              		.cfi_offset 7, -4
 977 0002 83B0     		sub	sp, sp, #12
 978              	.LCFI66:
 979              		.cfi_def_cfa_offset 16
 980 0004 00AF     		add	r7, sp, #0
 981              	.LCFI67:
 982              		.cfi_def_cfa_register 7
 983 0006 7860     		str	r0, [r7, #4]
 984 0008 0B46     		mov	r3, r1
 985 000a FB70     		strb	r3, [r7, #3]
 524:Drivers/STM32F4xx_StdPeriph_Driver/src/stm32f4xx_tim.c ****   /* Check the parameters */
 525:Drivers/STM32F4xx_StdPeriph_Driver/src/stm32f4xx_tim.c ****   assert_param(IS_TIM_ALL_PERIPH(TIMx));
 526:Drivers/STM32F4xx_StdPeriph_Driver/src/stm32f4xx_tim.c ****   assert_param(IS_FUNCTIONAL_STATE(NewState));
 527:Drivers/STM32F4xx_StdPeriph_Driver/src/stm32f4xx_tim.c **** 
 528:Drivers/STM32F4xx_StdPeriph_Driver/src/stm32f4xx_tim.c ****   if (NewState != DISABLE)
 986              		.loc 1 528 6
 987 000c FB78     		ldrb	r3, [r7, #3]	@ zero_extendqisi2
 988 000e 002B     		cmp	r3, #0
 989 0010 08D0     		beq	.L45
 529:Drivers/STM32F4xx_StdPeriph_Driver/src/stm32f4xx_tim.c ****   {
 530:Drivers/STM32F4xx_StdPeriph_Driver/src/stm32f4xx_tim.c ****     /* Set the ARR Preload Bit */
 531:Drivers/STM32F4xx_StdPeriph_Driver/src/stm32f4xx_tim.c ****     TIMx->CR1 |= TIM_CR1_ARPE;
 990              		.loc 1 531 15
ARM GAS  C:\Users\Admin\AppData\Local\Temp\ccwOX7Bd.s 			page 28


 991 0012 7B68     		ldr	r3, [r7, #4]
 992 0014 1B88     		ldrh	r3, [r3]	@ movhi
 993 0016 9BB2     		uxth	r3, r3
 994 0018 43F08003 		orr	r3, r3, #128
 995 001c 9AB2     		uxth	r2, r3
 996 001e 7B68     		ldr	r3, [r7, #4]
 997 0020 1A80     		strh	r2, [r3]	@ movhi
 532:Drivers/STM32F4xx_StdPeriph_Driver/src/stm32f4xx_tim.c ****   }
 533:Drivers/STM32F4xx_StdPeriph_Driver/src/stm32f4xx_tim.c ****   else
 534:Drivers/STM32F4xx_StdPeriph_Driver/src/stm32f4xx_tim.c ****   {
 535:Drivers/STM32F4xx_StdPeriph_Driver/src/stm32f4xx_tim.c ****     /* Reset the ARR Preload Bit */
 536:Drivers/STM32F4xx_StdPeriph_Driver/src/stm32f4xx_tim.c ****     TIMx->CR1 &= (uint16_t)~TIM_CR1_ARPE;
 537:Drivers/STM32F4xx_StdPeriph_Driver/src/stm32f4xx_tim.c ****   }
 538:Drivers/STM32F4xx_StdPeriph_Driver/src/stm32f4xx_tim.c **** }
 998              		.loc 1 538 1
 999 0022 07E0     		b	.L47
 1000              	.L45:
 536:Drivers/STM32F4xx_StdPeriph_Driver/src/stm32f4xx_tim.c ****   }
 1001              		.loc 1 536 15
 1002 0024 7B68     		ldr	r3, [r7, #4]
 1003 0026 1B88     		ldrh	r3, [r3]	@ movhi
 1004 0028 9BB2     		uxth	r3, r3
 1005 002a 23F08003 		bic	r3, r3, #128
 1006 002e 9AB2     		uxth	r2, r3
 1007 0030 7B68     		ldr	r3, [r7, #4]
 1008 0032 1A80     		strh	r2, [r3]	@ movhi
 1009              	.L47:
 1010              		.loc 1 538 1
 1011 0034 00BF     		nop
 1012 0036 0C37     		adds	r7, r7, #12
 1013              	.LCFI68:
 1014              		.cfi_def_cfa_offset 4
 1015 0038 BD46     		mov	sp, r7
 1016              	.LCFI69:
 1017              		.cfi_def_cfa_register 13
 1018              		@ sp needed
 1019 003a 5DF8047B 		ldr	r7, [sp], #4
 1020              	.LCFI70:
 1021              		.cfi_restore 7
 1022              		.cfi_def_cfa_offset 0
 1023 003e 7047     		bx	lr
 1024              		.cfi_endproc
 1025              	.LFE141:
 1027              		.section	.text.TIM_SelectOnePulseMode,"ax",%progbits
 1028              		.align	1
 1029              		.global	TIM_SelectOnePulseMode
 1030              		.syntax unified
 1031              		.thumb
 1032              		.thumb_func
 1034              	TIM_SelectOnePulseMode:
 1035              	.LFB142:
 539:Drivers/STM32F4xx_StdPeriph_Driver/src/stm32f4xx_tim.c **** 
 540:Drivers/STM32F4xx_StdPeriph_Driver/src/stm32f4xx_tim.c **** /**
 541:Drivers/STM32F4xx_StdPeriph_Driver/src/stm32f4xx_tim.c ****   * @brief  Selects the TIMx's One Pulse Mode.
 542:Drivers/STM32F4xx_StdPeriph_Driver/src/stm32f4xx_tim.c ****   * @param  TIMx: where x can be 1 to 14 to select the TIM peripheral.
 543:Drivers/STM32F4xx_StdPeriph_Driver/src/stm32f4xx_tim.c ****   * @param  TIM_OPMode: specifies the OPM Mode to be used.
 544:Drivers/STM32F4xx_StdPeriph_Driver/src/stm32f4xx_tim.c ****   *          This parameter can be one of the following values:
ARM GAS  C:\Users\Admin\AppData\Local\Temp\ccwOX7Bd.s 			page 29


 545:Drivers/STM32F4xx_StdPeriph_Driver/src/stm32f4xx_tim.c ****   *            @arg TIM_OPMode_Single
 546:Drivers/STM32F4xx_StdPeriph_Driver/src/stm32f4xx_tim.c ****   *            @arg TIM_OPMode_Repetitive
 547:Drivers/STM32F4xx_StdPeriph_Driver/src/stm32f4xx_tim.c ****   * @retval None
 548:Drivers/STM32F4xx_StdPeriph_Driver/src/stm32f4xx_tim.c ****   */
 549:Drivers/STM32F4xx_StdPeriph_Driver/src/stm32f4xx_tim.c **** void TIM_SelectOnePulseMode(TIM_TypeDef* TIMx, uint16_t TIM_OPMode)
 550:Drivers/STM32F4xx_StdPeriph_Driver/src/stm32f4xx_tim.c **** {
 1036              		.loc 1 550 1
 1037              		.cfi_startproc
 1038              		@ args = 0, pretend = 0, frame = 8
 1039              		@ frame_needed = 1, uses_anonymous_args = 0
 1040              		@ link register save eliminated.
 1041 0000 80B4     		push	{r7}
 1042              	.LCFI71:
 1043              		.cfi_def_cfa_offset 4
 1044              		.cfi_offset 7, -4
 1045 0002 83B0     		sub	sp, sp, #12
 1046              	.LCFI72:
 1047              		.cfi_def_cfa_offset 16
 1048 0004 00AF     		add	r7, sp, #0
 1049              	.LCFI73:
 1050              		.cfi_def_cfa_register 7
 1051 0006 7860     		str	r0, [r7, #4]
 1052 0008 0B46     		mov	r3, r1
 1053 000a 7B80     		strh	r3, [r7, #2]	@ movhi
 551:Drivers/STM32F4xx_StdPeriph_Driver/src/stm32f4xx_tim.c ****   /* Check the parameters */
 552:Drivers/STM32F4xx_StdPeriph_Driver/src/stm32f4xx_tim.c ****   assert_param(IS_TIM_ALL_PERIPH(TIMx));
 553:Drivers/STM32F4xx_StdPeriph_Driver/src/stm32f4xx_tim.c ****   assert_param(IS_TIM_OPM_MODE(TIM_OPMode));
 554:Drivers/STM32F4xx_StdPeriph_Driver/src/stm32f4xx_tim.c **** 
 555:Drivers/STM32F4xx_StdPeriph_Driver/src/stm32f4xx_tim.c ****   /* Reset the OPM Bit */
 556:Drivers/STM32F4xx_StdPeriph_Driver/src/stm32f4xx_tim.c ****   TIMx->CR1 &= (uint16_t)~TIM_CR1_OPM;
 1054              		.loc 1 556 13
 1055 000c 7B68     		ldr	r3, [r7, #4]
 1056 000e 1B88     		ldrh	r3, [r3]	@ movhi
 1057 0010 9BB2     		uxth	r3, r3
 1058 0012 23F00803 		bic	r3, r3, #8
 1059 0016 9AB2     		uxth	r2, r3
 1060 0018 7B68     		ldr	r3, [r7, #4]
 1061 001a 1A80     		strh	r2, [r3]	@ movhi
 557:Drivers/STM32F4xx_StdPeriph_Driver/src/stm32f4xx_tim.c **** 
 558:Drivers/STM32F4xx_StdPeriph_Driver/src/stm32f4xx_tim.c ****   /* Configure the OPM Mode */
 559:Drivers/STM32F4xx_StdPeriph_Driver/src/stm32f4xx_tim.c ****   TIMx->CR1 |= TIM_OPMode;
 1062              		.loc 1 559 13
 1063 001c 7B68     		ldr	r3, [r7, #4]
 1064 001e 1B88     		ldrh	r3, [r3]	@ movhi
 1065 0020 9AB2     		uxth	r2, r3
 1066 0022 7B88     		ldrh	r3, [r7, #2]	@ movhi
 1067 0024 1343     		orrs	r3, r3, r2
 1068 0026 9AB2     		uxth	r2, r3
 1069 0028 7B68     		ldr	r3, [r7, #4]
 1070 002a 1A80     		strh	r2, [r3]	@ movhi
 560:Drivers/STM32F4xx_StdPeriph_Driver/src/stm32f4xx_tim.c **** }
 1071              		.loc 1 560 1
 1072 002c 00BF     		nop
 1073 002e 0C37     		adds	r7, r7, #12
 1074              	.LCFI74:
 1075              		.cfi_def_cfa_offset 4
 1076 0030 BD46     		mov	sp, r7
ARM GAS  C:\Users\Admin\AppData\Local\Temp\ccwOX7Bd.s 			page 30


 1077              	.LCFI75:
 1078              		.cfi_def_cfa_register 13
 1079              		@ sp needed
 1080 0032 5DF8047B 		ldr	r7, [sp], #4
 1081              	.LCFI76:
 1082              		.cfi_restore 7
 1083              		.cfi_def_cfa_offset 0
 1084 0036 7047     		bx	lr
 1085              		.cfi_endproc
 1086              	.LFE142:
 1088              		.section	.text.TIM_SetClockDivision,"ax",%progbits
 1089              		.align	1
 1090              		.global	TIM_SetClockDivision
 1091              		.syntax unified
 1092              		.thumb
 1093              		.thumb_func
 1095              	TIM_SetClockDivision:
 1096              	.LFB143:
 561:Drivers/STM32F4xx_StdPeriph_Driver/src/stm32f4xx_tim.c **** 
 562:Drivers/STM32F4xx_StdPeriph_Driver/src/stm32f4xx_tim.c **** /**
 563:Drivers/STM32F4xx_StdPeriph_Driver/src/stm32f4xx_tim.c ****   * @brief  Sets the TIMx Clock Division value.
 564:Drivers/STM32F4xx_StdPeriph_Driver/src/stm32f4xx_tim.c ****   * @param  TIMx: where x can be 1 to 14 except 6 and 7, to select the TIM peripheral.
 565:Drivers/STM32F4xx_StdPeriph_Driver/src/stm32f4xx_tim.c ****   * @param  TIM_CKD: specifies the clock division value.
 566:Drivers/STM32F4xx_StdPeriph_Driver/src/stm32f4xx_tim.c ****   *          This parameter can be one of the following value:
 567:Drivers/STM32F4xx_StdPeriph_Driver/src/stm32f4xx_tim.c ****   *            @arg TIM_CKD_DIV1: TDTS = Tck_tim
 568:Drivers/STM32F4xx_StdPeriph_Driver/src/stm32f4xx_tim.c ****   *            @arg TIM_CKD_DIV2: TDTS = 2*Tck_tim
 569:Drivers/STM32F4xx_StdPeriph_Driver/src/stm32f4xx_tim.c ****   *            @arg TIM_CKD_DIV4: TDTS = 4*Tck_tim
 570:Drivers/STM32F4xx_StdPeriph_Driver/src/stm32f4xx_tim.c ****   * @retval None
 571:Drivers/STM32F4xx_StdPeriph_Driver/src/stm32f4xx_tim.c ****   */
 572:Drivers/STM32F4xx_StdPeriph_Driver/src/stm32f4xx_tim.c **** void TIM_SetClockDivision(TIM_TypeDef* TIMx, uint16_t TIM_CKD)
 573:Drivers/STM32F4xx_StdPeriph_Driver/src/stm32f4xx_tim.c **** {
 1097              		.loc 1 573 1
 1098              		.cfi_startproc
 1099              		@ args = 0, pretend = 0, frame = 8
 1100              		@ frame_needed = 1, uses_anonymous_args = 0
 1101              		@ link register save eliminated.
 1102 0000 80B4     		push	{r7}
 1103              	.LCFI77:
 1104              		.cfi_def_cfa_offset 4
 1105              		.cfi_offset 7, -4
 1106 0002 83B0     		sub	sp, sp, #12
 1107              	.LCFI78:
 1108              		.cfi_def_cfa_offset 16
 1109 0004 00AF     		add	r7, sp, #0
 1110              	.LCFI79:
 1111              		.cfi_def_cfa_register 7
 1112 0006 7860     		str	r0, [r7, #4]
 1113 0008 0B46     		mov	r3, r1
 1114 000a 7B80     		strh	r3, [r7, #2]	@ movhi
 574:Drivers/STM32F4xx_StdPeriph_Driver/src/stm32f4xx_tim.c ****   /* Check the parameters */
 575:Drivers/STM32F4xx_StdPeriph_Driver/src/stm32f4xx_tim.c ****   assert_param(IS_TIM_LIST1_PERIPH(TIMx));
 576:Drivers/STM32F4xx_StdPeriph_Driver/src/stm32f4xx_tim.c ****   assert_param(IS_TIM_CKD_DIV(TIM_CKD));
 577:Drivers/STM32F4xx_StdPeriph_Driver/src/stm32f4xx_tim.c **** 
 578:Drivers/STM32F4xx_StdPeriph_Driver/src/stm32f4xx_tim.c ****   /* Reset the CKD Bits */
 579:Drivers/STM32F4xx_StdPeriph_Driver/src/stm32f4xx_tim.c ****   TIMx->CR1 &= (uint16_t)(~TIM_CR1_CKD);
 1115              		.loc 1 579 13
 1116 000c 7B68     		ldr	r3, [r7, #4]
ARM GAS  C:\Users\Admin\AppData\Local\Temp\ccwOX7Bd.s 			page 31


 1117 000e 1B88     		ldrh	r3, [r3]	@ movhi
 1118 0010 9BB2     		uxth	r3, r3
 1119 0012 23F44073 		bic	r3, r3, #768
 1120 0016 9AB2     		uxth	r2, r3
 1121 0018 7B68     		ldr	r3, [r7, #4]
 1122 001a 1A80     		strh	r2, [r3]	@ movhi
 580:Drivers/STM32F4xx_StdPeriph_Driver/src/stm32f4xx_tim.c **** 
 581:Drivers/STM32F4xx_StdPeriph_Driver/src/stm32f4xx_tim.c ****   /* Set the CKD value */
 582:Drivers/STM32F4xx_StdPeriph_Driver/src/stm32f4xx_tim.c ****   TIMx->CR1 |= TIM_CKD;
 1123              		.loc 1 582 13
 1124 001c 7B68     		ldr	r3, [r7, #4]
 1125 001e 1B88     		ldrh	r3, [r3]	@ movhi
 1126 0020 9AB2     		uxth	r2, r3
 1127 0022 7B88     		ldrh	r3, [r7, #2]	@ movhi
 1128 0024 1343     		orrs	r3, r3, r2
 1129 0026 9AB2     		uxth	r2, r3
 1130 0028 7B68     		ldr	r3, [r7, #4]
 1131 002a 1A80     		strh	r2, [r3]	@ movhi
 583:Drivers/STM32F4xx_StdPeriph_Driver/src/stm32f4xx_tim.c **** }
 1132              		.loc 1 583 1
 1133 002c 00BF     		nop
 1134 002e 0C37     		adds	r7, r7, #12
 1135              	.LCFI80:
 1136              		.cfi_def_cfa_offset 4
 1137 0030 BD46     		mov	sp, r7
 1138              	.LCFI81:
 1139              		.cfi_def_cfa_register 13
 1140              		@ sp needed
 1141 0032 5DF8047B 		ldr	r7, [sp], #4
 1142              	.LCFI82:
 1143              		.cfi_restore 7
 1144              		.cfi_def_cfa_offset 0
 1145 0036 7047     		bx	lr
 1146              		.cfi_endproc
 1147              	.LFE143:
 1149              		.section	.text.TIM_Cmd,"ax",%progbits
 1150              		.align	1
 1151              		.global	TIM_Cmd
 1152              		.syntax unified
 1153              		.thumb
 1154              		.thumb_func
 1156              	TIM_Cmd:
 1157              	.LFB144:
 584:Drivers/STM32F4xx_StdPeriph_Driver/src/stm32f4xx_tim.c **** 
 585:Drivers/STM32F4xx_StdPeriph_Driver/src/stm32f4xx_tim.c **** /**
 586:Drivers/STM32F4xx_StdPeriph_Driver/src/stm32f4xx_tim.c ****   * @brief  Enables or disables the specified TIM peripheral.
 587:Drivers/STM32F4xx_StdPeriph_Driver/src/stm32f4xx_tim.c ****   * @param  TIMx: where x can be 1 to 14 to select the TIMx peripheral.
 588:Drivers/STM32F4xx_StdPeriph_Driver/src/stm32f4xx_tim.c ****   * @param  NewState: new state of the TIMx peripheral.
 589:Drivers/STM32F4xx_StdPeriph_Driver/src/stm32f4xx_tim.c ****   *          This parameter can be: ENABLE or DISABLE.
 590:Drivers/STM32F4xx_StdPeriph_Driver/src/stm32f4xx_tim.c ****   * @retval None
 591:Drivers/STM32F4xx_StdPeriph_Driver/src/stm32f4xx_tim.c ****   */
 592:Drivers/STM32F4xx_StdPeriph_Driver/src/stm32f4xx_tim.c **** void TIM_Cmd(TIM_TypeDef* TIMx, FunctionalState NewState)
 593:Drivers/STM32F4xx_StdPeriph_Driver/src/stm32f4xx_tim.c **** {
 1158              		.loc 1 593 1
 1159              		.cfi_startproc
 1160              		@ args = 0, pretend = 0, frame = 8
 1161              		@ frame_needed = 1, uses_anonymous_args = 0
ARM GAS  C:\Users\Admin\AppData\Local\Temp\ccwOX7Bd.s 			page 32


 1162              		@ link register save eliminated.
 1163 0000 80B4     		push	{r7}
 1164              	.LCFI83:
 1165              		.cfi_def_cfa_offset 4
 1166              		.cfi_offset 7, -4
 1167 0002 83B0     		sub	sp, sp, #12
 1168              	.LCFI84:
 1169              		.cfi_def_cfa_offset 16
 1170 0004 00AF     		add	r7, sp, #0
 1171              	.LCFI85:
 1172              		.cfi_def_cfa_register 7
 1173 0006 7860     		str	r0, [r7, #4]
 1174 0008 0B46     		mov	r3, r1
 1175 000a FB70     		strb	r3, [r7, #3]
 594:Drivers/STM32F4xx_StdPeriph_Driver/src/stm32f4xx_tim.c ****   /* Check the parameters */
 595:Drivers/STM32F4xx_StdPeriph_Driver/src/stm32f4xx_tim.c ****   assert_param(IS_TIM_ALL_PERIPH(TIMx)); 
 596:Drivers/STM32F4xx_StdPeriph_Driver/src/stm32f4xx_tim.c ****   assert_param(IS_FUNCTIONAL_STATE(NewState));
 597:Drivers/STM32F4xx_StdPeriph_Driver/src/stm32f4xx_tim.c ****   
 598:Drivers/STM32F4xx_StdPeriph_Driver/src/stm32f4xx_tim.c ****   if (NewState != DISABLE)
 1176              		.loc 1 598 6
 1177 000c FB78     		ldrb	r3, [r7, #3]	@ zero_extendqisi2
 1178 000e 002B     		cmp	r3, #0
 1179 0010 08D0     		beq	.L51
 599:Drivers/STM32F4xx_StdPeriph_Driver/src/stm32f4xx_tim.c ****   {
 600:Drivers/STM32F4xx_StdPeriph_Driver/src/stm32f4xx_tim.c ****     /* Enable the TIM Counter */
 601:Drivers/STM32F4xx_StdPeriph_Driver/src/stm32f4xx_tim.c ****     TIMx->CR1 |= TIM_CR1_CEN;
 1180              		.loc 1 601 15
 1181 0012 7B68     		ldr	r3, [r7, #4]
 1182 0014 1B88     		ldrh	r3, [r3]	@ movhi
 1183 0016 9BB2     		uxth	r3, r3
 1184 0018 43F00103 		orr	r3, r3, #1
 1185 001c 9AB2     		uxth	r2, r3
 1186 001e 7B68     		ldr	r3, [r7, #4]
 1187 0020 1A80     		strh	r2, [r3]	@ movhi
 602:Drivers/STM32F4xx_StdPeriph_Driver/src/stm32f4xx_tim.c ****   }
 603:Drivers/STM32F4xx_StdPeriph_Driver/src/stm32f4xx_tim.c ****   else
 604:Drivers/STM32F4xx_StdPeriph_Driver/src/stm32f4xx_tim.c ****   {
 605:Drivers/STM32F4xx_StdPeriph_Driver/src/stm32f4xx_tim.c ****     /* Disable the TIM Counter */
 606:Drivers/STM32F4xx_StdPeriph_Driver/src/stm32f4xx_tim.c ****     TIMx->CR1 &= (uint16_t)~TIM_CR1_CEN;
 607:Drivers/STM32F4xx_StdPeriph_Driver/src/stm32f4xx_tim.c ****   }
 608:Drivers/STM32F4xx_StdPeriph_Driver/src/stm32f4xx_tim.c **** }
 1188              		.loc 1 608 1
 1189 0022 07E0     		b	.L53
 1190              	.L51:
 606:Drivers/STM32F4xx_StdPeriph_Driver/src/stm32f4xx_tim.c ****   }
 1191              		.loc 1 606 15
 1192 0024 7B68     		ldr	r3, [r7, #4]
 1193 0026 1B88     		ldrh	r3, [r3]	@ movhi
 1194 0028 9BB2     		uxth	r3, r3
 1195 002a 23F00103 		bic	r3, r3, #1
 1196 002e 9AB2     		uxth	r2, r3
 1197 0030 7B68     		ldr	r3, [r7, #4]
 1198 0032 1A80     		strh	r2, [r3]	@ movhi
 1199              	.L53:
 1200              		.loc 1 608 1
 1201 0034 00BF     		nop
 1202 0036 0C37     		adds	r7, r7, #12
ARM GAS  C:\Users\Admin\AppData\Local\Temp\ccwOX7Bd.s 			page 33


 1203              	.LCFI86:
 1204              		.cfi_def_cfa_offset 4
 1205 0038 BD46     		mov	sp, r7
 1206              	.LCFI87:
 1207              		.cfi_def_cfa_register 13
 1208              		@ sp needed
 1209 003a 5DF8047B 		ldr	r7, [sp], #4
 1210              	.LCFI88:
 1211              		.cfi_restore 7
 1212              		.cfi_def_cfa_offset 0
 1213 003e 7047     		bx	lr
 1214              		.cfi_endproc
 1215              	.LFE144:
 1217              		.section	.text.TIM_OC1Init,"ax",%progbits
 1218              		.align	1
 1219              		.global	TIM_OC1Init
 1220              		.syntax unified
 1221              		.thumb
 1222              		.thumb_func
 1224              	TIM_OC1Init:
 1225              	.LFB145:
 609:Drivers/STM32F4xx_StdPeriph_Driver/src/stm32f4xx_tim.c **** /**
 610:Drivers/STM32F4xx_StdPeriph_Driver/src/stm32f4xx_tim.c ****   * @}
 611:Drivers/STM32F4xx_StdPeriph_Driver/src/stm32f4xx_tim.c ****   */
 612:Drivers/STM32F4xx_StdPeriph_Driver/src/stm32f4xx_tim.c **** 
 613:Drivers/STM32F4xx_StdPeriph_Driver/src/stm32f4xx_tim.c **** /** @defgroup TIM_Group2 Output Compare management functions
 614:Drivers/STM32F4xx_StdPeriph_Driver/src/stm32f4xx_tim.c ****  *  @brief    Output Compare management functions 
 615:Drivers/STM32F4xx_StdPeriph_Driver/src/stm32f4xx_tim.c ****  *
 616:Drivers/STM32F4xx_StdPeriph_Driver/src/stm32f4xx_tim.c **** @verbatim   
 617:Drivers/STM32F4xx_StdPeriph_Driver/src/stm32f4xx_tim.c ****  ===============================================================================
 618:Drivers/STM32F4xx_StdPeriph_Driver/src/stm32f4xx_tim.c ****               ##### Output Compare management functions #####
 619:Drivers/STM32F4xx_StdPeriph_Driver/src/stm32f4xx_tim.c ****  ===============================================================================  
 620:Drivers/STM32F4xx_StdPeriph_Driver/src/stm32f4xx_tim.c ****    
 621:Drivers/STM32F4xx_StdPeriph_Driver/src/stm32f4xx_tim.c ****       
 622:Drivers/STM32F4xx_StdPeriph_Driver/src/stm32f4xx_tim.c ****         ##### TIM Driver: how to use it in Output Compare Mode #####
 623:Drivers/STM32F4xx_StdPeriph_Driver/src/stm32f4xx_tim.c ****  ===============================================================================
 624:Drivers/STM32F4xx_StdPeriph_Driver/src/stm32f4xx_tim.c ****     [..] 
 625:Drivers/STM32F4xx_StdPeriph_Driver/src/stm32f4xx_tim.c ****     To use the Timer in Output Compare mode, the following steps are mandatory:
 626:Drivers/STM32F4xx_StdPeriph_Driver/src/stm32f4xx_tim.c ****        
 627:Drivers/STM32F4xx_StdPeriph_Driver/src/stm32f4xx_tim.c ****       (#) Enable TIM clock using RCC_APBxPeriphClockCmd(RCC_APBxPeriph_TIMx, ENABLE) 
 628:Drivers/STM32F4xx_StdPeriph_Driver/src/stm32f4xx_tim.c ****           function
 629:Drivers/STM32F4xx_StdPeriph_Driver/src/stm32f4xx_tim.c ****        
 630:Drivers/STM32F4xx_StdPeriph_Driver/src/stm32f4xx_tim.c ****       (#) Configure the TIM pins by configuring the corresponding GPIO pins
 631:Drivers/STM32F4xx_StdPeriph_Driver/src/stm32f4xx_tim.c ****        
 632:Drivers/STM32F4xx_StdPeriph_Driver/src/stm32f4xx_tim.c ****       (#) Configure the Time base unit as described in the first part of this driver, 
 633:Drivers/STM32F4xx_StdPeriph_Driver/src/stm32f4xx_tim.c ****         (++) if needed, else the Timer will run with the default configuration:
 634:Drivers/STM32F4xx_StdPeriph_Driver/src/stm32f4xx_tim.c ****             Autoreload value = 0xFFFF
 635:Drivers/STM32F4xx_StdPeriph_Driver/src/stm32f4xx_tim.c ****         (++) Prescaler value = 0x0000
 636:Drivers/STM32F4xx_StdPeriph_Driver/src/stm32f4xx_tim.c ****         (++) Counter mode = Up counting
 637:Drivers/STM32F4xx_StdPeriph_Driver/src/stm32f4xx_tim.c ****         (++) Clock Division = TIM_CKD_DIV1
 638:Drivers/STM32F4xx_StdPeriph_Driver/src/stm32f4xx_tim.c ****           
 639:Drivers/STM32F4xx_StdPeriph_Driver/src/stm32f4xx_tim.c ****       (#) Fill the TIM_OCInitStruct with the desired parameters including:
 640:Drivers/STM32F4xx_StdPeriph_Driver/src/stm32f4xx_tim.c ****         (++) The TIM Output Compare mode: TIM_OCMode
 641:Drivers/STM32F4xx_StdPeriph_Driver/src/stm32f4xx_tim.c ****         (++) TIM Output State: TIM_OutputState
 642:Drivers/STM32F4xx_StdPeriph_Driver/src/stm32f4xx_tim.c ****         (++) TIM Pulse value: TIM_Pulse
 643:Drivers/STM32F4xx_StdPeriph_Driver/src/stm32f4xx_tim.c ****         (++) TIM Output Compare Polarity : TIM_OCPolarity
 644:Drivers/STM32F4xx_StdPeriph_Driver/src/stm32f4xx_tim.c ****        
ARM GAS  C:\Users\Admin\AppData\Local\Temp\ccwOX7Bd.s 			page 34


 645:Drivers/STM32F4xx_StdPeriph_Driver/src/stm32f4xx_tim.c ****       (#) Call TIM_OCxInit(TIMx, &TIM_OCInitStruct) to configure the desired 
 646:Drivers/STM32F4xx_StdPeriph_Driver/src/stm32f4xx_tim.c ****           channel with the corresponding configuration
 647:Drivers/STM32F4xx_StdPeriph_Driver/src/stm32f4xx_tim.c ****        
 648:Drivers/STM32F4xx_StdPeriph_Driver/src/stm32f4xx_tim.c ****       (#) Call the TIM_Cmd(ENABLE) function to enable the TIM counter.
 649:Drivers/STM32F4xx_StdPeriph_Driver/src/stm32f4xx_tim.c ****        
 650:Drivers/STM32F4xx_StdPeriph_Driver/src/stm32f4xx_tim.c ****       -@- All other functions can be used separately to modify, if needed,
 651:Drivers/STM32F4xx_StdPeriph_Driver/src/stm32f4xx_tim.c ****           a specific feature of the Timer. 
 652:Drivers/STM32F4xx_StdPeriph_Driver/src/stm32f4xx_tim.c ****           
 653:Drivers/STM32F4xx_StdPeriph_Driver/src/stm32f4xx_tim.c ****       -@- In case of PWM mode, this function is mandatory:
 654:Drivers/STM32F4xx_StdPeriph_Driver/src/stm32f4xx_tim.c ****           TIM_OCxPreloadConfig(TIMx, TIM_OCPreload_ENABLE); 
 655:Drivers/STM32F4xx_StdPeriph_Driver/src/stm32f4xx_tim.c ****               
 656:Drivers/STM32F4xx_StdPeriph_Driver/src/stm32f4xx_tim.c ****       -@- If the corresponding interrupt or DMA request are needed, the user should:
 657:Drivers/STM32F4xx_StdPeriph_Driver/src/stm32f4xx_tim.c ****         (+@) Enable the NVIC (or the DMA) to use the TIM interrupts (or DMA requests). 
 658:Drivers/STM32F4xx_StdPeriph_Driver/src/stm32f4xx_tim.c ****         (+@) Enable the corresponding interrupt (or DMA request) using the function 
 659:Drivers/STM32F4xx_StdPeriph_Driver/src/stm32f4xx_tim.c ****              TIM_ITConfig(TIMx, TIM_IT_CCx) (or TIM_DMA_Cmd(TIMx, TIM_DMA_CCx))   
 660:Drivers/STM32F4xx_StdPeriph_Driver/src/stm32f4xx_tim.c **** 
 661:Drivers/STM32F4xx_StdPeriph_Driver/src/stm32f4xx_tim.c **** @endverbatim
 662:Drivers/STM32F4xx_StdPeriph_Driver/src/stm32f4xx_tim.c ****   * @{
 663:Drivers/STM32F4xx_StdPeriph_Driver/src/stm32f4xx_tim.c ****   */
 664:Drivers/STM32F4xx_StdPeriph_Driver/src/stm32f4xx_tim.c **** 
 665:Drivers/STM32F4xx_StdPeriph_Driver/src/stm32f4xx_tim.c **** /**
 666:Drivers/STM32F4xx_StdPeriph_Driver/src/stm32f4xx_tim.c ****   * @brief  Initializes the TIMx Channel1 according to the specified parameters in
 667:Drivers/STM32F4xx_StdPeriph_Driver/src/stm32f4xx_tim.c ****   *         the TIM_OCInitStruct.
 668:Drivers/STM32F4xx_StdPeriph_Driver/src/stm32f4xx_tim.c ****   * @param  TIMx: where x can be 1 to 14 except 6 and 7, to select the TIM peripheral.
 669:Drivers/STM32F4xx_StdPeriph_Driver/src/stm32f4xx_tim.c ****   * @param  TIM_OCInitStruct: pointer to a TIM_OCInitTypeDef structure that contains
 670:Drivers/STM32F4xx_StdPeriph_Driver/src/stm32f4xx_tim.c ****   *         the configuration information for the specified TIM peripheral.
 671:Drivers/STM32F4xx_StdPeriph_Driver/src/stm32f4xx_tim.c ****   * @retval None
 672:Drivers/STM32F4xx_StdPeriph_Driver/src/stm32f4xx_tim.c ****   */
 673:Drivers/STM32F4xx_StdPeriph_Driver/src/stm32f4xx_tim.c **** void TIM_OC1Init(TIM_TypeDef* TIMx, TIM_OCInitTypeDef* TIM_OCInitStruct)
 674:Drivers/STM32F4xx_StdPeriph_Driver/src/stm32f4xx_tim.c **** {
 1226              		.loc 1 674 1
 1227              		.cfi_startproc
 1228              		@ args = 0, pretend = 0, frame = 16
 1229              		@ frame_needed = 1, uses_anonymous_args = 0
 1230              		@ link register save eliminated.
 1231 0000 80B4     		push	{r7}
 1232              	.LCFI89:
 1233              		.cfi_def_cfa_offset 4
 1234              		.cfi_offset 7, -4
 1235 0002 85B0     		sub	sp, sp, #20
 1236              	.LCFI90:
 1237              		.cfi_def_cfa_offset 24
 1238 0004 00AF     		add	r7, sp, #0
 1239              	.LCFI91:
 1240              		.cfi_def_cfa_register 7
 1241 0006 7860     		str	r0, [r7, #4]
 1242 0008 3960     		str	r1, [r7]
 675:Drivers/STM32F4xx_StdPeriph_Driver/src/stm32f4xx_tim.c ****   uint16_t tmpccmrx = 0, tmpccer = 0, tmpcr2 = 0;
 1243              		.loc 1 675 12
 1244 000a 0023     		movs	r3, #0
 1245 000c 7B81     		strh	r3, [r7, #10]	@ movhi
 1246              		.loc 1 675 26
 1247 000e 0023     		movs	r3, #0
 1248 0010 FB81     		strh	r3, [r7, #14]	@ movhi
 1249              		.loc 1 675 39
 1250 0012 0023     		movs	r3, #0
 1251 0014 BB81     		strh	r3, [r7, #12]	@ movhi
ARM GAS  C:\Users\Admin\AppData\Local\Temp\ccwOX7Bd.s 			page 35


 676:Drivers/STM32F4xx_StdPeriph_Driver/src/stm32f4xx_tim.c ****    
 677:Drivers/STM32F4xx_StdPeriph_Driver/src/stm32f4xx_tim.c ****   /* Check the parameters */
 678:Drivers/STM32F4xx_StdPeriph_Driver/src/stm32f4xx_tim.c ****   assert_param(IS_TIM_LIST1_PERIPH(TIMx)); 
 679:Drivers/STM32F4xx_StdPeriph_Driver/src/stm32f4xx_tim.c ****   assert_param(IS_TIM_OC_MODE(TIM_OCInitStruct->TIM_OCMode));
 680:Drivers/STM32F4xx_StdPeriph_Driver/src/stm32f4xx_tim.c ****   assert_param(IS_TIM_OUTPUT_STATE(TIM_OCInitStruct->TIM_OutputState));
 681:Drivers/STM32F4xx_StdPeriph_Driver/src/stm32f4xx_tim.c ****   assert_param(IS_TIM_OC_POLARITY(TIM_OCInitStruct->TIM_OCPolarity));   
 682:Drivers/STM32F4xx_StdPeriph_Driver/src/stm32f4xx_tim.c **** 
 683:Drivers/STM32F4xx_StdPeriph_Driver/src/stm32f4xx_tim.c ****   /* Disable the Channel 1: Reset the CC1E Bit */
 684:Drivers/STM32F4xx_StdPeriph_Driver/src/stm32f4xx_tim.c ****   TIMx->CCER &= (uint16_t)~TIM_CCER_CC1E;
 1252              		.loc 1 684 14
 1253 0016 7B68     		ldr	r3, [r7, #4]
 1254 0018 1B8C     		ldrh	r3, [r3, #32]	@ movhi
 1255 001a 9BB2     		uxth	r3, r3
 1256 001c 23F00103 		bic	r3, r3, #1
 1257 0020 9AB2     		uxth	r2, r3
 1258 0022 7B68     		ldr	r3, [r7, #4]
 1259 0024 1A84     		strh	r2, [r3, #32]	@ movhi
 685:Drivers/STM32F4xx_StdPeriph_Driver/src/stm32f4xx_tim.c ****   
 686:Drivers/STM32F4xx_StdPeriph_Driver/src/stm32f4xx_tim.c ****   /* Get the TIMx CCER register value */
 687:Drivers/STM32F4xx_StdPeriph_Driver/src/stm32f4xx_tim.c ****   tmpccer = TIMx->CCER;
 1260              		.loc 1 687 11
 1261 0026 7B68     		ldr	r3, [r7, #4]
 1262 0028 1B8C     		ldrh	r3, [r3, #32]	@ movhi
 1263 002a FB81     		strh	r3, [r7, #14]	@ movhi
 688:Drivers/STM32F4xx_StdPeriph_Driver/src/stm32f4xx_tim.c ****   /* Get the TIMx CR2 register value */
 689:Drivers/STM32F4xx_StdPeriph_Driver/src/stm32f4xx_tim.c ****   tmpcr2 =  TIMx->CR2;
 1264              		.loc 1 689 10
 1265 002c 7B68     		ldr	r3, [r7, #4]
 1266 002e 9B88     		ldrh	r3, [r3, #4]	@ movhi
 1267 0030 BB81     		strh	r3, [r7, #12]	@ movhi
 690:Drivers/STM32F4xx_StdPeriph_Driver/src/stm32f4xx_tim.c ****   
 691:Drivers/STM32F4xx_StdPeriph_Driver/src/stm32f4xx_tim.c ****   /* Get the TIMx CCMR1 register value */
 692:Drivers/STM32F4xx_StdPeriph_Driver/src/stm32f4xx_tim.c ****   tmpccmrx = TIMx->CCMR1;
 1268              		.loc 1 692 12
 1269 0032 7B68     		ldr	r3, [r7, #4]
 1270 0034 1B8B     		ldrh	r3, [r3, #24]	@ movhi
 1271 0036 7B81     		strh	r3, [r7, #10]	@ movhi
 693:Drivers/STM32F4xx_StdPeriph_Driver/src/stm32f4xx_tim.c ****     
 694:Drivers/STM32F4xx_StdPeriph_Driver/src/stm32f4xx_tim.c ****   /* Reset the Output Compare Mode Bits */
 695:Drivers/STM32F4xx_StdPeriph_Driver/src/stm32f4xx_tim.c ****   tmpccmrx &= (uint16_t)~TIM_CCMR1_OC1M;
 1272              		.loc 1 695 12
 1273 0038 7B89     		ldrh	r3, [r7, #10]	@ movhi
 1274 003a 23F07003 		bic	r3, r3, #112
 1275 003e 7B81     		strh	r3, [r7, #10]	@ movhi
 696:Drivers/STM32F4xx_StdPeriph_Driver/src/stm32f4xx_tim.c ****   tmpccmrx &= (uint16_t)~TIM_CCMR1_CC1S;
 1276              		.loc 1 696 12
 1277 0040 7B89     		ldrh	r3, [r7, #10]	@ movhi
 1278 0042 23F00303 		bic	r3, r3, #3
 1279 0046 7B81     		strh	r3, [r7, #10]	@ movhi
 697:Drivers/STM32F4xx_StdPeriph_Driver/src/stm32f4xx_tim.c ****   /* Select the Output Compare Mode */
 698:Drivers/STM32F4xx_StdPeriph_Driver/src/stm32f4xx_tim.c ****   tmpccmrx |= TIM_OCInitStruct->TIM_OCMode;
 1280              		.loc 1 698 31
 1281 0048 3B68     		ldr	r3, [r7]
 1282 004a 1A88     		ldrh	r2, [r3]
 1283              		.loc 1 698 12
 1284 004c 7B89     		ldrh	r3, [r7, #10]	@ movhi
 1285 004e 1343     		orrs	r3, r3, r2
ARM GAS  C:\Users\Admin\AppData\Local\Temp\ccwOX7Bd.s 			page 36


 1286 0050 7B81     		strh	r3, [r7, #10]	@ movhi
 699:Drivers/STM32F4xx_StdPeriph_Driver/src/stm32f4xx_tim.c ****   
 700:Drivers/STM32F4xx_StdPeriph_Driver/src/stm32f4xx_tim.c ****   /* Reset the Output Polarity level */
 701:Drivers/STM32F4xx_StdPeriph_Driver/src/stm32f4xx_tim.c ****   tmpccer &= (uint16_t)~TIM_CCER_CC1P;
 1287              		.loc 1 701 11
 1288 0052 FB89     		ldrh	r3, [r7, #14]	@ movhi
 1289 0054 23F00203 		bic	r3, r3, #2
 1290 0058 FB81     		strh	r3, [r7, #14]	@ movhi
 702:Drivers/STM32F4xx_StdPeriph_Driver/src/stm32f4xx_tim.c ****   /* Set the Output Compare Polarity */
 703:Drivers/STM32F4xx_StdPeriph_Driver/src/stm32f4xx_tim.c ****   tmpccer |= TIM_OCInitStruct->TIM_OCPolarity;
 1291              		.loc 1 703 30
 1292 005a 3B68     		ldr	r3, [r7]
 1293 005c 9A89     		ldrh	r2, [r3, #12]
 1294              		.loc 1 703 11
 1295 005e FB89     		ldrh	r3, [r7, #14]	@ movhi
 1296 0060 1343     		orrs	r3, r3, r2
 1297 0062 FB81     		strh	r3, [r7, #14]	@ movhi
 704:Drivers/STM32F4xx_StdPeriph_Driver/src/stm32f4xx_tim.c ****   
 705:Drivers/STM32F4xx_StdPeriph_Driver/src/stm32f4xx_tim.c ****   /* Set the Output State */
 706:Drivers/STM32F4xx_StdPeriph_Driver/src/stm32f4xx_tim.c ****   tmpccer |= TIM_OCInitStruct->TIM_OutputState;
 1298              		.loc 1 706 30
 1299 0064 3B68     		ldr	r3, [r7]
 1300 0066 5A88     		ldrh	r2, [r3, #2]
 1301              		.loc 1 706 11
 1302 0068 FB89     		ldrh	r3, [r7, #14]	@ movhi
 1303 006a 1343     		orrs	r3, r3, r2
 1304 006c FB81     		strh	r3, [r7, #14]	@ movhi
 707:Drivers/STM32F4xx_StdPeriph_Driver/src/stm32f4xx_tim.c ****     
 708:Drivers/STM32F4xx_StdPeriph_Driver/src/stm32f4xx_tim.c ****   if((TIMx == TIM1) || (TIMx == TIM8))
 1305              		.loc 1 708 5
 1306 006e 7B68     		ldr	r3, [r7, #4]
 1307 0070 1E4A     		ldr	r2, .L57
 1308 0072 9342     		cmp	r3, r2
 1309 0074 03D0     		beq	.L55
 1310              		.loc 1 708 21 discriminator 1
 1311 0076 7B68     		ldr	r3, [r7, #4]
 1312 0078 1D4A     		ldr	r2, .L57+4
 1313 007a 9342     		cmp	r3, r2
 1314 007c 23D1     		bne	.L56
 1315              	.L55:
 709:Drivers/STM32F4xx_StdPeriph_Driver/src/stm32f4xx_tim.c ****   {
 710:Drivers/STM32F4xx_StdPeriph_Driver/src/stm32f4xx_tim.c ****     assert_param(IS_TIM_OUTPUTN_STATE(TIM_OCInitStruct->TIM_OutputNState));
 711:Drivers/STM32F4xx_StdPeriph_Driver/src/stm32f4xx_tim.c ****     assert_param(IS_TIM_OCN_POLARITY(TIM_OCInitStruct->TIM_OCNPolarity));
 712:Drivers/STM32F4xx_StdPeriph_Driver/src/stm32f4xx_tim.c ****     assert_param(IS_TIM_OCNIDLE_STATE(TIM_OCInitStruct->TIM_OCNIdleState));
 713:Drivers/STM32F4xx_StdPeriph_Driver/src/stm32f4xx_tim.c ****     assert_param(IS_TIM_OCIDLE_STATE(TIM_OCInitStruct->TIM_OCIdleState));
 714:Drivers/STM32F4xx_StdPeriph_Driver/src/stm32f4xx_tim.c ****     
 715:Drivers/STM32F4xx_StdPeriph_Driver/src/stm32f4xx_tim.c ****     /* Reset the Output N Polarity level */
 716:Drivers/STM32F4xx_StdPeriph_Driver/src/stm32f4xx_tim.c ****     tmpccer &= (uint16_t)~TIM_CCER_CC1NP;
 1316              		.loc 1 716 13
 1317 007e FB89     		ldrh	r3, [r7, #14]	@ movhi
 1318 0080 23F00803 		bic	r3, r3, #8
 1319 0084 FB81     		strh	r3, [r7, #14]	@ movhi
 717:Drivers/STM32F4xx_StdPeriph_Driver/src/stm32f4xx_tim.c ****     /* Set the Output N Polarity */
 718:Drivers/STM32F4xx_StdPeriph_Driver/src/stm32f4xx_tim.c ****     tmpccer |= TIM_OCInitStruct->TIM_OCNPolarity;
 1320              		.loc 1 718 32
 1321 0086 3B68     		ldr	r3, [r7]
 1322 0088 DA89     		ldrh	r2, [r3, #14]
ARM GAS  C:\Users\Admin\AppData\Local\Temp\ccwOX7Bd.s 			page 37


 1323              		.loc 1 718 13
 1324 008a FB89     		ldrh	r3, [r7, #14]	@ movhi
 1325 008c 1343     		orrs	r3, r3, r2
 1326 008e FB81     		strh	r3, [r7, #14]	@ movhi
 719:Drivers/STM32F4xx_StdPeriph_Driver/src/stm32f4xx_tim.c ****     /* Reset the Output N State */
 720:Drivers/STM32F4xx_StdPeriph_Driver/src/stm32f4xx_tim.c ****     tmpccer &= (uint16_t)~TIM_CCER_CC1NE;
 1327              		.loc 1 720 13
 1328 0090 FB89     		ldrh	r3, [r7, #14]	@ movhi
 1329 0092 23F00403 		bic	r3, r3, #4
 1330 0096 FB81     		strh	r3, [r7, #14]	@ movhi
 721:Drivers/STM32F4xx_StdPeriph_Driver/src/stm32f4xx_tim.c ****     
 722:Drivers/STM32F4xx_StdPeriph_Driver/src/stm32f4xx_tim.c ****     /* Set the Output N State */
 723:Drivers/STM32F4xx_StdPeriph_Driver/src/stm32f4xx_tim.c ****     tmpccer |= TIM_OCInitStruct->TIM_OutputNState;
 1331              		.loc 1 723 32
 1332 0098 3B68     		ldr	r3, [r7]
 1333 009a 9A88     		ldrh	r2, [r3, #4]
 1334              		.loc 1 723 13
 1335 009c FB89     		ldrh	r3, [r7, #14]	@ movhi
 1336 009e 1343     		orrs	r3, r3, r2
 1337 00a0 FB81     		strh	r3, [r7, #14]	@ movhi
 724:Drivers/STM32F4xx_StdPeriph_Driver/src/stm32f4xx_tim.c ****     /* Reset the Output Compare and Output Compare N IDLE State */
 725:Drivers/STM32F4xx_StdPeriph_Driver/src/stm32f4xx_tim.c ****     tmpcr2 &= (uint16_t)~TIM_CR2_OIS1;
 1338              		.loc 1 725 12
 1339 00a2 BB89     		ldrh	r3, [r7, #12]	@ movhi
 1340 00a4 23F48073 		bic	r3, r3, #256
 1341 00a8 BB81     		strh	r3, [r7, #12]	@ movhi
 726:Drivers/STM32F4xx_StdPeriph_Driver/src/stm32f4xx_tim.c ****     tmpcr2 &= (uint16_t)~TIM_CR2_OIS1N;
 1342              		.loc 1 726 12
 1343 00aa BB89     		ldrh	r3, [r7, #12]	@ movhi
 1344 00ac 23F40073 		bic	r3, r3, #512
 1345 00b0 BB81     		strh	r3, [r7, #12]	@ movhi
 727:Drivers/STM32F4xx_StdPeriph_Driver/src/stm32f4xx_tim.c ****     /* Set the Output Idle state */
 728:Drivers/STM32F4xx_StdPeriph_Driver/src/stm32f4xx_tim.c ****     tmpcr2 |= TIM_OCInitStruct->TIM_OCIdleState;
 1346              		.loc 1 728 31
 1347 00b2 3B68     		ldr	r3, [r7]
 1348 00b4 1A8A     		ldrh	r2, [r3, #16]
 1349              		.loc 1 728 12
 1350 00b6 BB89     		ldrh	r3, [r7, #12]	@ movhi
 1351 00b8 1343     		orrs	r3, r3, r2
 1352 00ba BB81     		strh	r3, [r7, #12]	@ movhi
 729:Drivers/STM32F4xx_StdPeriph_Driver/src/stm32f4xx_tim.c ****     /* Set the Output N Idle state */
 730:Drivers/STM32F4xx_StdPeriph_Driver/src/stm32f4xx_tim.c ****     tmpcr2 |= TIM_OCInitStruct->TIM_OCNIdleState;
 1353              		.loc 1 730 31
 1354 00bc 3B68     		ldr	r3, [r7]
 1355 00be 5A8A     		ldrh	r2, [r3, #18]
 1356              		.loc 1 730 12
 1357 00c0 BB89     		ldrh	r3, [r7, #12]	@ movhi
 1358 00c2 1343     		orrs	r3, r3, r2
 1359 00c4 BB81     		strh	r3, [r7, #12]	@ movhi
 1360              	.L56:
 731:Drivers/STM32F4xx_StdPeriph_Driver/src/stm32f4xx_tim.c ****   }
 732:Drivers/STM32F4xx_StdPeriph_Driver/src/stm32f4xx_tim.c ****   /* Write to TIMx CR2 */
 733:Drivers/STM32F4xx_StdPeriph_Driver/src/stm32f4xx_tim.c ****   TIMx->CR2 = tmpcr2;
 1361              		.loc 1 733 13
 1362 00c6 7B68     		ldr	r3, [r7, #4]
 1363 00c8 BA89     		ldrh	r2, [r7, #12]	@ movhi
 1364 00ca 9A80     		strh	r2, [r3, #4]	@ movhi
ARM GAS  C:\Users\Admin\AppData\Local\Temp\ccwOX7Bd.s 			page 38


 734:Drivers/STM32F4xx_StdPeriph_Driver/src/stm32f4xx_tim.c ****   
 735:Drivers/STM32F4xx_StdPeriph_Driver/src/stm32f4xx_tim.c ****   /* Write to TIMx CCMR1 */
 736:Drivers/STM32F4xx_StdPeriph_Driver/src/stm32f4xx_tim.c ****   TIMx->CCMR1 = tmpccmrx;
 1365              		.loc 1 736 15
 1366 00cc 7B68     		ldr	r3, [r7, #4]
 1367 00ce 7A89     		ldrh	r2, [r7, #10]	@ movhi
 1368 00d0 1A83     		strh	r2, [r3, #24]	@ movhi
 737:Drivers/STM32F4xx_StdPeriph_Driver/src/stm32f4xx_tim.c ****   
 738:Drivers/STM32F4xx_StdPeriph_Driver/src/stm32f4xx_tim.c ****   /* Set the Capture Compare Register value */
 739:Drivers/STM32F4xx_StdPeriph_Driver/src/stm32f4xx_tim.c ****   TIMx->CCR1 = TIM_OCInitStruct->TIM_Pulse;
 1369              		.loc 1 739 32
 1370 00d2 3B68     		ldr	r3, [r7]
 1371 00d4 9A68     		ldr	r2, [r3, #8]
 1372              		.loc 1 739 14
 1373 00d6 7B68     		ldr	r3, [r7, #4]
 1374 00d8 5A63     		str	r2, [r3, #52]
 740:Drivers/STM32F4xx_StdPeriph_Driver/src/stm32f4xx_tim.c ****   
 741:Drivers/STM32F4xx_StdPeriph_Driver/src/stm32f4xx_tim.c ****   /* Write to TIMx CCER */
 742:Drivers/STM32F4xx_StdPeriph_Driver/src/stm32f4xx_tim.c ****   TIMx->CCER = tmpccer;
 1375              		.loc 1 742 14
 1376 00da 7B68     		ldr	r3, [r7, #4]
 1377 00dc FA89     		ldrh	r2, [r7, #14]	@ movhi
 1378 00de 1A84     		strh	r2, [r3, #32]	@ movhi
 743:Drivers/STM32F4xx_StdPeriph_Driver/src/stm32f4xx_tim.c **** }
 1379              		.loc 1 743 1
 1380 00e0 00BF     		nop
 1381 00e2 1437     		adds	r7, r7, #20
 1382              	.LCFI92:
 1383              		.cfi_def_cfa_offset 4
 1384 00e4 BD46     		mov	sp, r7
 1385              	.LCFI93:
 1386              		.cfi_def_cfa_register 13
 1387              		@ sp needed
 1388 00e6 5DF8047B 		ldr	r7, [sp], #4
 1389              	.LCFI94:
 1390              		.cfi_restore 7
 1391              		.cfi_def_cfa_offset 0
 1392 00ea 7047     		bx	lr
 1393              	.L58:
 1394              		.align	2
 1395              	.L57:
 1396 00ec 00000140 		.word	1073807360
 1397 00f0 00040140 		.word	1073808384
 1398              		.cfi_endproc
 1399              	.LFE145:
 1401              		.section	.text.TIM_OC2Init,"ax",%progbits
 1402              		.align	1
 1403              		.global	TIM_OC2Init
 1404              		.syntax unified
 1405              		.thumb
 1406              		.thumb_func
 1408              	TIM_OC2Init:
 1409              	.LFB146:
 744:Drivers/STM32F4xx_StdPeriph_Driver/src/stm32f4xx_tim.c **** 
 745:Drivers/STM32F4xx_StdPeriph_Driver/src/stm32f4xx_tim.c **** /**
 746:Drivers/STM32F4xx_StdPeriph_Driver/src/stm32f4xx_tim.c ****   * @brief  Initializes the TIMx Channel2 according to the specified parameters 
 747:Drivers/STM32F4xx_StdPeriph_Driver/src/stm32f4xx_tim.c ****   *         in the TIM_OCInitStruct.
ARM GAS  C:\Users\Admin\AppData\Local\Temp\ccwOX7Bd.s 			page 39


 748:Drivers/STM32F4xx_StdPeriph_Driver/src/stm32f4xx_tim.c ****   * @param  TIMx: where x can be 1, 2, 3, 4, 5, 8, 9 or 12 to select the TIM 
 749:Drivers/STM32F4xx_StdPeriph_Driver/src/stm32f4xx_tim.c ****   *         peripheral.
 750:Drivers/STM32F4xx_StdPeriph_Driver/src/stm32f4xx_tim.c ****   * @param  TIM_OCInitStruct: pointer to a TIM_OCInitTypeDef structure that contains
 751:Drivers/STM32F4xx_StdPeriph_Driver/src/stm32f4xx_tim.c ****   *         the configuration information for the specified TIM peripheral.
 752:Drivers/STM32F4xx_StdPeriph_Driver/src/stm32f4xx_tim.c ****   * @retval None
 753:Drivers/STM32F4xx_StdPeriph_Driver/src/stm32f4xx_tim.c ****   */
 754:Drivers/STM32F4xx_StdPeriph_Driver/src/stm32f4xx_tim.c **** void TIM_OC2Init(TIM_TypeDef* TIMx, TIM_OCInitTypeDef* TIM_OCInitStruct)
 755:Drivers/STM32F4xx_StdPeriph_Driver/src/stm32f4xx_tim.c **** {
 1410              		.loc 1 755 1
 1411              		.cfi_startproc
 1412              		@ args = 0, pretend = 0, frame = 16
 1413              		@ frame_needed = 1, uses_anonymous_args = 0
 1414              		@ link register save eliminated.
 1415 0000 80B4     		push	{r7}
 1416              	.LCFI95:
 1417              		.cfi_def_cfa_offset 4
 1418              		.cfi_offset 7, -4
 1419 0002 85B0     		sub	sp, sp, #20
 1420              	.LCFI96:
 1421              		.cfi_def_cfa_offset 24
 1422 0004 00AF     		add	r7, sp, #0
 1423              	.LCFI97:
 1424              		.cfi_def_cfa_register 7
 1425 0006 7860     		str	r0, [r7, #4]
 1426 0008 3960     		str	r1, [r7]
 756:Drivers/STM32F4xx_StdPeriph_Driver/src/stm32f4xx_tim.c ****   uint16_t tmpccmrx = 0, tmpccer = 0, tmpcr2 = 0;
 1427              		.loc 1 756 12
 1428 000a 0023     		movs	r3, #0
 1429 000c 7B81     		strh	r3, [r7, #10]	@ movhi
 1430              		.loc 1 756 26
 1431 000e 0023     		movs	r3, #0
 1432 0010 FB81     		strh	r3, [r7, #14]	@ movhi
 1433              		.loc 1 756 39
 1434 0012 0023     		movs	r3, #0
 1435 0014 BB81     		strh	r3, [r7, #12]	@ movhi
 757:Drivers/STM32F4xx_StdPeriph_Driver/src/stm32f4xx_tim.c ****    
 758:Drivers/STM32F4xx_StdPeriph_Driver/src/stm32f4xx_tim.c ****   /* Check the parameters */
 759:Drivers/STM32F4xx_StdPeriph_Driver/src/stm32f4xx_tim.c ****   assert_param(IS_TIM_LIST2_PERIPH(TIMx)); 
 760:Drivers/STM32F4xx_StdPeriph_Driver/src/stm32f4xx_tim.c ****   assert_param(IS_TIM_OC_MODE(TIM_OCInitStruct->TIM_OCMode));
 761:Drivers/STM32F4xx_StdPeriph_Driver/src/stm32f4xx_tim.c ****   assert_param(IS_TIM_OUTPUT_STATE(TIM_OCInitStruct->TIM_OutputState));
 762:Drivers/STM32F4xx_StdPeriph_Driver/src/stm32f4xx_tim.c ****   assert_param(IS_TIM_OC_POLARITY(TIM_OCInitStruct->TIM_OCPolarity));   
 763:Drivers/STM32F4xx_StdPeriph_Driver/src/stm32f4xx_tim.c **** 
 764:Drivers/STM32F4xx_StdPeriph_Driver/src/stm32f4xx_tim.c ****   /* Disable the Channel 2: Reset the CC2E Bit */
 765:Drivers/STM32F4xx_StdPeriph_Driver/src/stm32f4xx_tim.c ****   TIMx->CCER &= (uint16_t)~TIM_CCER_CC2E;
 1436              		.loc 1 765 14
 1437 0016 7B68     		ldr	r3, [r7, #4]
 1438 0018 1B8C     		ldrh	r3, [r3, #32]	@ movhi
 1439 001a 9BB2     		uxth	r3, r3
 1440 001c 23F01003 		bic	r3, r3, #16
 1441 0020 9AB2     		uxth	r2, r3
 1442 0022 7B68     		ldr	r3, [r7, #4]
 1443 0024 1A84     		strh	r2, [r3, #32]	@ movhi
 766:Drivers/STM32F4xx_StdPeriph_Driver/src/stm32f4xx_tim.c ****   
 767:Drivers/STM32F4xx_StdPeriph_Driver/src/stm32f4xx_tim.c ****   /* Get the TIMx CCER register value */  
 768:Drivers/STM32F4xx_StdPeriph_Driver/src/stm32f4xx_tim.c ****   tmpccer = TIMx->CCER;
 1444              		.loc 1 768 11
 1445 0026 7B68     		ldr	r3, [r7, #4]
ARM GAS  C:\Users\Admin\AppData\Local\Temp\ccwOX7Bd.s 			page 40


 1446 0028 1B8C     		ldrh	r3, [r3, #32]	@ movhi
 1447 002a FB81     		strh	r3, [r7, #14]	@ movhi
 769:Drivers/STM32F4xx_StdPeriph_Driver/src/stm32f4xx_tim.c ****   /* Get the TIMx CR2 register value */
 770:Drivers/STM32F4xx_StdPeriph_Driver/src/stm32f4xx_tim.c ****   tmpcr2 =  TIMx->CR2;
 1448              		.loc 1 770 10
 1449 002c 7B68     		ldr	r3, [r7, #4]
 1450 002e 9B88     		ldrh	r3, [r3, #4]	@ movhi
 1451 0030 BB81     		strh	r3, [r7, #12]	@ movhi
 771:Drivers/STM32F4xx_StdPeriph_Driver/src/stm32f4xx_tim.c ****   
 772:Drivers/STM32F4xx_StdPeriph_Driver/src/stm32f4xx_tim.c ****   /* Get the TIMx CCMR1 register value */
 773:Drivers/STM32F4xx_StdPeriph_Driver/src/stm32f4xx_tim.c ****   tmpccmrx = TIMx->CCMR1;
 1452              		.loc 1 773 12
 1453 0032 7B68     		ldr	r3, [r7, #4]
 1454 0034 1B8B     		ldrh	r3, [r3, #24]	@ movhi
 1455 0036 7B81     		strh	r3, [r7, #10]	@ movhi
 774:Drivers/STM32F4xx_StdPeriph_Driver/src/stm32f4xx_tim.c ****     
 775:Drivers/STM32F4xx_StdPeriph_Driver/src/stm32f4xx_tim.c ****   /* Reset the Output Compare mode and Capture/Compare selection Bits */
 776:Drivers/STM32F4xx_StdPeriph_Driver/src/stm32f4xx_tim.c ****   tmpccmrx &= (uint16_t)~TIM_CCMR1_OC2M;
 1456              		.loc 1 776 12
 1457 0038 7B89     		ldrh	r3, [r7, #10]	@ movhi
 1458 003a 23F4E043 		bic	r3, r3, #28672
 1459 003e 7B81     		strh	r3, [r7, #10]	@ movhi
 777:Drivers/STM32F4xx_StdPeriph_Driver/src/stm32f4xx_tim.c ****   tmpccmrx &= (uint16_t)~TIM_CCMR1_CC2S;
 1460              		.loc 1 777 12
 1461 0040 7B89     		ldrh	r3, [r7, #10]	@ movhi
 1462 0042 23F44073 		bic	r3, r3, #768
 1463 0046 7B81     		strh	r3, [r7, #10]	@ movhi
 778:Drivers/STM32F4xx_StdPeriph_Driver/src/stm32f4xx_tim.c ****   
 779:Drivers/STM32F4xx_StdPeriph_Driver/src/stm32f4xx_tim.c ****   /* Select the Output Compare Mode */
 780:Drivers/STM32F4xx_StdPeriph_Driver/src/stm32f4xx_tim.c ****   tmpccmrx |= (uint16_t)(TIM_OCInitStruct->TIM_OCMode << 8);
 1464              		.loc 1 780 42
 1465 0048 3B68     		ldr	r3, [r7]
 1466 004a 1B88     		ldrh	r3, [r3]
 1467              		.loc 1 780 15
 1468 004c 1B02     		lsls	r3, r3, #8
 1469 004e 9AB2     		uxth	r2, r3
 1470              		.loc 1 780 12
 1471 0050 7B89     		ldrh	r3, [r7, #10]	@ movhi
 1472 0052 1343     		orrs	r3, r3, r2
 1473 0054 7B81     		strh	r3, [r7, #10]	@ movhi
 781:Drivers/STM32F4xx_StdPeriph_Driver/src/stm32f4xx_tim.c ****   
 782:Drivers/STM32F4xx_StdPeriph_Driver/src/stm32f4xx_tim.c ****   /* Reset the Output Polarity level */
 783:Drivers/STM32F4xx_StdPeriph_Driver/src/stm32f4xx_tim.c ****   tmpccer &= (uint16_t)~TIM_CCER_CC2P;
 1474              		.loc 1 783 11
 1475 0056 FB89     		ldrh	r3, [r7, #14]	@ movhi
 1476 0058 23F02003 		bic	r3, r3, #32
 1477 005c FB81     		strh	r3, [r7, #14]	@ movhi
 784:Drivers/STM32F4xx_StdPeriph_Driver/src/stm32f4xx_tim.c ****   /* Set the Output Compare Polarity */
 785:Drivers/STM32F4xx_StdPeriph_Driver/src/stm32f4xx_tim.c ****   tmpccer |= (uint16_t)(TIM_OCInitStruct->TIM_OCPolarity << 4);
 1478              		.loc 1 785 41
 1479 005e 3B68     		ldr	r3, [r7]
 1480 0060 9B89     		ldrh	r3, [r3, #12]
 1481              		.loc 1 785 14
 1482 0062 1B01     		lsls	r3, r3, #4
 1483 0064 9AB2     		uxth	r2, r3
 1484              		.loc 1 785 11
 1485 0066 FB89     		ldrh	r3, [r7, #14]	@ movhi
ARM GAS  C:\Users\Admin\AppData\Local\Temp\ccwOX7Bd.s 			page 41


 1486 0068 1343     		orrs	r3, r3, r2
 1487 006a FB81     		strh	r3, [r7, #14]	@ movhi
 786:Drivers/STM32F4xx_StdPeriph_Driver/src/stm32f4xx_tim.c ****   
 787:Drivers/STM32F4xx_StdPeriph_Driver/src/stm32f4xx_tim.c ****   /* Set the Output State */
 788:Drivers/STM32F4xx_StdPeriph_Driver/src/stm32f4xx_tim.c ****   tmpccer |= (uint16_t)(TIM_OCInitStruct->TIM_OutputState << 4);
 1488              		.loc 1 788 41
 1489 006c 3B68     		ldr	r3, [r7]
 1490 006e 5B88     		ldrh	r3, [r3, #2]
 1491              		.loc 1 788 14
 1492 0070 1B01     		lsls	r3, r3, #4
 1493 0072 9AB2     		uxth	r2, r3
 1494              		.loc 1 788 11
 1495 0074 FB89     		ldrh	r3, [r7, #14]	@ movhi
 1496 0076 1343     		orrs	r3, r3, r2
 1497 0078 FB81     		strh	r3, [r7, #14]	@ movhi
 789:Drivers/STM32F4xx_StdPeriph_Driver/src/stm32f4xx_tim.c ****     
 790:Drivers/STM32F4xx_StdPeriph_Driver/src/stm32f4xx_tim.c ****   if((TIMx == TIM1) || (TIMx == TIM8))
 1498              		.loc 1 790 5
 1499 007a 7B68     		ldr	r3, [r7, #4]
 1500 007c 224A     		ldr	r2, .L62
 1501 007e 9342     		cmp	r3, r2
 1502 0080 03D0     		beq	.L60
 1503              		.loc 1 790 21 discriminator 1
 1504 0082 7B68     		ldr	r3, [r7, #4]
 1505 0084 214A     		ldr	r2, .L62+4
 1506 0086 9342     		cmp	r3, r2
 1507 0088 2BD1     		bne	.L61
 1508              	.L60:
 791:Drivers/STM32F4xx_StdPeriph_Driver/src/stm32f4xx_tim.c ****   {
 792:Drivers/STM32F4xx_StdPeriph_Driver/src/stm32f4xx_tim.c ****     assert_param(IS_TIM_OUTPUTN_STATE(TIM_OCInitStruct->TIM_OutputNState));
 793:Drivers/STM32F4xx_StdPeriph_Driver/src/stm32f4xx_tim.c ****     assert_param(IS_TIM_OCN_POLARITY(TIM_OCInitStruct->TIM_OCNPolarity));
 794:Drivers/STM32F4xx_StdPeriph_Driver/src/stm32f4xx_tim.c ****     assert_param(IS_TIM_OCNIDLE_STATE(TIM_OCInitStruct->TIM_OCNIdleState));
 795:Drivers/STM32F4xx_StdPeriph_Driver/src/stm32f4xx_tim.c ****     assert_param(IS_TIM_OCIDLE_STATE(TIM_OCInitStruct->TIM_OCIdleState));
 796:Drivers/STM32F4xx_StdPeriph_Driver/src/stm32f4xx_tim.c ****     
 797:Drivers/STM32F4xx_StdPeriph_Driver/src/stm32f4xx_tim.c ****     /* Reset the Output N Polarity level */
 798:Drivers/STM32F4xx_StdPeriph_Driver/src/stm32f4xx_tim.c ****     tmpccer &= (uint16_t)~TIM_CCER_CC2NP;
 1509              		.loc 1 798 13
 1510 008a FB89     		ldrh	r3, [r7, #14]	@ movhi
 1511 008c 23F08003 		bic	r3, r3, #128
 1512 0090 FB81     		strh	r3, [r7, #14]	@ movhi
 799:Drivers/STM32F4xx_StdPeriph_Driver/src/stm32f4xx_tim.c ****     /* Set the Output N Polarity */
 800:Drivers/STM32F4xx_StdPeriph_Driver/src/stm32f4xx_tim.c ****     tmpccer |= (uint16_t)(TIM_OCInitStruct->TIM_OCNPolarity << 4);
 1513              		.loc 1 800 43
 1514 0092 3B68     		ldr	r3, [r7]
 1515 0094 DB89     		ldrh	r3, [r3, #14]
 1516              		.loc 1 800 16
 1517 0096 1B01     		lsls	r3, r3, #4
 1518 0098 9AB2     		uxth	r2, r3
 1519              		.loc 1 800 13
 1520 009a FB89     		ldrh	r3, [r7, #14]	@ movhi
 1521 009c 1343     		orrs	r3, r3, r2
 1522 009e FB81     		strh	r3, [r7, #14]	@ movhi
 801:Drivers/STM32F4xx_StdPeriph_Driver/src/stm32f4xx_tim.c ****     /* Reset the Output N State */
 802:Drivers/STM32F4xx_StdPeriph_Driver/src/stm32f4xx_tim.c ****     tmpccer &= (uint16_t)~TIM_CCER_CC2NE;
 1523              		.loc 1 802 13
 1524 00a0 FB89     		ldrh	r3, [r7, #14]	@ movhi
 1525 00a2 23F04003 		bic	r3, r3, #64
ARM GAS  C:\Users\Admin\AppData\Local\Temp\ccwOX7Bd.s 			page 42


 1526 00a6 FB81     		strh	r3, [r7, #14]	@ movhi
 803:Drivers/STM32F4xx_StdPeriph_Driver/src/stm32f4xx_tim.c ****     
 804:Drivers/STM32F4xx_StdPeriph_Driver/src/stm32f4xx_tim.c ****     /* Set the Output N State */
 805:Drivers/STM32F4xx_StdPeriph_Driver/src/stm32f4xx_tim.c ****     tmpccer |= (uint16_t)(TIM_OCInitStruct->TIM_OutputNState << 4);
 1527              		.loc 1 805 43
 1528 00a8 3B68     		ldr	r3, [r7]
 1529 00aa 9B88     		ldrh	r3, [r3, #4]
 1530              		.loc 1 805 16
 1531 00ac 1B01     		lsls	r3, r3, #4
 1532 00ae 9AB2     		uxth	r2, r3
 1533              		.loc 1 805 13
 1534 00b0 FB89     		ldrh	r3, [r7, #14]	@ movhi
 1535 00b2 1343     		orrs	r3, r3, r2
 1536 00b4 FB81     		strh	r3, [r7, #14]	@ movhi
 806:Drivers/STM32F4xx_StdPeriph_Driver/src/stm32f4xx_tim.c ****     /* Reset the Output Compare and Output Compare N IDLE State */
 807:Drivers/STM32F4xx_StdPeriph_Driver/src/stm32f4xx_tim.c ****     tmpcr2 &= (uint16_t)~TIM_CR2_OIS2;
 1537              		.loc 1 807 12
 1538 00b6 BB89     		ldrh	r3, [r7, #12]	@ movhi
 1539 00b8 23F48063 		bic	r3, r3, #1024
 1540 00bc BB81     		strh	r3, [r7, #12]	@ movhi
 808:Drivers/STM32F4xx_StdPeriph_Driver/src/stm32f4xx_tim.c ****     tmpcr2 &= (uint16_t)~TIM_CR2_OIS2N;
 1541              		.loc 1 808 12
 1542 00be BB89     		ldrh	r3, [r7, #12]	@ movhi
 1543 00c0 23F40063 		bic	r3, r3, #2048
 1544 00c4 BB81     		strh	r3, [r7, #12]	@ movhi
 809:Drivers/STM32F4xx_StdPeriph_Driver/src/stm32f4xx_tim.c ****     /* Set the Output Idle state */
 810:Drivers/STM32F4xx_StdPeriph_Driver/src/stm32f4xx_tim.c ****     tmpcr2 |= (uint16_t)(TIM_OCInitStruct->TIM_OCIdleState << 2);
 1545              		.loc 1 810 42
 1546 00c6 3B68     		ldr	r3, [r7]
 1547 00c8 1B8A     		ldrh	r3, [r3, #16]
 1548              		.loc 1 810 15
 1549 00ca 9B00     		lsls	r3, r3, #2
 1550 00cc 9AB2     		uxth	r2, r3
 1551              		.loc 1 810 12
 1552 00ce BB89     		ldrh	r3, [r7, #12]	@ movhi
 1553 00d0 1343     		orrs	r3, r3, r2
 1554 00d2 BB81     		strh	r3, [r7, #12]	@ movhi
 811:Drivers/STM32F4xx_StdPeriph_Driver/src/stm32f4xx_tim.c ****     /* Set the Output N Idle state */
 812:Drivers/STM32F4xx_StdPeriph_Driver/src/stm32f4xx_tim.c ****     tmpcr2 |= (uint16_t)(TIM_OCInitStruct->TIM_OCNIdleState << 2);
 1555              		.loc 1 812 42
 1556 00d4 3B68     		ldr	r3, [r7]
 1557 00d6 5B8A     		ldrh	r3, [r3, #18]
 1558              		.loc 1 812 15
 1559 00d8 9B00     		lsls	r3, r3, #2
 1560 00da 9AB2     		uxth	r2, r3
 1561              		.loc 1 812 12
 1562 00dc BB89     		ldrh	r3, [r7, #12]	@ movhi
 1563 00de 1343     		orrs	r3, r3, r2
 1564 00e0 BB81     		strh	r3, [r7, #12]	@ movhi
 1565              	.L61:
 813:Drivers/STM32F4xx_StdPeriph_Driver/src/stm32f4xx_tim.c ****   }
 814:Drivers/STM32F4xx_StdPeriph_Driver/src/stm32f4xx_tim.c ****   /* Write to TIMx CR2 */
 815:Drivers/STM32F4xx_StdPeriph_Driver/src/stm32f4xx_tim.c ****   TIMx->CR2 = tmpcr2;
 1566              		.loc 1 815 13
 1567 00e2 7B68     		ldr	r3, [r7, #4]
 1568 00e4 BA89     		ldrh	r2, [r7, #12]	@ movhi
 1569 00e6 9A80     		strh	r2, [r3, #4]	@ movhi
ARM GAS  C:\Users\Admin\AppData\Local\Temp\ccwOX7Bd.s 			page 43


 816:Drivers/STM32F4xx_StdPeriph_Driver/src/stm32f4xx_tim.c ****   
 817:Drivers/STM32F4xx_StdPeriph_Driver/src/stm32f4xx_tim.c ****   /* Write to TIMx CCMR1 */
 818:Drivers/STM32F4xx_StdPeriph_Driver/src/stm32f4xx_tim.c ****   TIMx->CCMR1 = tmpccmrx;
 1570              		.loc 1 818 15
 1571 00e8 7B68     		ldr	r3, [r7, #4]
 1572 00ea 7A89     		ldrh	r2, [r7, #10]	@ movhi
 1573 00ec 1A83     		strh	r2, [r3, #24]	@ movhi
 819:Drivers/STM32F4xx_StdPeriph_Driver/src/stm32f4xx_tim.c ****   
 820:Drivers/STM32F4xx_StdPeriph_Driver/src/stm32f4xx_tim.c ****   /* Set the Capture Compare Register value */
 821:Drivers/STM32F4xx_StdPeriph_Driver/src/stm32f4xx_tim.c ****   TIMx->CCR2 = TIM_OCInitStruct->TIM_Pulse;
 1574              		.loc 1 821 32
 1575 00ee 3B68     		ldr	r3, [r7]
 1576 00f0 9A68     		ldr	r2, [r3, #8]
 1577              		.loc 1 821 14
 1578 00f2 7B68     		ldr	r3, [r7, #4]
 1579 00f4 9A63     		str	r2, [r3, #56]
 822:Drivers/STM32F4xx_StdPeriph_Driver/src/stm32f4xx_tim.c ****   
 823:Drivers/STM32F4xx_StdPeriph_Driver/src/stm32f4xx_tim.c ****   /* Write to TIMx CCER */
 824:Drivers/STM32F4xx_StdPeriph_Driver/src/stm32f4xx_tim.c ****   TIMx->CCER = tmpccer;
 1580              		.loc 1 824 14
 1581 00f6 7B68     		ldr	r3, [r7, #4]
 1582 00f8 FA89     		ldrh	r2, [r7, #14]	@ movhi
 1583 00fa 1A84     		strh	r2, [r3, #32]	@ movhi
 825:Drivers/STM32F4xx_StdPeriph_Driver/src/stm32f4xx_tim.c **** }
 1584              		.loc 1 825 1
 1585 00fc 00BF     		nop
 1586 00fe 1437     		adds	r7, r7, #20
 1587              	.LCFI98:
 1588              		.cfi_def_cfa_offset 4
 1589 0100 BD46     		mov	sp, r7
 1590              	.LCFI99:
 1591              		.cfi_def_cfa_register 13
 1592              		@ sp needed
 1593 0102 5DF8047B 		ldr	r7, [sp], #4
 1594              	.LCFI100:
 1595              		.cfi_restore 7
 1596              		.cfi_def_cfa_offset 0
 1597 0106 7047     		bx	lr
 1598              	.L63:
 1599              		.align	2
 1600              	.L62:
 1601 0108 00000140 		.word	1073807360
 1602 010c 00040140 		.word	1073808384
 1603              		.cfi_endproc
 1604              	.LFE146:
 1606              		.section	.text.TIM_OC3Init,"ax",%progbits
 1607              		.align	1
 1608              		.global	TIM_OC3Init
 1609              		.syntax unified
 1610              		.thumb
 1611              		.thumb_func
 1613              	TIM_OC3Init:
 1614              	.LFB147:
 826:Drivers/STM32F4xx_StdPeriph_Driver/src/stm32f4xx_tim.c **** 
 827:Drivers/STM32F4xx_StdPeriph_Driver/src/stm32f4xx_tim.c **** /**
 828:Drivers/STM32F4xx_StdPeriph_Driver/src/stm32f4xx_tim.c ****   * @brief  Initializes the TIMx Channel3 according to the specified parameters
 829:Drivers/STM32F4xx_StdPeriph_Driver/src/stm32f4xx_tim.c ****   *         in the TIM_OCInitStruct.
ARM GAS  C:\Users\Admin\AppData\Local\Temp\ccwOX7Bd.s 			page 44


 830:Drivers/STM32F4xx_StdPeriph_Driver/src/stm32f4xx_tim.c ****   * @param  TIMx: where x can be 1, 2, 3, 4, 5 or 8 to select the TIM peripheral.
 831:Drivers/STM32F4xx_StdPeriph_Driver/src/stm32f4xx_tim.c ****   * @param  TIM_OCInitStruct: pointer to a TIM_OCInitTypeDef structure that contains
 832:Drivers/STM32F4xx_StdPeriph_Driver/src/stm32f4xx_tim.c ****   *         the configuration information for the specified TIM peripheral.
 833:Drivers/STM32F4xx_StdPeriph_Driver/src/stm32f4xx_tim.c ****   * @retval None
 834:Drivers/STM32F4xx_StdPeriph_Driver/src/stm32f4xx_tim.c ****   */
 835:Drivers/STM32F4xx_StdPeriph_Driver/src/stm32f4xx_tim.c **** void TIM_OC3Init(TIM_TypeDef* TIMx, TIM_OCInitTypeDef* TIM_OCInitStruct)
 836:Drivers/STM32F4xx_StdPeriph_Driver/src/stm32f4xx_tim.c **** {
 1615              		.loc 1 836 1
 1616              		.cfi_startproc
 1617              		@ args = 0, pretend = 0, frame = 16
 1618              		@ frame_needed = 1, uses_anonymous_args = 0
 1619              		@ link register save eliminated.
 1620 0000 80B4     		push	{r7}
 1621              	.LCFI101:
 1622              		.cfi_def_cfa_offset 4
 1623              		.cfi_offset 7, -4
 1624 0002 85B0     		sub	sp, sp, #20
 1625              	.LCFI102:
 1626              		.cfi_def_cfa_offset 24
 1627 0004 00AF     		add	r7, sp, #0
 1628              	.LCFI103:
 1629              		.cfi_def_cfa_register 7
 1630 0006 7860     		str	r0, [r7, #4]
 1631 0008 3960     		str	r1, [r7]
 837:Drivers/STM32F4xx_StdPeriph_Driver/src/stm32f4xx_tim.c ****   uint16_t tmpccmrx = 0, tmpccer = 0, tmpcr2 = 0;
 1632              		.loc 1 837 12
 1633 000a 0023     		movs	r3, #0
 1634 000c 7B81     		strh	r3, [r7, #10]	@ movhi
 1635              		.loc 1 837 26
 1636 000e 0023     		movs	r3, #0
 1637 0010 FB81     		strh	r3, [r7, #14]	@ movhi
 1638              		.loc 1 837 39
 1639 0012 0023     		movs	r3, #0
 1640 0014 BB81     		strh	r3, [r7, #12]	@ movhi
 838:Drivers/STM32F4xx_StdPeriph_Driver/src/stm32f4xx_tim.c ****    
 839:Drivers/STM32F4xx_StdPeriph_Driver/src/stm32f4xx_tim.c ****   /* Check the parameters */
 840:Drivers/STM32F4xx_StdPeriph_Driver/src/stm32f4xx_tim.c ****   assert_param(IS_TIM_LIST3_PERIPH(TIMx)); 
 841:Drivers/STM32F4xx_StdPeriph_Driver/src/stm32f4xx_tim.c ****   assert_param(IS_TIM_OC_MODE(TIM_OCInitStruct->TIM_OCMode));
 842:Drivers/STM32F4xx_StdPeriph_Driver/src/stm32f4xx_tim.c ****   assert_param(IS_TIM_OUTPUT_STATE(TIM_OCInitStruct->TIM_OutputState));
 843:Drivers/STM32F4xx_StdPeriph_Driver/src/stm32f4xx_tim.c ****   assert_param(IS_TIM_OC_POLARITY(TIM_OCInitStruct->TIM_OCPolarity));   
 844:Drivers/STM32F4xx_StdPeriph_Driver/src/stm32f4xx_tim.c **** 
 845:Drivers/STM32F4xx_StdPeriph_Driver/src/stm32f4xx_tim.c ****   /* Disable the Channel 3: Reset the CC2E Bit */
 846:Drivers/STM32F4xx_StdPeriph_Driver/src/stm32f4xx_tim.c ****   TIMx->CCER &= (uint16_t)~TIM_CCER_CC3E;
 1641              		.loc 1 846 14
 1642 0016 7B68     		ldr	r3, [r7, #4]
 1643 0018 1B8C     		ldrh	r3, [r3, #32]	@ movhi
 1644 001a 9BB2     		uxth	r3, r3
 1645 001c 23F48073 		bic	r3, r3, #256
 1646 0020 9AB2     		uxth	r2, r3
 1647 0022 7B68     		ldr	r3, [r7, #4]
 1648 0024 1A84     		strh	r2, [r3, #32]	@ movhi
 847:Drivers/STM32F4xx_StdPeriph_Driver/src/stm32f4xx_tim.c ****   
 848:Drivers/STM32F4xx_StdPeriph_Driver/src/stm32f4xx_tim.c ****   /* Get the TIMx CCER register value */
 849:Drivers/STM32F4xx_StdPeriph_Driver/src/stm32f4xx_tim.c ****   tmpccer = TIMx->CCER;
 1649              		.loc 1 849 11
 1650 0026 7B68     		ldr	r3, [r7, #4]
 1651 0028 1B8C     		ldrh	r3, [r3, #32]	@ movhi
ARM GAS  C:\Users\Admin\AppData\Local\Temp\ccwOX7Bd.s 			page 45


 1652 002a FB81     		strh	r3, [r7, #14]	@ movhi
 850:Drivers/STM32F4xx_StdPeriph_Driver/src/stm32f4xx_tim.c ****   /* Get the TIMx CR2 register value */
 851:Drivers/STM32F4xx_StdPeriph_Driver/src/stm32f4xx_tim.c ****   tmpcr2 =  TIMx->CR2;
 1653              		.loc 1 851 10
 1654 002c 7B68     		ldr	r3, [r7, #4]
 1655 002e 9B88     		ldrh	r3, [r3, #4]	@ movhi
 1656 0030 BB81     		strh	r3, [r7, #12]	@ movhi
 852:Drivers/STM32F4xx_StdPeriph_Driver/src/stm32f4xx_tim.c ****   
 853:Drivers/STM32F4xx_StdPeriph_Driver/src/stm32f4xx_tim.c ****   /* Get the TIMx CCMR2 register value */
 854:Drivers/STM32F4xx_StdPeriph_Driver/src/stm32f4xx_tim.c ****   tmpccmrx = TIMx->CCMR2;
 1657              		.loc 1 854 12
 1658 0032 7B68     		ldr	r3, [r7, #4]
 1659 0034 9B8B     		ldrh	r3, [r3, #28]	@ movhi
 1660 0036 7B81     		strh	r3, [r7, #10]	@ movhi
 855:Drivers/STM32F4xx_StdPeriph_Driver/src/stm32f4xx_tim.c ****     
 856:Drivers/STM32F4xx_StdPeriph_Driver/src/stm32f4xx_tim.c ****   /* Reset the Output Compare mode and Capture/Compare selection Bits */
 857:Drivers/STM32F4xx_StdPeriph_Driver/src/stm32f4xx_tim.c ****   tmpccmrx &= (uint16_t)~TIM_CCMR2_OC3M;
 1661              		.loc 1 857 12
 1662 0038 7B89     		ldrh	r3, [r7, #10]	@ movhi
 1663 003a 23F07003 		bic	r3, r3, #112
 1664 003e 7B81     		strh	r3, [r7, #10]	@ movhi
 858:Drivers/STM32F4xx_StdPeriph_Driver/src/stm32f4xx_tim.c ****   tmpccmrx &= (uint16_t)~TIM_CCMR2_CC3S;  
 1665              		.loc 1 858 12
 1666 0040 7B89     		ldrh	r3, [r7, #10]	@ movhi
 1667 0042 23F00303 		bic	r3, r3, #3
 1668 0046 7B81     		strh	r3, [r7, #10]	@ movhi
 859:Drivers/STM32F4xx_StdPeriph_Driver/src/stm32f4xx_tim.c ****   /* Select the Output Compare Mode */
 860:Drivers/STM32F4xx_StdPeriph_Driver/src/stm32f4xx_tim.c ****   tmpccmrx |= TIM_OCInitStruct->TIM_OCMode;
 1669              		.loc 1 860 31
 1670 0048 3B68     		ldr	r3, [r7]
 1671 004a 1A88     		ldrh	r2, [r3]
 1672              		.loc 1 860 12
 1673 004c 7B89     		ldrh	r3, [r7, #10]	@ movhi
 1674 004e 1343     		orrs	r3, r3, r2
 1675 0050 7B81     		strh	r3, [r7, #10]	@ movhi
 861:Drivers/STM32F4xx_StdPeriph_Driver/src/stm32f4xx_tim.c ****   
 862:Drivers/STM32F4xx_StdPeriph_Driver/src/stm32f4xx_tim.c ****   /* Reset the Output Polarity level */
 863:Drivers/STM32F4xx_StdPeriph_Driver/src/stm32f4xx_tim.c ****   tmpccer &= (uint16_t)~TIM_CCER_CC3P;
 1676              		.loc 1 863 11
 1677 0052 FB89     		ldrh	r3, [r7, #14]	@ movhi
 1678 0054 23F40073 		bic	r3, r3, #512
 1679 0058 FB81     		strh	r3, [r7, #14]	@ movhi
 864:Drivers/STM32F4xx_StdPeriph_Driver/src/stm32f4xx_tim.c ****   /* Set the Output Compare Polarity */
 865:Drivers/STM32F4xx_StdPeriph_Driver/src/stm32f4xx_tim.c ****   tmpccer |= (uint16_t)(TIM_OCInitStruct->TIM_OCPolarity << 8);
 1680              		.loc 1 865 41
 1681 005a 3B68     		ldr	r3, [r7]
 1682 005c 9B89     		ldrh	r3, [r3, #12]
 1683              		.loc 1 865 14
 1684 005e 1B02     		lsls	r3, r3, #8
 1685 0060 9AB2     		uxth	r2, r3
 1686              		.loc 1 865 11
 1687 0062 FB89     		ldrh	r3, [r7, #14]	@ movhi
 1688 0064 1343     		orrs	r3, r3, r2
 1689 0066 FB81     		strh	r3, [r7, #14]	@ movhi
 866:Drivers/STM32F4xx_StdPeriph_Driver/src/stm32f4xx_tim.c ****   
 867:Drivers/STM32F4xx_StdPeriph_Driver/src/stm32f4xx_tim.c ****   /* Set the Output State */
 868:Drivers/STM32F4xx_StdPeriph_Driver/src/stm32f4xx_tim.c ****   tmpccer |= (uint16_t)(TIM_OCInitStruct->TIM_OutputState << 8);
ARM GAS  C:\Users\Admin\AppData\Local\Temp\ccwOX7Bd.s 			page 46


 1690              		.loc 1 868 41
 1691 0068 3B68     		ldr	r3, [r7]
 1692 006a 5B88     		ldrh	r3, [r3, #2]
 1693              		.loc 1 868 14
 1694 006c 1B02     		lsls	r3, r3, #8
 1695 006e 9AB2     		uxth	r2, r3
 1696              		.loc 1 868 11
 1697 0070 FB89     		ldrh	r3, [r7, #14]	@ movhi
 1698 0072 1343     		orrs	r3, r3, r2
 1699 0074 FB81     		strh	r3, [r7, #14]	@ movhi
 869:Drivers/STM32F4xx_StdPeriph_Driver/src/stm32f4xx_tim.c ****     
 870:Drivers/STM32F4xx_StdPeriph_Driver/src/stm32f4xx_tim.c ****   if((TIMx == TIM1) || (TIMx == TIM8))
 1700              		.loc 1 870 5
 1701 0076 7B68     		ldr	r3, [r7, #4]
 1702 0078 224A     		ldr	r2, .L67
 1703 007a 9342     		cmp	r3, r2
 1704 007c 03D0     		beq	.L65
 1705              		.loc 1 870 21 discriminator 1
 1706 007e 7B68     		ldr	r3, [r7, #4]
 1707 0080 214A     		ldr	r2, .L67+4
 1708 0082 9342     		cmp	r3, r2
 1709 0084 2BD1     		bne	.L66
 1710              	.L65:
 871:Drivers/STM32F4xx_StdPeriph_Driver/src/stm32f4xx_tim.c ****   {
 872:Drivers/STM32F4xx_StdPeriph_Driver/src/stm32f4xx_tim.c ****     assert_param(IS_TIM_OUTPUTN_STATE(TIM_OCInitStruct->TIM_OutputNState));
 873:Drivers/STM32F4xx_StdPeriph_Driver/src/stm32f4xx_tim.c ****     assert_param(IS_TIM_OCN_POLARITY(TIM_OCInitStruct->TIM_OCNPolarity));
 874:Drivers/STM32F4xx_StdPeriph_Driver/src/stm32f4xx_tim.c ****     assert_param(IS_TIM_OCNIDLE_STATE(TIM_OCInitStruct->TIM_OCNIdleState));
 875:Drivers/STM32F4xx_StdPeriph_Driver/src/stm32f4xx_tim.c ****     assert_param(IS_TIM_OCIDLE_STATE(TIM_OCInitStruct->TIM_OCIdleState));
 876:Drivers/STM32F4xx_StdPeriph_Driver/src/stm32f4xx_tim.c ****     
 877:Drivers/STM32F4xx_StdPeriph_Driver/src/stm32f4xx_tim.c ****     /* Reset the Output N Polarity level */
 878:Drivers/STM32F4xx_StdPeriph_Driver/src/stm32f4xx_tim.c ****     tmpccer &= (uint16_t)~TIM_CCER_CC3NP;
 1711              		.loc 1 878 13
 1712 0086 FB89     		ldrh	r3, [r7, #14]	@ movhi
 1713 0088 23F40063 		bic	r3, r3, #2048
 1714 008c FB81     		strh	r3, [r7, #14]	@ movhi
 879:Drivers/STM32F4xx_StdPeriph_Driver/src/stm32f4xx_tim.c ****     /* Set the Output N Polarity */
 880:Drivers/STM32F4xx_StdPeriph_Driver/src/stm32f4xx_tim.c ****     tmpccer |= (uint16_t)(TIM_OCInitStruct->TIM_OCNPolarity << 8);
 1715              		.loc 1 880 43
 1716 008e 3B68     		ldr	r3, [r7]
 1717 0090 DB89     		ldrh	r3, [r3, #14]
 1718              		.loc 1 880 16
 1719 0092 1B02     		lsls	r3, r3, #8
 1720 0094 9AB2     		uxth	r2, r3
 1721              		.loc 1 880 13
 1722 0096 FB89     		ldrh	r3, [r7, #14]	@ movhi
 1723 0098 1343     		orrs	r3, r3, r2
 1724 009a FB81     		strh	r3, [r7, #14]	@ movhi
 881:Drivers/STM32F4xx_StdPeriph_Driver/src/stm32f4xx_tim.c ****     /* Reset the Output N State */
 882:Drivers/STM32F4xx_StdPeriph_Driver/src/stm32f4xx_tim.c ****     tmpccer &= (uint16_t)~TIM_CCER_CC3NE;
 1725              		.loc 1 882 13
 1726 009c FB89     		ldrh	r3, [r7, #14]	@ movhi
 1727 009e 23F48063 		bic	r3, r3, #1024
 1728 00a2 FB81     		strh	r3, [r7, #14]	@ movhi
 883:Drivers/STM32F4xx_StdPeriph_Driver/src/stm32f4xx_tim.c ****     
 884:Drivers/STM32F4xx_StdPeriph_Driver/src/stm32f4xx_tim.c ****     /* Set the Output N State */
 885:Drivers/STM32F4xx_StdPeriph_Driver/src/stm32f4xx_tim.c ****     tmpccer |= (uint16_t)(TIM_OCInitStruct->TIM_OutputNState << 8);
 1729              		.loc 1 885 43
ARM GAS  C:\Users\Admin\AppData\Local\Temp\ccwOX7Bd.s 			page 47


 1730 00a4 3B68     		ldr	r3, [r7]
 1731 00a6 9B88     		ldrh	r3, [r3, #4]
 1732              		.loc 1 885 16
 1733 00a8 1B02     		lsls	r3, r3, #8
 1734 00aa 9AB2     		uxth	r2, r3
 1735              		.loc 1 885 13
 1736 00ac FB89     		ldrh	r3, [r7, #14]	@ movhi
 1737 00ae 1343     		orrs	r3, r3, r2
 1738 00b0 FB81     		strh	r3, [r7, #14]	@ movhi
 886:Drivers/STM32F4xx_StdPeriph_Driver/src/stm32f4xx_tim.c ****     /* Reset the Output Compare and Output Compare N IDLE State */
 887:Drivers/STM32F4xx_StdPeriph_Driver/src/stm32f4xx_tim.c ****     tmpcr2 &= (uint16_t)~TIM_CR2_OIS3;
 1739              		.loc 1 887 12
 1740 00b2 BB89     		ldrh	r3, [r7, #12]	@ movhi
 1741 00b4 23F48053 		bic	r3, r3, #4096
 1742 00b8 BB81     		strh	r3, [r7, #12]	@ movhi
 888:Drivers/STM32F4xx_StdPeriph_Driver/src/stm32f4xx_tim.c ****     tmpcr2 &= (uint16_t)~TIM_CR2_OIS3N;
 1743              		.loc 1 888 12
 1744 00ba BB89     		ldrh	r3, [r7, #12]	@ movhi
 1745 00bc 23F40053 		bic	r3, r3, #8192
 1746 00c0 BB81     		strh	r3, [r7, #12]	@ movhi
 889:Drivers/STM32F4xx_StdPeriph_Driver/src/stm32f4xx_tim.c ****     /* Set the Output Idle state */
 890:Drivers/STM32F4xx_StdPeriph_Driver/src/stm32f4xx_tim.c ****     tmpcr2 |= (uint16_t)(TIM_OCInitStruct->TIM_OCIdleState << 4);
 1747              		.loc 1 890 42
 1748 00c2 3B68     		ldr	r3, [r7]
 1749 00c4 1B8A     		ldrh	r3, [r3, #16]
 1750              		.loc 1 890 15
 1751 00c6 1B01     		lsls	r3, r3, #4
 1752 00c8 9AB2     		uxth	r2, r3
 1753              		.loc 1 890 12
 1754 00ca BB89     		ldrh	r3, [r7, #12]	@ movhi
 1755 00cc 1343     		orrs	r3, r3, r2
 1756 00ce BB81     		strh	r3, [r7, #12]	@ movhi
 891:Drivers/STM32F4xx_StdPeriph_Driver/src/stm32f4xx_tim.c ****     /* Set the Output N Idle state */
 892:Drivers/STM32F4xx_StdPeriph_Driver/src/stm32f4xx_tim.c ****     tmpcr2 |= (uint16_t)(TIM_OCInitStruct->TIM_OCNIdleState << 4);
 1757              		.loc 1 892 42
 1758 00d0 3B68     		ldr	r3, [r7]
 1759 00d2 5B8A     		ldrh	r3, [r3, #18]
 1760              		.loc 1 892 15
 1761 00d4 1B01     		lsls	r3, r3, #4
 1762 00d6 9AB2     		uxth	r2, r3
 1763              		.loc 1 892 12
 1764 00d8 BB89     		ldrh	r3, [r7, #12]	@ movhi
 1765 00da 1343     		orrs	r3, r3, r2
 1766 00dc BB81     		strh	r3, [r7, #12]	@ movhi
 1767              	.L66:
 893:Drivers/STM32F4xx_StdPeriph_Driver/src/stm32f4xx_tim.c ****   }
 894:Drivers/STM32F4xx_StdPeriph_Driver/src/stm32f4xx_tim.c ****   /* Write to TIMx CR2 */
 895:Drivers/STM32F4xx_StdPeriph_Driver/src/stm32f4xx_tim.c ****   TIMx->CR2 = tmpcr2;
 1768              		.loc 1 895 13
 1769 00de 7B68     		ldr	r3, [r7, #4]
 1770 00e0 BA89     		ldrh	r2, [r7, #12]	@ movhi
 1771 00e2 9A80     		strh	r2, [r3, #4]	@ movhi
 896:Drivers/STM32F4xx_StdPeriph_Driver/src/stm32f4xx_tim.c ****   
 897:Drivers/STM32F4xx_StdPeriph_Driver/src/stm32f4xx_tim.c ****   /* Write to TIMx CCMR2 */
 898:Drivers/STM32F4xx_StdPeriph_Driver/src/stm32f4xx_tim.c ****   TIMx->CCMR2 = tmpccmrx;
 1772              		.loc 1 898 15
 1773 00e4 7B68     		ldr	r3, [r7, #4]
ARM GAS  C:\Users\Admin\AppData\Local\Temp\ccwOX7Bd.s 			page 48


 1774 00e6 7A89     		ldrh	r2, [r7, #10]	@ movhi
 1775 00e8 9A83     		strh	r2, [r3, #28]	@ movhi
 899:Drivers/STM32F4xx_StdPeriph_Driver/src/stm32f4xx_tim.c ****   
 900:Drivers/STM32F4xx_StdPeriph_Driver/src/stm32f4xx_tim.c ****   /* Set the Capture Compare Register value */
 901:Drivers/STM32F4xx_StdPeriph_Driver/src/stm32f4xx_tim.c ****   TIMx->CCR3 = TIM_OCInitStruct->TIM_Pulse;
 1776              		.loc 1 901 32
 1777 00ea 3B68     		ldr	r3, [r7]
 1778 00ec 9A68     		ldr	r2, [r3, #8]
 1779              		.loc 1 901 14
 1780 00ee 7B68     		ldr	r3, [r7, #4]
 1781 00f0 DA63     		str	r2, [r3, #60]
 902:Drivers/STM32F4xx_StdPeriph_Driver/src/stm32f4xx_tim.c ****   
 903:Drivers/STM32F4xx_StdPeriph_Driver/src/stm32f4xx_tim.c ****   /* Write to TIMx CCER */
 904:Drivers/STM32F4xx_StdPeriph_Driver/src/stm32f4xx_tim.c ****   TIMx->CCER = tmpccer;
 1782              		.loc 1 904 14
 1783 00f2 7B68     		ldr	r3, [r7, #4]
 1784 00f4 FA89     		ldrh	r2, [r7, #14]	@ movhi
 1785 00f6 1A84     		strh	r2, [r3, #32]	@ movhi
 905:Drivers/STM32F4xx_StdPeriph_Driver/src/stm32f4xx_tim.c **** }
 1786              		.loc 1 905 1
 1787 00f8 00BF     		nop
 1788 00fa 1437     		adds	r7, r7, #20
 1789              	.LCFI104:
 1790              		.cfi_def_cfa_offset 4
 1791 00fc BD46     		mov	sp, r7
 1792              	.LCFI105:
 1793              		.cfi_def_cfa_register 13
 1794              		@ sp needed
 1795 00fe 5DF8047B 		ldr	r7, [sp], #4
 1796              	.LCFI106:
 1797              		.cfi_restore 7
 1798              		.cfi_def_cfa_offset 0
 1799 0102 7047     		bx	lr
 1800              	.L68:
 1801              		.align	2
 1802              	.L67:
 1803 0104 00000140 		.word	1073807360
 1804 0108 00040140 		.word	1073808384
 1805              		.cfi_endproc
 1806              	.LFE147:
 1808              		.section	.text.TIM_OC4Init,"ax",%progbits
 1809              		.align	1
 1810              		.global	TIM_OC4Init
 1811              		.syntax unified
 1812              		.thumb
 1813              		.thumb_func
 1815              	TIM_OC4Init:
 1816              	.LFB148:
 906:Drivers/STM32F4xx_StdPeriph_Driver/src/stm32f4xx_tim.c **** 
 907:Drivers/STM32F4xx_StdPeriph_Driver/src/stm32f4xx_tim.c **** /**
 908:Drivers/STM32F4xx_StdPeriph_Driver/src/stm32f4xx_tim.c ****   * @brief  Initializes the TIMx Channel4 according to the specified parameters
 909:Drivers/STM32F4xx_StdPeriph_Driver/src/stm32f4xx_tim.c ****   *         in the TIM_OCInitStruct.
 910:Drivers/STM32F4xx_StdPeriph_Driver/src/stm32f4xx_tim.c ****   * @param  TIMx: where x can be 1, 2, 3, 4, 5 or 8 to select the TIM peripheral.
 911:Drivers/STM32F4xx_StdPeriph_Driver/src/stm32f4xx_tim.c ****   * @param  TIM_OCInitStruct: pointer to a TIM_OCInitTypeDef structure that contains
 912:Drivers/STM32F4xx_StdPeriph_Driver/src/stm32f4xx_tim.c ****   *         the configuration information for the specified TIM peripheral.
 913:Drivers/STM32F4xx_StdPeriph_Driver/src/stm32f4xx_tim.c ****   * @retval None
 914:Drivers/STM32F4xx_StdPeriph_Driver/src/stm32f4xx_tim.c ****   */
ARM GAS  C:\Users\Admin\AppData\Local\Temp\ccwOX7Bd.s 			page 49


 915:Drivers/STM32F4xx_StdPeriph_Driver/src/stm32f4xx_tim.c **** void TIM_OC4Init(TIM_TypeDef* TIMx, TIM_OCInitTypeDef* TIM_OCInitStruct)
 916:Drivers/STM32F4xx_StdPeriph_Driver/src/stm32f4xx_tim.c **** {
 1817              		.loc 1 916 1
 1818              		.cfi_startproc
 1819              		@ args = 0, pretend = 0, frame = 16
 1820              		@ frame_needed = 1, uses_anonymous_args = 0
 1821              		@ link register save eliminated.
 1822 0000 80B4     		push	{r7}
 1823              	.LCFI107:
 1824              		.cfi_def_cfa_offset 4
 1825              		.cfi_offset 7, -4
 1826 0002 85B0     		sub	sp, sp, #20
 1827              	.LCFI108:
 1828              		.cfi_def_cfa_offset 24
 1829 0004 00AF     		add	r7, sp, #0
 1830              	.LCFI109:
 1831              		.cfi_def_cfa_register 7
 1832 0006 7860     		str	r0, [r7, #4]
 1833 0008 3960     		str	r1, [r7]
 917:Drivers/STM32F4xx_StdPeriph_Driver/src/stm32f4xx_tim.c ****   uint16_t tmpccmrx = 0, tmpccer = 0, tmpcr2 = 0;
 1834              		.loc 1 917 12
 1835 000a 0023     		movs	r3, #0
 1836 000c BB81     		strh	r3, [r7, #12]	@ movhi
 1837              		.loc 1 917 26
 1838 000e 0023     		movs	r3, #0
 1839 0010 7B81     		strh	r3, [r7, #10]	@ movhi
 1840              		.loc 1 917 39
 1841 0012 0023     		movs	r3, #0
 1842 0014 FB81     		strh	r3, [r7, #14]	@ movhi
 918:Drivers/STM32F4xx_StdPeriph_Driver/src/stm32f4xx_tim.c ****    
 919:Drivers/STM32F4xx_StdPeriph_Driver/src/stm32f4xx_tim.c ****   /* Check the parameters */
 920:Drivers/STM32F4xx_StdPeriph_Driver/src/stm32f4xx_tim.c ****   assert_param(IS_TIM_LIST3_PERIPH(TIMx)); 
 921:Drivers/STM32F4xx_StdPeriph_Driver/src/stm32f4xx_tim.c ****   assert_param(IS_TIM_OC_MODE(TIM_OCInitStruct->TIM_OCMode));
 922:Drivers/STM32F4xx_StdPeriph_Driver/src/stm32f4xx_tim.c ****   assert_param(IS_TIM_OUTPUT_STATE(TIM_OCInitStruct->TIM_OutputState));
 923:Drivers/STM32F4xx_StdPeriph_Driver/src/stm32f4xx_tim.c ****   assert_param(IS_TIM_OC_POLARITY(TIM_OCInitStruct->TIM_OCPolarity));   
 924:Drivers/STM32F4xx_StdPeriph_Driver/src/stm32f4xx_tim.c **** 
 925:Drivers/STM32F4xx_StdPeriph_Driver/src/stm32f4xx_tim.c ****   /* Disable the Channel 4: Reset the CC4E Bit */
 926:Drivers/STM32F4xx_StdPeriph_Driver/src/stm32f4xx_tim.c ****   TIMx->CCER &= (uint16_t)~TIM_CCER_CC4E;
 1843              		.loc 1 926 14
 1844 0016 7B68     		ldr	r3, [r7, #4]
 1845 0018 1B8C     		ldrh	r3, [r3, #32]	@ movhi
 1846 001a 9BB2     		uxth	r3, r3
 1847 001c 23F48053 		bic	r3, r3, #4096
 1848 0020 9AB2     		uxth	r2, r3
 1849 0022 7B68     		ldr	r3, [r7, #4]
 1850 0024 1A84     		strh	r2, [r3, #32]	@ movhi
 927:Drivers/STM32F4xx_StdPeriph_Driver/src/stm32f4xx_tim.c ****   
 928:Drivers/STM32F4xx_StdPeriph_Driver/src/stm32f4xx_tim.c ****   /* Get the TIMx CCER register value */
 929:Drivers/STM32F4xx_StdPeriph_Driver/src/stm32f4xx_tim.c ****   tmpccer = TIMx->CCER;
 1851              		.loc 1 929 11
 1852 0026 7B68     		ldr	r3, [r7, #4]
 1853 0028 1B8C     		ldrh	r3, [r3, #32]	@ movhi
 1854 002a 7B81     		strh	r3, [r7, #10]	@ movhi
 930:Drivers/STM32F4xx_StdPeriph_Driver/src/stm32f4xx_tim.c ****   /* Get the TIMx CR2 register value */
 931:Drivers/STM32F4xx_StdPeriph_Driver/src/stm32f4xx_tim.c ****   tmpcr2 =  TIMx->CR2;
 1855              		.loc 1 931 10
 1856 002c 7B68     		ldr	r3, [r7, #4]
ARM GAS  C:\Users\Admin\AppData\Local\Temp\ccwOX7Bd.s 			page 50


 1857 002e 9B88     		ldrh	r3, [r3, #4]	@ movhi
 1858 0030 FB81     		strh	r3, [r7, #14]	@ movhi
 932:Drivers/STM32F4xx_StdPeriph_Driver/src/stm32f4xx_tim.c ****   
 933:Drivers/STM32F4xx_StdPeriph_Driver/src/stm32f4xx_tim.c ****   /* Get the TIMx CCMR2 register value */
 934:Drivers/STM32F4xx_StdPeriph_Driver/src/stm32f4xx_tim.c ****   tmpccmrx = TIMx->CCMR2;
 1859              		.loc 1 934 12
 1860 0032 7B68     		ldr	r3, [r7, #4]
 1861 0034 9B8B     		ldrh	r3, [r3, #28]	@ movhi
 1862 0036 BB81     		strh	r3, [r7, #12]	@ movhi
 935:Drivers/STM32F4xx_StdPeriph_Driver/src/stm32f4xx_tim.c ****     
 936:Drivers/STM32F4xx_StdPeriph_Driver/src/stm32f4xx_tim.c ****   /* Reset the Output Compare mode and Capture/Compare selection Bits */
 937:Drivers/STM32F4xx_StdPeriph_Driver/src/stm32f4xx_tim.c ****   tmpccmrx &= (uint16_t)~TIM_CCMR2_OC4M;
 1863              		.loc 1 937 12
 1864 0038 BB89     		ldrh	r3, [r7, #12]	@ movhi
 1865 003a 23F4E043 		bic	r3, r3, #28672
 1866 003e BB81     		strh	r3, [r7, #12]	@ movhi
 938:Drivers/STM32F4xx_StdPeriph_Driver/src/stm32f4xx_tim.c ****   tmpccmrx &= (uint16_t)~TIM_CCMR2_CC4S;
 1867              		.loc 1 938 12
 1868 0040 BB89     		ldrh	r3, [r7, #12]	@ movhi
 1869 0042 23F44073 		bic	r3, r3, #768
 1870 0046 BB81     		strh	r3, [r7, #12]	@ movhi
 939:Drivers/STM32F4xx_StdPeriph_Driver/src/stm32f4xx_tim.c ****   
 940:Drivers/STM32F4xx_StdPeriph_Driver/src/stm32f4xx_tim.c ****   /* Select the Output Compare Mode */
 941:Drivers/STM32F4xx_StdPeriph_Driver/src/stm32f4xx_tim.c ****   tmpccmrx |= (uint16_t)(TIM_OCInitStruct->TIM_OCMode << 8);
 1871              		.loc 1 941 42
 1872 0048 3B68     		ldr	r3, [r7]
 1873 004a 1B88     		ldrh	r3, [r3]
 1874              		.loc 1 941 15
 1875 004c 1B02     		lsls	r3, r3, #8
 1876 004e 9AB2     		uxth	r2, r3
 1877              		.loc 1 941 12
 1878 0050 BB89     		ldrh	r3, [r7, #12]	@ movhi
 1879 0052 1343     		orrs	r3, r3, r2
 1880 0054 BB81     		strh	r3, [r7, #12]	@ movhi
 942:Drivers/STM32F4xx_StdPeriph_Driver/src/stm32f4xx_tim.c ****   
 943:Drivers/STM32F4xx_StdPeriph_Driver/src/stm32f4xx_tim.c ****   /* Reset the Output Polarity level */
 944:Drivers/STM32F4xx_StdPeriph_Driver/src/stm32f4xx_tim.c ****   tmpccer &= (uint16_t)~TIM_CCER_CC4P;
 1881              		.loc 1 944 11
 1882 0056 7B89     		ldrh	r3, [r7, #10]	@ movhi
 1883 0058 23F40053 		bic	r3, r3, #8192
 1884 005c 7B81     		strh	r3, [r7, #10]	@ movhi
 945:Drivers/STM32F4xx_StdPeriph_Driver/src/stm32f4xx_tim.c ****   /* Set the Output Compare Polarity */
 946:Drivers/STM32F4xx_StdPeriph_Driver/src/stm32f4xx_tim.c ****   tmpccer |= (uint16_t)(TIM_OCInitStruct->TIM_OCPolarity << 12);
 1885              		.loc 1 946 41
 1886 005e 3B68     		ldr	r3, [r7]
 1887 0060 9B89     		ldrh	r3, [r3, #12]
 1888              		.loc 1 946 14
 1889 0062 1B03     		lsls	r3, r3, #12
 1890 0064 9AB2     		uxth	r2, r3
 1891              		.loc 1 946 11
 1892 0066 7B89     		ldrh	r3, [r7, #10]	@ movhi
 1893 0068 1343     		orrs	r3, r3, r2
 1894 006a 7B81     		strh	r3, [r7, #10]	@ movhi
 947:Drivers/STM32F4xx_StdPeriph_Driver/src/stm32f4xx_tim.c ****   
 948:Drivers/STM32F4xx_StdPeriph_Driver/src/stm32f4xx_tim.c ****   /* Set the Output State */
 949:Drivers/STM32F4xx_StdPeriph_Driver/src/stm32f4xx_tim.c ****   tmpccer |= (uint16_t)(TIM_OCInitStruct->TIM_OutputState << 12);
 1895              		.loc 1 949 41
ARM GAS  C:\Users\Admin\AppData\Local\Temp\ccwOX7Bd.s 			page 51


 1896 006c 3B68     		ldr	r3, [r7]
 1897 006e 5B88     		ldrh	r3, [r3, #2]
 1898              		.loc 1 949 14
 1899 0070 1B03     		lsls	r3, r3, #12
 1900 0072 9AB2     		uxth	r2, r3
 1901              		.loc 1 949 11
 1902 0074 7B89     		ldrh	r3, [r7, #10]	@ movhi
 1903 0076 1343     		orrs	r3, r3, r2
 1904 0078 7B81     		strh	r3, [r7, #10]	@ movhi
 950:Drivers/STM32F4xx_StdPeriph_Driver/src/stm32f4xx_tim.c ****   
 951:Drivers/STM32F4xx_StdPeriph_Driver/src/stm32f4xx_tim.c ****   if((TIMx == TIM1) || (TIMx == TIM8))
 1905              		.loc 1 951 5
 1906 007a 7B68     		ldr	r3, [r7, #4]
 1907 007c 124A     		ldr	r2, .L72
 1908 007e 9342     		cmp	r3, r2
 1909 0080 03D0     		beq	.L70
 1910              		.loc 1 951 21 discriminator 1
 1911 0082 7B68     		ldr	r3, [r7, #4]
 1912 0084 114A     		ldr	r2, .L72+4
 1913 0086 9342     		cmp	r3, r2
 1914 0088 0AD1     		bne	.L71
 1915              	.L70:
 952:Drivers/STM32F4xx_StdPeriph_Driver/src/stm32f4xx_tim.c ****   {
 953:Drivers/STM32F4xx_StdPeriph_Driver/src/stm32f4xx_tim.c ****     assert_param(IS_TIM_OCIDLE_STATE(TIM_OCInitStruct->TIM_OCIdleState));
 954:Drivers/STM32F4xx_StdPeriph_Driver/src/stm32f4xx_tim.c ****     /* Reset the Output Compare IDLE State */
 955:Drivers/STM32F4xx_StdPeriph_Driver/src/stm32f4xx_tim.c ****     tmpcr2 &=(uint16_t) ~TIM_CR2_OIS4;
 1916              		.loc 1 955 12
 1917 008a FB89     		ldrh	r3, [r7, #14]	@ movhi
 1918 008c 23F48043 		bic	r3, r3, #16384
 1919 0090 FB81     		strh	r3, [r7, #14]	@ movhi
 956:Drivers/STM32F4xx_StdPeriph_Driver/src/stm32f4xx_tim.c ****     /* Set the Output Idle state */
 957:Drivers/STM32F4xx_StdPeriph_Driver/src/stm32f4xx_tim.c ****     tmpcr2 |= (uint16_t)(TIM_OCInitStruct->TIM_OCIdleState << 6);
 1920              		.loc 1 957 42
 1921 0092 3B68     		ldr	r3, [r7]
 1922 0094 1B8A     		ldrh	r3, [r3, #16]
 1923              		.loc 1 957 15
 1924 0096 9B01     		lsls	r3, r3, #6
 1925 0098 9AB2     		uxth	r2, r3
 1926              		.loc 1 957 12
 1927 009a FB89     		ldrh	r3, [r7, #14]	@ movhi
 1928 009c 1343     		orrs	r3, r3, r2
 1929 009e FB81     		strh	r3, [r7, #14]	@ movhi
 1930              	.L71:
 958:Drivers/STM32F4xx_StdPeriph_Driver/src/stm32f4xx_tim.c ****   }
 959:Drivers/STM32F4xx_StdPeriph_Driver/src/stm32f4xx_tim.c ****   /* Write to TIMx CR2 */
 960:Drivers/STM32F4xx_StdPeriph_Driver/src/stm32f4xx_tim.c ****   TIMx->CR2 = tmpcr2;
 1931              		.loc 1 960 13
 1932 00a0 7B68     		ldr	r3, [r7, #4]
 1933 00a2 FA89     		ldrh	r2, [r7, #14]	@ movhi
 1934 00a4 9A80     		strh	r2, [r3, #4]	@ movhi
 961:Drivers/STM32F4xx_StdPeriph_Driver/src/stm32f4xx_tim.c ****   
 962:Drivers/STM32F4xx_StdPeriph_Driver/src/stm32f4xx_tim.c ****   /* Write to TIMx CCMR2 */  
 963:Drivers/STM32F4xx_StdPeriph_Driver/src/stm32f4xx_tim.c ****   TIMx->CCMR2 = tmpccmrx;
 1935              		.loc 1 963 15
 1936 00a6 7B68     		ldr	r3, [r7, #4]
 1937 00a8 BA89     		ldrh	r2, [r7, #12]	@ movhi
 1938 00aa 9A83     		strh	r2, [r3, #28]	@ movhi
ARM GAS  C:\Users\Admin\AppData\Local\Temp\ccwOX7Bd.s 			page 52


 964:Drivers/STM32F4xx_StdPeriph_Driver/src/stm32f4xx_tim.c ****     
 965:Drivers/STM32F4xx_StdPeriph_Driver/src/stm32f4xx_tim.c ****   /* Set the Capture Compare Register value */
 966:Drivers/STM32F4xx_StdPeriph_Driver/src/stm32f4xx_tim.c ****   TIMx->CCR4 = TIM_OCInitStruct->TIM_Pulse;
 1939              		.loc 1 966 32
 1940 00ac 3B68     		ldr	r3, [r7]
 1941 00ae 9A68     		ldr	r2, [r3, #8]
 1942              		.loc 1 966 14
 1943 00b0 7B68     		ldr	r3, [r7, #4]
 1944 00b2 1A64     		str	r2, [r3, #64]
 967:Drivers/STM32F4xx_StdPeriph_Driver/src/stm32f4xx_tim.c ****   
 968:Drivers/STM32F4xx_StdPeriph_Driver/src/stm32f4xx_tim.c ****   /* Write to TIMx CCER */
 969:Drivers/STM32F4xx_StdPeriph_Driver/src/stm32f4xx_tim.c ****   TIMx->CCER = tmpccer;
 1945              		.loc 1 969 14
 1946 00b4 7B68     		ldr	r3, [r7, #4]
 1947 00b6 7A89     		ldrh	r2, [r7, #10]	@ movhi
 1948 00b8 1A84     		strh	r2, [r3, #32]	@ movhi
 970:Drivers/STM32F4xx_StdPeriph_Driver/src/stm32f4xx_tim.c **** }
 1949              		.loc 1 970 1
 1950 00ba 00BF     		nop
 1951 00bc 1437     		adds	r7, r7, #20
 1952              	.LCFI110:
 1953              		.cfi_def_cfa_offset 4
 1954 00be BD46     		mov	sp, r7
 1955              	.LCFI111:
 1956              		.cfi_def_cfa_register 13
 1957              		@ sp needed
 1958 00c0 5DF8047B 		ldr	r7, [sp], #4
 1959              	.LCFI112:
 1960              		.cfi_restore 7
 1961              		.cfi_def_cfa_offset 0
 1962 00c4 7047     		bx	lr
 1963              	.L73:
 1964 00c6 00BF     		.align	2
 1965              	.L72:
 1966 00c8 00000140 		.word	1073807360
 1967 00cc 00040140 		.word	1073808384
 1968              		.cfi_endproc
 1969              	.LFE148:
 1971              		.section	.text.TIM_OCStructInit,"ax",%progbits
 1972              		.align	1
 1973              		.global	TIM_OCStructInit
 1974              		.syntax unified
 1975              		.thumb
 1976              		.thumb_func
 1978              	TIM_OCStructInit:
 1979              	.LFB149:
 971:Drivers/STM32F4xx_StdPeriph_Driver/src/stm32f4xx_tim.c **** 
 972:Drivers/STM32F4xx_StdPeriph_Driver/src/stm32f4xx_tim.c **** /**
 973:Drivers/STM32F4xx_StdPeriph_Driver/src/stm32f4xx_tim.c ****   * @brief  Fills each TIM_OCInitStruct member with its default value.
 974:Drivers/STM32F4xx_StdPeriph_Driver/src/stm32f4xx_tim.c ****   * @param  TIM_OCInitStruct: pointer to a TIM_OCInitTypeDef structure which will
 975:Drivers/STM32F4xx_StdPeriph_Driver/src/stm32f4xx_tim.c ****   *         be initialized.
 976:Drivers/STM32F4xx_StdPeriph_Driver/src/stm32f4xx_tim.c ****   * @retval None
 977:Drivers/STM32F4xx_StdPeriph_Driver/src/stm32f4xx_tim.c ****   */
 978:Drivers/STM32F4xx_StdPeriph_Driver/src/stm32f4xx_tim.c **** void TIM_OCStructInit(TIM_OCInitTypeDef* TIM_OCInitStruct)
 979:Drivers/STM32F4xx_StdPeriph_Driver/src/stm32f4xx_tim.c **** {
 1980              		.loc 1 979 1
 1981              		.cfi_startproc
ARM GAS  C:\Users\Admin\AppData\Local\Temp\ccwOX7Bd.s 			page 53


 1982              		@ args = 0, pretend = 0, frame = 8
 1983              		@ frame_needed = 1, uses_anonymous_args = 0
 1984              		@ link register save eliminated.
 1985 0000 80B4     		push	{r7}
 1986              	.LCFI113:
 1987              		.cfi_def_cfa_offset 4
 1988              		.cfi_offset 7, -4
 1989 0002 83B0     		sub	sp, sp, #12
 1990              	.LCFI114:
 1991              		.cfi_def_cfa_offset 16
 1992 0004 00AF     		add	r7, sp, #0
 1993              	.LCFI115:
 1994              		.cfi_def_cfa_register 7
 1995 0006 7860     		str	r0, [r7, #4]
 980:Drivers/STM32F4xx_StdPeriph_Driver/src/stm32f4xx_tim.c ****   /* Set the default configuration */
 981:Drivers/STM32F4xx_StdPeriph_Driver/src/stm32f4xx_tim.c ****   TIM_OCInitStruct->TIM_OCMode = TIM_OCMode_Timing;
 1996              		.loc 1 981 32
 1997 0008 7B68     		ldr	r3, [r7, #4]
 1998 000a 0022     		movs	r2, #0
 1999 000c 1A80     		strh	r2, [r3]	@ movhi
 982:Drivers/STM32F4xx_StdPeriph_Driver/src/stm32f4xx_tim.c ****   TIM_OCInitStruct->TIM_OutputState = TIM_OutputState_Disable;
 2000              		.loc 1 982 37
 2001 000e 7B68     		ldr	r3, [r7, #4]
 2002 0010 0022     		movs	r2, #0
 2003 0012 5A80     		strh	r2, [r3, #2]	@ movhi
 983:Drivers/STM32F4xx_StdPeriph_Driver/src/stm32f4xx_tim.c ****   TIM_OCInitStruct->TIM_OutputNState = TIM_OutputNState_Disable;
 2004              		.loc 1 983 38
 2005 0014 7B68     		ldr	r3, [r7, #4]
 2006 0016 0022     		movs	r2, #0
 2007 0018 9A80     		strh	r2, [r3, #4]	@ movhi
 984:Drivers/STM32F4xx_StdPeriph_Driver/src/stm32f4xx_tim.c ****   TIM_OCInitStruct->TIM_Pulse = 0x00000000;
 2008              		.loc 1 984 31
 2009 001a 7B68     		ldr	r3, [r7, #4]
 2010 001c 0022     		movs	r2, #0
 2011 001e 9A60     		str	r2, [r3, #8]
 985:Drivers/STM32F4xx_StdPeriph_Driver/src/stm32f4xx_tim.c ****   TIM_OCInitStruct->TIM_OCPolarity = TIM_OCPolarity_High;
 2012              		.loc 1 985 36
 2013 0020 7B68     		ldr	r3, [r7, #4]
 2014 0022 0022     		movs	r2, #0
 2015 0024 9A81     		strh	r2, [r3, #12]	@ movhi
 986:Drivers/STM32F4xx_StdPeriph_Driver/src/stm32f4xx_tim.c ****   TIM_OCInitStruct->TIM_OCNPolarity = TIM_OCPolarity_High;
 2016              		.loc 1 986 37
 2017 0026 7B68     		ldr	r3, [r7, #4]
 2018 0028 0022     		movs	r2, #0
 2019 002a DA81     		strh	r2, [r3, #14]	@ movhi
 987:Drivers/STM32F4xx_StdPeriph_Driver/src/stm32f4xx_tim.c ****   TIM_OCInitStruct->TIM_OCIdleState = TIM_OCIdleState_Reset;
 2020              		.loc 1 987 37
 2021 002c 7B68     		ldr	r3, [r7, #4]
 2022 002e 0022     		movs	r2, #0
 2023 0030 1A82     		strh	r2, [r3, #16]	@ movhi
 988:Drivers/STM32F4xx_StdPeriph_Driver/src/stm32f4xx_tim.c ****   TIM_OCInitStruct->TIM_OCNIdleState = TIM_OCNIdleState_Reset;
 2024              		.loc 1 988 38
 2025 0032 7B68     		ldr	r3, [r7, #4]
 2026 0034 0022     		movs	r2, #0
 2027 0036 5A82     		strh	r2, [r3, #18]	@ movhi
 989:Drivers/STM32F4xx_StdPeriph_Driver/src/stm32f4xx_tim.c **** }
 2028              		.loc 1 989 1
ARM GAS  C:\Users\Admin\AppData\Local\Temp\ccwOX7Bd.s 			page 54


 2029 0038 00BF     		nop
 2030 003a 0C37     		adds	r7, r7, #12
 2031              	.LCFI116:
 2032              		.cfi_def_cfa_offset 4
 2033 003c BD46     		mov	sp, r7
 2034              	.LCFI117:
 2035              		.cfi_def_cfa_register 13
 2036              		@ sp needed
 2037 003e 5DF8047B 		ldr	r7, [sp], #4
 2038              	.LCFI118:
 2039              		.cfi_restore 7
 2040              		.cfi_def_cfa_offset 0
 2041 0042 7047     		bx	lr
 2042              		.cfi_endproc
 2043              	.LFE149:
 2045              		.section	.text.TIM_SelectOCxM,"ax",%progbits
 2046              		.align	1
 2047              		.global	TIM_SelectOCxM
 2048              		.syntax unified
 2049              		.thumb
 2050              		.thumb_func
 2052              	TIM_SelectOCxM:
 2053              	.LFB150:
 990:Drivers/STM32F4xx_StdPeriph_Driver/src/stm32f4xx_tim.c **** 
 991:Drivers/STM32F4xx_StdPeriph_Driver/src/stm32f4xx_tim.c **** /**
 992:Drivers/STM32F4xx_StdPeriph_Driver/src/stm32f4xx_tim.c ****   * @brief  Selects the TIM Output Compare Mode.
 993:Drivers/STM32F4xx_StdPeriph_Driver/src/stm32f4xx_tim.c ****   * @note   This function disables the selected channel before changing the Output
 994:Drivers/STM32F4xx_StdPeriph_Driver/src/stm32f4xx_tim.c ****   *         Compare Mode. If needed, user has to enable this channel using
 995:Drivers/STM32F4xx_StdPeriph_Driver/src/stm32f4xx_tim.c ****   *         TIM_CCxCmd() and TIM_CCxNCmd() functions.
 996:Drivers/STM32F4xx_StdPeriph_Driver/src/stm32f4xx_tim.c ****   * @param  TIMx: where x can be 1 to 14 except 6 and 7, to select the TIM peripheral.
 997:Drivers/STM32F4xx_StdPeriph_Driver/src/stm32f4xx_tim.c ****   * @param  TIM_Channel: specifies the TIM Channel
 998:Drivers/STM32F4xx_StdPeriph_Driver/src/stm32f4xx_tim.c ****   *          This parameter can be one of the following values:
 999:Drivers/STM32F4xx_StdPeriph_Driver/src/stm32f4xx_tim.c ****   *            @arg TIM_Channel_1: TIM Channel 1
1000:Drivers/STM32F4xx_StdPeriph_Driver/src/stm32f4xx_tim.c ****   *            @arg TIM_Channel_2: TIM Channel 2
1001:Drivers/STM32F4xx_StdPeriph_Driver/src/stm32f4xx_tim.c ****   *            @arg TIM_Channel_3: TIM Channel 3
1002:Drivers/STM32F4xx_StdPeriph_Driver/src/stm32f4xx_tim.c ****   *            @arg TIM_Channel_4: TIM Channel 4
1003:Drivers/STM32F4xx_StdPeriph_Driver/src/stm32f4xx_tim.c ****   * @param  TIM_OCMode: specifies the TIM Output Compare Mode.
1004:Drivers/STM32F4xx_StdPeriph_Driver/src/stm32f4xx_tim.c ****   *           This parameter can be one of the following values:
1005:Drivers/STM32F4xx_StdPeriph_Driver/src/stm32f4xx_tim.c ****   *            @arg TIM_OCMode_Timing
1006:Drivers/STM32F4xx_StdPeriph_Driver/src/stm32f4xx_tim.c ****   *            @arg TIM_OCMode_Active
1007:Drivers/STM32F4xx_StdPeriph_Driver/src/stm32f4xx_tim.c ****   *            @arg TIM_OCMode_Toggle
1008:Drivers/STM32F4xx_StdPeriph_Driver/src/stm32f4xx_tim.c ****   *            @arg TIM_OCMode_PWM1
1009:Drivers/STM32F4xx_StdPeriph_Driver/src/stm32f4xx_tim.c ****   *            @arg TIM_OCMode_PWM2
1010:Drivers/STM32F4xx_StdPeriph_Driver/src/stm32f4xx_tim.c ****   *            @arg TIM_ForcedAction_Active
1011:Drivers/STM32F4xx_StdPeriph_Driver/src/stm32f4xx_tim.c ****   *            @arg TIM_ForcedAction_InActive
1012:Drivers/STM32F4xx_StdPeriph_Driver/src/stm32f4xx_tim.c ****   * @retval None
1013:Drivers/STM32F4xx_StdPeriph_Driver/src/stm32f4xx_tim.c ****   */
1014:Drivers/STM32F4xx_StdPeriph_Driver/src/stm32f4xx_tim.c **** void TIM_SelectOCxM(TIM_TypeDef* TIMx, uint16_t TIM_Channel, uint16_t TIM_OCMode)
1015:Drivers/STM32F4xx_StdPeriph_Driver/src/stm32f4xx_tim.c **** {
 2054              		.loc 1 1015 1
 2055              		.cfi_startproc
 2056              		@ args = 0, pretend = 0, frame = 16
 2057              		@ frame_needed = 1, uses_anonymous_args = 0
 2058              		@ link register save eliminated.
 2059 0000 80B4     		push	{r7}
 2060              	.LCFI119:
 2061              		.cfi_def_cfa_offset 4
ARM GAS  C:\Users\Admin\AppData\Local\Temp\ccwOX7Bd.s 			page 55


 2062              		.cfi_offset 7, -4
 2063 0002 85B0     		sub	sp, sp, #20
 2064              	.LCFI120:
 2065              		.cfi_def_cfa_offset 24
 2066 0004 00AF     		add	r7, sp, #0
 2067              	.LCFI121:
 2068              		.cfi_def_cfa_register 7
 2069 0006 7860     		str	r0, [r7, #4]
 2070 0008 0B46     		mov	r3, r1
 2071 000a 7B80     		strh	r3, [r7, #2]	@ movhi
 2072 000c 1346     		mov	r3, r2	@ movhi
 2073 000e 3B80     		strh	r3, [r7]	@ movhi
1016:Drivers/STM32F4xx_StdPeriph_Driver/src/stm32f4xx_tim.c ****   uint32_t tmp = 0;
 2074              		.loc 1 1016 12
 2075 0010 0023     		movs	r3, #0
 2076 0012 FB60     		str	r3, [r7, #12]
1017:Drivers/STM32F4xx_StdPeriph_Driver/src/stm32f4xx_tim.c ****   uint16_t tmp1 = 0;
 2077              		.loc 1 1017 12
 2078 0014 0023     		movs	r3, #0
 2079 0016 7B81     		strh	r3, [r7, #10]	@ movhi
1018:Drivers/STM32F4xx_StdPeriph_Driver/src/stm32f4xx_tim.c **** 
1019:Drivers/STM32F4xx_StdPeriph_Driver/src/stm32f4xx_tim.c ****   /* Check the parameters */
1020:Drivers/STM32F4xx_StdPeriph_Driver/src/stm32f4xx_tim.c ****   assert_param(IS_TIM_LIST1_PERIPH(TIMx));
1021:Drivers/STM32F4xx_StdPeriph_Driver/src/stm32f4xx_tim.c ****   assert_param(IS_TIM_CHANNEL(TIM_Channel));
1022:Drivers/STM32F4xx_StdPeriph_Driver/src/stm32f4xx_tim.c ****   assert_param(IS_TIM_OCM(TIM_OCMode));
1023:Drivers/STM32F4xx_StdPeriph_Driver/src/stm32f4xx_tim.c **** 
1024:Drivers/STM32F4xx_StdPeriph_Driver/src/stm32f4xx_tim.c ****   tmp = (uint32_t) TIMx;
 2080              		.loc 1 1024 7
 2081 0018 7B68     		ldr	r3, [r7, #4]
 2082 001a FB60     		str	r3, [r7, #12]
1025:Drivers/STM32F4xx_StdPeriph_Driver/src/stm32f4xx_tim.c ****   tmp += CCMR_OFFSET;
 2083              		.loc 1 1025 7
 2084 001c FB68     		ldr	r3, [r7, #12]
 2085 001e 1833     		adds	r3, r3, #24
 2086 0020 FB60     		str	r3, [r7, #12]
1026:Drivers/STM32F4xx_StdPeriph_Driver/src/stm32f4xx_tim.c **** 
1027:Drivers/STM32F4xx_StdPeriph_Driver/src/stm32f4xx_tim.c ****   tmp1 = CCER_CCE_SET << (uint16_t)TIM_Channel;
 2087              		.loc 1 1027 26
 2088 0022 7B88     		ldrh	r3, [r7, #2]
 2089              		.loc 1 1027 23
 2090 0024 0122     		movs	r2, #1
 2091 0026 02FA03F3 		lsl	r3, r2, r3
 2092              		.loc 1 1027 8
 2093 002a 7B81     		strh	r3, [r7, #10]	@ movhi
1028:Drivers/STM32F4xx_StdPeriph_Driver/src/stm32f4xx_tim.c **** 
1029:Drivers/STM32F4xx_StdPeriph_Driver/src/stm32f4xx_tim.c ****   /* Disable the Channel: Reset the CCxE Bit */
1030:Drivers/STM32F4xx_StdPeriph_Driver/src/stm32f4xx_tim.c ****   TIMx->CCER &= (uint16_t) ~tmp1;
 2094              		.loc 1 1030 14
 2095 002c 7B68     		ldr	r3, [r7, #4]
 2096 002e 1B8C     		ldrh	r3, [r3, #32]	@ movhi
 2097 0030 9AB2     		uxth	r2, r3
 2098              		.loc 1 1030 17
 2099 0032 7B89     		ldrh	r3, [r7, #10]	@ movhi
 2100 0034 DB43     		mvns	r3, r3
 2101 0036 9BB2     		uxth	r3, r3
 2102              		.loc 1 1030 14
 2103 0038 1340     		ands	r3, r3, r2
ARM GAS  C:\Users\Admin\AppData\Local\Temp\ccwOX7Bd.s 			page 56


 2104 003a 9AB2     		uxth	r2, r3
 2105 003c 7B68     		ldr	r3, [r7, #4]
 2106 003e 1A84     		strh	r2, [r3, #32]	@ movhi
1031:Drivers/STM32F4xx_StdPeriph_Driver/src/stm32f4xx_tim.c **** 
1032:Drivers/STM32F4xx_StdPeriph_Driver/src/stm32f4xx_tim.c ****   if((TIM_Channel == TIM_Channel_1) ||(TIM_Channel == TIM_Channel_3))
 2107              		.loc 1 1032 5
 2108 0040 7B88     		ldrh	r3, [r7, #2]
 2109 0042 002B     		cmp	r3, #0
 2110 0044 02D0     		beq	.L76
 2111              		.loc 1 1032 37 discriminator 1
 2112 0046 7B88     		ldrh	r3, [r7, #2]
 2113 0048 082B     		cmp	r3, #8
 2114 004a 14D1     		bne	.L77
 2115              	.L76:
1033:Drivers/STM32F4xx_StdPeriph_Driver/src/stm32f4xx_tim.c ****   {
1034:Drivers/STM32F4xx_StdPeriph_Driver/src/stm32f4xx_tim.c ****     tmp += (TIM_Channel>>1);
 2116              		.loc 1 1034 24
 2117 004c 7B88     		ldrh	r3, [r7, #2]
 2118 004e 5B08     		lsrs	r3, r3, #1
 2119 0050 9BB2     		uxth	r3, r3
 2120 0052 1A46     		mov	r2, r3
 2121              		.loc 1 1034 9
 2122 0054 FB68     		ldr	r3, [r7, #12]
 2123 0056 1344     		add	r3, r3, r2
 2124 0058 FB60     		str	r3, [r7, #12]
1035:Drivers/STM32F4xx_StdPeriph_Driver/src/stm32f4xx_tim.c **** 
1036:Drivers/STM32F4xx_StdPeriph_Driver/src/stm32f4xx_tim.c ****     /* Reset the OCxM bits in the CCMRx register */
1037:Drivers/STM32F4xx_StdPeriph_Driver/src/stm32f4xx_tim.c ****     *(__IO uint32_t *) tmp &= CCMR_OC13M_MASK;
 2125              		.loc 1 1037 28
 2126 005a FB68     		ldr	r3, [r7, #12]
 2127 005c 1968     		ldr	r1, [r3]
 2128 005e FA68     		ldr	r2, [r7, #12]
 2129 0060 4FF68F73 		movw	r3, #65423
 2130 0064 0B40     		ands	r3, r3, r1
 2131 0066 1360     		str	r3, [r2]
1038:Drivers/STM32F4xx_StdPeriph_Driver/src/stm32f4xx_tim.c ****    
1039:Drivers/STM32F4xx_StdPeriph_Driver/src/stm32f4xx_tim.c ****     /* Configure the OCxM bits in the CCMRx register */
1040:Drivers/STM32F4xx_StdPeriph_Driver/src/stm32f4xx_tim.c ****     *(__IO uint32_t *) tmp |= TIM_OCMode;
 2132              		.loc 1 1040 28
 2133 0068 FB68     		ldr	r3, [r7, #12]
 2134 006a 1968     		ldr	r1, [r3]
 2135 006c 3A88     		ldrh	r2, [r7]
 2136 006e FB68     		ldr	r3, [r7, #12]
 2137 0070 0A43     		orrs	r2, r2, r1
 2138 0072 1A60     		str	r2, [r3]
 2139 0074 19E0     		b	.L78
 2140              	.L77:
1041:Drivers/STM32F4xx_StdPeriph_Driver/src/stm32f4xx_tim.c ****   }
1042:Drivers/STM32F4xx_StdPeriph_Driver/src/stm32f4xx_tim.c ****   else
1043:Drivers/STM32F4xx_StdPeriph_Driver/src/stm32f4xx_tim.c ****   {
1044:Drivers/STM32F4xx_StdPeriph_Driver/src/stm32f4xx_tim.c ****     tmp += (uint16_t)(TIM_Channel - (uint16_t)4)>> (uint16_t)1;
 2141              		.loc 1 1044 12
 2142 0076 7B88     		ldrh	r3, [r7, #2]	@ movhi
 2143 0078 043B     		subs	r3, r3, #4
 2144 007a 9BB2     		uxth	r3, r3
 2145              		.loc 1 1044 49
 2146 007c 5B08     		lsrs	r3, r3, #1
ARM GAS  C:\Users\Admin\AppData\Local\Temp\ccwOX7Bd.s 			page 57


 2147 007e 9BB2     		uxth	r3, r3
 2148 0080 1A46     		mov	r2, r3
 2149              		.loc 1 1044 9
 2150 0082 FB68     		ldr	r3, [r7, #12]
 2151 0084 1344     		add	r3, r3, r2
 2152 0086 FB60     		str	r3, [r7, #12]
1045:Drivers/STM32F4xx_StdPeriph_Driver/src/stm32f4xx_tim.c **** 
1046:Drivers/STM32F4xx_StdPeriph_Driver/src/stm32f4xx_tim.c ****     /* Reset the OCxM bits in the CCMRx register */
1047:Drivers/STM32F4xx_StdPeriph_Driver/src/stm32f4xx_tim.c ****     *(__IO uint32_t *) tmp &= CCMR_OC24M_MASK;
 2153              		.loc 1 1047 28
 2154 0088 FB68     		ldr	r3, [r7, #12]
 2155 008a 1968     		ldr	r1, [r3]
 2156 008c FA68     		ldr	r2, [r7, #12]
 2157 008e 48F6FF73 		movw	r3, #36863
 2158 0092 0B40     		ands	r3, r3, r1
 2159 0094 1360     		str	r3, [r2]
1048:Drivers/STM32F4xx_StdPeriph_Driver/src/stm32f4xx_tim.c ****     
1049:Drivers/STM32F4xx_StdPeriph_Driver/src/stm32f4xx_tim.c ****     /* Configure the OCxM bits in the CCMRx register */
1050:Drivers/STM32F4xx_StdPeriph_Driver/src/stm32f4xx_tim.c ****     *(__IO uint32_t *) tmp |= (uint16_t)(TIM_OCMode << 8);
 2160              		.loc 1 1050 28
 2161 0096 FB68     		ldr	r3, [r7, #12]
 2162 0098 1A68     		ldr	r2, [r3]
 2163              		.loc 1 1050 31
 2164 009a 3B88     		ldrh	r3, [r7]	@ movhi
 2165 009c 1B02     		lsls	r3, r3, #8
 2166 009e 9BB2     		uxth	r3, r3
 2167 00a0 1946     		mov	r1, r3
 2168              		.loc 1 1050 28
 2169 00a2 FB68     		ldr	r3, [r7, #12]
 2170 00a4 0A43     		orrs	r2, r2, r1
 2171 00a6 1A60     		str	r2, [r3]
1051:Drivers/STM32F4xx_StdPeriph_Driver/src/stm32f4xx_tim.c ****   }
1052:Drivers/STM32F4xx_StdPeriph_Driver/src/stm32f4xx_tim.c **** }
 2172              		.loc 1 1052 1
 2173 00a8 00BF     		nop
 2174              	.L78:
 2175 00aa 00BF     		nop
 2176 00ac 1437     		adds	r7, r7, #20
 2177              	.LCFI122:
 2178              		.cfi_def_cfa_offset 4
 2179 00ae BD46     		mov	sp, r7
 2180              	.LCFI123:
 2181              		.cfi_def_cfa_register 13
 2182              		@ sp needed
 2183 00b0 5DF8047B 		ldr	r7, [sp], #4
 2184              	.LCFI124:
 2185              		.cfi_restore 7
 2186              		.cfi_def_cfa_offset 0
 2187 00b4 7047     		bx	lr
 2188              		.cfi_endproc
 2189              	.LFE150:
 2191              		.section	.text.TIM_SetCompare1,"ax",%progbits
 2192              		.align	1
 2193              		.global	TIM_SetCompare1
 2194              		.syntax unified
 2195              		.thumb
 2196              		.thumb_func
ARM GAS  C:\Users\Admin\AppData\Local\Temp\ccwOX7Bd.s 			page 58


 2198              	TIM_SetCompare1:
 2199              	.LFB151:
1053:Drivers/STM32F4xx_StdPeriph_Driver/src/stm32f4xx_tim.c **** 
1054:Drivers/STM32F4xx_StdPeriph_Driver/src/stm32f4xx_tim.c **** /**
1055:Drivers/STM32F4xx_StdPeriph_Driver/src/stm32f4xx_tim.c ****   * @brief  Sets the TIMx Capture Compare1 Register value
1056:Drivers/STM32F4xx_StdPeriph_Driver/src/stm32f4xx_tim.c ****   * @param  TIMx: where x can be 1 to 14 except 6 and 7, to select the TIM peripheral.
1057:Drivers/STM32F4xx_StdPeriph_Driver/src/stm32f4xx_tim.c ****   * @param  Compare1: specifies the Capture Compare1 register new value.
1058:Drivers/STM32F4xx_StdPeriph_Driver/src/stm32f4xx_tim.c ****   * @retval None
1059:Drivers/STM32F4xx_StdPeriph_Driver/src/stm32f4xx_tim.c ****   */
1060:Drivers/STM32F4xx_StdPeriph_Driver/src/stm32f4xx_tim.c **** void TIM_SetCompare1(TIM_TypeDef* TIMx, uint32_t Compare1)
1061:Drivers/STM32F4xx_StdPeriph_Driver/src/stm32f4xx_tim.c **** {
 2200              		.loc 1 1061 1
 2201              		.cfi_startproc
 2202              		@ args = 0, pretend = 0, frame = 8
 2203              		@ frame_needed = 1, uses_anonymous_args = 0
 2204              		@ link register save eliminated.
 2205 0000 80B4     		push	{r7}
 2206              	.LCFI125:
 2207              		.cfi_def_cfa_offset 4
 2208              		.cfi_offset 7, -4
 2209 0002 83B0     		sub	sp, sp, #12
 2210              	.LCFI126:
 2211              		.cfi_def_cfa_offset 16
 2212 0004 00AF     		add	r7, sp, #0
 2213              	.LCFI127:
 2214              		.cfi_def_cfa_register 7
 2215 0006 7860     		str	r0, [r7, #4]
 2216 0008 3960     		str	r1, [r7]
1062:Drivers/STM32F4xx_StdPeriph_Driver/src/stm32f4xx_tim.c ****   /* Check the parameters */
1063:Drivers/STM32F4xx_StdPeriph_Driver/src/stm32f4xx_tim.c ****   assert_param(IS_TIM_LIST1_PERIPH(TIMx));
1064:Drivers/STM32F4xx_StdPeriph_Driver/src/stm32f4xx_tim.c **** 
1065:Drivers/STM32F4xx_StdPeriph_Driver/src/stm32f4xx_tim.c ****   /* Set the Capture Compare1 Register value */
1066:Drivers/STM32F4xx_StdPeriph_Driver/src/stm32f4xx_tim.c ****   TIMx->CCR1 = Compare1;
 2217              		.loc 1 1066 14
 2218 000a 7B68     		ldr	r3, [r7, #4]
 2219 000c 3A68     		ldr	r2, [r7]
 2220 000e 5A63     		str	r2, [r3, #52]
1067:Drivers/STM32F4xx_StdPeriph_Driver/src/stm32f4xx_tim.c **** }
 2221              		.loc 1 1067 1
 2222 0010 00BF     		nop
 2223 0012 0C37     		adds	r7, r7, #12
 2224              	.LCFI128:
 2225              		.cfi_def_cfa_offset 4
 2226 0014 BD46     		mov	sp, r7
 2227              	.LCFI129:
 2228              		.cfi_def_cfa_register 13
 2229              		@ sp needed
 2230 0016 5DF8047B 		ldr	r7, [sp], #4
 2231              	.LCFI130:
 2232              		.cfi_restore 7
 2233              		.cfi_def_cfa_offset 0
 2234 001a 7047     		bx	lr
 2235              		.cfi_endproc
 2236              	.LFE151:
 2238              		.section	.text.TIM_SetCompare2,"ax",%progbits
 2239              		.align	1
 2240              		.global	TIM_SetCompare2
ARM GAS  C:\Users\Admin\AppData\Local\Temp\ccwOX7Bd.s 			page 59


 2241              		.syntax unified
 2242              		.thumb
 2243              		.thumb_func
 2245              	TIM_SetCompare2:
 2246              	.LFB152:
1068:Drivers/STM32F4xx_StdPeriph_Driver/src/stm32f4xx_tim.c **** 
1069:Drivers/STM32F4xx_StdPeriph_Driver/src/stm32f4xx_tim.c **** /**
1070:Drivers/STM32F4xx_StdPeriph_Driver/src/stm32f4xx_tim.c ****   * @brief  Sets the TIMx Capture Compare2 Register value
1071:Drivers/STM32F4xx_StdPeriph_Driver/src/stm32f4xx_tim.c ****   * @param  TIMx: where x can be 1, 2, 3, 4, 5, 8, 9 or 12 to select the TIM 
1072:Drivers/STM32F4xx_StdPeriph_Driver/src/stm32f4xx_tim.c ****   *         peripheral.
1073:Drivers/STM32F4xx_StdPeriph_Driver/src/stm32f4xx_tim.c ****   * @param  Compare2: specifies the Capture Compare2 register new value.
1074:Drivers/STM32F4xx_StdPeriph_Driver/src/stm32f4xx_tim.c ****   * @retval None
1075:Drivers/STM32F4xx_StdPeriph_Driver/src/stm32f4xx_tim.c ****   */
1076:Drivers/STM32F4xx_StdPeriph_Driver/src/stm32f4xx_tim.c **** void TIM_SetCompare2(TIM_TypeDef* TIMx, uint32_t Compare2)
1077:Drivers/STM32F4xx_StdPeriph_Driver/src/stm32f4xx_tim.c **** {
 2247              		.loc 1 1077 1
 2248              		.cfi_startproc
 2249              		@ args = 0, pretend = 0, frame = 8
 2250              		@ frame_needed = 1, uses_anonymous_args = 0
 2251              		@ link register save eliminated.
 2252 0000 80B4     		push	{r7}
 2253              	.LCFI131:
 2254              		.cfi_def_cfa_offset 4
 2255              		.cfi_offset 7, -4
 2256 0002 83B0     		sub	sp, sp, #12
 2257              	.LCFI132:
 2258              		.cfi_def_cfa_offset 16
 2259 0004 00AF     		add	r7, sp, #0
 2260              	.LCFI133:
 2261              		.cfi_def_cfa_register 7
 2262 0006 7860     		str	r0, [r7, #4]
 2263 0008 3960     		str	r1, [r7]
1078:Drivers/STM32F4xx_StdPeriph_Driver/src/stm32f4xx_tim.c ****   /* Check the parameters */
1079:Drivers/STM32F4xx_StdPeriph_Driver/src/stm32f4xx_tim.c ****   assert_param(IS_TIM_LIST2_PERIPH(TIMx));
1080:Drivers/STM32F4xx_StdPeriph_Driver/src/stm32f4xx_tim.c **** 
1081:Drivers/STM32F4xx_StdPeriph_Driver/src/stm32f4xx_tim.c ****   /* Set the Capture Compare2 Register value */
1082:Drivers/STM32F4xx_StdPeriph_Driver/src/stm32f4xx_tim.c ****   TIMx->CCR2 = Compare2;
 2264              		.loc 1 1082 14
 2265 000a 7B68     		ldr	r3, [r7, #4]
 2266 000c 3A68     		ldr	r2, [r7]
 2267 000e 9A63     		str	r2, [r3, #56]
1083:Drivers/STM32F4xx_StdPeriph_Driver/src/stm32f4xx_tim.c **** }
 2268              		.loc 1 1083 1
 2269 0010 00BF     		nop
 2270 0012 0C37     		adds	r7, r7, #12
 2271              	.LCFI134:
 2272              		.cfi_def_cfa_offset 4
 2273 0014 BD46     		mov	sp, r7
 2274              	.LCFI135:
 2275              		.cfi_def_cfa_register 13
 2276              		@ sp needed
 2277 0016 5DF8047B 		ldr	r7, [sp], #4
 2278              	.LCFI136:
 2279              		.cfi_restore 7
 2280              		.cfi_def_cfa_offset 0
 2281 001a 7047     		bx	lr
 2282              		.cfi_endproc
ARM GAS  C:\Users\Admin\AppData\Local\Temp\ccwOX7Bd.s 			page 60


 2283              	.LFE152:
 2285              		.section	.text.TIM_SetCompare3,"ax",%progbits
 2286              		.align	1
 2287              		.global	TIM_SetCompare3
 2288              		.syntax unified
 2289              		.thumb
 2290              		.thumb_func
 2292              	TIM_SetCompare3:
 2293              	.LFB153:
1084:Drivers/STM32F4xx_StdPeriph_Driver/src/stm32f4xx_tim.c **** 
1085:Drivers/STM32F4xx_StdPeriph_Driver/src/stm32f4xx_tim.c **** /**
1086:Drivers/STM32F4xx_StdPeriph_Driver/src/stm32f4xx_tim.c ****   * @brief  Sets the TIMx Capture Compare3 Register value
1087:Drivers/STM32F4xx_StdPeriph_Driver/src/stm32f4xx_tim.c ****   * @param  TIMx: where x can be 1, 2, 3, 4, 5 or 8 to select the TIM peripheral.
1088:Drivers/STM32F4xx_StdPeriph_Driver/src/stm32f4xx_tim.c ****   * @param  Compare3: specifies the Capture Compare3 register new value.
1089:Drivers/STM32F4xx_StdPeriph_Driver/src/stm32f4xx_tim.c ****   * @retval None
1090:Drivers/STM32F4xx_StdPeriph_Driver/src/stm32f4xx_tim.c ****   */
1091:Drivers/STM32F4xx_StdPeriph_Driver/src/stm32f4xx_tim.c **** void TIM_SetCompare3(TIM_TypeDef* TIMx, uint32_t Compare3)
1092:Drivers/STM32F4xx_StdPeriph_Driver/src/stm32f4xx_tim.c **** {
 2294              		.loc 1 1092 1
 2295              		.cfi_startproc
 2296              		@ args = 0, pretend = 0, frame = 8
 2297              		@ frame_needed = 1, uses_anonymous_args = 0
 2298              		@ link register save eliminated.
 2299 0000 80B4     		push	{r7}
 2300              	.LCFI137:
 2301              		.cfi_def_cfa_offset 4
 2302              		.cfi_offset 7, -4
 2303 0002 83B0     		sub	sp, sp, #12
 2304              	.LCFI138:
 2305              		.cfi_def_cfa_offset 16
 2306 0004 00AF     		add	r7, sp, #0
 2307              	.LCFI139:
 2308              		.cfi_def_cfa_register 7
 2309 0006 7860     		str	r0, [r7, #4]
 2310 0008 3960     		str	r1, [r7]
1093:Drivers/STM32F4xx_StdPeriph_Driver/src/stm32f4xx_tim.c ****   /* Check the parameters */
1094:Drivers/STM32F4xx_StdPeriph_Driver/src/stm32f4xx_tim.c ****   assert_param(IS_TIM_LIST3_PERIPH(TIMx));
1095:Drivers/STM32F4xx_StdPeriph_Driver/src/stm32f4xx_tim.c **** 
1096:Drivers/STM32F4xx_StdPeriph_Driver/src/stm32f4xx_tim.c ****   /* Set the Capture Compare3 Register value */
1097:Drivers/STM32F4xx_StdPeriph_Driver/src/stm32f4xx_tim.c ****   TIMx->CCR3 = Compare3;
 2311              		.loc 1 1097 14
 2312 000a 7B68     		ldr	r3, [r7, #4]
 2313 000c 3A68     		ldr	r2, [r7]
 2314 000e DA63     		str	r2, [r3, #60]
1098:Drivers/STM32F4xx_StdPeriph_Driver/src/stm32f4xx_tim.c **** }
 2315              		.loc 1 1098 1
 2316 0010 00BF     		nop
 2317 0012 0C37     		adds	r7, r7, #12
 2318              	.LCFI140:
 2319              		.cfi_def_cfa_offset 4
 2320 0014 BD46     		mov	sp, r7
 2321              	.LCFI141:
 2322              		.cfi_def_cfa_register 13
 2323              		@ sp needed
 2324 0016 5DF8047B 		ldr	r7, [sp], #4
 2325              	.LCFI142:
 2326              		.cfi_restore 7
ARM GAS  C:\Users\Admin\AppData\Local\Temp\ccwOX7Bd.s 			page 61


 2327              		.cfi_def_cfa_offset 0
 2328 001a 7047     		bx	lr
 2329              		.cfi_endproc
 2330              	.LFE153:
 2332              		.section	.text.TIM_SetCompare4,"ax",%progbits
 2333              		.align	1
 2334              		.global	TIM_SetCompare4
 2335              		.syntax unified
 2336              		.thumb
 2337              		.thumb_func
 2339              	TIM_SetCompare4:
 2340              	.LFB154:
1099:Drivers/STM32F4xx_StdPeriph_Driver/src/stm32f4xx_tim.c **** 
1100:Drivers/STM32F4xx_StdPeriph_Driver/src/stm32f4xx_tim.c **** /**
1101:Drivers/STM32F4xx_StdPeriph_Driver/src/stm32f4xx_tim.c ****   * @brief  Sets the TIMx Capture Compare4 Register value
1102:Drivers/STM32F4xx_StdPeriph_Driver/src/stm32f4xx_tim.c ****   * @param  TIMx: where x can be 1, 2, 3, 4, 5 or 8 to select the TIM peripheral.
1103:Drivers/STM32F4xx_StdPeriph_Driver/src/stm32f4xx_tim.c ****   * @param  Compare4: specifies the Capture Compare4 register new value.
1104:Drivers/STM32F4xx_StdPeriph_Driver/src/stm32f4xx_tim.c ****   * @retval None
1105:Drivers/STM32F4xx_StdPeriph_Driver/src/stm32f4xx_tim.c ****   */
1106:Drivers/STM32F4xx_StdPeriph_Driver/src/stm32f4xx_tim.c **** void TIM_SetCompare4(TIM_TypeDef* TIMx, uint32_t Compare4)
1107:Drivers/STM32F4xx_StdPeriph_Driver/src/stm32f4xx_tim.c **** {
 2341              		.loc 1 1107 1
 2342              		.cfi_startproc
 2343              		@ args = 0, pretend = 0, frame = 8
 2344              		@ frame_needed = 1, uses_anonymous_args = 0
 2345              		@ link register save eliminated.
 2346 0000 80B4     		push	{r7}
 2347              	.LCFI143:
 2348              		.cfi_def_cfa_offset 4
 2349              		.cfi_offset 7, -4
 2350 0002 83B0     		sub	sp, sp, #12
 2351              	.LCFI144:
 2352              		.cfi_def_cfa_offset 16
 2353 0004 00AF     		add	r7, sp, #0
 2354              	.LCFI145:
 2355              		.cfi_def_cfa_register 7
 2356 0006 7860     		str	r0, [r7, #4]
 2357 0008 3960     		str	r1, [r7]
1108:Drivers/STM32F4xx_StdPeriph_Driver/src/stm32f4xx_tim.c ****   /* Check the parameters */
1109:Drivers/STM32F4xx_StdPeriph_Driver/src/stm32f4xx_tim.c ****   assert_param(IS_TIM_LIST3_PERIPH(TIMx));
1110:Drivers/STM32F4xx_StdPeriph_Driver/src/stm32f4xx_tim.c **** 
1111:Drivers/STM32F4xx_StdPeriph_Driver/src/stm32f4xx_tim.c ****   /* Set the Capture Compare4 Register value */
1112:Drivers/STM32F4xx_StdPeriph_Driver/src/stm32f4xx_tim.c ****   TIMx->CCR4 = Compare4;
 2358              		.loc 1 1112 14
 2359 000a 7B68     		ldr	r3, [r7, #4]
 2360 000c 3A68     		ldr	r2, [r7]
 2361 000e 1A64     		str	r2, [r3, #64]
1113:Drivers/STM32F4xx_StdPeriph_Driver/src/stm32f4xx_tim.c **** }
 2362              		.loc 1 1113 1
 2363 0010 00BF     		nop
 2364 0012 0C37     		adds	r7, r7, #12
 2365              	.LCFI146:
 2366              		.cfi_def_cfa_offset 4
 2367 0014 BD46     		mov	sp, r7
 2368              	.LCFI147:
 2369              		.cfi_def_cfa_register 13
 2370              		@ sp needed
ARM GAS  C:\Users\Admin\AppData\Local\Temp\ccwOX7Bd.s 			page 62


 2371 0016 5DF8047B 		ldr	r7, [sp], #4
 2372              	.LCFI148:
 2373              		.cfi_restore 7
 2374              		.cfi_def_cfa_offset 0
 2375 001a 7047     		bx	lr
 2376              		.cfi_endproc
 2377              	.LFE154:
 2379              		.section	.text.TIM_ForcedOC1Config,"ax",%progbits
 2380              		.align	1
 2381              		.global	TIM_ForcedOC1Config
 2382              		.syntax unified
 2383              		.thumb
 2384              		.thumb_func
 2386              	TIM_ForcedOC1Config:
 2387              	.LFB155:
1114:Drivers/STM32F4xx_StdPeriph_Driver/src/stm32f4xx_tim.c **** 
1115:Drivers/STM32F4xx_StdPeriph_Driver/src/stm32f4xx_tim.c **** /**
1116:Drivers/STM32F4xx_StdPeriph_Driver/src/stm32f4xx_tim.c ****   * @brief  Forces the TIMx output 1 waveform to active or inactive level.
1117:Drivers/STM32F4xx_StdPeriph_Driver/src/stm32f4xx_tim.c ****   * @param  TIMx: where x can be 1 to 14 except 6 and 7, to select the TIM peripheral.
1118:Drivers/STM32F4xx_StdPeriph_Driver/src/stm32f4xx_tim.c ****   * @param  TIM_ForcedAction: specifies the forced Action to be set to the output waveform.
1119:Drivers/STM32F4xx_StdPeriph_Driver/src/stm32f4xx_tim.c ****   *          This parameter can be one of the following values:
1120:Drivers/STM32F4xx_StdPeriph_Driver/src/stm32f4xx_tim.c ****   *            @arg TIM_ForcedAction_Active: Force active level on OC1REF
1121:Drivers/STM32F4xx_StdPeriph_Driver/src/stm32f4xx_tim.c ****   *            @arg TIM_ForcedAction_InActive: Force inactive level on OC1REF.
1122:Drivers/STM32F4xx_StdPeriph_Driver/src/stm32f4xx_tim.c ****   * @retval None
1123:Drivers/STM32F4xx_StdPeriph_Driver/src/stm32f4xx_tim.c ****   */
1124:Drivers/STM32F4xx_StdPeriph_Driver/src/stm32f4xx_tim.c **** void TIM_ForcedOC1Config(TIM_TypeDef* TIMx, uint16_t TIM_ForcedAction)
1125:Drivers/STM32F4xx_StdPeriph_Driver/src/stm32f4xx_tim.c **** {
 2388              		.loc 1 1125 1
 2389              		.cfi_startproc
 2390              		@ args = 0, pretend = 0, frame = 16
 2391              		@ frame_needed = 1, uses_anonymous_args = 0
 2392              		@ link register save eliminated.
 2393 0000 80B4     		push	{r7}
 2394              	.LCFI149:
 2395              		.cfi_def_cfa_offset 4
 2396              		.cfi_offset 7, -4
 2397 0002 85B0     		sub	sp, sp, #20
 2398              	.LCFI150:
 2399              		.cfi_def_cfa_offset 24
 2400 0004 00AF     		add	r7, sp, #0
 2401              	.LCFI151:
 2402              		.cfi_def_cfa_register 7
 2403 0006 7860     		str	r0, [r7, #4]
 2404 0008 0B46     		mov	r3, r1
 2405 000a 7B80     		strh	r3, [r7, #2]	@ movhi
1126:Drivers/STM32F4xx_StdPeriph_Driver/src/stm32f4xx_tim.c ****   uint16_t tmpccmr1 = 0;
 2406              		.loc 1 1126 12
 2407 000c 0023     		movs	r3, #0
 2408 000e FB81     		strh	r3, [r7, #14]	@ movhi
1127:Drivers/STM32F4xx_StdPeriph_Driver/src/stm32f4xx_tim.c **** 
1128:Drivers/STM32F4xx_StdPeriph_Driver/src/stm32f4xx_tim.c ****   /* Check the parameters */
1129:Drivers/STM32F4xx_StdPeriph_Driver/src/stm32f4xx_tim.c ****   assert_param(IS_TIM_LIST1_PERIPH(TIMx));
1130:Drivers/STM32F4xx_StdPeriph_Driver/src/stm32f4xx_tim.c ****   assert_param(IS_TIM_FORCED_ACTION(TIM_ForcedAction));
1131:Drivers/STM32F4xx_StdPeriph_Driver/src/stm32f4xx_tim.c ****   tmpccmr1 = TIMx->CCMR1;
 2409              		.loc 1 1131 12
 2410 0010 7B68     		ldr	r3, [r7, #4]
 2411 0012 1B8B     		ldrh	r3, [r3, #24]	@ movhi
ARM GAS  C:\Users\Admin\AppData\Local\Temp\ccwOX7Bd.s 			page 63


 2412 0014 FB81     		strh	r3, [r7, #14]	@ movhi
1132:Drivers/STM32F4xx_StdPeriph_Driver/src/stm32f4xx_tim.c **** 
1133:Drivers/STM32F4xx_StdPeriph_Driver/src/stm32f4xx_tim.c ****   /* Reset the OC1M Bits */
1134:Drivers/STM32F4xx_StdPeriph_Driver/src/stm32f4xx_tim.c ****   tmpccmr1 &= (uint16_t)~TIM_CCMR1_OC1M;
 2413              		.loc 1 1134 12
 2414 0016 FB89     		ldrh	r3, [r7, #14]	@ movhi
 2415 0018 23F07003 		bic	r3, r3, #112
 2416 001c FB81     		strh	r3, [r7, #14]	@ movhi
1135:Drivers/STM32F4xx_StdPeriph_Driver/src/stm32f4xx_tim.c **** 
1136:Drivers/STM32F4xx_StdPeriph_Driver/src/stm32f4xx_tim.c ****   /* Configure The Forced output Mode */
1137:Drivers/STM32F4xx_StdPeriph_Driver/src/stm32f4xx_tim.c ****   tmpccmr1 |= TIM_ForcedAction;
 2417              		.loc 1 1137 12
 2418 001e FA89     		ldrh	r2, [r7, #14]	@ movhi
 2419 0020 7B88     		ldrh	r3, [r7, #2]	@ movhi
 2420 0022 1343     		orrs	r3, r3, r2
 2421 0024 FB81     		strh	r3, [r7, #14]	@ movhi
1138:Drivers/STM32F4xx_StdPeriph_Driver/src/stm32f4xx_tim.c **** 
1139:Drivers/STM32F4xx_StdPeriph_Driver/src/stm32f4xx_tim.c ****   /* Write to TIMx CCMR1 register */
1140:Drivers/STM32F4xx_StdPeriph_Driver/src/stm32f4xx_tim.c ****   TIMx->CCMR1 = tmpccmr1;
 2422              		.loc 1 1140 15
 2423 0026 7B68     		ldr	r3, [r7, #4]
 2424 0028 FA89     		ldrh	r2, [r7, #14]	@ movhi
 2425 002a 1A83     		strh	r2, [r3, #24]	@ movhi
1141:Drivers/STM32F4xx_StdPeriph_Driver/src/stm32f4xx_tim.c **** }
 2426              		.loc 1 1141 1
 2427 002c 00BF     		nop
 2428 002e 1437     		adds	r7, r7, #20
 2429              	.LCFI152:
 2430              		.cfi_def_cfa_offset 4
 2431 0030 BD46     		mov	sp, r7
 2432              	.LCFI153:
 2433              		.cfi_def_cfa_register 13
 2434              		@ sp needed
 2435 0032 5DF8047B 		ldr	r7, [sp], #4
 2436              	.LCFI154:
 2437              		.cfi_restore 7
 2438              		.cfi_def_cfa_offset 0
 2439 0036 7047     		bx	lr
 2440              		.cfi_endproc
 2441              	.LFE155:
 2443              		.section	.text.TIM_ForcedOC2Config,"ax",%progbits
 2444              		.align	1
 2445              		.global	TIM_ForcedOC2Config
 2446              		.syntax unified
 2447              		.thumb
 2448              		.thumb_func
 2450              	TIM_ForcedOC2Config:
 2451              	.LFB156:
1142:Drivers/STM32F4xx_StdPeriph_Driver/src/stm32f4xx_tim.c **** 
1143:Drivers/STM32F4xx_StdPeriph_Driver/src/stm32f4xx_tim.c **** /**
1144:Drivers/STM32F4xx_StdPeriph_Driver/src/stm32f4xx_tim.c ****   * @brief  Forces the TIMx output 2 waveform to active or inactive level.
1145:Drivers/STM32F4xx_StdPeriph_Driver/src/stm32f4xx_tim.c ****   * @param  TIMx: where x can be  1, 2, 3, 4, 5, 8, 9 or 12 to select the TIM 
1146:Drivers/STM32F4xx_StdPeriph_Driver/src/stm32f4xx_tim.c ****   *         peripheral.
1147:Drivers/STM32F4xx_StdPeriph_Driver/src/stm32f4xx_tim.c ****   * @param  TIM_ForcedAction: specifies the forced Action to be set to the output waveform.
1148:Drivers/STM32F4xx_StdPeriph_Driver/src/stm32f4xx_tim.c ****   *          This parameter can be one of the following values:
1149:Drivers/STM32F4xx_StdPeriph_Driver/src/stm32f4xx_tim.c ****   *            @arg TIM_ForcedAction_Active: Force active level on OC2REF
1150:Drivers/STM32F4xx_StdPeriph_Driver/src/stm32f4xx_tim.c ****   *            @arg TIM_ForcedAction_InActive: Force inactive level on OC2REF.
ARM GAS  C:\Users\Admin\AppData\Local\Temp\ccwOX7Bd.s 			page 64


1151:Drivers/STM32F4xx_StdPeriph_Driver/src/stm32f4xx_tim.c ****   * @retval None
1152:Drivers/STM32F4xx_StdPeriph_Driver/src/stm32f4xx_tim.c ****   */
1153:Drivers/STM32F4xx_StdPeriph_Driver/src/stm32f4xx_tim.c **** void TIM_ForcedOC2Config(TIM_TypeDef* TIMx, uint16_t TIM_ForcedAction)
1154:Drivers/STM32F4xx_StdPeriph_Driver/src/stm32f4xx_tim.c **** {
 2452              		.loc 1 1154 1
 2453              		.cfi_startproc
 2454              		@ args = 0, pretend = 0, frame = 16
 2455              		@ frame_needed = 1, uses_anonymous_args = 0
 2456              		@ link register save eliminated.
 2457 0000 80B4     		push	{r7}
 2458              	.LCFI155:
 2459              		.cfi_def_cfa_offset 4
 2460              		.cfi_offset 7, -4
 2461 0002 85B0     		sub	sp, sp, #20
 2462              	.LCFI156:
 2463              		.cfi_def_cfa_offset 24
 2464 0004 00AF     		add	r7, sp, #0
 2465              	.LCFI157:
 2466              		.cfi_def_cfa_register 7
 2467 0006 7860     		str	r0, [r7, #4]
 2468 0008 0B46     		mov	r3, r1
 2469 000a 7B80     		strh	r3, [r7, #2]	@ movhi
1155:Drivers/STM32F4xx_StdPeriph_Driver/src/stm32f4xx_tim.c ****   uint16_t tmpccmr1 = 0;
 2470              		.loc 1 1155 12
 2471 000c 0023     		movs	r3, #0
 2472 000e FB81     		strh	r3, [r7, #14]	@ movhi
1156:Drivers/STM32F4xx_StdPeriph_Driver/src/stm32f4xx_tim.c **** 
1157:Drivers/STM32F4xx_StdPeriph_Driver/src/stm32f4xx_tim.c ****   /* Check the parameters */
1158:Drivers/STM32F4xx_StdPeriph_Driver/src/stm32f4xx_tim.c ****   assert_param(IS_TIM_LIST2_PERIPH(TIMx));
1159:Drivers/STM32F4xx_StdPeriph_Driver/src/stm32f4xx_tim.c ****   assert_param(IS_TIM_FORCED_ACTION(TIM_ForcedAction));
1160:Drivers/STM32F4xx_StdPeriph_Driver/src/stm32f4xx_tim.c ****   tmpccmr1 = TIMx->CCMR1;
 2473              		.loc 1 1160 12
 2474 0010 7B68     		ldr	r3, [r7, #4]
 2475 0012 1B8B     		ldrh	r3, [r3, #24]	@ movhi
 2476 0014 FB81     		strh	r3, [r7, #14]	@ movhi
1161:Drivers/STM32F4xx_StdPeriph_Driver/src/stm32f4xx_tim.c **** 
1162:Drivers/STM32F4xx_StdPeriph_Driver/src/stm32f4xx_tim.c ****   /* Reset the OC2M Bits */
1163:Drivers/STM32F4xx_StdPeriph_Driver/src/stm32f4xx_tim.c ****   tmpccmr1 &= (uint16_t)~TIM_CCMR1_OC2M;
 2477              		.loc 1 1163 12
 2478 0016 FB89     		ldrh	r3, [r7, #14]	@ movhi
 2479 0018 23F4E043 		bic	r3, r3, #28672
 2480 001c FB81     		strh	r3, [r7, #14]	@ movhi
1164:Drivers/STM32F4xx_StdPeriph_Driver/src/stm32f4xx_tim.c **** 
1165:Drivers/STM32F4xx_StdPeriph_Driver/src/stm32f4xx_tim.c ****   /* Configure The Forced output Mode */
1166:Drivers/STM32F4xx_StdPeriph_Driver/src/stm32f4xx_tim.c ****   tmpccmr1 |= (uint16_t)(TIM_ForcedAction << 8);
 2481              		.loc 1 1166 15
 2482 001e 7B88     		ldrh	r3, [r7, #2]	@ movhi
 2483 0020 1B02     		lsls	r3, r3, #8
 2484 0022 9AB2     		uxth	r2, r3
 2485              		.loc 1 1166 12
 2486 0024 FB89     		ldrh	r3, [r7, #14]	@ movhi
 2487 0026 1343     		orrs	r3, r3, r2
 2488 0028 FB81     		strh	r3, [r7, #14]	@ movhi
1167:Drivers/STM32F4xx_StdPeriph_Driver/src/stm32f4xx_tim.c **** 
1168:Drivers/STM32F4xx_StdPeriph_Driver/src/stm32f4xx_tim.c ****   /* Write to TIMx CCMR1 register */
1169:Drivers/STM32F4xx_StdPeriph_Driver/src/stm32f4xx_tim.c ****   TIMx->CCMR1 = tmpccmr1;
 2489              		.loc 1 1169 15
ARM GAS  C:\Users\Admin\AppData\Local\Temp\ccwOX7Bd.s 			page 65


 2490 002a 7B68     		ldr	r3, [r7, #4]
 2491 002c FA89     		ldrh	r2, [r7, #14]	@ movhi
 2492 002e 1A83     		strh	r2, [r3, #24]	@ movhi
1170:Drivers/STM32F4xx_StdPeriph_Driver/src/stm32f4xx_tim.c **** }
 2493              		.loc 1 1170 1
 2494 0030 00BF     		nop
 2495 0032 1437     		adds	r7, r7, #20
 2496              	.LCFI158:
 2497              		.cfi_def_cfa_offset 4
 2498 0034 BD46     		mov	sp, r7
 2499              	.LCFI159:
 2500              		.cfi_def_cfa_register 13
 2501              		@ sp needed
 2502 0036 5DF8047B 		ldr	r7, [sp], #4
 2503              	.LCFI160:
 2504              		.cfi_restore 7
 2505              		.cfi_def_cfa_offset 0
 2506 003a 7047     		bx	lr
 2507              		.cfi_endproc
 2508              	.LFE156:
 2510              		.section	.text.TIM_ForcedOC3Config,"ax",%progbits
 2511              		.align	1
 2512              		.global	TIM_ForcedOC3Config
 2513              		.syntax unified
 2514              		.thumb
 2515              		.thumb_func
 2517              	TIM_ForcedOC3Config:
 2518              	.LFB157:
1171:Drivers/STM32F4xx_StdPeriph_Driver/src/stm32f4xx_tim.c **** 
1172:Drivers/STM32F4xx_StdPeriph_Driver/src/stm32f4xx_tim.c **** /**
1173:Drivers/STM32F4xx_StdPeriph_Driver/src/stm32f4xx_tim.c ****   * @brief  Forces the TIMx output 3 waveform to active or inactive level.
1174:Drivers/STM32F4xx_StdPeriph_Driver/src/stm32f4xx_tim.c ****   * @param  TIMx: where x can be  1, 2, 3, 4, 5 or 8 to select the TIM peripheral.
1175:Drivers/STM32F4xx_StdPeriph_Driver/src/stm32f4xx_tim.c ****   * @param  TIM_ForcedAction: specifies the forced Action to be set to the output waveform.
1176:Drivers/STM32F4xx_StdPeriph_Driver/src/stm32f4xx_tim.c ****   *          This parameter can be one of the following values:
1177:Drivers/STM32F4xx_StdPeriph_Driver/src/stm32f4xx_tim.c ****   *            @arg TIM_ForcedAction_Active: Force active level on OC3REF
1178:Drivers/STM32F4xx_StdPeriph_Driver/src/stm32f4xx_tim.c ****   *            @arg TIM_ForcedAction_InActive: Force inactive level on OC3REF.
1179:Drivers/STM32F4xx_StdPeriph_Driver/src/stm32f4xx_tim.c ****   * @retval None
1180:Drivers/STM32F4xx_StdPeriph_Driver/src/stm32f4xx_tim.c ****   */
1181:Drivers/STM32F4xx_StdPeriph_Driver/src/stm32f4xx_tim.c **** void TIM_ForcedOC3Config(TIM_TypeDef* TIMx, uint16_t TIM_ForcedAction)
1182:Drivers/STM32F4xx_StdPeriph_Driver/src/stm32f4xx_tim.c **** {
 2519              		.loc 1 1182 1
 2520              		.cfi_startproc
 2521              		@ args = 0, pretend = 0, frame = 16
 2522              		@ frame_needed = 1, uses_anonymous_args = 0
 2523              		@ link register save eliminated.
 2524 0000 80B4     		push	{r7}
 2525              	.LCFI161:
 2526              		.cfi_def_cfa_offset 4
 2527              		.cfi_offset 7, -4
 2528 0002 85B0     		sub	sp, sp, #20
 2529              	.LCFI162:
 2530              		.cfi_def_cfa_offset 24
 2531 0004 00AF     		add	r7, sp, #0
 2532              	.LCFI163:
 2533              		.cfi_def_cfa_register 7
 2534 0006 7860     		str	r0, [r7, #4]
 2535 0008 0B46     		mov	r3, r1
ARM GAS  C:\Users\Admin\AppData\Local\Temp\ccwOX7Bd.s 			page 66


 2536 000a 7B80     		strh	r3, [r7, #2]	@ movhi
1183:Drivers/STM32F4xx_StdPeriph_Driver/src/stm32f4xx_tim.c ****   uint16_t tmpccmr2 = 0;
 2537              		.loc 1 1183 12
 2538 000c 0023     		movs	r3, #0
 2539 000e FB81     		strh	r3, [r7, #14]	@ movhi
1184:Drivers/STM32F4xx_StdPeriph_Driver/src/stm32f4xx_tim.c **** 
1185:Drivers/STM32F4xx_StdPeriph_Driver/src/stm32f4xx_tim.c ****   /* Check the parameters */
1186:Drivers/STM32F4xx_StdPeriph_Driver/src/stm32f4xx_tim.c ****   assert_param(IS_TIM_LIST3_PERIPH(TIMx));
1187:Drivers/STM32F4xx_StdPeriph_Driver/src/stm32f4xx_tim.c ****   assert_param(IS_TIM_FORCED_ACTION(TIM_ForcedAction));
1188:Drivers/STM32F4xx_StdPeriph_Driver/src/stm32f4xx_tim.c **** 
1189:Drivers/STM32F4xx_StdPeriph_Driver/src/stm32f4xx_tim.c ****   tmpccmr2 = TIMx->CCMR2;
 2540              		.loc 1 1189 12
 2541 0010 7B68     		ldr	r3, [r7, #4]
 2542 0012 9B8B     		ldrh	r3, [r3, #28]	@ movhi
 2543 0014 FB81     		strh	r3, [r7, #14]	@ movhi
1190:Drivers/STM32F4xx_StdPeriph_Driver/src/stm32f4xx_tim.c **** 
1191:Drivers/STM32F4xx_StdPeriph_Driver/src/stm32f4xx_tim.c ****   /* Reset the OC1M Bits */
1192:Drivers/STM32F4xx_StdPeriph_Driver/src/stm32f4xx_tim.c ****   tmpccmr2 &= (uint16_t)~TIM_CCMR2_OC3M;
 2544              		.loc 1 1192 12
 2545 0016 FB89     		ldrh	r3, [r7, #14]	@ movhi
 2546 0018 23F07003 		bic	r3, r3, #112
 2547 001c FB81     		strh	r3, [r7, #14]	@ movhi
1193:Drivers/STM32F4xx_StdPeriph_Driver/src/stm32f4xx_tim.c **** 
1194:Drivers/STM32F4xx_StdPeriph_Driver/src/stm32f4xx_tim.c ****   /* Configure The Forced output Mode */
1195:Drivers/STM32F4xx_StdPeriph_Driver/src/stm32f4xx_tim.c ****   tmpccmr2 |= TIM_ForcedAction;
 2548              		.loc 1 1195 12
 2549 001e FA89     		ldrh	r2, [r7, #14]	@ movhi
 2550 0020 7B88     		ldrh	r3, [r7, #2]	@ movhi
 2551 0022 1343     		orrs	r3, r3, r2
 2552 0024 FB81     		strh	r3, [r7, #14]	@ movhi
1196:Drivers/STM32F4xx_StdPeriph_Driver/src/stm32f4xx_tim.c **** 
1197:Drivers/STM32F4xx_StdPeriph_Driver/src/stm32f4xx_tim.c ****   /* Write to TIMx CCMR2 register */
1198:Drivers/STM32F4xx_StdPeriph_Driver/src/stm32f4xx_tim.c ****   TIMx->CCMR2 = tmpccmr2;
 2553              		.loc 1 1198 15
 2554 0026 7B68     		ldr	r3, [r7, #4]
 2555 0028 FA89     		ldrh	r2, [r7, #14]	@ movhi
 2556 002a 9A83     		strh	r2, [r3, #28]	@ movhi
1199:Drivers/STM32F4xx_StdPeriph_Driver/src/stm32f4xx_tim.c **** }
 2557              		.loc 1 1199 1
 2558 002c 00BF     		nop
 2559 002e 1437     		adds	r7, r7, #20
 2560              	.LCFI164:
 2561              		.cfi_def_cfa_offset 4
 2562 0030 BD46     		mov	sp, r7
 2563              	.LCFI165:
 2564              		.cfi_def_cfa_register 13
 2565              		@ sp needed
 2566 0032 5DF8047B 		ldr	r7, [sp], #4
 2567              	.LCFI166:
 2568              		.cfi_restore 7
 2569              		.cfi_def_cfa_offset 0
 2570 0036 7047     		bx	lr
 2571              		.cfi_endproc
 2572              	.LFE157:
 2574              		.section	.text.TIM_ForcedOC4Config,"ax",%progbits
 2575              		.align	1
 2576              		.global	TIM_ForcedOC4Config
ARM GAS  C:\Users\Admin\AppData\Local\Temp\ccwOX7Bd.s 			page 67


 2577              		.syntax unified
 2578              		.thumb
 2579              		.thumb_func
 2581              	TIM_ForcedOC4Config:
 2582              	.LFB158:
1200:Drivers/STM32F4xx_StdPeriph_Driver/src/stm32f4xx_tim.c **** 
1201:Drivers/STM32F4xx_StdPeriph_Driver/src/stm32f4xx_tim.c **** /**
1202:Drivers/STM32F4xx_StdPeriph_Driver/src/stm32f4xx_tim.c ****   * @brief  Forces the TIMx output 4 waveform to active or inactive level.
1203:Drivers/STM32F4xx_StdPeriph_Driver/src/stm32f4xx_tim.c ****   * @param  TIMx: where x can be  1, 2, 3, 4, 5 or 8 to select the TIM peripheral.
1204:Drivers/STM32F4xx_StdPeriph_Driver/src/stm32f4xx_tim.c ****   * @param  TIM_ForcedAction: specifies the forced Action to be set to the output waveform.
1205:Drivers/STM32F4xx_StdPeriph_Driver/src/stm32f4xx_tim.c ****   *          This parameter can be one of the following values:
1206:Drivers/STM32F4xx_StdPeriph_Driver/src/stm32f4xx_tim.c ****   *            @arg TIM_ForcedAction_Active: Force active level on OC4REF
1207:Drivers/STM32F4xx_StdPeriph_Driver/src/stm32f4xx_tim.c ****   *            @arg TIM_ForcedAction_InActive: Force inactive level on OC4REF.
1208:Drivers/STM32F4xx_StdPeriph_Driver/src/stm32f4xx_tim.c ****   * @retval None
1209:Drivers/STM32F4xx_StdPeriph_Driver/src/stm32f4xx_tim.c ****   */
1210:Drivers/STM32F4xx_StdPeriph_Driver/src/stm32f4xx_tim.c **** void TIM_ForcedOC4Config(TIM_TypeDef* TIMx, uint16_t TIM_ForcedAction)
1211:Drivers/STM32F4xx_StdPeriph_Driver/src/stm32f4xx_tim.c **** {
 2583              		.loc 1 1211 1
 2584              		.cfi_startproc
 2585              		@ args = 0, pretend = 0, frame = 16
 2586              		@ frame_needed = 1, uses_anonymous_args = 0
 2587              		@ link register save eliminated.
 2588 0000 80B4     		push	{r7}
 2589              	.LCFI167:
 2590              		.cfi_def_cfa_offset 4
 2591              		.cfi_offset 7, -4
 2592 0002 85B0     		sub	sp, sp, #20
 2593              	.LCFI168:
 2594              		.cfi_def_cfa_offset 24
 2595 0004 00AF     		add	r7, sp, #0
 2596              	.LCFI169:
 2597              		.cfi_def_cfa_register 7
 2598 0006 7860     		str	r0, [r7, #4]
 2599 0008 0B46     		mov	r3, r1
 2600 000a 7B80     		strh	r3, [r7, #2]	@ movhi
1212:Drivers/STM32F4xx_StdPeriph_Driver/src/stm32f4xx_tim.c ****   uint16_t tmpccmr2 = 0;
 2601              		.loc 1 1212 12
 2602 000c 0023     		movs	r3, #0
 2603 000e FB81     		strh	r3, [r7, #14]	@ movhi
1213:Drivers/STM32F4xx_StdPeriph_Driver/src/stm32f4xx_tim.c **** 
1214:Drivers/STM32F4xx_StdPeriph_Driver/src/stm32f4xx_tim.c ****   /* Check the parameters */
1215:Drivers/STM32F4xx_StdPeriph_Driver/src/stm32f4xx_tim.c ****   assert_param(IS_TIM_LIST3_PERIPH(TIMx));
1216:Drivers/STM32F4xx_StdPeriph_Driver/src/stm32f4xx_tim.c ****   assert_param(IS_TIM_FORCED_ACTION(TIM_ForcedAction));
1217:Drivers/STM32F4xx_StdPeriph_Driver/src/stm32f4xx_tim.c ****   tmpccmr2 = TIMx->CCMR2;
 2604              		.loc 1 1217 12
 2605 0010 7B68     		ldr	r3, [r7, #4]
 2606 0012 9B8B     		ldrh	r3, [r3, #28]	@ movhi
 2607 0014 FB81     		strh	r3, [r7, #14]	@ movhi
1218:Drivers/STM32F4xx_StdPeriph_Driver/src/stm32f4xx_tim.c **** 
1219:Drivers/STM32F4xx_StdPeriph_Driver/src/stm32f4xx_tim.c ****   /* Reset the OC2M Bits */
1220:Drivers/STM32F4xx_StdPeriph_Driver/src/stm32f4xx_tim.c ****   tmpccmr2 &= (uint16_t)~TIM_CCMR2_OC4M;
 2608              		.loc 1 1220 12
 2609 0016 FB89     		ldrh	r3, [r7, #14]	@ movhi
 2610 0018 23F4E043 		bic	r3, r3, #28672
 2611 001c FB81     		strh	r3, [r7, #14]	@ movhi
1221:Drivers/STM32F4xx_StdPeriph_Driver/src/stm32f4xx_tim.c **** 
1222:Drivers/STM32F4xx_StdPeriph_Driver/src/stm32f4xx_tim.c ****   /* Configure The Forced output Mode */
ARM GAS  C:\Users\Admin\AppData\Local\Temp\ccwOX7Bd.s 			page 68


1223:Drivers/STM32F4xx_StdPeriph_Driver/src/stm32f4xx_tim.c ****   tmpccmr2 |= (uint16_t)(TIM_ForcedAction << 8);
 2612              		.loc 1 1223 15
 2613 001e 7B88     		ldrh	r3, [r7, #2]	@ movhi
 2614 0020 1B02     		lsls	r3, r3, #8
 2615 0022 9AB2     		uxth	r2, r3
 2616              		.loc 1 1223 12
 2617 0024 FB89     		ldrh	r3, [r7, #14]	@ movhi
 2618 0026 1343     		orrs	r3, r3, r2
 2619 0028 FB81     		strh	r3, [r7, #14]	@ movhi
1224:Drivers/STM32F4xx_StdPeriph_Driver/src/stm32f4xx_tim.c **** 
1225:Drivers/STM32F4xx_StdPeriph_Driver/src/stm32f4xx_tim.c ****   /* Write to TIMx CCMR2 register */
1226:Drivers/STM32F4xx_StdPeriph_Driver/src/stm32f4xx_tim.c ****   TIMx->CCMR2 = tmpccmr2;
 2620              		.loc 1 1226 15
 2621 002a 7B68     		ldr	r3, [r7, #4]
 2622 002c FA89     		ldrh	r2, [r7, #14]	@ movhi
 2623 002e 9A83     		strh	r2, [r3, #28]	@ movhi
1227:Drivers/STM32F4xx_StdPeriph_Driver/src/stm32f4xx_tim.c **** }
 2624              		.loc 1 1227 1
 2625 0030 00BF     		nop
 2626 0032 1437     		adds	r7, r7, #20
 2627              	.LCFI170:
 2628              		.cfi_def_cfa_offset 4
 2629 0034 BD46     		mov	sp, r7
 2630              	.LCFI171:
 2631              		.cfi_def_cfa_register 13
 2632              		@ sp needed
 2633 0036 5DF8047B 		ldr	r7, [sp], #4
 2634              	.LCFI172:
 2635              		.cfi_restore 7
 2636              		.cfi_def_cfa_offset 0
 2637 003a 7047     		bx	lr
 2638              		.cfi_endproc
 2639              	.LFE158:
 2641              		.section	.text.TIM_OC1PreloadConfig,"ax",%progbits
 2642              		.align	1
 2643              		.global	TIM_OC1PreloadConfig
 2644              		.syntax unified
 2645              		.thumb
 2646              		.thumb_func
 2648              	TIM_OC1PreloadConfig:
 2649              	.LFB159:
1228:Drivers/STM32F4xx_StdPeriph_Driver/src/stm32f4xx_tim.c **** 
1229:Drivers/STM32F4xx_StdPeriph_Driver/src/stm32f4xx_tim.c **** /**
1230:Drivers/STM32F4xx_StdPeriph_Driver/src/stm32f4xx_tim.c ****   * @brief  Enables or disables the TIMx peripheral Preload register on CCR1.
1231:Drivers/STM32F4xx_StdPeriph_Driver/src/stm32f4xx_tim.c ****   * @param  TIMx: where x can be 1 to 14 except 6 and 7, to select the TIM peripheral.
1232:Drivers/STM32F4xx_StdPeriph_Driver/src/stm32f4xx_tim.c ****   * @param  TIM_OCPreload: new state of the TIMx peripheral Preload register
1233:Drivers/STM32F4xx_StdPeriph_Driver/src/stm32f4xx_tim.c ****   *          This parameter can be one of the following values:
1234:Drivers/STM32F4xx_StdPeriph_Driver/src/stm32f4xx_tim.c ****   *            @arg TIM_OCPreload_Enable
1235:Drivers/STM32F4xx_StdPeriph_Driver/src/stm32f4xx_tim.c ****   *            @arg TIM_OCPreload_Disable
1236:Drivers/STM32F4xx_StdPeriph_Driver/src/stm32f4xx_tim.c ****   * @retval None
1237:Drivers/STM32F4xx_StdPeriph_Driver/src/stm32f4xx_tim.c ****   */
1238:Drivers/STM32F4xx_StdPeriph_Driver/src/stm32f4xx_tim.c **** void TIM_OC1PreloadConfig(TIM_TypeDef* TIMx, uint16_t TIM_OCPreload)
1239:Drivers/STM32F4xx_StdPeriph_Driver/src/stm32f4xx_tim.c **** {
 2650              		.loc 1 1239 1
 2651              		.cfi_startproc
 2652              		@ args = 0, pretend = 0, frame = 16
 2653              		@ frame_needed = 1, uses_anonymous_args = 0
ARM GAS  C:\Users\Admin\AppData\Local\Temp\ccwOX7Bd.s 			page 69


 2654              		@ link register save eliminated.
 2655 0000 80B4     		push	{r7}
 2656              	.LCFI173:
 2657              		.cfi_def_cfa_offset 4
 2658              		.cfi_offset 7, -4
 2659 0002 85B0     		sub	sp, sp, #20
 2660              	.LCFI174:
 2661              		.cfi_def_cfa_offset 24
 2662 0004 00AF     		add	r7, sp, #0
 2663              	.LCFI175:
 2664              		.cfi_def_cfa_register 7
 2665 0006 7860     		str	r0, [r7, #4]
 2666 0008 0B46     		mov	r3, r1
 2667 000a 7B80     		strh	r3, [r7, #2]	@ movhi
1240:Drivers/STM32F4xx_StdPeriph_Driver/src/stm32f4xx_tim.c ****   uint16_t tmpccmr1 = 0;
 2668              		.loc 1 1240 12
 2669 000c 0023     		movs	r3, #0
 2670 000e FB81     		strh	r3, [r7, #14]	@ movhi
1241:Drivers/STM32F4xx_StdPeriph_Driver/src/stm32f4xx_tim.c **** 
1242:Drivers/STM32F4xx_StdPeriph_Driver/src/stm32f4xx_tim.c ****   /* Check the parameters */
1243:Drivers/STM32F4xx_StdPeriph_Driver/src/stm32f4xx_tim.c ****   assert_param(IS_TIM_LIST1_PERIPH(TIMx));
1244:Drivers/STM32F4xx_StdPeriph_Driver/src/stm32f4xx_tim.c ****   assert_param(IS_TIM_OCPRELOAD_STATE(TIM_OCPreload));
1245:Drivers/STM32F4xx_StdPeriph_Driver/src/stm32f4xx_tim.c **** 
1246:Drivers/STM32F4xx_StdPeriph_Driver/src/stm32f4xx_tim.c ****   tmpccmr1 = TIMx->CCMR1;
 2671              		.loc 1 1246 12
 2672 0010 7B68     		ldr	r3, [r7, #4]
 2673 0012 1B8B     		ldrh	r3, [r3, #24]	@ movhi
 2674 0014 FB81     		strh	r3, [r7, #14]	@ movhi
1247:Drivers/STM32F4xx_StdPeriph_Driver/src/stm32f4xx_tim.c **** 
1248:Drivers/STM32F4xx_StdPeriph_Driver/src/stm32f4xx_tim.c ****   /* Reset the OC1PE Bit */
1249:Drivers/STM32F4xx_StdPeriph_Driver/src/stm32f4xx_tim.c ****   tmpccmr1 &= (uint16_t)(~TIM_CCMR1_OC1PE);
 2675              		.loc 1 1249 12
 2676 0016 FB89     		ldrh	r3, [r7, #14]	@ movhi
 2677 0018 23F00803 		bic	r3, r3, #8
 2678 001c FB81     		strh	r3, [r7, #14]	@ movhi
1250:Drivers/STM32F4xx_StdPeriph_Driver/src/stm32f4xx_tim.c **** 
1251:Drivers/STM32F4xx_StdPeriph_Driver/src/stm32f4xx_tim.c ****   /* Enable or Disable the Output Compare Preload feature */
1252:Drivers/STM32F4xx_StdPeriph_Driver/src/stm32f4xx_tim.c ****   tmpccmr1 |= TIM_OCPreload;
 2679              		.loc 1 1252 12
 2680 001e FA89     		ldrh	r2, [r7, #14]	@ movhi
 2681 0020 7B88     		ldrh	r3, [r7, #2]	@ movhi
 2682 0022 1343     		orrs	r3, r3, r2
 2683 0024 FB81     		strh	r3, [r7, #14]	@ movhi
1253:Drivers/STM32F4xx_StdPeriph_Driver/src/stm32f4xx_tim.c **** 
1254:Drivers/STM32F4xx_StdPeriph_Driver/src/stm32f4xx_tim.c ****   /* Write to TIMx CCMR1 register */
1255:Drivers/STM32F4xx_StdPeriph_Driver/src/stm32f4xx_tim.c ****   TIMx->CCMR1 = tmpccmr1;
 2684              		.loc 1 1255 15
 2685 0026 7B68     		ldr	r3, [r7, #4]
 2686 0028 FA89     		ldrh	r2, [r7, #14]	@ movhi
 2687 002a 1A83     		strh	r2, [r3, #24]	@ movhi
1256:Drivers/STM32F4xx_StdPeriph_Driver/src/stm32f4xx_tim.c **** }
 2688              		.loc 1 1256 1
 2689 002c 00BF     		nop
 2690 002e 1437     		adds	r7, r7, #20
 2691              	.LCFI176:
 2692              		.cfi_def_cfa_offset 4
 2693 0030 BD46     		mov	sp, r7
ARM GAS  C:\Users\Admin\AppData\Local\Temp\ccwOX7Bd.s 			page 70


 2694              	.LCFI177:
 2695              		.cfi_def_cfa_register 13
 2696              		@ sp needed
 2697 0032 5DF8047B 		ldr	r7, [sp], #4
 2698              	.LCFI178:
 2699              		.cfi_restore 7
 2700              		.cfi_def_cfa_offset 0
 2701 0036 7047     		bx	lr
 2702              		.cfi_endproc
 2703              	.LFE159:
 2705              		.section	.text.TIM_OC2PreloadConfig,"ax",%progbits
 2706              		.align	1
 2707              		.global	TIM_OC2PreloadConfig
 2708              		.syntax unified
 2709              		.thumb
 2710              		.thumb_func
 2712              	TIM_OC2PreloadConfig:
 2713              	.LFB160:
1257:Drivers/STM32F4xx_StdPeriph_Driver/src/stm32f4xx_tim.c **** 
1258:Drivers/STM32F4xx_StdPeriph_Driver/src/stm32f4xx_tim.c **** /**
1259:Drivers/STM32F4xx_StdPeriph_Driver/src/stm32f4xx_tim.c ****   * @brief  Enables or disables the TIMx peripheral Preload register on CCR2.
1260:Drivers/STM32F4xx_StdPeriph_Driver/src/stm32f4xx_tim.c ****   * @param  TIMx: where x can be  1, 2, 3, 4, 5, 8, 9 or 12 to select the TIM 
1261:Drivers/STM32F4xx_StdPeriph_Driver/src/stm32f4xx_tim.c ****   *         peripheral.
1262:Drivers/STM32F4xx_StdPeriph_Driver/src/stm32f4xx_tim.c ****   * @param  TIM_OCPreload: new state of the TIMx peripheral Preload register
1263:Drivers/STM32F4xx_StdPeriph_Driver/src/stm32f4xx_tim.c ****   *          This parameter can be one of the following values:
1264:Drivers/STM32F4xx_StdPeriph_Driver/src/stm32f4xx_tim.c ****   *            @arg TIM_OCPreload_Enable
1265:Drivers/STM32F4xx_StdPeriph_Driver/src/stm32f4xx_tim.c ****   *            @arg TIM_OCPreload_Disable
1266:Drivers/STM32F4xx_StdPeriph_Driver/src/stm32f4xx_tim.c ****   * @retval None
1267:Drivers/STM32F4xx_StdPeriph_Driver/src/stm32f4xx_tim.c ****   */
1268:Drivers/STM32F4xx_StdPeriph_Driver/src/stm32f4xx_tim.c **** void TIM_OC2PreloadConfig(TIM_TypeDef* TIMx, uint16_t TIM_OCPreload)
1269:Drivers/STM32F4xx_StdPeriph_Driver/src/stm32f4xx_tim.c **** {
 2714              		.loc 1 1269 1
 2715              		.cfi_startproc
 2716              		@ args = 0, pretend = 0, frame = 16
 2717              		@ frame_needed = 1, uses_anonymous_args = 0
 2718              		@ link register save eliminated.
 2719 0000 80B4     		push	{r7}
 2720              	.LCFI179:
 2721              		.cfi_def_cfa_offset 4
 2722              		.cfi_offset 7, -4
 2723 0002 85B0     		sub	sp, sp, #20
 2724              	.LCFI180:
 2725              		.cfi_def_cfa_offset 24
 2726 0004 00AF     		add	r7, sp, #0
 2727              	.LCFI181:
 2728              		.cfi_def_cfa_register 7
 2729 0006 7860     		str	r0, [r7, #4]
 2730 0008 0B46     		mov	r3, r1
 2731 000a 7B80     		strh	r3, [r7, #2]	@ movhi
1270:Drivers/STM32F4xx_StdPeriph_Driver/src/stm32f4xx_tim.c ****   uint16_t tmpccmr1 = 0;
 2732              		.loc 1 1270 12
 2733 000c 0023     		movs	r3, #0
 2734 000e FB81     		strh	r3, [r7, #14]	@ movhi
1271:Drivers/STM32F4xx_StdPeriph_Driver/src/stm32f4xx_tim.c **** 
1272:Drivers/STM32F4xx_StdPeriph_Driver/src/stm32f4xx_tim.c ****   /* Check the parameters */
1273:Drivers/STM32F4xx_StdPeriph_Driver/src/stm32f4xx_tim.c ****   assert_param(IS_TIM_LIST2_PERIPH(TIMx));
1274:Drivers/STM32F4xx_StdPeriph_Driver/src/stm32f4xx_tim.c ****   assert_param(IS_TIM_OCPRELOAD_STATE(TIM_OCPreload));
ARM GAS  C:\Users\Admin\AppData\Local\Temp\ccwOX7Bd.s 			page 71


1275:Drivers/STM32F4xx_StdPeriph_Driver/src/stm32f4xx_tim.c **** 
1276:Drivers/STM32F4xx_StdPeriph_Driver/src/stm32f4xx_tim.c ****   tmpccmr1 = TIMx->CCMR1;
 2735              		.loc 1 1276 12
 2736 0010 7B68     		ldr	r3, [r7, #4]
 2737 0012 1B8B     		ldrh	r3, [r3, #24]	@ movhi
 2738 0014 FB81     		strh	r3, [r7, #14]	@ movhi
1277:Drivers/STM32F4xx_StdPeriph_Driver/src/stm32f4xx_tim.c **** 
1278:Drivers/STM32F4xx_StdPeriph_Driver/src/stm32f4xx_tim.c ****   /* Reset the OC2PE Bit */
1279:Drivers/STM32F4xx_StdPeriph_Driver/src/stm32f4xx_tim.c ****   tmpccmr1 &= (uint16_t)(~TIM_CCMR1_OC2PE);
 2739              		.loc 1 1279 12
 2740 0016 FB89     		ldrh	r3, [r7, #14]	@ movhi
 2741 0018 23F40063 		bic	r3, r3, #2048
 2742 001c FB81     		strh	r3, [r7, #14]	@ movhi
1280:Drivers/STM32F4xx_StdPeriph_Driver/src/stm32f4xx_tim.c **** 
1281:Drivers/STM32F4xx_StdPeriph_Driver/src/stm32f4xx_tim.c ****   /* Enable or Disable the Output Compare Preload feature */
1282:Drivers/STM32F4xx_StdPeriph_Driver/src/stm32f4xx_tim.c ****   tmpccmr1 |= (uint16_t)(TIM_OCPreload << 8);
 2743              		.loc 1 1282 15
 2744 001e 7B88     		ldrh	r3, [r7, #2]	@ movhi
 2745 0020 1B02     		lsls	r3, r3, #8
 2746 0022 9AB2     		uxth	r2, r3
 2747              		.loc 1 1282 12
 2748 0024 FB89     		ldrh	r3, [r7, #14]	@ movhi
 2749 0026 1343     		orrs	r3, r3, r2
 2750 0028 FB81     		strh	r3, [r7, #14]	@ movhi
1283:Drivers/STM32F4xx_StdPeriph_Driver/src/stm32f4xx_tim.c **** 
1284:Drivers/STM32F4xx_StdPeriph_Driver/src/stm32f4xx_tim.c ****   /* Write to TIMx CCMR1 register */
1285:Drivers/STM32F4xx_StdPeriph_Driver/src/stm32f4xx_tim.c ****   TIMx->CCMR1 = tmpccmr1;
 2751              		.loc 1 1285 15
 2752 002a 7B68     		ldr	r3, [r7, #4]
 2753 002c FA89     		ldrh	r2, [r7, #14]	@ movhi
 2754 002e 1A83     		strh	r2, [r3, #24]	@ movhi
1286:Drivers/STM32F4xx_StdPeriph_Driver/src/stm32f4xx_tim.c **** }
 2755              		.loc 1 1286 1
 2756 0030 00BF     		nop
 2757 0032 1437     		adds	r7, r7, #20
 2758              	.LCFI182:
 2759              		.cfi_def_cfa_offset 4
 2760 0034 BD46     		mov	sp, r7
 2761              	.LCFI183:
 2762              		.cfi_def_cfa_register 13
 2763              		@ sp needed
 2764 0036 5DF8047B 		ldr	r7, [sp], #4
 2765              	.LCFI184:
 2766              		.cfi_restore 7
 2767              		.cfi_def_cfa_offset 0
 2768 003a 7047     		bx	lr
 2769              		.cfi_endproc
 2770              	.LFE160:
 2772              		.section	.text.TIM_OC3PreloadConfig,"ax",%progbits
 2773              		.align	1
 2774              		.global	TIM_OC3PreloadConfig
 2775              		.syntax unified
 2776              		.thumb
 2777              		.thumb_func
 2779              	TIM_OC3PreloadConfig:
 2780              	.LFB161:
1287:Drivers/STM32F4xx_StdPeriph_Driver/src/stm32f4xx_tim.c **** 
ARM GAS  C:\Users\Admin\AppData\Local\Temp\ccwOX7Bd.s 			page 72


1288:Drivers/STM32F4xx_StdPeriph_Driver/src/stm32f4xx_tim.c **** /**
1289:Drivers/STM32F4xx_StdPeriph_Driver/src/stm32f4xx_tim.c ****   * @brief  Enables or disables the TIMx peripheral Preload register on CCR3.
1290:Drivers/STM32F4xx_StdPeriph_Driver/src/stm32f4xx_tim.c ****   * @param  TIMx: where x can be  1, 2, 3, 4, 5 or 8 to select the TIM peripheral.
1291:Drivers/STM32F4xx_StdPeriph_Driver/src/stm32f4xx_tim.c ****   * @param  TIM_OCPreload: new state of the TIMx peripheral Preload register
1292:Drivers/STM32F4xx_StdPeriph_Driver/src/stm32f4xx_tim.c ****   *          This parameter can be one of the following values:
1293:Drivers/STM32F4xx_StdPeriph_Driver/src/stm32f4xx_tim.c ****   *            @arg TIM_OCPreload_Enable
1294:Drivers/STM32F4xx_StdPeriph_Driver/src/stm32f4xx_tim.c ****   *            @arg TIM_OCPreload_Disable
1295:Drivers/STM32F4xx_StdPeriph_Driver/src/stm32f4xx_tim.c ****   * @retval None
1296:Drivers/STM32F4xx_StdPeriph_Driver/src/stm32f4xx_tim.c ****   */
1297:Drivers/STM32F4xx_StdPeriph_Driver/src/stm32f4xx_tim.c **** void TIM_OC3PreloadConfig(TIM_TypeDef* TIMx, uint16_t TIM_OCPreload)
1298:Drivers/STM32F4xx_StdPeriph_Driver/src/stm32f4xx_tim.c **** {
 2781              		.loc 1 1298 1
 2782              		.cfi_startproc
 2783              		@ args = 0, pretend = 0, frame = 16
 2784              		@ frame_needed = 1, uses_anonymous_args = 0
 2785              		@ link register save eliminated.
 2786 0000 80B4     		push	{r7}
 2787              	.LCFI185:
 2788              		.cfi_def_cfa_offset 4
 2789              		.cfi_offset 7, -4
 2790 0002 85B0     		sub	sp, sp, #20
 2791              	.LCFI186:
 2792              		.cfi_def_cfa_offset 24
 2793 0004 00AF     		add	r7, sp, #0
 2794              	.LCFI187:
 2795              		.cfi_def_cfa_register 7
 2796 0006 7860     		str	r0, [r7, #4]
 2797 0008 0B46     		mov	r3, r1
 2798 000a 7B80     		strh	r3, [r7, #2]	@ movhi
1299:Drivers/STM32F4xx_StdPeriph_Driver/src/stm32f4xx_tim.c ****   uint16_t tmpccmr2 = 0;
 2799              		.loc 1 1299 12
 2800 000c 0023     		movs	r3, #0
 2801 000e FB81     		strh	r3, [r7, #14]	@ movhi
1300:Drivers/STM32F4xx_StdPeriph_Driver/src/stm32f4xx_tim.c **** 
1301:Drivers/STM32F4xx_StdPeriph_Driver/src/stm32f4xx_tim.c ****   /* Check the parameters */
1302:Drivers/STM32F4xx_StdPeriph_Driver/src/stm32f4xx_tim.c ****   assert_param(IS_TIM_LIST3_PERIPH(TIMx));
1303:Drivers/STM32F4xx_StdPeriph_Driver/src/stm32f4xx_tim.c ****   assert_param(IS_TIM_OCPRELOAD_STATE(TIM_OCPreload));
1304:Drivers/STM32F4xx_StdPeriph_Driver/src/stm32f4xx_tim.c **** 
1305:Drivers/STM32F4xx_StdPeriph_Driver/src/stm32f4xx_tim.c ****   tmpccmr2 = TIMx->CCMR2;
 2802              		.loc 1 1305 12
 2803 0010 7B68     		ldr	r3, [r7, #4]
 2804 0012 9B8B     		ldrh	r3, [r3, #28]	@ movhi
 2805 0014 FB81     		strh	r3, [r7, #14]	@ movhi
1306:Drivers/STM32F4xx_StdPeriph_Driver/src/stm32f4xx_tim.c **** 
1307:Drivers/STM32F4xx_StdPeriph_Driver/src/stm32f4xx_tim.c ****   /* Reset the OC3PE Bit */
1308:Drivers/STM32F4xx_StdPeriph_Driver/src/stm32f4xx_tim.c ****   tmpccmr2 &= (uint16_t)(~TIM_CCMR2_OC3PE);
 2806              		.loc 1 1308 12
 2807 0016 FB89     		ldrh	r3, [r7, #14]	@ movhi
 2808 0018 23F00803 		bic	r3, r3, #8
 2809 001c FB81     		strh	r3, [r7, #14]	@ movhi
1309:Drivers/STM32F4xx_StdPeriph_Driver/src/stm32f4xx_tim.c **** 
1310:Drivers/STM32F4xx_StdPeriph_Driver/src/stm32f4xx_tim.c ****   /* Enable or Disable the Output Compare Preload feature */
1311:Drivers/STM32F4xx_StdPeriph_Driver/src/stm32f4xx_tim.c ****   tmpccmr2 |= TIM_OCPreload;
 2810              		.loc 1 1311 12
 2811 001e FA89     		ldrh	r2, [r7, #14]	@ movhi
 2812 0020 7B88     		ldrh	r3, [r7, #2]	@ movhi
 2813 0022 1343     		orrs	r3, r3, r2
ARM GAS  C:\Users\Admin\AppData\Local\Temp\ccwOX7Bd.s 			page 73


 2814 0024 FB81     		strh	r3, [r7, #14]	@ movhi
1312:Drivers/STM32F4xx_StdPeriph_Driver/src/stm32f4xx_tim.c **** 
1313:Drivers/STM32F4xx_StdPeriph_Driver/src/stm32f4xx_tim.c ****   /* Write to TIMx CCMR2 register */
1314:Drivers/STM32F4xx_StdPeriph_Driver/src/stm32f4xx_tim.c ****   TIMx->CCMR2 = tmpccmr2;
 2815              		.loc 1 1314 15
 2816 0026 7B68     		ldr	r3, [r7, #4]
 2817 0028 FA89     		ldrh	r2, [r7, #14]	@ movhi
 2818 002a 9A83     		strh	r2, [r3, #28]	@ movhi
1315:Drivers/STM32F4xx_StdPeriph_Driver/src/stm32f4xx_tim.c **** }
 2819              		.loc 1 1315 1
 2820 002c 00BF     		nop
 2821 002e 1437     		adds	r7, r7, #20
 2822              	.LCFI188:
 2823              		.cfi_def_cfa_offset 4
 2824 0030 BD46     		mov	sp, r7
 2825              	.LCFI189:
 2826              		.cfi_def_cfa_register 13
 2827              		@ sp needed
 2828 0032 5DF8047B 		ldr	r7, [sp], #4
 2829              	.LCFI190:
 2830              		.cfi_restore 7
 2831              		.cfi_def_cfa_offset 0
 2832 0036 7047     		bx	lr
 2833              		.cfi_endproc
 2834              	.LFE161:
 2836              		.section	.text.TIM_OC4PreloadConfig,"ax",%progbits
 2837              		.align	1
 2838              		.global	TIM_OC4PreloadConfig
 2839              		.syntax unified
 2840              		.thumb
 2841              		.thumb_func
 2843              	TIM_OC4PreloadConfig:
 2844              	.LFB162:
1316:Drivers/STM32F4xx_StdPeriph_Driver/src/stm32f4xx_tim.c **** 
1317:Drivers/STM32F4xx_StdPeriph_Driver/src/stm32f4xx_tim.c **** /**
1318:Drivers/STM32F4xx_StdPeriph_Driver/src/stm32f4xx_tim.c ****   * @brief  Enables or disables the TIMx peripheral Preload register on CCR4.
1319:Drivers/STM32F4xx_StdPeriph_Driver/src/stm32f4xx_tim.c ****   * @param  TIMx: where x can be  1, 2, 3, 4, 5 or 8 to select the TIM peripheral.
1320:Drivers/STM32F4xx_StdPeriph_Driver/src/stm32f4xx_tim.c ****   * @param  TIM_OCPreload: new state of the TIMx peripheral Preload register
1321:Drivers/STM32F4xx_StdPeriph_Driver/src/stm32f4xx_tim.c ****   *          This parameter can be one of the following values:
1322:Drivers/STM32F4xx_StdPeriph_Driver/src/stm32f4xx_tim.c ****   *            @arg TIM_OCPreload_Enable
1323:Drivers/STM32F4xx_StdPeriph_Driver/src/stm32f4xx_tim.c ****   *            @arg TIM_OCPreload_Disable
1324:Drivers/STM32F4xx_StdPeriph_Driver/src/stm32f4xx_tim.c ****   * @retval None
1325:Drivers/STM32F4xx_StdPeriph_Driver/src/stm32f4xx_tim.c ****   */
1326:Drivers/STM32F4xx_StdPeriph_Driver/src/stm32f4xx_tim.c **** void TIM_OC4PreloadConfig(TIM_TypeDef* TIMx, uint16_t TIM_OCPreload)
1327:Drivers/STM32F4xx_StdPeriph_Driver/src/stm32f4xx_tim.c **** {
 2845              		.loc 1 1327 1
 2846              		.cfi_startproc
 2847              		@ args = 0, pretend = 0, frame = 16
 2848              		@ frame_needed = 1, uses_anonymous_args = 0
 2849              		@ link register save eliminated.
 2850 0000 80B4     		push	{r7}
 2851              	.LCFI191:
 2852              		.cfi_def_cfa_offset 4
 2853              		.cfi_offset 7, -4
 2854 0002 85B0     		sub	sp, sp, #20
 2855              	.LCFI192:
 2856              		.cfi_def_cfa_offset 24
ARM GAS  C:\Users\Admin\AppData\Local\Temp\ccwOX7Bd.s 			page 74


 2857 0004 00AF     		add	r7, sp, #0
 2858              	.LCFI193:
 2859              		.cfi_def_cfa_register 7
 2860 0006 7860     		str	r0, [r7, #4]
 2861 0008 0B46     		mov	r3, r1
 2862 000a 7B80     		strh	r3, [r7, #2]	@ movhi
1328:Drivers/STM32F4xx_StdPeriph_Driver/src/stm32f4xx_tim.c ****   uint16_t tmpccmr2 = 0;
 2863              		.loc 1 1328 12
 2864 000c 0023     		movs	r3, #0
 2865 000e FB81     		strh	r3, [r7, #14]	@ movhi
1329:Drivers/STM32F4xx_StdPeriph_Driver/src/stm32f4xx_tim.c **** 
1330:Drivers/STM32F4xx_StdPeriph_Driver/src/stm32f4xx_tim.c ****   /* Check the parameters */
1331:Drivers/STM32F4xx_StdPeriph_Driver/src/stm32f4xx_tim.c ****   assert_param(IS_TIM_LIST3_PERIPH(TIMx));
1332:Drivers/STM32F4xx_StdPeriph_Driver/src/stm32f4xx_tim.c ****   assert_param(IS_TIM_OCPRELOAD_STATE(TIM_OCPreload));
1333:Drivers/STM32F4xx_StdPeriph_Driver/src/stm32f4xx_tim.c **** 
1334:Drivers/STM32F4xx_StdPeriph_Driver/src/stm32f4xx_tim.c ****   tmpccmr2 = TIMx->CCMR2;
 2866              		.loc 1 1334 12
 2867 0010 7B68     		ldr	r3, [r7, #4]
 2868 0012 9B8B     		ldrh	r3, [r3, #28]	@ movhi
 2869 0014 FB81     		strh	r3, [r7, #14]	@ movhi
1335:Drivers/STM32F4xx_StdPeriph_Driver/src/stm32f4xx_tim.c **** 
1336:Drivers/STM32F4xx_StdPeriph_Driver/src/stm32f4xx_tim.c ****   /* Reset the OC4PE Bit */
1337:Drivers/STM32F4xx_StdPeriph_Driver/src/stm32f4xx_tim.c ****   tmpccmr2 &= (uint16_t)(~TIM_CCMR2_OC4PE);
 2870              		.loc 1 1337 12
 2871 0016 FB89     		ldrh	r3, [r7, #14]	@ movhi
 2872 0018 23F40063 		bic	r3, r3, #2048
 2873 001c FB81     		strh	r3, [r7, #14]	@ movhi
1338:Drivers/STM32F4xx_StdPeriph_Driver/src/stm32f4xx_tim.c **** 
1339:Drivers/STM32F4xx_StdPeriph_Driver/src/stm32f4xx_tim.c ****   /* Enable or Disable the Output Compare Preload feature */
1340:Drivers/STM32F4xx_StdPeriph_Driver/src/stm32f4xx_tim.c ****   tmpccmr2 |= (uint16_t)(TIM_OCPreload << 8);
 2874              		.loc 1 1340 15
 2875 001e 7B88     		ldrh	r3, [r7, #2]	@ movhi
 2876 0020 1B02     		lsls	r3, r3, #8
 2877 0022 9AB2     		uxth	r2, r3
 2878              		.loc 1 1340 12
 2879 0024 FB89     		ldrh	r3, [r7, #14]	@ movhi
 2880 0026 1343     		orrs	r3, r3, r2
 2881 0028 FB81     		strh	r3, [r7, #14]	@ movhi
1341:Drivers/STM32F4xx_StdPeriph_Driver/src/stm32f4xx_tim.c **** 
1342:Drivers/STM32F4xx_StdPeriph_Driver/src/stm32f4xx_tim.c ****   /* Write to TIMx CCMR2 register */
