ARM GAS  C:\Users\Admin\AppData\Local\Temp\ccKb5mMk.s 			page 1


   1              		.cpu cortex-m4
   2              		.arch armv7e-m
   3              		.fpu fpv4-sp-d16
   4              		.eabi_attribute 27, 1
   5              		.eabi_attribute 28, 1
   6              		.eabi_attribute 20, 1
   7              		.eabi_attribute 21, 1
   8              		.eabi_attribute 23, 3
   9              		.eabi_attribute 24, 1
  10              		.eabi_attribute 25, 1
  11              		.eabi_attribute 26, 1
  12              		.eabi_attribute 30, 6
  13              		.eabi_attribute 34, 1
  14              		.eabi_attribute 18, 4
  15              		.file	"stream_buffer.c"
  16              		.text
  17              	.Ltext0:
  18              		.cfi_sections	.debug_frame
  19              		.section	.text.xStreamBufferGenericCreate,"ax",%progbits
  20              		.align	1
  21              		.global	xStreamBufferGenericCreate
  22              		.syntax unified
  23              		.thumb
  24              		.thumb_func
  26              	xStreamBufferGenericCreate:
  27              	.LFB5:
  28              		.file 1 "ThirdParty/FreeRTOS/stream_buffer.c"
   1:ThirdParty/FreeRTOS/stream_buffer.c **** /*
   2:ThirdParty/FreeRTOS/stream_buffer.c ****  * FreeRTOS Kernel V10.5.1
   3:ThirdParty/FreeRTOS/stream_buffer.c ****  * Copyright (C) 2021 Amazon.com, Inc. or its affiliates.  All Rights Reserved.
   4:ThirdParty/FreeRTOS/stream_buffer.c ****  *
   5:ThirdParty/FreeRTOS/stream_buffer.c ****  * SPDX-License-Identifier: MIT
   6:ThirdParty/FreeRTOS/stream_buffer.c ****  *
   7:ThirdParty/FreeRTOS/stream_buffer.c ****  * Permission is hereby granted, free of charge, to any person obtaining a copy of
   8:ThirdParty/FreeRTOS/stream_buffer.c ****  * this software and associated documentation files (the "Software"), to deal in
   9:ThirdParty/FreeRTOS/stream_buffer.c ****  * the Software without restriction, including without limitation the rights to
  10:ThirdParty/FreeRTOS/stream_buffer.c ****  * use, copy, modify, merge, publish, distribute, sublicense, and/or sell copies of
  11:ThirdParty/FreeRTOS/stream_buffer.c ****  * the Software, and to permit persons to whom the Software is furnished to do so,
  12:ThirdParty/FreeRTOS/stream_buffer.c ****  * subject to the following conditions:
  13:ThirdParty/FreeRTOS/stream_buffer.c ****  *
  14:ThirdParty/FreeRTOS/stream_buffer.c ****  * The above copyright notice and this permission notice shall be included in all
  15:ThirdParty/FreeRTOS/stream_buffer.c ****  * copies or substantial portions of the Software.
  16:ThirdParty/FreeRTOS/stream_buffer.c ****  *
  17:ThirdParty/FreeRTOS/stream_buffer.c ****  * THE SOFTWARE IS PROVIDED "AS IS", WITHOUT WARRANTY OF ANY KIND, EXPRESS OR
  18:ThirdParty/FreeRTOS/stream_buffer.c ****  * IMPLIED, INCLUDING BUT NOT LIMITED TO THE WARRANTIES OF MERCHANTABILITY, FITNESS
  19:ThirdParty/FreeRTOS/stream_buffer.c ****  * FOR A PARTICULAR PURPOSE AND NONINFRINGEMENT. IN NO EVENT SHALL THE AUTHORS OR
  20:ThirdParty/FreeRTOS/stream_buffer.c ****  * COPYRIGHT HOLDERS BE LIABLE FOR ANY CLAIM, DAMAGES OR OTHER LIABILITY, WHETHER
  21:ThirdParty/FreeRTOS/stream_buffer.c ****  * IN AN ACTION OF CONTRACT, TORT OR OTHERWISE, ARISING FROM, OUT OF OR IN
  22:ThirdParty/FreeRTOS/stream_buffer.c ****  * CONNECTION WITH THE SOFTWARE OR THE USE OR OTHER DEALINGS IN THE SOFTWARE.
  23:ThirdParty/FreeRTOS/stream_buffer.c ****  *
  24:ThirdParty/FreeRTOS/stream_buffer.c ****  * https://www.FreeRTOS.org
  25:ThirdParty/FreeRTOS/stream_buffer.c ****  * https://github.com/FreeRTOS
  26:ThirdParty/FreeRTOS/stream_buffer.c ****  *
  27:ThirdParty/FreeRTOS/stream_buffer.c ****  */
  28:ThirdParty/FreeRTOS/stream_buffer.c **** 
  29:ThirdParty/FreeRTOS/stream_buffer.c **** /* Standard includes. */
  30:ThirdParty/FreeRTOS/stream_buffer.c **** #include <stdint.h>
ARM GAS  C:\Users\Admin\AppData\Local\Temp\ccKb5mMk.s 			page 2


  31:ThirdParty/FreeRTOS/stream_buffer.c **** #include <string.h>
  32:ThirdParty/FreeRTOS/stream_buffer.c **** 
  33:ThirdParty/FreeRTOS/stream_buffer.c **** /* Defining MPU_WRAPPERS_INCLUDED_FROM_API_FILE prevents task.h from redefining
  34:ThirdParty/FreeRTOS/stream_buffer.c ****  * all the API functions to use the MPU wrappers.  That should only be done when
  35:ThirdParty/FreeRTOS/stream_buffer.c ****  * task.h is included from an application file. */
  36:ThirdParty/FreeRTOS/stream_buffer.c **** #define MPU_WRAPPERS_INCLUDED_FROM_API_FILE
  37:ThirdParty/FreeRTOS/stream_buffer.c **** 
  38:ThirdParty/FreeRTOS/stream_buffer.c **** /* FreeRTOS includes. */
  39:ThirdParty/FreeRTOS/stream_buffer.c **** #include "FreeRTOS.h"
  40:ThirdParty/FreeRTOS/stream_buffer.c **** #include "task.h"
  41:ThirdParty/FreeRTOS/stream_buffer.c **** #include "stream_buffer.h"
  42:ThirdParty/FreeRTOS/stream_buffer.c **** 
  43:ThirdParty/FreeRTOS/stream_buffer.c **** #if ( configUSE_TASK_NOTIFICATIONS != 1 )
  44:ThirdParty/FreeRTOS/stream_buffer.c ****     #error configUSE_TASK_NOTIFICATIONS must be set to 1 to build stream_buffer.c
  45:ThirdParty/FreeRTOS/stream_buffer.c **** #endif
  46:ThirdParty/FreeRTOS/stream_buffer.c **** 
  47:ThirdParty/FreeRTOS/stream_buffer.c **** #if ( INCLUDE_xTaskGetCurrentTaskHandle != 1 )
  48:ThirdParty/FreeRTOS/stream_buffer.c ****     #error INCLUDE_xTaskGetCurrentTaskHandle must be set to 1 to build stream_buffer.c
  49:ThirdParty/FreeRTOS/stream_buffer.c **** #endif
  50:ThirdParty/FreeRTOS/stream_buffer.c **** 
  51:ThirdParty/FreeRTOS/stream_buffer.c **** /* Lint e961, e9021 and e750 are suppressed as a MISRA exception justified
  52:ThirdParty/FreeRTOS/stream_buffer.c ****  * because the MPU ports require MPU_WRAPPERS_INCLUDED_FROM_API_FILE to be defined
  53:ThirdParty/FreeRTOS/stream_buffer.c ****  * for the header files above, but not in this file, in order to generate the
  54:ThirdParty/FreeRTOS/stream_buffer.c ****  * correct privileged Vs unprivileged linkage and placement. */
  55:ThirdParty/FreeRTOS/stream_buffer.c **** #undef MPU_WRAPPERS_INCLUDED_FROM_API_FILE /*lint !e961 !e750 !e9021. */
  56:ThirdParty/FreeRTOS/stream_buffer.c **** 
  57:ThirdParty/FreeRTOS/stream_buffer.c **** /* If the user has not provided application specific Rx notification macros,
  58:ThirdParty/FreeRTOS/stream_buffer.c ****  * or #defined the notification macros away, then provide default implementations
  59:ThirdParty/FreeRTOS/stream_buffer.c ****  * that uses task notifications. */
  60:ThirdParty/FreeRTOS/stream_buffer.c **** /*lint -save -e9026 Function like macros allowed and needed here so they can be overridden. */
  61:ThirdParty/FreeRTOS/stream_buffer.c **** #ifndef sbRECEIVE_COMPLETED
  62:ThirdParty/FreeRTOS/stream_buffer.c ****     #define sbRECEIVE_COMPLETED( pxStreamBuffer )                         \
  63:ThirdParty/FreeRTOS/stream_buffer.c ****     vTaskSuspendAll();                                                    \
  64:ThirdParty/FreeRTOS/stream_buffer.c ****     {                                                                     \
  65:ThirdParty/FreeRTOS/stream_buffer.c ****         if( ( pxStreamBuffer )->xTaskWaitingToSend != NULL )              \
  66:ThirdParty/FreeRTOS/stream_buffer.c ****         {                                                                 \
  67:ThirdParty/FreeRTOS/stream_buffer.c ****             ( void ) xTaskNotify( ( pxStreamBuffer )->xTaskWaitingToSend, \
  68:ThirdParty/FreeRTOS/stream_buffer.c ****                                   ( uint32_t ) 0,                         \
  69:ThirdParty/FreeRTOS/stream_buffer.c ****                                   eNoAction );                            \
  70:ThirdParty/FreeRTOS/stream_buffer.c ****             ( pxStreamBuffer )->xTaskWaitingToSend = NULL;                \
  71:ThirdParty/FreeRTOS/stream_buffer.c ****         }                                                                 \
  72:ThirdParty/FreeRTOS/stream_buffer.c ****     }                                                                     \
  73:ThirdParty/FreeRTOS/stream_buffer.c ****     ( void ) xTaskResumeAll();
  74:ThirdParty/FreeRTOS/stream_buffer.c **** #endif /* sbRECEIVE_COMPLETED */
  75:ThirdParty/FreeRTOS/stream_buffer.c **** 
  76:ThirdParty/FreeRTOS/stream_buffer.c **** /* If user has provided a per-instance receive complete callback, then
  77:ThirdParty/FreeRTOS/stream_buffer.c ****  * invoke the callback else use the receive complete macro which is provided by default for all ins
  78:ThirdParty/FreeRTOS/stream_buffer.c ****  */
  79:ThirdParty/FreeRTOS/stream_buffer.c **** #if ( configUSE_SB_COMPLETED_CALLBACK == 1 )
  80:ThirdParty/FreeRTOS/stream_buffer.c ****     #define prvRECEIVE_COMPLETED( pxStreamBuffer )                                               \
  81:ThirdParty/FreeRTOS/stream_buffer.c ****     {                                                                                            \
  82:ThirdParty/FreeRTOS/stream_buffer.c ****         if( ( pxStreamBuffer )->pxReceiveCompletedCallback != NULL )                             \
  83:ThirdParty/FreeRTOS/stream_buffer.c ****         {                                                                                        \
  84:ThirdParty/FreeRTOS/stream_buffer.c ****             ( pxStreamBuffer )->pxReceiveCompletedCallback( ( pxStreamBuffer ), pdFALSE, NULL ); \
  85:ThirdParty/FreeRTOS/stream_buffer.c ****         }                                                                                        \
  86:ThirdParty/FreeRTOS/stream_buffer.c ****         else                                                                                     \
  87:ThirdParty/FreeRTOS/stream_buffer.c ****         {                                                                                        \
ARM GAS  C:\Users\Admin\AppData\Local\Temp\ccKb5mMk.s 			page 3


  88:ThirdParty/FreeRTOS/stream_buffer.c ****             sbRECEIVE_COMPLETED( ( pxStreamBuffer ) );                                           \
  89:ThirdParty/FreeRTOS/stream_buffer.c ****         }                                                                                        \
  90:ThirdParty/FreeRTOS/stream_buffer.c ****     }
  91:ThirdParty/FreeRTOS/stream_buffer.c **** #else /* if ( configUSE_SB_COMPLETED_CALLBACK == 1 ) */
  92:ThirdParty/FreeRTOS/stream_buffer.c ****     #define prvRECEIVE_COMPLETED( pxStreamBuffer )    sbRECEIVE_COMPLETED( ( pxStreamBuffer ) )
  93:ThirdParty/FreeRTOS/stream_buffer.c **** #endif /* if ( configUSE_SB_COMPLETED_CALLBACK == 1 ) */
  94:ThirdParty/FreeRTOS/stream_buffer.c **** 
  95:ThirdParty/FreeRTOS/stream_buffer.c **** #ifndef sbRECEIVE_COMPLETED_FROM_ISR
  96:ThirdParty/FreeRTOS/stream_buffer.c ****     #define sbRECEIVE_COMPLETED_FROM_ISR( pxStreamBuffer,                            \
  97:ThirdParty/FreeRTOS/stream_buffer.c ****                                           pxHigherPriorityTaskWoken )                \
  98:ThirdParty/FreeRTOS/stream_buffer.c ****     {                                                                                \
  99:ThirdParty/FreeRTOS/stream_buffer.c ****         UBaseType_t uxSavedInterruptStatus;                                          \
 100:ThirdParty/FreeRTOS/stream_buffer.c ****                                                                                      \
 101:ThirdParty/FreeRTOS/stream_buffer.c ****         uxSavedInterruptStatus = ( UBaseType_t ) portSET_INTERRUPT_MASK_FROM_ISR();  \
 102:ThirdParty/FreeRTOS/stream_buffer.c ****         {                                                                            \
 103:ThirdParty/FreeRTOS/stream_buffer.c ****             if( ( pxStreamBuffer )->xTaskWaitingToSend != NULL )                     \
 104:ThirdParty/FreeRTOS/stream_buffer.c ****             {                                                                        \
 105:ThirdParty/FreeRTOS/stream_buffer.c ****                 ( void ) xTaskNotifyFromISR( ( pxStreamBuffer )->xTaskWaitingToSend, \
 106:ThirdParty/FreeRTOS/stream_buffer.c ****                                              ( uint32_t ) 0,                         \
 107:ThirdParty/FreeRTOS/stream_buffer.c ****                                              eNoAction,                              \
 108:ThirdParty/FreeRTOS/stream_buffer.c ****                                              ( pxHigherPriorityTaskWoken ) );        \
 109:ThirdParty/FreeRTOS/stream_buffer.c ****                 ( pxStreamBuffer )->xTaskWaitingToSend = NULL;                       \
 110:ThirdParty/FreeRTOS/stream_buffer.c ****             }                                                                        \
 111:ThirdParty/FreeRTOS/stream_buffer.c ****         }                                                                            \
 112:ThirdParty/FreeRTOS/stream_buffer.c ****         portCLEAR_INTERRUPT_MASK_FROM_ISR( uxSavedInterruptStatus );                 \
 113:ThirdParty/FreeRTOS/stream_buffer.c ****     }
 114:ThirdParty/FreeRTOS/stream_buffer.c **** #endif /* sbRECEIVE_COMPLETED_FROM_ISR */
 115:ThirdParty/FreeRTOS/stream_buffer.c **** 
 116:ThirdParty/FreeRTOS/stream_buffer.c **** #if ( configUSE_SB_COMPLETED_CALLBACK == 1 )
 117:ThirdParty/FreeRTOS/stream_buffer.c ****     #define prvRECEIVE_COMPLETED_FROM_ISR( pxStreamBuffer,                                         
 118:ThirdParty/FreeRTOS/stream_buffer.c ****                                            pxHigherPriorityTaskWoken )                             
 119:ThirdParty/FreeRTOS/stream_buffer.c ****     {                                                                                              
 120:ThirdParty/FreeRTOS/stream_buffer.c ****         if( ( pxStreamBuffer )->pxReceiveCompletedCallback != NULL )                               
 121:ThirdParty/FreeRTOS/stream_buffer.c ****         {                                                                                          
 122:ThirdParty/FreeRTOS/stream_buffer.c ****             ( pxStreamBuffer )->pxReceiveCompletedCallback( ( pxStreamBuffer ), pdTRUE, ( pxHigherP
 123:ThirdParty/FreeRTOS/stream_buffer.c ****         }                                                                                          
 124:ThirdParty/FreeRTOS/stream_buffer.c ****         else                                                                                       
 125:ThirdParty/FreeRTOS/stream_buffer.c ****         {                                                                                          
 126:ThirdParty/FreeRTOS/stream_buffer.c ****             sbRECEIVE_COMPLETED_FROM_ISR( ( pxStreamBuffer ), ( pxHigherPriorityTaskWoken ) );     
 127:ThirdParty/FreeRTOS/stream_buffer.c ****         }                                                                                          
 128:ThirdParty/FreeRTOS/stream_buffer.c ****     }
 129:ThirdParty/FreeRTOS/stream_buffer.c **** #else /* if ( configUSE_SB_COMPLETED_CALLBACK == 1 ) */
 130:ThirdParty/FreeRTOS/stream_buffer.c ****     #define prvRECEIVE_COMPLETED_FROM_ISR( pxStreamBuffer, pxHigherPriorityTaskWoken ) \
 131:ThirdParty/FreeRTOS/stream_buffer.c ****     sbRECEIVE_COMPLETED_FROM_ISR( ( pxStreamBuffer ), ( pxHigherPriorityTaskWoken ) )
 132:ThirdParty/FreeRTOS/stream_buffer.c **** #endif /* if ( configUSE_SB_COMPLETED_CALLBACK == 1 ) */
 133:ThirdParty/FreeRTOS/stream_buffer.c **** 
 134:ThirdParty/FreeRTOS/stream_buffer.c **** /* If the user has not provided an application specific Tx notification macro,
 135:ThirdParty/FreeRTOS/stream_buffer.c ****  * or #defined the notification macro away, then provide a default
 136:ThirdParty/FreeRTOS/stream_buffer.c ****  * implementation that uses task notifications.
 137:ThirdParty/FreeRTOS/stream_buffer.c ****  */
 138:ThirdParty/FreeRTOS/stream_buffer.c **** #ifndef sbSEND_COMPLETED
 139:ThirdParty/FreeRTOS/stream_buffer.c ****     #define sbSEND_COMPLETED( pxStreamBuffer )                               \
 140:ThirdParty/FreeRTOS/stream_buffer.c ****     vTaskSuspendAll();                                                       \
 141:ThirdParty/FreeRTOS/stream_buffer.c ****     {                                                                        \
 142:ThirdParty/FreeRTOS/stream_buffer.c ****         if( ( pxStreamBuffer )->xTaskWaitingToReceive != NULL )              \
 143:ThirdParty/FreeRTOS/stream_buffer.c ****         {                                                                    \
 144:ThirdParty/FreeRTOS/stream_buffer.c ****             ( void ) xTaskNotify( ( pxStreamBuffer )->xTaskWaitingToReceive, \
ARM GAS  C:\Users\Admin\AppData\Local\Temp\ccKb5mMk.s 			page 4


 145:ThirdParty/FreeRTOS/stream_buffer.c ****                                   ( uint32_t ) 0,                            \
 146:ThirdParty/FreeRTOS/stream_buffer.c ****                                   eNoAction );                               \
 147:ThirdParty/FreeRTOS/stream_buffer.c ****             ( pxStreamBuffer )->xTaskWaitingToReceive = NULL;                \
 148:ThirdParty/FreeRTOS/stream_buffer.c ****         }                                                                    \
 149:ThirdParty/FreeRTOS/stream_buffer.c ****     }                                                                        \
 150:ThirdParty/FreeRTOS/stream_buffer.c ****     ( void ) xTaskResumeAll();
 151:ThirdParty/FreeRTOS/stream_buffer.c **** #endif /* sbSEND_COMPLETED */
 152:ThirdParty/FreeRTOS/stream_buffer.c **** 
 153:ThirdParty/FreeRTOS/stream_buffer.c **** /* If user has provided a per-instance send completed callback, then
 154:ThirdParty/FreeRTOS/stream_buffer.c ****  * invoke the callback else use the send complete macro which is provided by default for all instan
 155:ThirdParty/FreeRTOS/stream_buffer.c ****  */
 156:ThirdParty/FreeRTOS/stream_buffer.c **** #if ( configUSE_SB_COMPLETED_CALLBACK == 1 )
 157:ThirdParty/FreeRTOS/stream_buffer.c ****     #define prvSEND_COMPLETED( pxStreamBuffer )                                           \
 158:ThirdParty/FreeRTOS/stream_buffer.c ****     {                                                                                     \
 159:ThirdParty/FreeRTOS/stream_buffer.c ****         if( ( pxStreamBuffer )->pxSendCompletedCallback != NULL )                         \
 160:ThirdParty/FreeRTOS/stream_buffer.c ****         {                                                                                 \
 161:ThirdParty/FreeRTOS/stream_buffer.c ****             pxStreamBuffer->pxSendCompletedCallback( ( pxStreamBuffer ), pdFALSE, NULL ); \
 162:ThirdParty/FreeRTOS/stream_buffer.c ****         }                                                                                 \
 163:ThirdParty/FreeRTOS/stream_buffer.c ****         else                                                                              \
 164:ThirdParty/FreeRTOS/stream_buffer.c ****         {                                                                                 \
 165:ThirdParty/FreeRTOS/stream_buffer.c ****             sbSEND_COMPLETED( ( pxStreamBuffer ) );                                       \
 166:ThirdParty/FreeRTOS/stream_buffer.c ****         }                                                                                 \
 167:ThirdParty/FreeRTOS/stream_buffer.c ****     }
 168:ThirdParty/FreeRTOS/stream_buffer.c **** #else /* if ( configUSE_SB_COMPLETED_CALLBACK == 1 ) */
 169:ThirdParty/FreeRTOS/stream_buffer.c ****     #define prvSEND_COMPLETED( pxStreamBuffer )    sbSEND_COMPLETED( ( pxStreamBuffer ) )
 170:ThirdParty/FreeRTOS/stream_buffer.c **** #endif /* if ( configUSE_SB_COMPLETED_CALLBACK == 1 ) */
 171:ThirdParty/FreeRTOS/stream_buffer.c **** 
 172:ThirdParty/FreeRTOS/stream_buffer.c **** 
 173:ThirdParty/FreeRTOS/stream_buffer.c **** #ifndef sbSEND_COMPLETE_FROM_ISR
 174:ThirdParty/FreeRTOS/stream_buffer.c ****     #define sbSEND_COMPLETE_FROM_ISR( pxStreamBuffer, pxHigherPriorityTaskWoken )       \
 175:ThirdParty/FreeRTOS/stream_buffer.c ****     {                                                                                   \
 176:ThirdParty/FreeRTOS/stream_buffer.c ****         UBaseType_t uxSavedInterruptStatus;                                             \
 177:ThirdParty/FreeRTOS/stream_buffer.c ****                                                                                         \
 178:ThirdParty/FreeRTOS/stream_buffer.c ****         uxSavedInterruptStatus = ( UBaseType_t ) portSET_INTERRUPT_MASK_FROM_ISR();     \
 179:ThirdParty/FreeRTOS/stream_buffer.c ****         {                                                                               \
 180:ThirdParty/FreeRTOS/stream_buffer.c ****             if( ( pxStreamBuffer )->xTaskWaitingToReceive != NULL )                     \
 181:ThirdParty/FreeRTOS/stream_buffer.c ****             {                                                                           \
 182:ThirdParty/FreeRTOS/stream_buffer.c ****                 ( void ) xTaskNotifyFromISR( ( pxStreamBuffer )->xTaskWaitingToReceive, \
 183:ThirdParty/FreeRTOS/stream_buffer.c ****                                              ( uint32_t ) 0,                            \
 184:ThirdParty/FreeRTOS/stream_buffer.c ****                                              eNoAction,                                 \
 185:ThirdParty/FreeRTOS/stream_buffer.c ****                                              ( pxHigherPriorityTaskWoken ) );           \
 186:ThirdParty/FreeRTOS/stream_buffer.c ****                 ( pxStreamBuffer )->xTaskWaitingToReceive = NULL;                       \
 187:ThirdParty/FreeRTOS/stream_buffer.c ****             }                                                                           \
 188:ThirdParty/FreeRTOS/stream_buffer.c ****         }                                                                               \
 189:ThirdParty/FreeRTOS/stream_buffer.c ****         portCLEAR_INTERRUPT_MASK_FROM_ISR( uxSavedInterruptStatus );                    \
 190:ThirdParty/FreeRTOS/stream_buffer.c ****     }
 191:ThirdParty/FreeRTOS/stream_buffer.c **** #endif /* sbSEND_COMPLETE_FROM_ISR */
 192:ThirdParty/FreeRTOS/stream_buffer.c **** 
 193:ThirdParty/FreeRTOS/stream_buffer.c **** 
 194:ThirdParty/FreeRTOS/stream_buffer.c **** #if ( configUSE_SB_COMPLETED_CALLBACK == 1 )
 195:ThirdParty/FreeRTOS/stream_buffer.c ****     #define prvSEND_COMPLETE_FROM_ISR( pxStreamBuffer, pxHigherPriorityTaskWoken )                 
 196:ThirdParty/FreeRTOS/stream_buffer.c ****     {                                                                                              
 197:ThirdParty/FreeRTOS/stream_buffer.c ****         if( ( pxStreamBuffer )->pxSendCompletedCallback != NULL )                                  
 198:ThirdParty/FreeRTOS/stream_buffer.c ****         {                                                                                          
 199:ThirdParty/FreeRTOS/stream_buffer.c ****             ( pxStreamBuffer )->pxSendCompletedCallback( ( pxStreamBuffer ), pdTRUE, ( pxHigherPrio
 200:ThirdParty/FreeRTOS/stream_buffer.c ****         }                                                                                          
 201:ThirdParty/FreeRTOS/stream_buffer.c ****         else                                                                                       
ARM GAS  C:\Users\Admin\AppData\Local\Temp\ccKb5mMk.s 			page 5


 202:ThirdParty/FreeRTOS/stream_buffer.c ****         {                                                                                          
 203:ThirdParty/FreeRTOS/stream_buffer.c ****             sbSEND_COMPLETE_FROM_ISR( ( pxStreamBuffer ), ( pxHigherPriorityTaskWoken ) );         
 204:ThirdParty/FreeRTOS/stream_buffer.c ****         }                                                                                          
 205:ThirdParty/FreeRTOS/stream_buffer.c ****     }
 206:ThirdParty/FreeRTOS/stream_buffer.c **** #else /* if ( configUSE_SB_COMPLETED_CALLBACK == 1 ) */
 207:ThirdParty/FreeRTOS/stream_buffer.c ****     #define prvSEND_COMPLETE_FROM_ISR( pxStreamBuffer, pxHigherPriorityTaskWoken ) \
 208:ThirdParty/FreeRTOS/stream_buffer.c ****     sbSEND_COMPLETE_FROM_ISR( ( pxStreamBuffer ), ( pxHigherPriorityTaskWoken ) )
 209:ThirdParty/FreeRTOS/stream_buffer.c **** #endif /* if ( configUSE_SB_COMPLETED_CALLBACK == 1 ) */
 210:ThirdParty/FreeRTOS/stream_buffer.c **** 
 211:ThirdParty/FreeRTOS/stream_buffer.c **** /*lint -restore (9026) */
 212:ThirdParty/FreeRTOS/stream_buffer.c **** 
 213:ThirdParty/FreeRTOS/stream_buffer.c **** /* The number of bytes used to hold the length of a message in the buffer. */
 214:ThirdParty/FreeRTOS/stream_buffer.c **** #define sbBYTES_TO_STORE_MESSAGE_LENGTH    ( sizeof( configMESSAGE_BUFFER_LENGTH_TYPE ) )
 215:ThirdParty/FreeRTOS/stream_buffer.c **** 
 216:ThirdParty/FreeRTOS/stream_buffer.c **** /* Bits stored in the ucFlags field of the stream buffer. */
 217:ThirdParty/FreeRTOS/stream_buffer.c **** #define sbFLAGS_IS_MESSAGE_BUFFER          ( ( uint8_t ) 1 ) /* Set if the stream buffer was create
 218:ThirdParty/FreeRTOS/stream_buffer.c **** #define sbFLAGS_IS_STATICALLY_ALLOCATED    ( ( uint8_t ) 2 ) /* Set if the stream buffer was create
 219:ThirdParty/FreeRTOS/stream_buffer.c **** 
 220:ThirdParty/FreeRTOS/stream_buffer.c **** /*-----------------------------------------------------------*/
 221:ThirdParty/FreeRTOS/stream_buffer.c **** 
 222:ThirdParty/FreeRTOS/stream_buffer.c **** /* Structure that hold state information on the buffer. */
 223:ThirdParty/FreeRTOS/stream_buffer.c **** typedef struct StreamBufferDef_t                 /*lint !e9058 Style convention uses tag. */
 224:ThirdParty/FreeRTOS/stream_buffer.c **** {
 225:ThirdParty/FreeRTOS/stream_buffer.c ****     volatile size_t xTail;                       /* Index to the next item to read within the buffe
 226:ThirdParty/FreeRTOS/stream_buffer.c ****     volatile size_t xHead;                       /* Index to the next item to write within the buff
 227:ThirdParty/FreeRTOS/stream_buffer.c ****     size_t xLength;                              /* The length of the buffer pointed to by pucBuffe
 228:ThirdParty/FreeRTOS/stream_buffer.c ****     size_t xTriggerLevelBytes;                   /* The number of bytes that must be in the stream 
 229:ThirdParty/FreeRTOS/stream_buffer.c ****     volatile TaskHandle_t xTaskWaitingToReceive; /* Holds the handle of a task waiting for data, or
 230:ThirdParty/FreeRTOS/stream_buffer.c ****     volatile TaskHandle_t xTaskWaitingToSend;    /* Holds the handle of a task waiting to send data
 231:ThirdParty/FreeRTOS/stream_buffer.c ****     uint8_t * pucBuffer;                         /* Points to the buffer itself - that is - the RAM
 232:ThirdParty/FreeRTOS/stream_buffer.c ****     uint8_t ucFlags;
 233:ThirdParty/FreeRTOS/stream_buffer.c **** 
 234:ThirdParty/FreeRTOS/stream_buffer.c ****     #if ( configUSE_TRACE_FACILITY == 1 )
 235:ThirdParty/FreeRTOS/stream_buffer.c ****         UBaseType_t uxStreamBufferNumber; /* Used for tracing purposes. */
 236:ThirdParty/FreeRTOS/stream_buffer.c ****     #endif
 237:ThirdParty/FreeRTOS/stream_buffer.c **** 
 238:ThirdParty/FreeRTOS/stream_buffer.c ****     #if ( configUSE_SB_COMPLETED_CALLBACK == 1 )
 239:ThirdParty/FreeRTOS/stream_buffer.c ****         StreamBufferCallbackFunction_t pxSendCompletedCallback;    /* Optional callback called on s
 240:ThirdParty/FreeRTOS/stream_buffer.c ****         StreamBufferCallbackFunction_t pxReceiveCompletedCallback; /* Optional callback called on r
 241:ThirdParty/FreeRTOS/stream_buffer.c ****     #endif
 242:ThirdParty/FreeRTOS/stream_buffer.c **** } StreamBuffer_t;
 243:ThirdParty/FreeRTOS/stream_buffer.c **** 
 244:ThirdParty/FreeRTOS/stream_buffer.c **** /*
 245:ThirdParty/FreeRTOS/stream_buffer.c ****  * The number of bytes available to be read from the buffer.
 246:ThirdParty/FreeRTOS/stream_buffer.c ****  */
 247:ThirdParty/FreeRTOS/stream_buffer.c **** static size_t prvBytesInBuffer( const StreamBuffer_t * const pxStreamBuffer ) PRIVILEGED_FUNCTION;
 248:ThirdParty/FreeRTOS/stream_buffer.c **** 
 249:ThirdParty/FreeRTOS/stream_buffer.c **** /*
 250:ThirdParty/FreeRTOS/stream_buffer.c ****  * Add xCount bytes from pucData into the pxStreamBuffer's data storage area.
 251:ThirdParty/FreeRTOS/stream_buffer.c ****  * This function does not update the buffer's xHead pointer, so multiple writes
 252:ThirdParty/FreeRTOS/stream_buffer.c ****  * may be chained together "atomically". This is useful for Message Buffers where
 253:ThirdParty/FreeRTOS/stream_buffer.c ****  * the length and data bytes are written in two separate chunks, and we don't want
 254:ThirdParty/FreeRTOS/stream_buffer.c ****  * the reader to see the buffer as having grown until after all data is copied over.
 255:ThirdParty/FreeRTOS/stream_buffer.c ****  * This function takes a custom xHead value to indicate where to write to (necessary
 256:ThirdParty/FreeRTOS/stream_buffer.c ****  * for chaining) and returns the the resulting xHead position.
 257:ThirdParty/FreeRTOS/stream_buffer.c ****  * To mark the write as complete, manually set the buffer's xHead field with the
 258:ThirdParty/FreeRTOS/stream_buffer.c ****  * returned xHead from this function.
ARM GAS  C:\Users\Admin\AppData\Local\Temp\ccKb5mMk.s 			page 6


 259:ThirdParty/FreeRTOS/stream_buffer.c ****  */
 260:ThirdParty/FreeRTOS/stream_buffer.c **** static size_t prvWriteBytesToBuffer( StreamBuffer_t * const pxStreamBuffer,
 261:ThirdParty/FreeRTOS/stream_buffer.c ****                                      const uint8_t * pucData,
 262:ThirdParty/FreeRTOS/stream_buffer.c ****                                      size_t xCount,
 263:ThirdParty/FreeRTOS/stream_buffer.c ****                                      size_t xHead ) PRIVILEGED_FUNCTION;
 264:ThirdParty/FreeRTOS/stream_buffer.c **** 
 265:ThirdParty/FreeRTOS/stream_buffer.c **** /*
 266:ThirdParty/FreeRTOS/stream_buffer.c ****  * If the stream buffer is being used as a message buffer, then reads an entire
 267:ThirdParty/FreeRTOS/stream_buffer.c ****  * message out of the buffer.  If the stream buffer is being used as a stream
 268:ThirdParty/FreeRTOS/stream_buffer.c ****  * buffer then read as many bytes as possible from the buffer.
 269:ThirdParty/FreeRTOS/stream_buffer.c ****  * prvReadBytesFromBuffer() is called to actually extract the bytes from the
 270:ThirdParty/FreeRTOS/stream_buffer.c ****  * buffer's data storage area.
 271:ThirdParty/FreeRTOS/stream_buffer.c ****  */
 272:ThirdParty/FreeRTOS/stream_buffer.c **** static size_t prvReadMessageFromBuffer( StreamBuffer_t * pxStreamBuffer,
 273:ThirdParty/FreeRTOS/stream_buffer.c ****                                         void * pvRxData,
 274:ThirdParty/FreeRTOS/stream_buffer.c ****                                         size_t xBufferLengthBytes,
 275:ThirdParty/FreeRTOS/stream_buffer.c ****                                         size_t xBytesAvailable ) PRIVILEGED_FUNCTION;
 276:ThirdParty/FreeRTOS/stream_buffer.c **** 
 277:ThirdParty/FreeRTOS/stream_buffer.c **** /*
 278:ThirdParty/FreeRTOS/stream_buffer.c ****  * If the stream buffer is being used as a message buffer, then writes an entire
 279:ThirdParty/FreeRTOS/stream_buffer.c ****  * message to the buffer.  If the stream buffer is being used as a stream
 280:ThirdParty/FreeRTOS/stream_buffer.c ****  * buffer then write as many bytes as possible to the buffer.
 281:ThirdParty/FreeRTOS/stream_buffer.c ****  * prvWriteBytestoBuffer() is called to actually send the bytes to the buffer's
 282:ThirdParty/FreeRTOS/stream_buffer.c ****  * data storage area.
 283:ThirdParty/FreeRTOS/stream_buffer.c ****  */
 284:ThirdParty/FreeRTOS/stream_buffer.c **** static size_t prvWriteMessageToBuffer( StreamBuffer_t * const pxStreamBuffer,
 285:ThirdParty/FreeRTOS/stream_buffer.c ****                                        const void * pvTxData,
 286:ThirdParty/FreeRTOS/stream_buffer.c ****                                        size_t xDataLengthBytes,
 287:ThirdParty/FreeRTOS/stream_buffer.c ****                                        size_t xSpace,
 288:ThirdParty/FreeRTOS/stream_buffer.c ****                                        size_t xRequiredSpace ) PRIVILEGED_FUNCTION;
 289:ThirdParty/FreeRTOS/stream_buffer.c **** 
 290:ThirdParty/FreeRTOS/stream_buffer.c **** /*
 291:ThirdParty/FreeRTOS/stream_buffer.c ****  * Copies xCount bytes from the pxStreamBuffer's data storage area to pucData.
 292:ThirdParty/FreeRTOS/stream_buffer.c ****  * This function does not update the buffer's xTail pointer, so multiple reads
 293:ThirdParty/FreeRTOS/stream_buffer.c ****  * may be chained together "atomically". This is useful for Message Buffers where
 294:ThirdParty/FreeRTOS/stream_buffer.c ****  * the length and data bytes are read in two separate chunks, and we don't want
 295:ThirdParty/FreeRTOS/stream_buffer.c ****  * the writer to see the buffer as having more free space until after all data is
 296:ThirdParty/FreeRTOS/stream_buffer.c ****  * copied over, especially if we have to abort the read due to insufficient receiving space.
 297:ThirdParty/FreeRTOS/stream_buffer.c ****  * This function takes a custom xTail value to indicate where to read from (necessary
 298:ThirdParty/FreeRTOS/stream_buffer.c ****  * for chaining) and returns the the resulting xTail position.
 299:ThirdParty/FreeRTOS/stream_buffer.c ****  * To mark the read as complete, manually set the buffer's xTail field with the
 300:ThirdParty/FreeRTOS/stream_buffer.c ****  * returned xTail from this function.
 301:ThirdParty/FreeRTOS/stream_buffer.c ****  */
 302:ThirdParty/FreeRTOS/stream_buffer.c **** static size_t prvReadBytesFromBuffer( StreamBuffer_t * pxStreamBuffer,
 303:ThirdParty/FreeRTOS/stream_buffer.c ****                                       uint8_t * pucData,
 304:ThirdParty/FreeRTOS/stream_buffer.c ****                                       size_t xCount,
 305:ThirdParty/FreeRTOS/stream_buffer.c ****                                       size_t xTail ) PRIVILEGED_FUNCTION;
 306:ThirdParty/FreeRTOS/stream_buffer.c **** 
 307:ThirdParty/FreeRTOS/stream_buffer.c **** /*
 308:ThirdParty/FreeRTOS/stream_buffer.c ****  * Called by both pxStreamBufferCreate() and pxStreamBufferCreateStatic() to
 309:ThirdParty/FreeRTOS/stream_buffer.c ****  * initialise the members of the newly created stream buffer structure.
 310:ThirdParty/FreeRTOS/stream_buffer.c ****  */
 311:ThirdParty/FreeRTOS/stream_buffer.c **** static void prvInitialiseNewStreamBuffer( StreamBuffer_t * const pxStreamBuffer,
 312:ThirdParty/FreeRTOS/stream_buffer.c ****                                           uint8_t * const pucBuffer,
 313:ThirdParty/FreeRTOS/stream_buffer.c ****                                           size_t xBufferSizeBytes,
 314:ThirdParty/FreeRTOS/stream_buffer.c ****                                           size_t xTriggerLevelBytes,
 315:ThirdParty/FreeRTOS/stream_buffer.c ****                                           uint8_t ucFlags,
ARM GAS  C:\Users\Admin\AppData\Local\Temp\ccKb5mMk.s 			page 7


 316:ThirdParty/FreeRTOS/stream_buffer.c ****                                           StreamBufferCallbackFunction_t pxSendCompletedCallback,
 317:ThirdParty/FreeRTOS/stream_buffer.c ****                                           StreamBufferCallbackFunction_t pxReceiveCompletedCallback
 318:ThirdParty/FreeRTOS/stream_buffer.c **** 
 319:ThirdParty/FreeRTOS/stream_buffer.c **** /*-----------------------------------------------------------*/
 320:ThirdParty/FreeRTOS/stream_buffer.c **** #if ( configSUPPORT_DYNAMIC_ALLOCATION == 1 )
 321:ThirdParty/FreeRTOS/stream_buffer.c ****     StreamBufferHandle_t xStreamBufferGenericCreate( size_t xBufferSizeBytes,
 322:ThirdParty/FreeRTOS/stream_buffer.c ****                                                      size_t xTriggerLevelBytes,
 323:ThirdParty/FreeRTOS/stream_buffer.c ****                                                      BaseType_t xIsMessageBuffer,
 324:ThirdParty/FreeRTOS/stream_buffer.c ****                                                      StreamBufferCallbackFunction_t pxSendCompleted
 325:ThirdParty/FreeRTOS/stream_buffer.c ****                                                      StreamBufferCallbackFunction_t pxReceiveComple
 326:ThirdParty/FreeRTOS/stream_buffer.c ****     {
  29              		.loc 1 326 5
  30              		.cfi_startproc
  31              		@ args = 4, pretend = 0, frame = 40
  32              		@ frame_needed = 1, uses_anonymous_args = 0
  33 0000 80B5     		push	{r7, lr}
  34              	.LCFI0:
  35              		.cfi_def_cfa_offset 8
  36              		.cfi_offset 7, -8
  37              		.cfi_offset 14, -4
  38 0002 8EB0     		sub	sp, sp, #56
  39              	.LCFI1:
  40              		.cfi_def_cfa_offset 64
  41 0004 04AF     		add	r7, sp, #16
  42              	.LCFI2:
  43              		.cfi_def_cfa 7, 48
  44 0006 F860     		str	r0, [r7, #12]
  45 0008 B960     		str	r1, [r7, #8]
  46 000a 7A60     		str	r2, [r7, #4]
  47 000c 3B60     		str	r3, [r7]
 327:ThirdParty/FreeRTOS/stream_buffer.c ****         uint8_t * pucAllocatedMemory;
 328:ThirdParty/FreeRTOS/stream_buffer.c ****         uint8_t ucFlags;
 329:ThirdParty/FreeRTOS/stream_buffer.c **** 
 330:ThirdParty/FreeRTOS/stream_buffer.c ****         /* In case the stream buffer is going to be used as a message buffer
 331:ThirdParty/FreeRTOS/stream_buffer.c ****          * (that is, it will hold discrete messages with a little meta data that
 332:ThirdParty/FreeRTOS/stream_buffer.c ****          * says how big the next message is) check the buffer will be large enough
 333:ThirdParty/FreeRTOS/stream_buffer.c ****          * to hold at least one message. */
 334:ThirdParty/FreeRTOS/stream_buffer.c ****         if( xIsMessageBuffer == pdTRUE )
  48              		.loc 1 334 11
  49 000e 7B68     		ldr	r3, [r7, #4]
  50 0010 012B     		cmp	r3, #1
  51 0012 10D1     		bne	.L2
 335:ThirdParty/FreeRTOS/stream_buffer.c ****         {
 336:ThirdParty/FreeRTOS/stream_buffer.c ****             /* Is a message buffer but not statically allocated. */
 337:ThirdParty/FreeRTOS/stream_buffer.c ****             ucFlags = sbFLAGS_IS_MESSAGE_BUFFER;
  52              		.loc 1 337 21
  53 0014 0123     		movs	r3, #1
  54 0016 87F82330 		strb	r3, [r7, #35]
 338:ThirdParty/FreeRTOS/stream_buffer.c ****             configASSERT( xBufferSizeBytes > sbBYTES_TO_STORE_MESSAGE_LENGTH );
  55              		.loc 1 338 13
  56 001a FB68     		ldr	r3, [r7, #12]
  57 001c 042B     		cmp	r3, #4
  58 001e 1BD8     		bhi	.L3
  59              	.LBB87:
  60              	.LBB88:
  61              		.file 2 "ThirdParty/FreeRTOS/portable/GCC/ARM_CM4F/portmacro.h"
   1:ThirdParty/FreeRTOS/portable/GCC/ARM_CM4F/portmacro.h **** /*
ARM GAS  C:\Users\Admin\AppData\Local\Temp\ccKb5mMk.s 			page 8


   2:ThirdParty/FreeRTOS/portable/GCC/ARM_CM4F/portmacro.h ****  * FreeRTOS Kernel V10.5.1
   3:ThirdParty/FreeRTOS/portable/GCC/ARM_CM4F/portmacro.h ****  * Copyright (C) 2021 Amazon.com, Inc. or its affiliates.  All Rights Reserved.
   4:ThirdParty/FreeRTOS/portable/GCC/ARM_CM4F/portmacro.h ****  *
   5:ThirdParty/FreeRTOS/portable/GCC/ARM_CM4F/portmacro.h ****  * SPDX-License-Identifier: MIT
   6:ThirdParty/FreeRTOS/portable/GCC/ARM_CM4F/portmacro.h ****  *
   7:ThirdParty/FreeRTOS/portable/GCC/ARM_CM4F/portmacro.h ****  * Permission is hereby granted, free of charge, to any person obtaining a copy of
   8:ThirdParty/FreeRTOS/portable/GCC/ARM_CM4F/portmacro.h ****  * this software and associated documentation files (the "Software"), to deal in
   9:ThirdParty/FreeRTOS/portable/GCC/ARM_CM4F/portmacro.h ****  * the Software without restriction, including without limitation the rights to
  10:ThirdParty/FreeRTOS/portable/GCC/ARM_CM4F/portmacro.h ****  * use, copy, modify, merge, publish, distribute, sublicense, and/or sell copies of
  11:ThirdParty/FreeRTOS/portable/GCC/ARM_CM4F/portmacro.h ****  * the Software, and to permit persons to whom the Software is furnished to do so,
  12:ThirdParty/FreeRTOS/portable/GCC/ARM_CM4F/portmacro.h ****  * subject to the following conditions:
  13:ThirdParty/FreeRTOS/portable/GCC/ARM_CM4F/portmacro.h ****  *
  14:ThirdParty/FreeRTOS/portable/GCC/ARM_CM4F/portmacro.h ****  * The above copyright notice and this permission notice shall be included in all
  15:ThirdParty/FreeRTOS/portable/GCC/ARM_CM4F/portmacro.h ****  * copies or substantial portions of the Software.
  16:ThirdParty/FreeRTOS/portable/GCC/ARM_CM4F/portmacro.h ****  *
  17:ThirdParty/FreeRTOS/portable/GCC/ARM_CM4F/portmacro.h ****  * THE SOFTWARE IS PROVIDED "AS IS", WITHOUT WARRANTY OF ANY KIND, EXPRESS OR
  18:ThirdParty/FreeRTOS/portable/GCC/ARM_CM4F/portmacro.h ****  * IMPLIED, INCLUDING BUT NOT LIMITED TO THE WARRANTIES OF MERCHANTABILITY, FITNESS
  19:ThirdParty/FreeRTOS/portable/GCC/ARM_CM4F/portmacro.h ****  * FOR A PARTICULAR PURPOSE AND NONINFRINGEMENT. IN NO EVENT SHALL THE AUTHORS OR
  20:ThirdParty/FreeRTOS/portable/GCC/ARM_CM4F/portmacro.h ****  * COPYRIGHT HOLDERS BE LIABLE FOR ANY CLAIM, DAMAGES OR OTHER LIABILITY, WHETHER
  21:ThirdParty/FreeRTOS/portable/GCC/ARM_CM4F/portmacro.h ****  * IN AN ACTION OF CONTRACT, TORT OR OTHERWISE, ARISING FROM, OUT OF OR IN
  22:ThirdParty/FreeRTOS/portable/GCC/ARM_CM4F/portmacro.h ****  * CONNECTION WITH THE SOFTWARE OR THE USE OR OTHER DEALINGS IN THE SOFTWARE.
  23:ThirdParty/FreeRTOS/portable/GCC/ARM_CM4F/portmacro.h ****  *
  24:ThirdParty/FreeRTOS/portable/GCC/ARM_CM4F/portmacro.h ****  * https://www.FreeRTOS.org
  25:ThirdParty/FreeRTOS/portable/GCC/ARM_CM4F/portmacro.h ****  * https://github.com/FreeRTOS
  26:ThirdParty/FreeRTOS/portable/GCC/ARM_CM4F/portmacro.h ****  *
  27:ThirdParty/FreeRTOS/portable/GCC/ARM_CM4F/portmacro.h ****  */
  28:ThirdParty/FreeRTOS/portable/GCC/ARM_CM4F/portmacro.h **** 
  29:ThirdParty/FreeRTOS/portable/GCC/ARM_CM4F/portmacro.h **** 
  30:ThirdParty/FreeRTOS/portable/GCC/ARM_CM4F/portmacro.h **** #ifndef PORTMACRO_H
  31:ThirdParty/FreeRTOS/portable/GCC/ARM_CM4F/portmacro.h ****     #define PORTMACRO_H
  32:ThirdParty/FreeRTOS/portable/GCC/ARM_CM4F/portmacro.h **** 
  33:ThirdParty/FreeRTOS/portable/GCC/ARM_CM4F/portmacro.h ****     #ifdef __cplusplus
  34:ThirdParty/FreeRTOS/portable/GCC/ARM_CM4F/portmacro.h ****         extern "C" {
  35:ThirdParty/FreeRTOS/portable/GCC/ARM_CM4F/portmacro.h ****     #endif
  36:ThirdParty/FreeRTOS/portable/GCC/ARM_CM4F/portmacro.h **** 
  37:ThirdParty/FreeRTOS/portable/GCC/ARM_CM4F/portmacro.h **** /*-----------------------------------------------------------
  38:ThirdParty/FreeRTOS/portable/GCC/ARM_CM4F/portmacro.h ****  * Port specific definitions.
  39:ThirdParty/FreeRTOS/portable/GCC/ARM_CM4F/portmacro.h ****  *
  40:ThirdParty/FreeRTOS/portable/GCC/ARM_CM4F/portmacro.h ****  * The settings in this file configure FreeRTOS correctly for the
  41:ThirdParty/FreeRTOS/portable/GCC/ARM_CM4F/portmacro.h ****  * given hardware and compiler.
  42:ThirdParty/FreeRTOS/portable/GCC/ARM_CM4F/portmacro.h ****  *
  43:ThirdParty/FreeRTOS/portable/GCC/ARM_CM4F/portmacro.h ****  * These settings should not be altered.
  44:ThirdParty/FreeRTOS/portable/GCC/ARM_CM4F/portmacro.h ****  *-----------------------------------------------------------
  45:ThirdParty/FreeRTOS/portable/GCC/ARM_CM4F/portmacro.h ****  */
  46:ThirdParty/FreeRTOS/portable/GCC/ARM_CM4F/portmacro.h **** 
  47:ThirdParty/FreeRTOS/portable/GCC/ARM_CM4F/portmacro.h **** /* Type definitions. */
  48:ThirdParty/FreeRTOS/portable/GCC/ARM_CM4F/portmacro.h ****     #define portCHAR          char
  49:ThirdParty/FreeRTOS/portable/GCC/ARM_CM4F/portmacro.h ****     #define portFLOAT         float
  50:ThirdParty/FreeRTOS/portable/GCC/ARM_CM4F/portmacro.h ****     #define portDOUBLE        double
  51:ThirdParty/FreeRTOS/portable/GCC/ARM_CM4F/portmacro.h ****     #define portLONG          long
  52:ThirdParty/FreeRTOS/portable/GCC/ARM_CM4F/portmacro.h ****     #define portSHORT         short
  53:ThirdParty/FreeRTOS/portable/GCC/ARM_CM4F/portmacro.h ****     #define portSTACK_TYPE    uint32_t
  54:ThirdParty/FreeRTOS/portable/GCC/ARM_CM4F/portmacro.h ****     #define portBASE_TYPE     long
  55:ThirdParty/FreeRTOS/portable/GCC/ARM_CM4F/portmacro.h **** 
  56:ThirdParty/FreeRTOS/portable/GCC/ARM_CM4F/portmacro.h ****     typedef portSTACK_TYPE   StackType_t;
  57:ThirdParty/FreeRTOS/portable/GCC/ARM_CM4F/portmacro.h ****     typedef long             BaseType_t;
  58:ThirdParty/FreeRTOS/portable/GCC/ARM_CM4F/portmacro.h ****     typedef unsigned long    UBaseType_t;
ARM GAS  C:\Users\Admin\AppData\Local\Temp\ccKb5mMk.s 			page 9


  59:ThirdParty/FreeRTOS/portable/GCC/ARM_CM4F/portmacro.h **** 
  60:ThirdParty/FreeRTOS/portable/GCC/ARM_CM4F/portmacro.h ****     #if ( configUSE_16_BIT_TICKS == 1 )
  61:ThirdParty/FreeRTOS/portable/GCC/ARM_CM4F/portmacro.h ****         typedef uint16_t     TickType_t;
  62:ThirdParty/FreeRTOS/portable/GCC/ARM_CM4F/portmacro.h ****         #define portMAX_DELAY              ( TickType_t ) 0xffff
  63:ThirdParty/FreeRTOS/portable/GCC/ARM_CM4F/portmacro.h ****     #else
  64:ThirdParty/FreeRTOS/portable/GCC/ARM_CM4F/portmacro.h ****         typedef uint32_t     TickType_t;
  65:ThirdParty/FreeRTOS/portable/GCC/ARM_CM4F/portmacro.h ****         #define portMAX_DELAY              ( TickType_t ) 0xffffffffUL
  66:ThirdParty/FreeRTOS/portable/GCC/ARM_CM4F/portmacro.h **** 
  67:ThirdParty/FreeRTOS/portable/GCC/ARM_CM4F/portmacro.h **** /* 32-bit tick type on a 32-bit architecture, so reads of the tick count do
  68:ThirdParty/FreeRTOS/portable/GCC/ARM_CM4F/portmacro.h ****  * not need to be guarded with a critical section. */
  69:ThirdParty/FreeRTOS/portable/GCC/ARM_CM4F/portmacro.h ****         #define portTICK_TYPE_IS_ATOMIC    1
  70:ThirdParty/FreeRTOS/portable/GCC/ARM_CM4F/portmacro.h ****     #endif
  71:ThirdParty/FreeRTOS/portable/GCC/ARM_CM4F/portmacro.h **** /*-----------------------------------------------------------*/
  72:ThirdParty/FreeRTOS/portable/GCC/ARM_CM4F/portmacro.h **** 
  73:ThirdParty/FreeRTOS/portable/GCC/ARM_CM4F/portmacro.h **** /* Architecture specifics. */
  74:ThirdParty/FreeRTOS/portable/GCC/ARM_CM4F/portmacro.h ****     #define portSTACK_GROWTH      ( -1 )
  75:ThirdParty/FreeRTOS/portable/GCC/ARM_CM4F/portmacro.h ****     #define portTICK_PERIOD_MS    ( ( TickType_t ) 1000 / configTICK_RATE_HZ )
  76:ThirdParty/FreeRTOS/portable/GCC/ARM_CM4F/portmacro.h ****     #define portBYTE_ALIGNMENT    8
  77:ThirdParty/FreeRTOS/portable/GCC/ARM_CM4F/portmacro.h ****     #define portDONT_DISCARD      __attribute__( ( used ) )
  78:ThirdParty/FreeRTOS/portable/GCC/ARM_CM4F/portmacro.h **** /*-----------------------------------------------------------*/
  79:ThirdParty/FreeRTOS/portable/GCC/ARM_CM4F/portmacro.h **** 
  80:ThirdParty/FreeRTOS/portable/GCC/ARM_CM4F/portmacro.h **** /* Scheduler utilities. */
  81:ThirdParty/FreeRTOS/portable/GCC/ARM_CM4F/portmacro.h ****     #define portYIELD()                                 \
  82:ThirdParty/FreeRTOS/portable/GCC/ARM_CM4F/portmacro.h ****     {                                                   \
  83:ThirdParty/FreeRTOS/portable/GCC/ARM_CM4F/portmacro.h ****         /* Set a PendSV to request a context switch. */ \
  84:ThirdParty/FreeRTOS/portable/GCC/ARM_CM4F/portmacro.h ****         portNVIC_INT_CTRL_REG = portNVIC_PENDSVSET_BIT; \
  85:ThirdParty/FreeRTOS/portable/GCC/ARM_CM4F/portmacro.h ****                                                         \
  86:ThirdParty/FreeRTOS/portable/GCC/ARM_CM4F/portmacro.h ****         /* Barriers are normally not required but do ensure the code is completely \
  87:ThirdParty/FreeRTOS/portable/GCC/ARM_CM4F/portmacro.h ****          * within the specified behaviour for the architecture. */ \
  88:ThirdParty/FreeRTOS/portable/GCC/ARM_CM4F/portmacro.h ****         __asm volatile ( "dsb" ::: "memory" );                     \
  89:ThirdParty/FreeRTOS/portable/GCC/ARM_CM4F/portmacro.h ****         __asm volatile ( "isb" );                                  \
  90:ThirdParty/FreeRTOS/portable/GCC/ARM_CM4F/portmacro.h ****     }
  91:ThirdParty/FreeRTOS/portable/GCC/ARM_CM4F/portmacro.h **** 
  92:ThirdParty/FreeRTOS/portable/GCC/ARM_CM4F/portmacro.h ****     #define portNVIC_INT_CTRL_REG     ( *( ( volatile uint32_t * ) 0xe000ed04 ) )
  93:ThirdParty/FreeRTOS/portable/GCC/ARM_CM4F/portmacro.h ****     #define portNVIC_PENDSVSET_BIT    ( 1UL << 28UL )
  94:ThirdParty/FreeRTOS/portable/GCC/ARM_CM4F/portmacro.h ****     #define portEND_SWITCHING_ISR( xSwitchRequired )    do { if( xSwitchRequired != pdFALSE ) portY
  95:ThirdParty/FreeRTOS/portable/GCC/ARM_CM4F/portmacro.h ****     #define portYIELD_FROM_ISR( x )                     portEND_SWITCHING_ISR( x )
  96:ThirdParty/FreeRTOS/portable/GCC/ARM_CM4F/portmacro.h **** /*-----------------------------------------------------------*/
  97:ThirdParty/FreeRTOS/portable/GCC/ARM_CM4F/portmacro.h **** 
  98:ThirdParty/FreeRTOS/portable/GCC/ARM_CM4F/portmacro.h **** /* Critical section management. */
  99:ThirdParty/FreeRTOS/portable/GCC/ARM_CM4F/portmacro.h ****     extern void vPortEnterCritical( void );
 100:ThirdParty/FreeRTOS/portable/GCC/ARM_CM4F/portmacro.h ****     extern void vPortExitCritical( void );
 101:ThirdParty/FreeRTOS/portable/GCC/ARM_CM4F/portmacro.h ****     #define portSET_INTERRUPT_MASK_FROM_ISR()         ulPortRaiseBASEPRI()
 102:ThirdParty/FreeRTOS/portable/GCC/ARM_CM4F/portmacro.h ****     #define portCLEAR_INTERRUPT_MASK_FROM_ISR( x )    vPortSetBASEPRI( x )
 103:ThirdParty/FreeRTOS/portable/GCC/ARM_CM4F/portmacro.h ****     #define portDISABLE_INTERRUPTS()                  vPortRaiseBASEPRI()
 104:ThirdParty/FreeRTOS/portable/GCC/ARM_CM4F/portmacro.h ****     #define portENABLE_INTERRUPTS()                   vPortSetBASEPRI( 0 )
 105:ThirdParty/FreeRTOS/portable/GCC/ARM_CM4F/portmacro.h ****     #define portENTER_CRITICAL()                      vPortEnterCritical()
 106:ThirdParty/FreeRTOS/portable/GCC/ARM_CM4F/portmacro.h ****     #define portEXIT_CRITICAL()                       vPortExitCritical()
 107:ThirdParty/FreeRTOS/portable/GCC/ARM_CM4F/portmacro.h **** 
 108:ThirdParty/FreeRTOS/portable/GCC/ARM_CM4F/portmacro.h **** /*-----------------------------------------------------------*/
 109:ThirdParty/FreeRTOS/portable/GCC/ARM_CM4F/portmacro.h **** 
 110:ThirdParty/FreeRTOS/portable/GCC/ARM_CM4F/portmacro.h **** /* Task function macros as described on the FreeRTOS.org WEB site.  These are
 111:ThirdParty/FreeRTOS/portable/GCC/ARM_CM4F/portmacro.h ****  * not necessary for to use this port.  They are defined so the common demo files
 112:ThirdParty/FreeRTOS/portable/GCC/ARM_CM4F/portmacro.h ****  * (which build with all the ports) will build. */
 113:ThirdParty/FreeRTOS/portable/GCC/ARM_CM4F/portmacro.h ****     #define portTASK_FUNCTION_PROTO( vFunction, pvParameters )    void vFunction( void * pvParamete
 114:ThirdParty/FreeRTOS/portable/GCC/ARM_CM4F/portmacro.h ****     #define portTASK_FUNCTION( vFunction, pvParameters )          void vFunction( void * pvParamete
 115:ThirdParty/FreeRTOS/portable/GCC/ARM_CM4F/portmacro.h **** /*-----------------------------------------------------------*/
ARM GAS  C:\Users\Admin\AppData\Local\Temp\ccKb5mMk.s 			page 10


 116:ThirdParty/FreeRTOS/portable/GCC/ARM_CM4F/portmacro.h **** 
 117:ThirdParty/FreeRTOS/portable/GCC/ARM_CM4F/portmacro.h **** /* Tickless idle/low power functionality. */
 118:ThirdParty/FreeRTOS/portable/GCC/ARM_CM4F/portmacro.h ****     #ifndef portSUPPRESS_TICKS_AND_SLEEP
 119:ThirdParty/FreeRTOS/portable/GCC/ARM_CM4F/portmacro.h ****         extern void vPortSuppressTicksAndSleep( TickType_t xExpectedIdleTime );
 120:ThirdParty/FreeRTOS/portable/GCC/ARM_CM4F/portmacro.h ****         #define portSUPPRESS_TICKS_AND_SLEEP( xExpectedIdleTime )    vPortSuppressTicksAndSleep( xE
 121:ThirdParty/FreeRTOS/portable/GCC/ARM_CM4F/portmacro.h ****     #endif
 122:ThirdParty/FreeRTOS/portable/GCC/ARM_CM4F/portmacro.h **** /*-----------------------------------------------------------*/
 123:ThirdParty/FreeRTOS/portable/GCC/ARM_CM4F/portmacro.h **** 
 124:ThirdParty/FreeRTOS/portable/GCC/ARM_CM4F/portmacro.h **** /* Architecture specific optimisations. */
 125:ThirdParty/FreeRTOS/portable/GCC/ARM_CM4F/portmacro.h ****     #ifndef configUSE_PORT_OPTIMISED_TASK_SELECTION
 126:ThirdParty/FreeRTOS/portable/GCC/ARM_CM4F/portmacro.h ****         #define configUSE_PORT_OPTIMISED_TASK_SELECTION    1
 127:ThirdParty/FreeRTOS/portable/GCC/ARM_CM4F/portmacro.h ****     #endif
 128:ThirdParty/FreeRTOS/portable/GCC/ARM_CM4F/portmacro.h **** 
 129:ThirdParty/FreeRTOS/portable/GCC/ARM_CM4F/portmacro.h ****     #if configUSE_PORT_OPTIMISED_TASK_SELECTION == 1
 130:ThirdParty/FreeRTOS/portable/GCC/ARM_CM4F/portmacro.h **** 
 131:ThirdParty/FreeRTOS/portable/GCC/ARM_CM4F/portmacro.h **** /* Generic helper function. */
 132:ThirdParty/FreeRTOS/portable/GCC/ARM_CM4F/portmacro.h ****         __attribute__( ( always_inline ) ) static inline uint8_t ucPortCountLeadingZeros( uint32_t 
 133:ThirdParty/FreeRTOS/portable/GCC/ARM_CM4F/portmacro.h ****         {
 134:ThirdParty/FreeRTOS/portable/GCC/ARM_CM4F/portmacro.h ****             uint8_t ucReturn;
 135:ThirdParty/FreeRTOS/portable/GCC/ARM_CM4F/portmacro.h **** 
 136:ThirdParty/FreeRTOS/portable/GCC/ARM_CM4F/portmacro.h ****             __asm volatile ( "clz %0, %1" : "=r" ( ucReturn ) : "r" ( ulBitmap ) : "memory" );
 137:ThirdParty/FreeRTOS/portable/GCC/ARM_CM4F/portmacro.h **** 
 138:ThirdParty/FreeRTOS/portable/GCC/ARM_CM4F/portmacro.h ****             return ucReturn;
 139:ThirdParty/FreeRTOS/portable/GCC/ARM_CM4F/portmacro.h ****         }
 140:ThirdParty/FreeRTOS/portable/GCC/ARM_CM4F/portmacro.h **** 
 141:ThirdParty/FreeRTOS/portable/GCC/ARM_CM4F/portmacro.h **** /* Check the configuration. */
 142:ThirdParty/FreeRTOS/portable/GCC/ARM_CM4F/portmacro.h ****         #if ( configMAX_PRIORITIES > 32 )
 143:ThirdParty/FreeRTOS/portable/GCC/ARM_CM4F/portmacro.h ****             #error configUSE_PORT_OPTIMISED_TASK_SELECTION can only be set to 1 when configMAX_PRIO
 144:ThirdParty/FreeRTOS/portable/GCC/ARM_CM4F/portmacro.h ****         #endif
 145:ThirdParty/FreeRTOS/portable/GCC/ARM_CM4F/portmacro.h **** 
 146:ThirdParty/FreeRTOS/portable/GCC/ARM_CM4F/portmacro.h **** /* Store/clear the ready priorities in a bit map. */
 147:ThirdParty/FreeRTOS/portable/GCC/ARM_CM4F/portmacro.h ****         #define portRECORD_READY_PRIORITY( uxPriority, uxReadyPriorities )    ( uxReadyPriorities )
 148:ThirdParty/FreeRTOS/portable/GCC/ARM_CM4F/portmacro.h ****         #define portRESET_READY_PRIORITY( uxPriority, uxReadyPriorities )     ( uxReadyPriorities )
 149:ThirdParty/FreeRTOS/portable/GCC/ARM_CM4F/portmacro.h **** 
 150:ThirdParty/FreeRTOS/portable/GCC/ARM_CM4F/portmacro.h **** /*-----------------------------------------------------------*/
 151:ThirdParty/FreeRTOS/portable/GCC/ARM_CM4F/portmacro.h **** 
 152:ThirdParty/FreeRTOS/portable/GCC/ARM_CM4F/portmacro.h ****         #define portGET_HIGHEST_PRIORITY( uxTopPriority, uxReadyPriorities )    uxTopPriority = ( 3
 153:ThirdParty/FreeRTOS/portable/GCC/ARM_CM4F/portmacro.h **** 
 154:ThirdParty/FreeRTOS/portable/GCC/ARM_CM4F/portmacro.h ****     #endif /* configUSE_PORT_OPTIMISED_TASK_SELECTION */
 155:ThirdParty/FreeRTOS/portable/GCC/ARM_CM4F/portmacro.h **** 
 156:ThirdParty/FreeRTOS/portable/GCC/ARM_CM4F/portmacro.h **** /*-----------------------------------------------------------*/
 157:ThirdParty/FreeRTOS/portable/GCC/ARM_CM4F/portmacro.h **** 
 158:ThirdParty/FreeRTOS/portable/GCC/ARM_CM4F/portmacro.h ****     #ifdef configASSERT
 159:ThirdParty/FreeRTOS/portable/GCC/ARM_CM4F/portmacro.h ****         void vPortValidateInterruptPriority( void );
 160:ThirdParty/FreeRTOS/portable/GCC/ARM_CM4F/portmacro.h ****         #define portASSERT_IF_INTERRUPT_PRIORITY_INVALID()    vPortValidateInterruptPriority()
 161:ThirdParty/FreeRTOS/portable/GCC/ARM_CM4F/portmacro.h ****     #endif
 162:ThirdParty/FreeRTOS/portable/GCC/ARM_CM4F/portmacro.h **** 
 163:ThirdParty/FreeRTOS/portable/GCC/ARM_CM4F/portmacro.h **** /* portNOP() is not required by this port. */
 164:ThirdParty/FreeRTOS/portable/GCC/ARM_CM4F/portmacro.h ****     #define portNOP()
 165:ThirdParty/FreeRTOS/portable/GCC/ARM_CM4F/portmacro.h **** 
 166:ThirdParty/FreeRTOS/portable/GCC/ARM_CM4F/portmacro.h ****     #define portINLINE              __inline
 167:ThirdParty/FreeRTOS/portable/GCC/ARM_CM4F/portmacro.h **** 
 168:ThirdParty/FreeRTOS/portable/GCC/ARM_CM4F/portmacro.h ****     #ifndef portFORCE_INLINE
 169:ThirdParty/FreeRTOS/portable/GCC/ARM_CM4F/portmacro.h ****         #define portFORCE_INLINE    inline __attribute__( ( always_inline ) )
 170:ThirdParty/FreeRTOS/portable/GCC/ARM_CM4F/portmacro.h ****     #endif
 171:ThirdParty/FreeRTOS/portable/GCC/ARM_CM4F/portmacro.h **** 
 172:ThirdParty/FreeRTOS/portable/GCC/ARM_CM4F/portmacro.h ****     portFORCE_INLINE static BaseType_t xPortIsInsideInterrupt( void )
ARM GAS  C:\Users\Admin\AppData\Local\Temp\ccKb5mMk.s 			page 11


 173:ThirdParty/FreeRTOS/portable/GCC/ARM_CM4F/portmacro.h ****     {
 174:ThirdParty/FreeRTOS/portable/GCC/ARM_CM4F/portmacro.h ****         uint32_t ulCurrentInterrupt;
 175:ThirdParty/FreeRTOS/portable/GCC/ARM_CM4F/portmacro.h ****         BaseType_t xReturn;
 176:ThirdParty/FreeRTOS/portable/GCC/ARM_CM4F/portmacro.h **** 
 177:ThirdParty/FreeRTOS/portable/GCC/ARM_CM4F/portmacro.h ****         /* Obtain the number of the currently executing interrupt. */
 178:ThirdParty/FreeRTOS/portable/GCC/ARM_CM4F/portmacro.h ****         __asm volatile ( "mrs %0, ipsr" : "=r" ( ulCurrentInterrupt )::"memory" );
 179:ThirdParty/FreeRTOS/portable/GCC/ARM_CM4F/portmacro.h **** 
 180:ThirdParty/FreeRTOS/portable/GCC/ARM_CM4F/portmacro.h ****         if( ulCurrentInterrupt == 0 )
 181:ThirdParty/FreeRTOS/portable/GCC/ARM_CM4F/portmacro.h ****         {
 182:ThirdParty/FreeRTOS/portable/GCC/ARM_CM4F/portmacro.h ****             xReturn = pdFALSE;
 183:ThirdParty/FreeRTOS/portable/GCC/ARM_CM4F/portmacro.h ****         }
 184:ThirdParty/FreeRTOS/portable/GCC/ARM_CM4F/portmacro.h ****         else
 185:ThirdParty/FreeRTOS/portable/GCC/ARM_CM4F/portmacro.h ****         {
 186:ThirdParty/FreeRTOS/portable/GCC/ARM_CM4F/portmacro.h ****             xReturn = pdTRUE;
 187:ThirdParty/FreeRTOS/portable/GCC/ARM_CM4F/portmacro.h ****         }
 188:ThirdParty/FreeRTOS/portable/GCC/ARM_CM4F/portmacro.h **** 
 189:ThirdParty/FreeRTOS/portable/GCC/ARM_CM4F/portmacro.h ****         return xReturn;
 190:ThirdParty/FreeRTOS/portable/GCC/ARM_CM4F/portmacro.h ****     }
 191:ThirdParty/FreeRTOS/portable/GCC/ARM_CM4F/portmacro.h **** 
 192:ThirdParty/FreeRTOS/portable/GCC/ARM_CM4F/portmacro.h **** /*-----------------------------------------------------------*/
 193:ThirdParty/FreeRTOS/portable/GCC/ARM_CM4F/portmacro.h **** 
 194:ThirdParty/FreeRTOS/portable/GCC/ARM_CM4F/portmacro.h ****     portFORCE_INLINE static void vPortRaiseBASEPRI( void )
 195:ThirdParty/FreeRTOS/portable/GCC/ARM_CM4F/portmacro.h ****     {
 196:ThirdParty/FreeRTOS/portable/GCC/ARM_CM4F/portmacro.h ****         uint32_t ulNewBASEPRI;
 197:ThirdParty/FreeRTOS/portable/GCC/ARM_CM4F/portmacro.h **** 
 198:ThirdParty/FreeRTOS/portable/GCC/ARM_CM4F/portmacro.h ****         __asm volatile
  62              		.loc 2 198 9
  63              		.syntax unified
  64              	@ 198 "ThirdParty/FreeRTOS/portable/GCC/ARM_CM4F/portmacro.h" 1
  65 0020 4FF05003 			mov r3, #80												
  66 0024 83F31188 		msr basepri, r3											
  67 0028 BFF36F8F 		isb														
  68 002c BFF34F8F 		dsb														
  69              	
  70              	@ 0 "" 2
  71              		.thumb
  72              		.syntax unified
  73 0030 FB61     		str	r3, [r7, #28]
 199:ThirdParty/FreeRTOS/portable/GCC/ARM_CM4F/portmacro.h ****         (
 200:ThirdParty/FreeRTOS/portable/GCC/ARM_CM4F/portmacro.h ****             "	mov %0, %1												\n"\
 201:ThirdParty/FreeRTOS/portable/GCC/ARM_CM4F/portmacro.h ****             "	msr basepri, %0											\n"\
 202:ThirdParty/FreeRTOS/portable/GCC/ARM_CM4F/portmacro.h ****             "	isb														\n"\
 203:ThirdParty/FreeRTOS/portable/GCC/ARM_CM4F/portmacro.h ****             "	dsb														\n"\
 204:ThirdParty/FreeRTOS/portable/GCC/ARM_CM4F/portmacro.h ****             : "=r" ( ulNewBASEPRI ) : "i" ( configMAX_SYSCALL_INTERRUPT_PRIORITY ) : "memory"
 205:ThirdParty/FreeRTOS/portable/GCC/ARM_CM4F/portmacro.h ****         );
 206:ThirdParty/FreeRTOS/portable/GCC/ARM_CM4F/portmacro.h ****     }
  74              		.loc 2 206 5
  75 0032 00BF     		nop
  76              	.L4:
  77              	.LBE88:
  78              	.LBE87:
  79              		.loc 1 338 13 discriminator 1
  80 0034 FEE7     		b	.L4
  81              	.L2:
 339:ThirdParty/FreeRTOS/stream_buffer.c ****         }
 340:ThirdParty/FreeRTOS/stream_buffer.c ****         else
 341:ThirdParty/FreeRTOS/stream_buffer.c ****         {
ARM GAS  C:\Users\Admin\AppData\Local\Temp\ccKb5mMk.s 			page 12


 342:ThirdParty/FreeRTOS/stream_buffer.c ****             /* Not a message buffer and not statically allocated. */
 343:ThirdParty/FreeRTOS/stream_buffer.c ****             ucFlags = 0;
  82              		.loc 1 343 21
  83 0036 0023     		movs	r3, #0
  84 0038 87F82330 		strb	r3, [r7, #35]
 344:ThirdParty/FreeRTOS/stream_buffer.c ****             configASSERT( xBufferSizeBytes > 0 );
  85              		.loc 1 344 13
  86 003c FB68     		ldr	r3, [r7, #12]
  87 003e 002B     		cmp	r3, #0
  88 0040 0AD1     		bne	.L3
  89              	.LBB89:
  90              	.LBB90:
 198:ThirdParty/FreeRTOS/portable/GCC/ARM_CM4F/portmacro.h ****         (
  91              		.loc 2 198 9
  92              		.syntax unified
  93              	@ 198 "ThirdParty/FreeRTOS/portable/GCC/ARM_CM4F/portmacro.h" 1
  94 0042 4FF05003 			mov r3, #80												
  95 0046 83F31188 		msr basepri, r3											
  96 004a BFF36F8F 		isb														
  97 004e BFF34F8F 		dsb														
  98              	
  99              	@ 0 "" 2
 100              		.thumb
 101              		.syntax unified
 102 0052 BB61     		str	r3, [r7, #24]
 103              		.loc 2 206 5
 104 0054 00BF     		nop
 105              	.L5:
 106              	.LBE90:
 107              	.LBE89:
 108              		.loc 1 344 13 discriminator 2
 109 0056 FEE7     		b	.L5
 110              	.L3:
 345:ThirdParty/FreeRTOS/stream_buffer.c ****         }
 346:ThirdParty/FreeRTOS/stream_buffer.c **** 
 347:ThirdParty/FreeRTOS/stream_buffer.c ****         configASSERT( xTriggerLevelBytes <= xBufferSizeBytes );
 111              		.loc 1 347 9
 112 0058 BA68     		ldr	r2, [r7, #8]
 113 005a FB68     		ldr	r3, [r7, #12]
 114 005c 9A42     		cmp	r2, r3
 115 005e 0AD9     		bls	.L6
 116              	.LBB91:
 117              	.LBB92:
 198:ThirdParty/FreeRTOS/portable/GCC/ARM_CM4F/portmacro.h ****         (
 118              		.loc 2 198 9
 119              		.syntax unified
 120              	@ 198 "ThirdParty/FreeRTOS/portable/GCC/ARM_CM4F/portmacro.h" 1
 121 0060 4FF05003 			mov r3, #80												
 122 0064 83F31188 		msr basepri, r3											
 123 0068 BFF36F8F 		isb														
 124 006c BFF34F8F 		dsb														
 125              	
 126              	@ 0 "" 2
 127              		.thumb
 128              		.syntax unified
 129 0070 7B61     		str	r3, [r7, #20]
 130              		.loc 2 206 5
ARM GAS  C:\Users\Admin\AppData\Local\Temp\ccKb5mMk.s 			page 13


 131 0072 00BF     		nop
 132              	.L7:
 133              	.LBE92:
 134              	.LBE91:
 135              		.loc 1 347 9 discriminator 3
 136 0074 FEE7     		b	.L7
 137              	.L6:
 348:ThirdParty/FreeRTOS/stream_buffer.c **** 
 349:ThirdParty/FreeRTOS/stream_buffer.c ****         /* A trigger level of 0 would cause a waiting task to unblock even when
 350:ThirdParty/FreeRTOS/stream_buffer.c ****          * the buffer was empty. */
 351:ThirdParty/FreeRTOS/stream_buffer.c ****         if( xTriggerLevelBytes == ( size_t ) 0 )
 138              		.loc 1 351 11
 139 0076 BB68     		ldr	r3, [r7, #8]
 140 0078 002B     		cmp	r3, #0
 141 007a 01D1     		bne	.L8
 352:ThirdParty/FreeRTOS/stream_buffer.c ****         {
 353:ThirdParty/FreeRTOS/stream_buffer.c ****             xTriggerLevelBytes = ( size_t ) 1;
 142              		.loc 1 353 32
 143 007c 0123     		movs	r3, #1
 144 007e BB60     		str	r3, [r7, #8]
 145              	.L8:
 354:ThirdParty/FreeRTOS/stream_buffer.c ****         }
 355:ThirdParty/FreeRTOS/stream_buffer.c **** 
 356:ThirdParty/FreeRTOS/stream_buffer.c ****         /* A stream buffer requires a StreamBuffer_t structure and a buffer.
 357:ThirdParty/FreeRTOS/stream_buffer.c ****          * Both are allocated in a single call to pvPortMalloc().  The
 358:ThirdParty/FreeRTOS/stream_buffer.c ****          * StreamBuffer_t structure is placed at the start of the allocated memory
 359:ThirdParty/FreeRTOS/stream_buffer.c ****          * and the buffer follows immediately after.  The requested size is
 360:ThirdParty/FreeRTOS/stream_buffer.c ****          * incremented so the free space is returned as the user would expect -
 361:ThirdParty/FreeRTOS/stream_buffer.c ****          * this is a quirk of the implementation that means otherwise the free
 362:ThirdParty/FreeRTOS/stream_buffer.c ****          * space would be reported as one byte smaller than would be logically
 363:ThirdParty/FreeRTOS/stream_buffer.c ****          * expected. */
 364:ThirdParty/FreeRTOS/stream_buffer.c ****         if( xBufferSizeBytes < ( xBufferSizeBytes + 1 + sizeof( StreamBuffer_t ) ) )
 146              		.loc 1 364 11
 147 0080 FB68     		ldr	r3, [r7, #12]
 148 0082 13F1260F 		cmn	r3, #38
 149 0086 09D8     		bhi	.L9
 365:ThirdParty/FreeRTOS/stream_buffer.c ****         {
 366:ThirdParty/FreeRTOS/stream_buffer.c ****             xBufferSizeBytes++;
 150              		.loc 1 366 29
 151 0088 FB68     		ldr	r3, [r7, #12]
 152 008a 0133     		adds	r3, r3, #1
 153 008c FB60     		str	r3, [r7, #12]
 367:ThirdParty/FreeRTOS/stream_buffer.c ****             pucAllocatedMemory = ( uint8_t * ) pvPortMalloc( xBufferSizeBytes + sizeof( StreamBuffe
 154              		.loc 1 367 48
 155 008e FB68     		ldr	r3, [r7, #12]
 156 0090 2433     		adds	r3, r3, #36
 157 0092 1846     		mov	r0, r3
 158 0094 FFF7FEFF 		bl	pvPortMalloc
 159 0098 7862     		str	r0, [r7, #36]
 160 009a 01E0     		b	.L10
 161              	.L9:
 368:ThirdParty/FreeRTOS/stream_buffer.c ****         }
 369:ThirdParty/FreeRTOS/stream_buffer.c ****         else
 370:ThirdParty/FreeRTOS/stream_buffer.c ****         {
 371:ThirdParty/FreeRTOS/stream_buffer.c ****             pucAllocatedMemory = NULL;
 162              		.loc 1 371 32
 163 009c 0023     		movs	r3, #0
ARM GAS  C:\Users\Admin\AppData\Local\Temp\ccKb5mMk.s 			page 14


 164 009e 7B62     		str	r3, [r7, #36]
 165              	.L10:
 372:ThirdParty/FreeRTOS/stream_buffer.c ****         }
 373:ThirdParty/FreeRTOS/stream_buffer.c **** 
 374:ThirdParty/FreeRTOS/stream_buffer.c ****         if( pucAllocatedMemory != NULL )
 166              		.loc 1 374 11
 167 00a0 7B6A     		ldr	r3, [r7, #36]
 168 00a2 002B     		cmp	r3, #0
 169 00a4 0ED0     		beq	.L11
 375:ThirdParty/FreeRTOS/stream_buffer.c ****         {
 376:ThirdParty/FreeRTOS/stream_buffer.c ****             prvInitialiseNewStreamBuffer( ( StreamBuffer_t * ) pucAllocatedMemory,       /* Structu
 170              		.loc 1 376 13
 171 00a6 7B6A     		ldr	r3, [r7, #36]
 172 00a8 03F12401 		add	r1, r3, #36
 173 00ac 3B6B     		ldr	r3, [r7, #48]
 174 00ae 0293     		str	r3, [sp, #8]
 175 00b0 3B68     		ldr	r3, [r7]
 176 00b2 0193     		str	r3, [sp, #4]
 177 00b4 97F82330 		ldrb	r3, [r7, #35]	@ zero_extendqisi2
 178 00b8 0093     		str	r3, [sp]
 179 00ba BB68     		ldr	r3, [r7, #8]
 180 00bc FA68     		ldr	r2, [r7, #12]
 181 00be 786A     		ldr	r0, [r7, #36]
 182 00c0 FFF7FEFF 		bl	prvInitialiseNewStreamBuffer
 183              	.L11:
 377:ThirdParty/FreeRTOS/stream_buffer.c ****                                           pucAllocatedMemory + sizeof( StreamBuffer_t ), /* Storage
 378:ThirdParty/FreeRTOS/stream_buffer.c ****                                           xBufferSizeBytes,
 379:ThirdParty/FreeRTOS/stream_buffer.c ****                                           xTriggerLevelBytes,
 380:ThirdParty/FreeRTOS/stream_buffer.c ****                                           ucFlags,
 381:ThirdParty/FreeRTOS/stream_buffer.c ****                                           pxSendCompletedCallback,
 382:ThirdParty/FreeRTOS/stream_buffer.c ****                                           pxReceiveCompletedCallback );
 383:ThirdParty/FreeRTOS/stream_buffer.c **** 
 384:ThirdParty/FreeRTOS/stream_buffer.c ****             traceSTREAM_BUFFER_CREATE( ( ( StreamBuffer_t * ) pucAllocatedMemory ), xIsMessageBuffe
 385:ThirdParty/FreeRTOS/stream_buffer.c ****         }
 386:ThirdParty/FreeRTOS/stream_buffer.c ****         else
 387:ThirdParty/FreeRTOS/stream_buffer.c ****         {
 388:ThirdParty/FreeRTOS/stream_buffer.c ****             traceSTREAM_BUFFER_CREATE_FAILED( xIsMessageBuffer );
 389:ThirdParty/FreeRTOS/stream_buffer.c ****         }
 390:ThirdParty/FreeRTOS/stream_buffer.c **** 
 391:ThirdParty/FreeRTOS/stream_buffer.c ****         return ( StreamBufferHandle_t ) pucAllocatedMemory; /*lint !e9087 !e826 Safe cast as alloca
 184              		.loc 1 391 16
 185 00c4 7B6A     		ldr	r3, [r7, #36]
 392:ThirdParty/FreeRTOS/stream_buffer.c ****     }
 186              		.loc 1 392 5
 187 00c6 1846     		mov	r0, r3
 188 00c8 2837     		adds	r7, r7, #40
 189              	.LCFI3:
 190              		.cfi_def_cfa_offset 8
 191 00ca BD46     		mov	sp, r7
 192              	.LCFI4:
 193              		.cfi_def_cfa_register 13
 194              		@ sp needed
 195 00cc 80BD     		pop	{r7, pc}
 196              		.cfi_endproc
 197              	.LFE5:
 199              		.section	.text.vStreamBufferDelete,"ax",%progbits
 200              		.align	1
ARM GAS  C:\Users\Admin\AppData\Local\Temp\ccKb5mMk.s 			page 15


 201              		.global	vStreamBufferDelete
 202              		.syntax unified
 203              		.thumb
 204              		.thumb_func
 206              	vStreamBufferDelete:
 207              	.LFB6:
 393:ThirdParty/FreeRTOS/stream_buffer.c **** #endif /* configSUPPORT_DYNAMIC_ALLOCATION */
 394:ThirdParty/FreeRTOS/stream_buffer.c **** /*-----------------------------------------------------------*/
 395:ThirdParty/FreeRTOS/stream_buffer.c **** 
 396:ThirdParty/FreeRTOS/stream_buffer.c **** #if ( configSUPPORT_STATIC_ALLOCATION == 1 )
 397:ThirdParty/FreeRTOS/stream_buffer.c **** 
 398:ThirdParty/FreeRTOS/stream_buffer.c ****     StreamBufferHandle_t xStreamBufferGenericCreateStatic( size_t xBufferSizeBytes,
 399:ThirdParty/FreeRTOS/stream_buffer.c ****                                                            size_t xTriggerLevelBytes,
 400:ThirdParty/FreeRTOS/stream_buffer.c ****                                                            BaseType_t xIsMessageBuffer,
 401:ThirdParty/FreeRTOS/stream_buffer.c ****                                                            uint8_t * const pucStreamBufferStorageAr
 402:ThirdParty/FreeRTOS/stream_buffer.c ****                                                            StaticStreamBuffer_t * const pxStaticStr
 403:ThirdParty/FreeRTOS/stream_buffer.c ****                                                            StreamBufferCallbackFunction_t pxSendCom
 404:ThirdParty/FreeRTOS/stream_buffer.c ****                                                            StreamBufferCallbackFunction_t pxReceive
 405:ThirdParty/FreeRTOS/stream_buffer.c ****     {
 406:ThirdParty/FreeRTOS/stream_buffer.c ****         StreamBuffer_t * const pxStreamBuffer = ( StreamBuffer_t * ) pxStaticStreamBuffer; /*lint !
 407:ThirdParty/FreeRTOS/stream_buffer.c ****         StreamBufferHandle_t xReturn;
 408:ThirdParty/FreeRTOS/stream_buffer.c ****         uint8_t ucFlags;
 409:ThirdParty/FreeRTOS/stream_buffer.c **** 
 410:ThirdParty/FreeRTOS/stream_buffer.c ****         configASSERT( pucStreamBufferStorageArea );
 411:ThirdParty/FreeRTOS/stream_buffer.c ****         configASSERT( pxStaticStreamBuffer );
 412:ThirdParty/FreeRTOS/stream_buffer.c ****         configASSERT( xTriggerLevelBytes <= xBufferSizeBytes );
 413:ThirdParty/FreeRTOS/stream_buffer.c **** 
 414:ThirdParty/FreeRTOS/stream_buffer.c ****         /* A trigger level of 0 would cause a waiting task to unblock even when
 415:ThirdParty/FreeRTOS/stream_buffer.c ****          * the buffer was empty. */
 416:ThirdParty/FreeRTOS/stream_buffer.c ****         if( xTriggerLevelBytes == ( size_t ) 0 )
 417:ThirdParty/FreeRTOS/stream_buffer.c ****         {
 418:ThirdParty/FreeRTOS/stream_buffer.c ****             xTriggerLevelBytes = ( size_t ) 1;
 419:ThirdParty/FreeRTOS/stream_buffer.c ****         }
 420:ThirdParty/FreeRTOS/stream_buffer.c **** 
 421:ThirdParty/FreeRTOS/stream_buffer.c ****         if( xIsMessageBuffer != pdFALSE )
 422:ThirdParty/FreeRTOS/stream_buffer.c ****         {
 423:ThirdParty/FreeRTOS/stream_buffer.c ****             /* Statically allocated message buffer. */
 424:ThirdParty/FreeRTOS/stream_buffer.c ****             ucFlags = sbFLAGS_IS_MESSAGE_BUFFER | sbFLAGS_IS_STATICALLY_ALLOCATED;
 425:ThirdParty/FreeRTOS/stream_buffer.c ****         }
 426:ThirdParty/FreeRTOS/stream_buffer.c ****         else
 427:ThirdParty/FreeRTOS/stream_buffer.c ****         {
 428:ThirdParty/FreeRTOS/stream_buffer.c ****             /* Statically allocated stream buffer. */
 429:ThirdParty/FreeRTOS/stream_buffer.c ****             ucFlags = sbFLAGS_IS_STATICALLY_ALLOCATED;
 430:ThirdParty/FreeRTOS/stream_buffer.c ****         }
 431:ThirdParty/FreeRTOS/stream_buffer.c **** 
 432:ThirdParty/FreeRTOS/stream_buffer.c ****         /* In case the stream buffer is going to be used as a message buffer
 433:ThirdParty/FreeRTOS/stream_buffer.c ****          * (that is, it will hold discrete messages with a little meta data that
 434:ThirdParty/FreeRTOS/stream_buffer.c ****          * says how big the next message is) check the buffer will be large enough
 435:ThirdParty/FreeRTOS/stream_buffer.c ****          * to hold at least one message. */
 436:ThirdParty/FreeRTOS/stream_buffer.c ****         configASSERT( xBufferSizeBytes > sbBYTES_TO_STORE_MESSAGE_LENGTH );
 437:ThirdParty/FreeRTOS/stream_buffer.c **** 
 438:ThirdParty/FreeRTOS/stream_buffer.c ****         #if ( configASSERT_DEFINED == 1 )
 439:ThirdParty/FreeRTOS/stream_buffer.c ****         {
 440:ThirdParty/FreeRTOS/stream_buffer.c ****             /* Sanity check that the size of the structure used to declare a
 441:ThirdParty/FreeRTOS/stream_buffer.c ****              * variable of type StaticStreamBuffer_t equals the size of the real
 442:ThirdParty/FreeRTOS/stream_buffer.c ****              * message buffer structure. */
 443:ThirdParty/FreeRTOS/stream_buffer.c ****             volatile size_t xSize = sizeof( StaticStreamBuffer_t );
ARM GAS  C:\Users\Admin\AppData\Local\Temp\ccKb5mMk.s 			page 16


 444:ThirdParty/FreeRTOS/stream_buffer.c ****             configASSERT( xSize == sizeof( StreamBuffer_t ) );
 445:ThirdParty/FreeRTOS/stream_buffer.c ****         } /*lint !e529 xSize is referenced is configASSERT() is defined. */
 446:ThirdParty/FreeRTOS/stream_buffer.c ****         #endif /* configASSERT_DEFINED */
 447:ThirdParty/FreeRTOS/stream_buffer.c **** 
 448:ThirdParty/FreeRTOS/stream_buffer.c ****         if( ( pucStreamBufferStorageArea != NULL ) && ( pxStaticStreamBuffer != NULL ) )
 449:ThirdParty/FreeRTOS/stream_buffer.c ****         {
 450:ThirdParty/FreeRTOS/stream_buffer.c ****             prvInitialiseNewStreamBuffer( pxStreamBuffer,
 451:ThirdParty/FreeRTOS/stream_buffer.c ****                                           pucStreamBufferStorageArea,
 452:ThirdParty/FreeRTOS/stream_buffer.c ****                                           xBufferSizeBytes,
 453:ThirdParty/FreeRTOS/stream_buffer.c ****                                           xTriggerLevelBytes,
 454:ThirdParty/FreeRTOS/stream_buffer.c ****                                           ucFlags,
 455:ThirdParty/FreeRTOS/stream_buffer.c ****                                           pxSendCompletedCallback,
 456:ThirdParty/FreeRTOS/stream_buffer.c ****                                           pxReceiveCompletedCallback );
 457:ThirdParty/FreeRTOS/stream_buffer.c **** 
 458:ThirdParty/FreeRTOS/stream_buffer.c ****             /* Remember this was statically allocated in case it is ever deleted
 459:ThirdParty/FreeRTOS/stream_buffer.c ****              * again. */
 460:ThirdParty/FreeRTOS/stream_buffer.c ****             pxStreamBuffer->ucFlags |= sbFLAGS_IS_STATICALLY_ALLOCATED;
 461:ThirdParty/FreeRTOS/stream_buffer.c **** 
 462:ThirdParty/FreeRTOS/stream_buffer.c ****             traceSTREAM_BUFFER_CREATE( pxStreamBuffer, xIsMessageBuffer );
 463:ThirdParty/FreeRTOS/stream_buffer.c **** 
 464:ThirdParty/FreeRTOS/stream_buffer.c ****             xReturn = ( StreamBufferHandle_t ) pxStaticStreamBuffer; /*lint !e9087 Data hiding requ
 465:ThirdParty/FreeRTOS/stream_buffer.c ****         }
 466:ThirdParty/FreeRTOS/stream_buffer.c ****         else
 467:ThirdParty/FreeRTOS/stream_buffer.c ****         {
 468:ThirdParty/FreeRTOS/stream_buffer.c ****             xReturn = NULL;
 469:ThirdParty/FreeRTOS/stream_buffer.c ****             traceSTREAM_BUFFER_CREATE_STATIC_FAILED( xReturn, xIsMessageBuffer );
 470:ThirdParty/FreeRTOS/stream_buffer.c ****         }
 471:ThirdParty/FreeRTOS/stream_buffer.c **** 
 472:ThirdParty/FreeRTOS/stream_buffer.c ****         return xReturn;
 473:ThirdParty/FreeRTOS/stream_buffer.c ****     }
 474:ThirdParty/FreeRTOS/stream_buffer.c **** #endif /* ( configSUPPORT_STATIC_ALLOCATION == 1 ) */
 475:ThirdParty/FreeRTOS/stream_buffer.c **** /*-----------------------------------------------------------*/
 476:ThirdParty/FreeRTOS/stream_buffer.c **** 
 477:ThirdParty/FreeRTOS/stream_buffer.c **** void vStreamBufferDelete( StreamBufferHandle_t xStreamBuffer )
 478:ThirdParty/FreeRTOS/stream_buffer.c **** {
 208              		.loc 1 478 1
 209              		.cfi_startproc
 210              		@ args = 0, pretend = 0, frame = 16
 211              		@ frame_needed = 1, uses_anonymous_args = 0
 212 0000 80B5     		push	{r7, lr}
 213              	.LCFI5:
 214              		.cfi_def_cfa_offset 8
 215              		.cfi_offset 7, -8
 216              		.cfi_offset 14, -4
 217 0002 84B0     		sub	sp, sp, #16
 218              	.LCFI6:
 219              		.cfi_def_cfa_offset 24
 220 0004 00AF     		add	r7, sp, #0
 221              	.LCFI7:
 222              		.cfi_def_cfa_register 7
 223 0006 7860     		str	r0, [r7, #4]
 479:ThirdParty/FreeRTOS/stream_buffer.c ****     StreamBuffer_t * pxStreamBuffer = xStreamBuffer;
 224              		.loc 1 479 22
 225 0008 7B68     		ldr	r3, [r7, #4]
 226 000a FB60     		str	r3, [r7, #12]
 480:ThirdParty/FreeRTOS/stream_buffer.c **** 
 481:ThirdParty/FreeRTOS/stream_buffer.c ****     configASSERT( pxStreamBuffer );
ARM GAS  C:\Users\Admin\AppData\Local\Temp\ccKb5mMk.s 			page 17


 227              		.loc 1 481 5
 228 000c FB68     		ldr	r3, [r7, #12]
 229 000e 002B     		cmp	r3, #0
 230 0010 0AD1     		bne	.L14
 231              	.LBB93:
 232              	.LBB94:
 198:ThirdParty/FreeRTOS/portable/GCC/ARM_CM4F/portmacro.h ****         (
 233              		.loc 2 198 9
 234              		.syntax unified
 235              	@ 198 "ThirdParty/FreeRTOS/portable/GCC/ARM_CM4F/portmacro.h" 1
 236 0012 4FF05003 			mov r3, #80												
 237 0016 83F31188 		msr basepri, r3											
 238 001a BFF36F8F 		isb														
 239 001e BFF34F8F 		dsb														
 240              	
 241              	@ 0 "" 2
 242              		.thumb
 243              		.syntax unified
 244 0022 BB60     		str	r3, [r7, #8]
 245              		.loc 2 206 5
 246 0024 00BF     		nop
 247              	.L15:
 248              	.LBE94:
 249              	.LBE93:
 250              		.loc 1 481 5 discriminator 1
 251 0026 FEE7     		b	.L15
 252              	.L14:
 482:ThirdParty/FreeRTOS/stream_buffer.c **** 
 483:ThirdParty/FreeRTOS/stream_buffer.c ****     traceSTREAM_BUFFER_DELETE( xStreamBuffer );
 484:ThirdParty/FreeRTOS/stream_buffer.c **** 
 485:ThirdParty/FreeRTOS/stream_buffer.c ****     if( ( pxStreamBuffer->ucFlags & sbFLAGS_IS_STATICALLY_ALLOCATED ) == ( uint8_t ) pdFALSE )
 253              		.loc 1 485 25
 254 0028 FB68     		ldr	r3, [r7, #12]
 255 002a 1B7F     		ldrb	r3, [r3, #28]	@ zero_extendqisi2
 256              		.loc 1 485 35
 257 002c 03F00203 		and	r3, r3, #2
 258              		.loc 1 485 7
 259 0030 002B     		cmp	r3, #0
 260 0032 03D1     		bne	.L16
 486:ThirdParty/FreeRTOS/stream_buffer.c ****     {
 487:ThirdParty/FreeRTOS/stream_buffer.c ****         #if ( configSUPPORT_DYNAMIC_ALLOCATION == 1 )
 488:ThirdParty/FreeRTOS/stream_buffer.c ****         {
 489:ThirdParty/FreeRTOS/stream_buffer.c ****             /* Both the structure and the buffer were allocated using a single call
 490:ThirdParty/FreeRTOS/stream_buffer.c ****             * to pvPortMalloc(), hence only one call to vPortFree() is required. */
 491:ThirdParty/FreeRTOS/stream_buffer.c ****             vPortFree( ( void * ) pxStreamBuffer ); /*lint !e9087 Standard free() semantics require
 261              		.loc 1 491 13
 262 0034 F868     		ldr	r0, [r7, #12]
 263 0036 FFF7FEFF 		bl	vPortFree
 492:ThirdParty/FreeRTOS/stream_buffer.c ****         }
 493:ThirdParty/FreeRTOS/stream_buffer.c ****         #else
 494:ThirdParty/FreeRTOS/stream_buffer.c ****         {
 495:ThirdParty/FreeRTOS/stream_buffer.c ****             /* Should not be possible to get here, ucFlags must be corrupt.
 496:ThirdParty/FreeRTOS/stream_buffer.c ****              * Force an assert. */
 497:ThirdParty/FreeRTOS/stream_buffer.c ****             configASSERT( xStreamBuffer == ( StreamBufferHandle_t ) ~0 );
 498:ThirdParty/FreeRTOS/stream_buffer.c ****         }
 499:ThirdParty/FreeRTOS/stream_buffer.c ****         #endif
 500:ThirdParty/FreeRTOS/stream_buffer.c ****     }
ARM GAS  C:\Users\Admin\AppData\Local\Temp\ccKb5mMk.s 			page 18


 501:ThirdParty/FreeRTOS/stream_buffer.c ****     else
 502:ThirdParty/FreeRTOS/stream_buffer.c ****     {
 503:ThirdParty/FreeRTOS/stream_buffer.c ****         /* The structure and buffer were not allocated dynamically and cannot be
 504:ThirdParty/FreeRTOS/stream_buffer.c ****          * freed - just scrub the structure so future use will assert. */
 505:ThirdParty/FreeRTOS/stream_buffer.c ****         ( void ) memset( pxStreamBuffer, 0x00, sizeof( StreamBuffer_t ) );
 506:ThirdParty/FreeRTOS/stream_buffer.c ****     }
 507:ThirdParty/FreeRTOS/stream_buffer.c **** }
 264              		.loc 1 507 1
 265 003a 04E0     		b	.L18
 266              	.L16:
 505:ThirdParty/FreeRTOS/stream_buffer.c ****     }
 267              		.loc 1 505 18
 268 003c 2422     		movs	r2, #36
 269 003e 0021     		movs	r1, #0
 270 0040 F868     		ldr	r0, [r7, #12]
 271 0042 FFF7FEFF 		bl	memset
 272              	.L18:
 273              		.loc 1 507 1
 274 0046 00BF     		nop
 275 0048 1037     		adds	r7, r7, #16
 276              	.LCFI8:
 277              		.cfi_def_cfa_offset 8
 278 004a BD46     		mov	sp, r7
 279              	.LCFI9:
 280              		.cfi_def_cfa_register 13
 281              		@ sp needed
 282 004c 80BD     		pop	{r7, pc}
 283              		.cfi_endproc
 284              	.LFE6:
 286              		.section	.text.xStreamBufferReset,"ax",%progbits
 287              		.align	1
 288              		.global	xStreamBufferReset
 289              		.syntax unified
 290              		.thumb
 291              		.thumb_func
 293              	xStreamBufferReset:
 294              	.LFB7:
 508:ThirdParty/FreeRTOS/stream_buffer.c **** /*-----------------------------------------------------------*/
 509:ThirdParty/FreeRTOS/stream_buffer.c **** 
 510:ThirdParty/FreeRTOS/stream_buffer.c **** BaseType_t xStreamBufferReset( StreamBufferHandle_t xStreamBuffer )
 511:ThirdParty/FreeRTOS/stream_buffer.c **** {
 295              		.loc 1 511 1
 296              		.cfi_startproc
 297              		@ args = 0, pretend = 0, frame = 32
 298              		@ frame_needed = 1, uses_anonymous_args = 0
 299 0000 90B5     		push	{r4, r7, lr}
 300              	.LCFI10:
 301              		.cfi_def_cfa_offset 12
 302              		.cfi_offset 4, -12
 303              		.cfi_offset 7, -8
 304              		.cfi_offset 14, -4
 305 0002 8DB0     		sub	sp, sp, #52
 306              	.LCFI11:
 307              		.cfi_def_cfa_offset 64
 308 0004 04AF     		add	r7, sp, #16
 309              	.LCFI12:
 310              		.cfi_def_cfa 7, 48
ARM GAS  C:\Users\Admin\AppData\Local\Temp\ccKb5mMk.s 			page 19


 311 0006 7860     		str	r0, [r7, #4]
 512:ThirdParty/FreeRTOS/stream_buffer.c ****     StreamBuffer_t * const pxStreamBuffer = xStreamBuffer;
 312              		.loc 1 512 28
 313 0008 7B68     		ldr	r3, [r7, #4]
 314 000a BB61     		str	r3, [r7, #24]
 513:ThirdParty/FreeRTOS/stream_buffer.c ****     BaseType_t xReturn = pdFAIL;
 315              		.loc 1 513 16
 316 000c 0023     		movs	r3, #0
 317 000e FB61     		str	r3, [r7, #28]
 514:ThirdParty/FreeRTOS/stream_buffer.c ****     StreamBufferCallbackFunction_t pxSendCallback = NULL, pxReceiveCallback = NULL;
 318              		.loc 1 514 36
 319 0010 0023     		movs	r3, #0
 320 0012 7B61     		str	r3, [r7, #20]
 321              		.loc 1 514 59
 322 0014 0023     		movs	r3, #0
 323 0016 3B61     		str	r3, [r7, #16]
 515:ThirdParty/FreeRTOS/stream_buffer.c **** 
 516:ThirdParty/FreeRTOS/stream_buffer.c ****     #if ( configUSE_TRACE_FACILITY == 1 )
 517:ThirdParty/FreeRTOS/stream_buffer.c ****         UBaseType_t uxStreamBufferNumber;
 518:ThirdParty/FreeRTOS/stream_buffer.c ****     #endif
 519:ThirdParty/FreeRTOS/stream_buffer.c **** 
 520:ThirdParty/FreeRTOS/stream_buffer.c ****     configASSERT( pxStreamBuffer );
 324              		.loc 1 520 5
 325 0018 BB69     		ldr	r3, [r7, #24]
 326 001a 002B     		cmp	r3, #0
 327 001c 0AD1     		bne	.L20
 328              	.LBB95:
 329              	.LBB96:
 198:ThirdParty/FreeRTOS/portable/GCC/ARM_CM4F/portmacro.h ****         (
 330              		.loc 2 198 9
 331              		.syntax unified
 332              	@ 198 "ThirdParty/FreeRTOS/portable/GCC/ARM_CM4F/portmacro.h" 1
 333 001e 4FF05003 			mov r3, #80												
 334 0022 83F31188 		msr basepri, r3											
 335 0026 BFF36F8F 		isb														
 336 002a BFF34F8F 		dsb														
 337              	
 338              	@ 0 "" 2
 339              		.thumb
 340              		.syntax unified
 341 002e BB60     		str	r3, [r7, #8]
 342              		.loc 2 206 5
 343 0030 00BF     		nop
 344              	.L21:
 345              	.LBE96:
 346              	.LBE95:
 347              		.loc 1 520 5 discriminator 1
 348 0032 FEE7     		b	.L21
 349              	.L20:
 521:ThirdParty/FreeRTOS/stream_buffer.c **** 
 522:ThirdParty/FreeRTOS/stream_buffer.c ****     #if ( configUSE_TRACE_FACILITY == 1 )
 523:ThirdParty/FreeRTOS/stream_buffer.c ****     {
 524:ThirdParty/FreeRTOS/stream_buffer.c ****         /* Store the stream buffer number so it can be restored after the
 525:ThirdParty/FreeRTOS/stream_buffer.c ****          * reset. */
 526:ThirdParty/FreeRTOS/stream_buffer.c ****         uxStreamBufferNumber = pxStreamBuffer->uxStreamBufferNumber;
 350              		.loc 1 526 30
 351 0034 BB69     		ldr	r3, [r7, #24]
ARM GAS  C:\Users\Admin\AppData\Local\Temp\ccKb5mMk.s 			page 20


 352 0036 1B6A     		ldr	r3, [r3, #32]
 353 0038 FB60     		str	r3, [r7, #12]
 527:ThirdParty/FreeRTOS/stream_buffer.c ****     }
 528:ThirdParty/FreeRTOS/stream_buffer.c ****     #endif
 529:ThirdParty/FreeRTOS/stream_buffer.c **** 
 530:ThirdParty/FreeRTOS/stream_buffer.c ****     /* Can only reset a message buffer if there are no tasks blocked on it. */
 531:ThirdParty/FreeRTOS/stream_buffer.c ****     taskENTER_CRITICAL();
 354              		.loc 1 531 5
 355 003a FFF7FEFF 		bl	vPortEnterCritical
 532:ThirdParty/FreeRTOS/stream_buffer.c ****     {
 533:ThirdParty/FreeRTOS/stream_buffer.c ****         if( ( pxStreamBuffer->xTaskWaitingToReceive == NULL ) && ( pxStreamBuffer->xTaskWaitingToSe
 356              		.loc 1 533 29
 357 003e BB69     		ldr	r3, [r7, #24]
 358 0040 1B69     		ldr	r3, [r3, #16]
 359              		.loc 1 533 11
 360 0042 002B     		cmp	r3, #0
 361 0044 1AD1     		bne	.L22
 362              		.loc 1 533 82 discriminator 1
 363 0046 BB69     		ldr	r3, [r7, #24]
 364 0048 5B69     		ldr	r3, [r3, #20]
 365              		.loc 1 533 63 discriminator 1
 366 004a 002B     		cmp	r3, #0
 367 004c 16D1     		bne	.L22
 534:ThirdParty/FreeRTOS/stream_buffer.c ****         {
 535:ThirdParty/FreeRTOS/stream_buffer.c ****             #if ( configUSE_SB_COMPLETED_CALLBACK == 1 )
 536:ThirdParty/FreeRTOS/stream_buffer.c ****             {
 537:ThirdParty/FreeRTOS/stream_buffer.c ****                 pxSendCallback = pxStreamBuffer->pxSendCompletedCallback;
 538:ThirdParty/FreeRTOS/stream_buffer.c ****                 pxReceiveCallback = pxStreamBuffer->pxReceiveCompletedCallback;
 539:ThirdParty/FreeRTOS/stream_buffer.c ****             }
 540:ThirdParty/FreeRTOS/stream_buffer.c ****             #endif
 541:ThirdParty/FreeRTOS/stream_buffer.c **** 
 542:ThirdParty/FreeRTOS/stream_buffer.c ****             prvInitialiseNewStreamBuffer( pxStreamBuffer,
 368              		.loc 1 542 13
 369 004e BB69     		ldr	r3, [r7, #24]
 370 0050 9969     		ldr	r1, [r3, #24]
 371 0052 BB69     		ldr	r3, [r7, #24]
 372 0054 9868     		ldr	r0, [r3, #8]
 373 0056 BB69     		ldr	r3, [r7, #24]
 374 0058 DC68     		ldr	r4, [r3, #12]
 375 005a BB69     		ldr	r3, [r7, #24]
 376 005c 1B7F     		ldrb	r3, [r3, #28]	@ zero_extendqisi2
 377 005e 3A69     		ldr	r2, [r7, #16]
 378 0060 0292     		str	r2, [sp, #8]
 379 0062 7A69     		ldr	r2, [r7, #20]
 380 0064 0192     		str	r2, [sp, #4]
 381 0066 0093     		str	r3, [sp]
 382 0068 2346     		mov	r3, r4
 383 006a 0246     		mov	r2, r0
 384 006c B869     		ldr	r0, [r7, #24]
 385 006e FFF7FEFF 		bl	prvInitialiseNewStreamBuffer
 543:ThirdParty/FreeRTOS/stream_buffer.c ****                                           pxStreamBuffer->pucBuffer,
 544:ThirdParty/FreeRTOS/stream_buffer.c ****                                           pxStreamBuffer->xLength,
 545:ThirdParty/FreeRTOS/stream_buffer.c ****                                           pxStreamBuffer->xTriggerLevelBytes,
 546:ThirdParty/FreeRTOS/stream_buffer.c ****                                           pxStreamBuffer->ucFlags,
 547:ThirdParty/FreeRTOS/stream_buffer.c ****                                           pxSendCallback,
 548:ThirdParty/FreeRTOS/stream_buffer.c ****                                           pxReceiveCallback );
 549:ThirdParty/FreeRTOS/stream_buffer.c **** 
ARM GAS  C:\Users\Admin\AppData\Local\Temp\ccKb5mMk.s 			page 21


 550:ThirdParty/FreeRTOS/stream_buffer.c ****             #if ( configUSE_TRACE_FACILITY == 1 )
 551:ThirdParty/FreeRTOS/stream_buffer.c ****             {
 552:ThirdParty/FreeRTOS/stream_buffer.c ****                 pxStreamBuffer->uxStreamBufferNumber = uxStreamBufferNumber;
 386              		.loc 1 552 54
 387 0072 BB69     		ldr	r3, [r7, #24]
 388 0074 FA68     		ldr	r2, [r7, #12]
 389 0076 1A62     		str	r2, [r3, #32]
 553:ThirdParty/FreeRTOS/stream_buffer.c ****             }
 554:ThirdParty/FreeRTOS/stream_buffer.c ****             #endif
 555:ThirdParty/FreeRTOS/stream_buffer.c **** 
 556:ThirdParty/FreeRTOS/stream_buffer.c ****             traceSTREAM_BUFFER_RESET( xStreamBuffer );
 557:ThirdParty/FreeRTOS/stream_buffer.c **** 
 558:ThirdParty/FreeRTOS/stream_buffer.c ****             xReturn = pdPASS;
 390              		.loc 1 558 21
 391 0078 0123     		movs	r3, #1
 392 007a FB61     		str	r3, [r7, #28]
 393              	.L22:
 559:ThirdParty/FreeRTOS/stream_buffer.c ****         }
 560:ThirdParty/FreeRTOS/stream_buffer.c ****     }
 561:ThirdParty/FreeRTOS/stream_buffer.c ****     taskEXIT_CRITICAL();
 394              		.loc 1 561 5
 395 007c FFF7FEFF 		bl	vPortExitCritical
 562:ThirdParty/FreeRTOS/stream_buffer.c **** 
 563:ThirdParty/FreeRTOS/stream_buffer.c ****     return xReturn;
 396              		.loc 1 563 12
 397 0080 FB69     		ldr	r3, [r7, #28]
 564:ThirdParty/FreeRTOS/stream_buffer.c **** }
 398              		.loc 1 564 1
 399 0082 1846     		mov	r0, r3
 400 0084 2437     		adds	r7, r7, #36
 401              	.LCFI13:
 402              		.cfi_def_cfa_offset 12
 403 0086 BD46     		mov	sp, r7
 404              	.LCFI14:
 405              		.cfi_def_cfa_register 13
 406              		@ sp needed
 407 0088 90BD     		pop	{r4, r7, pc}
 408              		.cfi_endproc
 409              	.LFE7:
 411              		.section	.text.xStreamBufferSetTriggerLevel,"ax",%progbits
 412              		.align	1
 413              		.global	xStreamBufferSetTriggerLevel
 414              		.syntax unified
 415              		.thumb
 416              		.thumb_func
 418              	xStreamBufferSetTriggerLevel:
 419              	.LFB8:
 565:ThirdParty/FreeRTOS/stream_buffer.c **** /*-----------------------------------------------------------*/
 566:ThirdParty/FreeRTOS/stream_buffer.c **** 
 567:ThirdParty/FreeRTOS/stream_buffer.c **** BaseType_t xStreamBufferSetTriggerLevel( StreamBufferHandle_t xStreamBuffer,
 568:ThirdParty/FreeRTOS/stream_buffer.c ****                                          size_t xTriggerLevel )
 569:ThirdParty/FreeRTOS/stream_buffer.c **** {
 420              		.loc 1 569 1
 421              		.cfi_startproc
 422              		@ args = 0, pretend = 0, frame = 24
 423              		@ frame_needed = 1, uses_anonymous_args = 0
 424              		@ link register save eliminated.
ARM GAS  C:\Users\Admin\AppData\Local\Temp\ccKb5mMk.s 			page 22


 425 0000 80B4     		push	{r7}
 426              	.LCFI15:
 427              		.cfi_def_cfa_offset 4
 428              		.cfi_offset 7, -4
 429 0002 87B0     		sub	sp, sp, #28
 430              	.LCFI16:
 431              		.cfi_def_cfa_offset 32
 432 0004 00AF     		add	r7, sp, #0
 433              	.LCFI17:
 434              		.cfi_def_cfa_register 7
 435 0006 7860     		str	r0, [r7, #4]
 436 0008 3960     		str	r1, [r7]
 570:ThirdParty/FreeRTOS/stream_buffer.c ****     StreamBuffer_t * const pxStreamBuffer = xStreamBuffer;
 437              		.loc 1 570 28
 438 000a 7B68     		ldr	r3, [r7, #4]
 439 000c 3B61     		str	r3, [r7, #16]
 571:ThirdParty/FreeRTOS/stream_buffer.c ****     BaseType_t xReturn;
 572:ThirdParty/FreeRTOS/stream_buffer.c **** 
 573:ThirdParty/FreeRTOS/stream_buffer.c ****     configASSERT( pxStreamBuffer );
 440              		.loc 1 573 5
 441 000e 3B69     		ldr	r3, [r7, #16]
 442 0010 002B     		cmp	r3, #0
 443 0012 0AD1     		bne	.L25
 444              	.LBB97:
 445              	.LBB98:
 198:ThirdParty/FreeRTOS/portable/GCC/ARM_CM4F/portmacro.h ****         (
 446              		.loc 2 198 9
 447              		.syntax unified
 448              	@ 198 "ThirdParty/FreeRTOS/portable/GCC/ARM_CM4F/portmacro.h" 1
 449 0014 4FF05003 			mov r3, #80												
 450 0018 83F31188 		msr basepri, r3											
 451 001c BFF36F8F 		isb														
 452 0020 BFF34F8F 		dsb														
 453              	
 454              	@ 0 "" 2
 455              		.thumb
 456              		.syntax unified
 457 0024 FB60     		str	r3, [r7, #12]
 458              		.loc 2 206 5
 459 0026 00BF     		nop
 460              	.L26:
 461              	.LBE98:
 462              	.LBE97:
 463              		.loc 1 573 5 discriminator 1
 464 0028 FEE7     		b	.L26
 465              	.L25:
 574:ThirdParty/FreeRTOS/stream_buffer.c **** 
 575:ThirdParty/FreeRTOS/stream_buffer.c ****     /* It is not valid for the trigger level to be 0. */
 576:ThirdParty/FreeRTOS/stream_buffer.c ****     if( xTriggerLevel == ( size_t ) 0 )
 466              		.loc 1 576 7
 467 002a 3B68     		ldr	r3, [r7]
 468 002c 002B     		cmp	r3, #0
 469 002e 01D1     		bne	.L27
 577:ThirdParty/FreeRTOS/stream_buffer.c ****     {
 578:ThirdParty/FreeRTOS/stream_buffer.c ****         xTriggerLevel = ( size_t ) 1;
 470              		.loc 1 578 23
 471 0030 0123     		movs	r3, #1
ARM GAS  C:\Users\Admin\AppData\Local\Temp\ccKb5mMk.s 			page 23


 472 0032 3B60     		str	r3, [r7]
 473              	.L27:
 579:ThirdParty/FreeRTOS/stream_buffer.c ****     }
 580:ThirdParty/FreeRTOS/stream_buffer.c **** 
 581:ThirdParty/FreeRTOS/stream_buffer.c ****     /* The trigger level is the number of bytes that must be in the stream
 582:ThirdParty/FreeRTOS/stream_buffer.c ****      * buffer before a task that is waiting for data is unblocked. */
 583:ThirdParty/FreeRTOS/stream_buffer.c ****     if( xTriggerLevel < pxStreamBuffer->xLength )
 474              		.loc 1 583 39
 475 0034 3B69     		ldr	r3, [r7, #16]
 476 0036 9B68     		ldr	r3, [r3, #8]
 477              		.loc 1 583 7
 478 0038 3A68     		ldr	r2, [r7]
 479 003a 9A42     		cmp	r2, r3
 480 003c 05D2     		bcs	.L28
 584:ThirdParty/FreeRTOS/stream_buffer.c ****     {
 585:ThirdParty/FreeRTOS/stream_buffer.c ****         pxStreamBuffer->xTriggerLevelBytes = xTriggerLevel;
 481              		.loc 1 585 44
 482 003e 3B69     		ldr	r3, [r7, #16]
 483 0040 3A68     		ldr	r2, [r7]
 484 0042 DA60     		str	r2, [r3, #12]
 586:ThirdParty/FreeRTOS/stream_buffer.c ****         xReturn = pdPASS;
 485              		.loc 1 586 17
 486 0044 0123     		movs	r3, #1
 487 0046 7B61     		str	r3, [r7, #20]
 488 0048 01E0     		b	.L29
 489              	.L28:
 587:ThirdParty/FreeRTOS/stream_buffer.c ****     }
 588:ThirdParty/FreeRTOS/stream_buffer.c ****     else
 589:ThirdParty/FreeRTOS/stream_buffer.c ****     {
 590:ThirdParty/FreeRTOS/stream_buffer.c ****         xReturn = pdFALSE;
 490              		.loc 1 590 17
 491 004a 0023     		movs	r3, #0
 492 004c 7B61     		str	r3, [r7, #20]
 493              	.L29:
 591:ThirdParty/FreeRTOS/stream_buffer.c ****     }
 592:ThirdParty/FreeRTOS/stream_buffer.c **** 
 593:ThirdParty/FreeRTOS/stream_buffer.c ****     return xReturn;
 494              		.loc 1 593 12
 495 004e 7B69     		ldr	r3, [r7, #20]
 594:ThirdParty/FreeRTOS/stream_buffer.c **** }
 496              		.loc 1 594 1
 497 0050 1846     		mov	r0, r3
 498 0052 1C37     		adds	r7, r7, #28
 499              	.LCFI18:
 500              		.cfi_def_cfa_offset 4
 501 0054 BD46     		mov	sp, r7
 502              	.LCFI19:
 503              		.cfi_def_cfa_register 13
 504              		@ sp needed
 505 0056 5DF8047B 		ldr	r7, [sp], #4
 506              	.LCFI20:
 507              		.cfi_restore 7
 508              		.cfi_def_cfa_offset 0
 509 005a 7047     		bx	lr
 510              		.cfi_endproc
 511              	.LFE8:
 513              		.section	.text.xStreamBufferSpacesAvailable,"ax",%progbits
ARM GAS  C:\Users\Admin\AppData\Local\Temp\ccKb5mMk.s 			page 24


 514              		.align	1
 515              		.global	xStreamBufferSpacesAvailable
 516              		.syntax unified
 517              		.thumb
 518              		.thumb_func
 520              	xStreamBufferSpacesAvailable:
 521              	.LFB9:
 595:ThirdParty/FreeRTOS/stream_buffer.c **** /*-----------------------------------------------------------*/
 596:ThirdParty/FreeRTOS/stream_buffer.c **** 
 597:ThirdParty/FreeRTOS/stream_buffer.c **** size_t xStreamBufferSpacesAvailable( StreamBufferHandle_t xStreamBuffer )
 598:ThirdParty/FreeRTOS/stream_buffer.c **** {
 522              		.loc 1 598 1
 523              		.cfi_startproc
 524              		@ args = 0, pretend = 0, frame = 24
 525              		@ frame_needed = 1, uses_anonymous_args = 0
 526              		@ link register save eliminated.
 527 0000 80B4     		push	{r7}
 528              	.LCFI21:
 529              		.cfi_def_cfa_offset 4
 530              		.cfi_offset 7, -4
 531 0002 87B0     		sub	sp, sp, #28
 532              	.LCFI22:
 533              		.cfi_def_cfa_offset 32
 534 0004 00AF     		add	r7, sp, #0
 535              	.LCFI23:
 536              		.cfi_def_cfa_register 7
 537 0006 7860     		str	r0, [r7, #4]
 599:ThirdParty/FreeRTOS/stream_buffer.c ****     const StreamBuffer_t * const pxStreamBuffer = xStreamBuffer;
 538              		.loc 1 599 34
 539 0008 7B68     		ldr	r3, [r7, #4]
 540 000a 3B61     		str	r3, [r7, #16]
 600:ThirdParty/FreeRTOS/stream_buffer.c ****     size_t xSpace;
 601:ThirdParty/FreeRTOS/stream_buffer.c ****     size_t xOriginalTail;
 602:ThirdParty/FreeRTOS/stream_buffer.c **** 
 603:ThirdParty/FreeRTOS/stream_buffer.c ****     configASSERT( pxStreamBuffer );
 541              		.loc 1 603 5
 542 000c 3B69     		ldr	r3, [r7, #16]
 543 000e 002B     		cmp	r3, #0
 544 0010 0AD1     		bne	.L32
 545              	.LBB99:
 546              	.LBB100:
 198:ThirdParty/FreeRTOS/portable/GCC/ARM_CM4F/portmacro.h ****         (
 547              		.loc 2 198 9
 548              		.syntax unified
 549              	@ 198 "ThirdParty/FreeRTOS/portable/GCC/ARM_CM4F/portmacro.h" 1
 550 0012 4FF05003 			mov r3, #80												
 551 0016 83F31188 		msr basepri, r3											
 552 001a BFF36F8F 		isb														
 553 001e BFF34F8F 		dsb														
 554              	
 555              	@ 0 "" 2
 556              		.thumb
 557              		.syntax unified
 558 0022 BB60     		str	r3, [r7, #8]
 559              		.loc 2 206 5
 560 0024 00BF     		nop
 561              	.L33:
ARM GAS  C:\Users\Admin\AppData\Local\Temp\ccKb5mMk.s 			page 25


 562              	.LBE100:
 563              	.LBE99:
 564              		.loc 1 603 5 discriminator 1
 565 0026 FEE7     		b	.L33
 566              	.L32:
 604:ThirdParty/FreeRTOS/stream_buffer.c **** 
 605:ThirdParty/FreeRTOS/stream_buffer.c ****     /* The code below reads xTail and then xHead.  This is safe if the stream
 606:ThirdParty/FreeRTOS/stream_buffer.c ****      * buffer is updated once between the two reads - but not if the stream buffer
 607:ThirdParty/FreeRTOS/stream_buffer.c ****      * is updated more than once between the two reads - hence the loop. */
 608:ThirdParty/FreeRTOS/stream_buffer.c ****     do
 609:ThirdParty/FreeRTOS/stream_buffer.c ****     {
 610:ThirdParty/FreeRTOS/stream_buffer.c ****         xOriginalTail = pxStreamBuffer->xTail;
 567              		.loc 1 610 23 discriminator 1
 568 0028 3B69     		ldr	r3, [r7, #16]
 569 002a 1B68     		ldr	r3, [r3]
 570 002c FB60     		str	r3, [r7, #12]
 611:ThirdParty/FreeRTOS/stream_buffer.c ****         xSpace = pxStreamBuffer->xLength + pxStreamBuffer->xTail;
 571              		.loc 1 611 32 discriminator 1
 572 002e 3B69     		ldr	r3, [r7, #16]
 573 0030 9A68     		ldr	r2, [r3, #8]
 574              		.loc 1 611 58 discriminator 1
 575 0032 3B69     		ldr	r3, [r7, #16]
 576 0034 1B68     		ldr	r3, [r3]
 577              		.loc 1 611 16 discriminator 1
 578 0036 1344     		add	r3, r3, r2
 579 0038 7B61     		str	r3, [r7, #20]
 612:ThirdParty/FreeRTOS/stream_buffer.c ****         xSpace -= pxStreamBuffer->xHead;
 580              		.loc 1 612 33 discriminator 1
 581 003a 3B69     		ldr	r3, [r7, #16]
 582 003c 5B68     		ldr	r3, [r3, #4]
 583              		.loc 1 612 16 discriminator 1
 584 003e 7A69     		ldr	r2, [r7, #20]
 585 0040 D31A     		subs	r3, r2, r3
 586 0042 7B61     		str	r3, [r7, #20]
 613:ThirdParty/FreeRTOS/stream_buffer.c ****     } while( xOriginalTail != pxStreamBuffer->xTail );
 587              		.loc 1 613 45 discriminator 1
 588 0044 3B69     		ldr	r3, [r7, #16]
 589 0046 1B68     		ldr	r3, [r3]
 590              		.loc 1 613 5 discriminator 1
 591 0048 FA68     		ldr	r2, [r7, #12]
 592 004a 9A42     		cmp	r2, r3
 593 004c ECD1     		bne	.L32
 614:ThirdParty/FreeRTOS/stream_buffer.c **** 
 615:ThirdParty/FreeRTOS/stream_buffer.c ****     xSpace -= ( size_t ) 1;
 594              		.loc 1 615 12
 595 004e 7B69     		ldr	r3, [r7, #20]
 596 0050 013B     		subs	r3, r3, #1
 597 0052 7B61     		str	r3, [r7, #20]
 616:ThirdParty/FreeRTOS/stream_buffer.c **** 
 617:ThirdParty/FreeRTOS/stream_buffer.c ****     if( xSpace >= pxStreamBuffer->xLength )
 598              		.loc 1 617 33
 599 0054 3B69     		ldr	r3, [r7, #16]
 600 0056 9B68     		ldr	r3, [r3, #8]
 601              		.loc 1 617 7
 602 0058 7A69     		ldr	r2, [r7, #20]
 603 005a 9A42     		cmp	r2, r3
 604 005c 04D3     		bcc	.L34
ARM GAS  C:\Users\Admin\AppData\Local\Temp\ccKb5mMk.s 			page 26


 618:ThirdParty/FreeRTOS/stream_buffer.c ****     {
 619:ThirdParty/FreeRTOS/stream_buffer.c ****         xSpace -= pxStreamBuffer->xLength;
 605              		.loc 1 619 33
 606 005e 3B69     		ldr	r3, [r7, #16]
 607 0060 9B68     		ldr	r3, [r3, #8]
 608              		.loc 1 619 16
 609 0062 7A69     		ldr	r2, [r7, #20]
 610 0064 D31A     		subs	r3, r2, r3
 611 0066 7B61     		str	r3, [r7, #20]
 612              	.L34:
 620:ThirdParty/FreeRTOS/stream_buffer.c ****     }
 621:ThirdParty/FreeRTOS/stream_buffer.c ****     else
 622:ThirdParty/FreeRTOS/stream_buffer.c ****     {
 623:ThirdParty/FreeRTOS/stream_buffer.c ****         mtCOVERAGE_TEST_MARKER();
 624:ThirdParty/FreeRTOS/stream_buffer.c ****     }
 625:ThirdParty/FreeRTOS/stream_buffer.c **** 
 626:ThirdParty/FreeRTOS/stream_buffer.c ****     return xSpace;
 613              		.loc 1 626 12
 614 0068 7B69     		ldr	r3, [r7, #20]
 627:ThirdParty/FreeRTOS/stream_buffer.c **** }
 615              		.loc 1 627 1
 616 006a 1846     		mov	r0, r3
 617 006c 1C37     		adds	r7, r7, #28
 618              	.LCFI24:
 619              		.cfi_def_cfa_offset 4
 620 006e BD46     		mov	sp, r7
 621              	.LCFI25:
 622              		.cfi_def_cfa_register 13
 623              		@ sp needed
 624 0070 5DF8047B 		ldr	r7, [sp], #4
 625              	.LCFI26:
 626              		.cfi_restore 7
 627              		.cfi_def_cfa_offset 0
 628 0074 7047     		bx	lr
 629              		.cfi_endproc
 630              	.LFE9:
 632              		.section	.text.xStreamBufferBytesAvailable,"ax",%progbits
 633              		.align	1
 634              		.global	xStreamBufferBytesAvailable
 635              		.syntax unified
 636              		.thumb
 637              		.thumb_func
 639              	xStreamBufferBytesAvailable:
 640              	.LFB10:
 628:ThirdParty/FreeRTOS/stream_buffer.c **** /*-----------------------------------------------------------*/
 629:ThirdParty/FreeRTOS/stream_buffer.c **** 
 630:ThirdParty/FreeRTOS/stream_buffer.c **** size_t xStreamBufferBytesAvailable( StreamBufferHandle_t xStreamBuffer )
 631:ThirdParty/FreeRTOS/stream_buffer.c **** {
 641              		.loc 1 631 1
 642              		.cfi_startproc
 643              		@ args = 0, pretend = 0, frame = 24
 644              		@ frame_needed = 1, uses_anonymous_args = 0
 645 0000 80B5     		push	{r7, lr}
 646              	.LCFI27:
 647              		.cfi_def_cfa_offset 8
 648              		.cfi_offset 7, -8
 649              		.cfi_offset 14, -4
ARM GAS  C:\Users\Admin\AppData\Local\Temp\ccKb5mMk.s 			page 27


 650 0002 86B0     		sub	sp, sp, #24
 651              	.LCFI28:
 652              		.cfi_def_cfa_offset 32
 653 0004 00AF     		add	r7, sp, #0
 654              	.LCFI29:
 655              		.cfi_def_cfa_register 7
 656 0006 7860     		str	r0, [r7, #4]
 632:ThirdParty/FreeRTOS/stream_buffer.c ****     const StreamBuffer_t * const pxStreamBuffer = xStreamBuffer;
 657              		.loc 1 632 34
 658 0008 7B68     		ldr	r3, [r7, #4]
 659 000a 7B61     		str	r3, [r7, #20]
 633:ThirdParty/FreeRTOS/stream_buffer.c ****     size_t xReturn;
 634:ThirdParty/FreeRTOS/stream_buffer.c **** 
 635:ThirdParty/FreeRTOS/stream_buffer.c ****     configASSERT( pxStreamBuffer );
 660              		.loc 1 635 5
 661 000c 7B69     		ldr	r3, [r7, #20]
 662 000e 002B     		cmp	r3, #0
 663 0010 0AD1     		bne	.L37
 664              	.LBB101:
 665              	.LBB102:
 198:ThirdParty/FreeRTOS/portable/GCC/ARM_CM4F/portmacro.h ****         (
 666              		.loc 2 198 9
 667              		.syntax unified
 668              	@ 198 "ThirdParty/FreeRTOS/portable/GCC/ARM_CM4F/portmacro.h" 1
 669 0012 4FF05003 			mov r3, #80												
 670 0016 83F31188 		msr basepri, r3											
 671 001a BFF36F8F 		isb														
 672 001e BFF34F8F 		dsb														
 673              	
 674              	@ 0 "" 2
 675              		.thumb
 676              		.syntax unified
 677 0022 FB60     		str	r3, [r7, #12]
 678              		.loc 2 206 5
 679 0024 00BF     		nop
 680              	.L38:
 681              	.LBE102:
 682              	.LBE101:
 683              		.loc 1 635 5 discriminator 1
 684 0026 FEE7     		b	.L38
 685              	.L37:
 636:ThirdParty/FreeRTOS/stream_buffer.c **** 
 637:ThirdParty/FreeRTOS/stream_buffer.c ****     xReturn = prvBytesInBuffer( pxStreamBuffer );
 686              		.loc 1 637 15
 687 0028 7869     		ldr	r0, [r7, #20]
 688 002a FFF7FEFF 		bl	prvBytesInBuffer
 689 002e 3861     		str	r0, [r7, #16]
 638:ThirdParty/FreeRTOS/stream_buffer.c ****     return xReturn;
 690              		.loc 1 638 12
 691 0030 3B69     		ldr	r3, [r7, #16]
 639:ThirdParty/FreeRTOS/stream_buffer.c **** }
 692              		.loc 1 639 1
 693 0032 1846     		mov	r0, r3
 694 0034 1837     		adds	r7, r7, #24
 695              	.LCFI30:
 696              		.cfi_def_cfa_offset 8
 697 0036 BD46     		mov	sp, r7
ARM GAS  C:\Users\Admin\AppData\Local\Temp\ccKb5mMk.s 			page 28


 698              	.LCFI31:
 699              		.cfi_def_cfa_register 13
 700              		@ sp needed
 701 0038 80BD     		pop	{r7, pc}
 702              		.cfi_endproc
 703              	.LFE10:
 705              		.section	.text.xStreamBufferSend,"ax",%progbits
 706              		.align	1
 707              		.global	xStreamBufferSend
 708              		.syntax unified
 709              		.thumb
 710              		.thumb_func
 712              	xStreamBufferSend:
 713              	.LFB11:
 640:ThirdParty/FreeRTOS/stream_buffer.c **** /*-----------------------------------------------------------*/
 641:ThirdParty/FreeRTOS/stream_buffer.c **** 
 642:ThirdParty/FreeRTOS/stream_buffer.c **** size_t xStreamBufferSend( StreamBufferHandle_t xStreamBuffer,
 643:ThirdParty/FreeRTOS/stream_buffer.c ****                           const void * pvTxData,
 644:ThirdParty/FreeRTOS/stream_buffer.c ****                           size_t xDataLengthBytes,
 645:ThirdParty/FreeRTOS/stream_buffer.c ****                           TickType_t xTicksToWait )
 646:ThirdParty/FreeRTOS/stream_buffer.c **** {
 714              		.loc 1 646 1
 715              		.cfi_startproc
 716              		@ args = 0, pretend = 0, frame = 64
 717              		@ frame_needed = 1, uses_anonymous_args = 0
 718 0000 80B5     		push	{r7, lr}
 719              	.LCFI32:
 720              		.cfi_def_cfa_offset 8
 721              		.cfi_offset 7, -8
 722              		.cfi_offset 14, -4
 723 0002 92B0     		sub	sp, sp, #72
 724              	.LCFI33:
 725              		.cfi_def_cfa_offset 80
 726 0004 02AF     		add	r7, sp, #8
 727              	.LCFI34:
 728              		.cfi_def_cfa 7, 72
 729 0006 F860     		str	r0, [r7, #12]
 730 0008 B960     		str	r1, [r7, #8]
 731 000a 7A60     		str	r2, [r7, #4]
 732 000c 3B60     		str	r3, [r7]
 647:ThirdParty/FreeRTOS/stream_buffer.c ****     StreamBuffer_t * const pxStreamBuffer = xStreamBuffer;
 733              		.loc 1 647 28
 734 000e FB68     		ldr	r3, [r7, #12]
 735 0010 7B63     		str	r3, [r7, #52]
 648:ThirdParty/FreeRTOS/stream_buffer.c ****     size_t xReturn, xSpace = 0;
 736              		.loc 1 648 21
 737 0012 0023     		movs	r3, #0
 738 0014 FB63     		str	r3, [r7, #60]
 649:ThirdParty/FreeRTOS/stream_buffer.c ****     size_t xRequiredSpace = xDataLengthBytes;
 739              		.loc 1 649 12
 740 0016 7B68     		ldr	r3, [r7, #4]
 741 0018 BB63     		str	r3, [r7, #56]
 650:ThirdParty/FreeRTOS/stream_buffer.c ****     TimeOut_t xTimeOut;
 651:ThirdParty/FreeRTOS/stream_buffer.c ****     size_t xMaxReportedSpace = 0;
 742              		.loc 1 651 12
 743 001a 0023     		movs	r3, #0
 744 001c 3B63     		str	r3, [r7, #48]
ARM GAS  C:\Users\Admin\AppData\Local\Temp\ccKb5mMk.s 			page 29


 652:ThirdParty/FreeRTOS/stream_buffer.c **** 
 653:ThirdParty/FreeRTOS/stream_buffer.c ****     configASSERT( pvTxData );
 745              		.loc 1 653 5
 746 001e BB68     		ldr	r3, [r7, #8]
 747 0020 002B     		cmp	r3, #0
 748 0022 0AD1     		bne	.L41
 749              	.LBB103:
 750              	.LBB104:
 198:ThirdParty/FreeRTOS/portable/GCC/ARM_CM4F/portmacro.h ****         (
 751              		.loc 2 198 9
 752              		.syntax unified
 753              	@ 198 "ThirdParty/FreeRTOS/portable/GCC/ARM_CM4F/portmacro.h" 1
 754 0024 4FF05003 			mov r3, #80												
 755 0028 83F31188 		msr basepri, r3											
 756 002c BFF36F8F 		isb														
 757 0030 BFF34F8F 		dsb														
 758              	
 759              	@ 0 "" 2
 760              		.thumb
 761              		.syntax unified
 762 0034 BB62     		str	r3, [r7, #40]
 763              		.loc 2 206 5
 764 0036 00BF     		nop
 765              	.L42:
 766              	.LBE104:
 767              	.LBE103:
 768              		.loc 1 653 5 discriminator 1
 769 0038 FEE7     		b	.L42
 770              	.L41:
 654:ThirdParty/FreeRTOS/stream_buffer.c ****     configASSERT( pxStreamBuffer );
 771              		.loc 1 654 5
 772 003a 7B6B     		ldr	r3, [r7, #52]
 773 003c 002B     		cmp	r3, #0
 774 003e 0AD1     		bne	.L43
 775              	.LBB105:
 776              	.LBB106:
 198:ThirdParty/FreeRTOS/portable/GCC/ARM_CM4F/portmacro.h ****         (
 777              		.loc 2 198 9
 778              		.syntax unified
 779              	@ 198 "ThirdParty/FreeRTOS/portable/GCC/ARM_CM4F/portmacro.h" 1
 780 0040 4FF05003 			mov r3, #80												
 781 0044 83F31188 		msr basepri, r3											
 782 0048 BFF36F8F 		isb														
 783 004c BFF34F8F 		dsb														
 784              	
 785              	@ 0 "" 2
 786              		.thumb
 787              		.syntax unified
 788 0050 7B62     		str	r3, [r7, #36]
 789              		.loc 2 206 5
 790 0052 00BF     		nop
 791              	.L44:
 792              	.LBE106:
 793              	.LBE105:
 794              		.loc 1 654 5 discriminator 2
 795 0054 FEE7     		b	.L44
 796              	.L43:
ARM GAS  C:\Users\Admin\AppData\Local\Temp\ccKb5mMk.s 			page 30


 655:ThirdParty/FreeRTOS/stream_buffer.c **** 
 656:ThirdParty/FreeRTOS/stream_buffer.c ****     /* The maximum amount of space a stream buffer will ever report is its length
 657:ThirdParty/FreeRTOS/stream_buffer.c ****      * minus 1. */
 658:ThirdParty/FreeRTOS/stream_buffer.c ****     xMaxReportedSpace = pxStreamBuffer->xLength - ( size_t ) 1;
 797              		.loc 1 658 39
 798 0056 7B6B     		ldr	r3, [r7, #52]
 799 0058 9B68     		ldr	r3, [r3, #8]
 800              		.loc 1 658 23
 801 005a 013B     		subs	r3, r3, #1
 802 005c 3B63     		str	r3, [r7, #48]
 659:ThirdParty/FreeRTOS/stream_buffer.c **** 
 660:ThirdParty/FreeRTOS/stream_buffer.c ****     /* This send function is used to write to both message buffers and stream
 661:ThirdParty/FreeRTOS/stream_buffer.c ****      * buffers.  If this is a message buffer then the space needed must be
 662:ThirdParty/FreeRTOS/stream_buffer.c ****      * increased by the amount of bytes needed to store the length of the
 663:ThirdParty/FreeRTOS/stream_buffer.c ****      * message. */
 664:ThirdParty/FreeRTOS/stream_buffer.c ****     if( ( pxStreamBuffer->ucFlags & sbFLAGS_IS_MESSAGE_BUFFER ) != ( uint8_t ) 0 )
 803              		.loc 1 664 25
 804 005e 7B6B     		ldr	r3, [r7, #52]
 805 0060 1B7F     		ldrb	r3, [r3, #28]	@ zero_extendqisi2
 806              		.loc 1 664 35
 807 0062 03F00103 		and	r3, r3, #1
 808              		.loc 1 664 7
 809 0066 002B     		cmp	r3, #0
 810 0068 18D0     		beq	.L45
 665:ThirdParty/FreeRTOS/stream_buffer.c ****     {
 666:ThirdParty/FreeRTOS/stream_buffer.c ****         xRequiredSpace += sbBYTES_TO_STORE_MESSAGE_LENGTH;
 811              		.loc 1 666 24
 812 006a BB6B     		ldr	r3, [r7, #56]
 813 006c 0433     		adds	r3, r3, #4
 814 006e BB63     		str	r3, [r7, #56]
 667:ThirdParty/FreeRTOS/stream_buffer.c **** 
 668:ThirdParty/FreeRTOS/stream_buffer.c ****         /* Overflow? */
 669:ThirdParty/FreeRTOS/stream_buffer.c ****         configASSERT( xRequiredSpace > xDataLengthBytes );
 815              		.loc 1 669 9
 816 0070 BA6B     		ldr	r2, [r7, #56]
 817 0072 7B68     		ldr	r3, [r7, #4]
 818 0074 9A42     		cmp	r2, r3
 819 0076 0AD8     		bhi	.L46
 820              	.LBB107:
 821              	.LBB108:
 198:ThirdParty/FreeRTOS/portable/GCC/ARM_CM4F/portmacro.h ****         (
 822              		.loc 2 198 9
 823              		.syntax unified
 824              	@ 198 "ThirdParty/FreeRTOS/portable/GCC/ARM_CM4F/portmacro.h" 1
 825 0078 4FF05003 			mov r3, #80												
 826 007c 83F31188 		msr basepri, r3											
 827 0080 BFF36F8F 		isb														
 828 0084 BFF34F8F 		dsb														
 829              	
 830              	@ 0 "" 2
 831              		.thumb
 832              		.syntax unified
 833 0088 3B62     		str	r3, [r7, #32]
 834              		.loc 2 206 5
 835 008a 00BF     		nop
 836              	.L47:
 837              	.LBE108:
ARM GAS  C:\Users\Admin\AppData\Local\Temp\ccKb5mMk.s 			page 31


 838              	.LBE107:
 839              		.loc 1 669 9 discriminator 3
 840 008c FEE7     		b	.L47
 841              	.L46:
 670:ThirdParty/FreeRTOS/stream_buffer.c **** 
 671:ThirdParty/FreeRTOS/stream_buffer.c ****         /* If this is a message buffer then it must be possible to write the
 672:ThirdParty/FreeRTOS/stream_buffer.c ****          * whole message. */
 673:ThirdParty/FreeRTOS/stream_buffer.c ****         if( xRequiredSpace > xMaxReportedSpace )
 842              		.loc 1 673 11
 843 008e BA6B     		ldr	r2, [r7, #56]
 844 0090 3B6B     		ldr	r3, [r7, #48]
 845 0092 9A42     		cmp	r2, r3
 846 0094 08D9     		bls	.L48
 674:ThirdParty/FreeRTOS/stream_buffer.c ****         {
 675:ThirdParty/FreeRTOS/stream_buffer.c ****             /* The message would not fit even if the entire buffer was empty,
 676:ThirdParty/FreeRTOS/stream_buffer.c ****              * so don't wait for space. */
 677:ThirdParty/FreeRTOS/stream_buffer.c ****             xTicksToWait = ( TickType_t ) 0;
 847              		.loc 1 677 26
 848 0096 0023     		movs	r3, #0
 849 0098 3B60     		str	r3, [r7]
 850 009a 05E0     		b	.L48
 851              	.L45:
 678:ThirdParty/FreeRTOS/stream_buffer.c ****         }
 679:ThirdParty/FreeRTOS/stream_buffer.c ****         else
 680:ThirdParty/FreeRTOS/stream_buffer.c ****         {
 681:ThirdParty/FreeRTOS/stream_buffer.c ****             mtCOVERAGE_TEST_MARKER();
 682:ThirdParty/FreeRTOS/stream_buffer.c ****         }
 683:ThirdParty/FreeRTOS/stream_buffer.c ****     }
 684:ThirdParty/FreeRTOS/stream_buffer.c ****     else
 685:ThirdParty/FreeRTOS/stream_buffer.c ****     {
 686:ThirdParty/FreeRTOS/stream_buffer.c ****         /* If this is a stream buffer then it is acceptable to write only part
 687:ThirdParty/FreeRTOS/stream_buffer.c ****          * of the message to the buffer.  Cap the length to the total length of
 688:ThirdParty/FreeRTOS/stream_buffer.c ****          * the buffer. */
 689:ThirdParty/FreeRTOS/stream_buffer.c ****         if( xRequiredSpace > xMaxReportedSpace )
 852              		.loc 1 689 11
 853 009c BA6B     		ldr	r2, [r7, #56]
 854 009e 3B6B     		ldr	r3, [r7, #48]
 855 00a0 9A42     		cmp	r2, r3
 856 00a2 01D9     		bls	.L48
 690:ThirdParty/FreeRTOS/stream_buffer.c ****         {
 691:ThirdParty/FreeRTOS/stream_buffer.c ****             xRequiredSpace = xMaxReportedSpace;
 857              		.loc 1 691 28
 858 00a4 3B6B     		ldr	r3, [r7, #48]
 859 00a6 BB63     		str	r3, [r7, #56]
 860              	.L48:
 692:ThirdParty/FreeRTOS/stream_buffer.c ****         }
 693:ThirdParty/FreeRTOS/stream_buffer.c ****         else
 694:ThirdParty/FreeRTOS/stream_buffer.c ****         {
 695:ThirdParty/FreeRTOS/stream_buffer.c ****             mtCOVERAGE_TEST_MARKER();
 696:ThirdParty/FreeRTOS/stream_buffer.c ****         }
 697:ThirdParty/FreeRTOS/stream_buffer.c ****     }
 698:ThirdParty/FreeRTOS/stream_buffer.c **** 
 699:ThirdParty/FreeRTOS/stream_buffer.c ****     if( xTicksToWait != ( TickType_t ) 0 )
 861              		.loc 1 699 22
 862 00a8 3B68     		ldr	r3, [r7]
 863              		.loc 1 699 7
 864 00aa 002B     		cmp	r3, #0
ARM GAS  C:\Users\Admin\AppData\Local\Temp\ccKb5mMk.s 			page 32


 865 00ac 41D0     		beq	.L49
 700:ThirdParty/FreeRTOS/stream_buffer.c ****     {
 701:ThirdParty/FreeRTOS/stream_buffer.c ****         vTaskSetTimeOutState( &xTimeOut );
 866              		.loc 1 701 9
 867 00ae 07F11403 		add	r3, r7, #20
 868 00b2 1846     		mov	r0, r3
 869 00b4 FFF7FEFF 		bl	vTaskSetTimeOutState
 870              	.L55:
 702:ThirdParty/FreeRTOS/stream_buffer.c **** 
 703:ThirdParty/FreeRTOS/stream_buffer.c ****         do
 704:ThirdParty/FreeRTOS/stream_buffer.c ****         {
 705:ThirdParty/FreeRTOS/stream_buffer.c ****             /* Wait until the required number of bytes are free in the message
 706:ThirdParty/FreeRTOS/stream_buffer.c ****              * buffer. */
 707:ThirdParty/FreeRTOS/stream_buffer.c ****             taskENTER_CRITICAL();
 871              		.loc 1 707 13
 872 00b8 FFF7FEFF 		bl	vPortEnterCritical
 708:ThirdParty/FreeRTOS/stream_buffer.c ****             {
 709:ThirdParty/FreeRTOS/stream_buffer.c ****                 xSpace = xStreamBufferSpacesAvailable( pxStreamBuffer );
 873              		.loc 1 709 26
 874 00bc 786B     		ldr	r0, [r7, #52]
 875 00be FFF7FEFF 		bl	xStreamBufferSpacesAvailable
 876 00c2 F863     		str	r0, [r7, #60]
 710:ThirdParty/FreeRTOS/stream_buffer.c **** 
 711:ThirdParty/FreeRTOS/stream_buffer.c ****                 if( xSpace < xRequiredSpace )
 877              		.loc 1 711 19
 878 00c4 FA6B     		ldr	r2, [r7, #60]
 879 00c6 BB6B     		ldr	r3, [r7, #56]
 880 00c8 9A42     		cmp	r2, r3
 881 00ca 18D2     		bcs	.L50
 712:ThirdParty/FreeRTOS/stream_buffer.c ****                 {
 713:ThirdParty/FreeRTOS/stream_buffer.c ****                     /* Clear notification state as going to wait for space. */
 714:ThirdParty/FreeRTOS/stream_buffer.c ****                     ( void ) xTaskNotifyStateClear( NULL );
 882              		.loc 1 714 30
 883 00cc 0021     		movs	r1, #0
 884 00ce 0020     		movs	r0, #0
 885 00d0 FFF7FEFF 		bl	xTaskGenericNotifyStateClear
 715:ThirdParty/FreeRTOS/stream_buffer.c **** 
 716:ThirdParty/FreeRTOS/stream_buffer.c ****                     /* Should only be one writer. */
 717:ThirdParty/FreeRTOS/stream_buffer.c ****                     configASSERT( pxStreamBuffer->xTaskWaitingToSend == NULL );
 886              		.loc 1 717 21
 887 00d4 7B6B     		ldr	r3, [r7, #52]
 888 00d6 5B69     		ldr	r3, [r3, #20]
 889 00d8 002B     		cmp	r3, #0
 890 00da 0AD0     		beq	.L51
 891              	.LBB109:
 892              	.LBB110:
 198:ThirdParty/FreeRTOS/portable/GCC/ARM_CM4F/portmacro.h ****         (
 893              		.loc 2 198 9
 894              		.syntax unified
 895              	@ 198 "ThirdParty/FreeRTOS/portable/GCC/ARM_CM4F/portmacro.h" 1
 896 00dc 4FF05003 			mov r3, #80												
 897 00e0 83F31188 		msr basepri, r3											
 898 00e4 BFF36F8F 		isb														
 899 00e8 BFF34F8F 		dsb														
 900              	
 901              	@ 0 "" 2
 902              		.thumb
ARM GAS  C:\Users\Admin\AppData\Local\Temp\ccKb5mMk.s 			page 33


 903              		.syntax unified
 904 00ec FB61     		str	r3, [r7, #28]
 905              		.loc 2 206 5
 906 00ee 00BF     		nop
 907              	.L52:
 908              	.LBE110:
 909              	.LBE109:
 910              		.loc 1 717 21 discriminator 4
 911 00f0 FEE7     		b	.L52
 912              	.L51:
 718:ThirdParty/FreeRTOS/stream_buffer.c ****                     pxStreamBuffer->xTaskWaitingToSend = xTaskGetCurrentTaskHandle();
 913              		.loc 1 718 58
 914 00f2 FFF7FEFF 		bl	xTaskGetCurrentTaskHandle
 915 00f6 0246     		mov	r2, r0
 916              		.loc 1 718 56
 917 00f8 7B6B     		ldr	r3, [r7, #52]
 918 00fa 5A61     		str	r2, [r3, #20]
 919 00fc 02E0     		b	.L60
 920              	.L50:
 719:ThirdParty/FreeRTOS/stream_buffer.c ****                 }
 720:ThirdParty/FreeRTOS/stream_buffer.c ****                 else
 721:ThirdParty/FreeRTOS/stream_buffer.c ****                 {
 722:ThirdParty/FreeRTOS/stream_buffer.c ****                     taskEXIT_CRITICAL();
 921              		.loc 1 722 21
 922 00fe FFF7FEFF 		bl	vPortExitCritical
 723:ThirdParty/FreeRTOS/stream_buffer.c ****                     break;
 923              		.loc 1 723 21
 924 0102 16E0     		b	.L49
 925              	.L60:
 724:ThirdParty/FreeRTOS/stream_buffer.c ****                 }
 725:ThirdParty/FreeRTOS/stream_buffer.c ****             }
 726:ThirdParty/FreeRTOS/stream_buffer.c ****             taskEXIT_CRITICAL();
 926              		.loc 1 726 13
 927 0104 FFF7FEFF 		bl	vPortExitCritical
 727:ThirdParty/FreeRTOS/stream_buffer.c **** 
 728:ThirdParty/FreeRTOS/stream_buffer.c ****             traceBLOCKING_ON_STREAM_BUFFER_SEND( xStreamBuffer );
 729:ThirdParty/FreeRTOS/stream_buffer.c ****             ( void ) xTaskNotifyWait( ( uint32_t ) 0, ( uint32_t ) 0, NULL, xTicksToWait );
 928              		.loc 1 729 13
 929 0108 3B68     		ldr	r3, [r7]
 930              		.loc 1 729 22
 931 010a 0093     		str	r3, [sp]
 932 010c 0023     		movs	r3, #0
 933 010e 0022     		movs	r2, #0
 934 0110 0021     		movs	r1, #0
 935 0112 0020     		movs	r0, #0
 936 0114 FFF7FEFF 		bl	xTaskGenericNotifyWait
 730:ThirdParty/FreeRTOS/stream_buffer.c ****             pxStreamBuffer->xTaskWaitingToSend = NULL;
 937              		.loc 1 730 48
 938 0118 7B6B     		ldr	r3, [r7, #52]
 939 011a 0022     		movs	r2, #0
 940 011c 5A61     		str	r2, [r3, #20]
 731:ThirdParty/FreeRTOS/stream_buffer.c ****         } while( xTaskCheckForTimeOut( &xTimeOut, &xTicksToWait ) == pdFALSE );
 941              		.loc 1 731 18
 942 011e 3A46     		mov	r2, r7
 943 0120 07F11403 		add	r3, r7, #20
 944 0124 1146     		mov	r1, r2
 945 0126 1846     		mov	r0, r3
ARM GAS  C:\Users\Admin\AppData\Local\Temp\ccKb5mMk.s 			page 34


 946 0128 FFF7FEFF 		bl	xTaskCheckForTimeOut
 947 012c 0346     		mov	r3, r0
 948              		.loc 1 731 9
 949 012e 002B     		cmp	r3, #0
 950 0130 C2D0     		beq	.L55
 951              	.L49:
 732:ThirdParty/FreeRTOS/stream_buffer.c ****     }
 733:ThirdParty/FreeRTOS/stream_buffer.c ****     else
 734:ThirdParty/FreeRTOS/stream_buffer.c ****     {
 735:ThirdParty/FreeRTOS/stream_buffer.c ****         mtCOVERAGE_TEST_MARKER();
 736:ThirdParty/FreeRTOS/stream_buffer.c ****     }
 737:ThirdParty/FreeRTOS/stream_buffer.c **** 
 738:ThirdParty/FreeRTOS/stream_buffer.c ****     if( xSpace == ( size_t ) 0 )
 952              		.loc 1 738 7
 953 0132 FB6B     		ldr	r3, [r7, #60]
 954 0134 002B     		cmp	r3, #0
 955 0136 03D1     		bne	.L56
 739:ThirdParty/FreeRTOS/stream_buffer.c ****     {
 740:ThirdParty/FreeRTOS/stream_buffer.c ****         xSpace = xStreamBufferSpacesAvailable( pxStreamBuffer );
 956              		.loc 1 740 18
 957 0138 786B     		ldr	r0, [r7, #52]
 958 013a FFF7FEFF 		bl	xStreamBufferSpacesAvailable
 959 013e F863     		str	r0, [r7, #60]
 960              	.L56:
 741:ThirdParty/FreeRTOS/stream_buffer.c ****     }
 742:ThirdParty/FreeRTOS/stream_buffer.c ****     else
 743:ThirdParty/FreeRTOS/stream_buffer.c ****     {
 744:ThirdParty/FreeRTOS/stream_buffer.c ****         mtCOVERAGE_TEST_MARKER();
 745:ThirdParty/FreeRTOS/stream_buffer.c ****     }
 746:ThirdParty/FreeRTOS/stream_buffer.c **** 
 747:ThirdParty/FreeRTOS/stream_buffer.c ****     xReturn = prvWriteMessageToBuffer( pxStreamBuffer, pvTxData, xDataLengthBytes, xSpace, xRequire
 961              		.loc 1 747 15
 962 0140 BB6B     		ldr	r3, [r7, #56]
 963 0142 0093     		str	r3, [sp]
 964 0144 FB6B     		ldr	r3, [r7, #60]
 965 0146 7A68     		ldr	r2, [r7, #4]
 966 0148 B968     		ldr	r1, [r7, #8]
 967 014a 786B     		ldr	r0, [r7, #52]
 968 014c FFF7FEFF 		bl	prvWriteMessageToBuffer
 969 0150 F862     		str	r0, [r7, #44]
 748:ThirdParty/FreeRTOS/stream_buffer.c **** 
 749:ThirdParty/FreeRTOS/stream_buffer.c ****     if( xReturn > ( size_t ) 0 )
 970              		.loc 1 749 7
 971 0152 FB6A     		ldr	r3, [r7, #44]
 972 0154 002B     		cmp	r3, #0
 973 0156 1BD0     		beq	.L57
 750:ThirdParty/FreeRTOS/stream_buffer.c ****     {
 751:ThirdParty/FreeRTOS/stream_buffer.c ****         traceSTREAM_BUFFER_SEND( xStreamBuffer, xReturn );
 752:ThirdParty/FreeRTOS/stream_buffer.c **** 
 753:ThirdParty/FreeRTOS/stream_buffer.c ****         /* Was a task waiting for the data? */
 754:ThirdParty/FreeRTOS/stream_buffer.c ****         if( prvBytesInBuffer( pxStreamBuffer ) >= pxStreamBuffer->xTriggerLevelBytes )
 974              		.loc 1 754 13
 975 0158 786B     		ldr	r0, [r7, #52]
 976 015a FFF7FEFF 		bl	prvBytesInBuffer
 977 015e 0246     		mov	r2, r0
 978              		.loc 1 754 65
 979 0160 7B6B     		ldr	r3, [r7, #52]
ARM GAS  C:\Users\Admin\AppData\Local\Temp\ccKb5mMk.s 			page 35


 980 0162 DB68     		ldr	r3, [r3, #12]
 981              		.loc 1 754 11
 982 0164 9A42     		cmp	r2, r3
 983 0166 13D3     		bcc	.L57
 755:ThirdParty/FreeRTOS/stream_buffer.c ****         {
 756:ThirdParty/FreeRTOS/stream_buffer.c ****             prvSEND_COMPLETED( pxStreamBuffer );
 984              		.loc 1 756 13
 985 0168 FFF7FEFF 		bl	vTaskSuspendAll
 986 016c 7B6B     		ldr	r3, [r7, #52]
 987 016e 1B69     		ldr	r3, [r3, #16]
 988 0170 002B     		cmp	r3, #0
 989 0172 0BD0     		beq	.L58
 990              		.loc 1 756 13 is_stmt 0 discriminator 1
 991 0174 7B6B     		ldr	r3, [r7, #52]
 992 0176 1869     		ldr	r0, [r3, #16]
 993 0178 0023     		movs	r3, #0
 994 017a 0093     		str	r3, [sp]
 995 017c 0023     		movs	r3, #0
 996 017e 0022     		movs	r2, #0
 997 0180 0021     		movs	r1, #0
 998 0182 FFF7FEFF 		bl	xTaskGenericNotify
 999 0186 7B6B     		ldr	r3, [r7, #52]
 1000 0188 0022     		movs	r2, #0
 1001 018a 1A61     		str	r2, [r3, #16]
 1002              	.L58:
 1003              		.loc 1 756 13 discriminator 3
 1004 018c FFF7FEFF 		bl	xTaskResumeAll
 1005              	.L57:
 757:ThirdParty/FreeRTOS/stream_buffer.c ****         }
 758:ThirdParty/FreeRTOS/stream_buffer.c ****         else
 759:ThirdParty/FreeRTOS/stream_buffer.c ****         {
 760:ThirdParty/FreeRTOS/stream_buffer.c ****             mtCOVERAGE_TEST_MARKER();
 761:ThirdParty/FreeRTOS/stream_buffer.c ****         }
 762:ThirdParty/FreeRTOS/stream_buffer.c ****     }
 763:ThirdParty/FreeRTOS/stream_buffer.c ****     else
 764:ThirdParty/FreeRTOS/stream_buffer.c ****     {
 765:ThirdParty/FreeRTOS/stream_buffer.c ****         mtCOVERAGE_TEST_MARKER();
 766:ThirdParty/FreeRTOS/stream_buffer.c ****         traceSTREAM_BUFFER_SEND_FAILED( xStreamBuffer );
 767:ThirdParty/FreeRTOS/stream_buffer.c ****     }
 768:ThirdParty/FreeRTOS/stream_buffer.c **** 
 769:ThirdParty/FreeRTOS/stream_buffer.c ****     return xReturn;
 1006              		.loc 1 769 12 is_stmt 1
 1007 0190 FB6A     		ldr	r3, [r7, #44]
 770:ThirdParty/FreeRTOS/stream_buffer.c **** }
 1008              		.loc 1 770 1
 1009 0192 1846     		mov	r0, r3
 1010 0194 4037     		adds	r7, r7, #64
 1011              	.LCFI35:
 1012              		.cfi_def_cfa_offset 8
 1013 0196 BD46     		mov	sp, r7
 1014              	.LCFI36:
 1015              		.cfi_def_cfa_register 13
 1016              		@ sp needed
 1017 0198 80BD     		pop	{r7, pc}
 1018              		.cfi_endproc
 1019              	.LFE11:
 1021              		.section	.text.xStreamBufferSendFromISR,"ax",%progbits
ARM GAS  C:\Users\Admin\AppData\Local\Temp\ccKb5mMk.s 			page 36


 1022              		.align	1
 1023              		.global	xStreamBufferSendFromISR
 1024              		.syntax unified
 1025              		.thumb
 1026              		.thumb_func
 1028              	xStreamBufferSendFromISR:
 1029              	.LFB12:
 771:ThirdParty/FreeRTOS/stream_buffer.c **** /*-----------------------------------------------------------*/
 772:ThirdParty/FreeRTOS/stream_buffer.c **** 
 773:ThirdParty/FreeRTOS/stream_buffer.c **** size_t xStreamBufferSendFromISR( StreamBufferHandle_t xStreamBuffer,
 774:ThirdParty/FreeRTOS/stream_buffer.c ****                                  const void * pvTxData,
 775:ThirdParty/FreeRTOS/stream_buffer.c ****                                  size_t xDataLengthBytes,
 776:ThirdParty/FreeRTOS/stream_buffer.c ****                                  BaseType_t * const pxHigherPriorityTaskWoken )
 777:ThirdParty/FreeRTOS/stream_buffer.c **** {
 1030              		.loc 1 777 1
 1031              		.cfi_startproc
 1032              		@ args = 0, pretend = 0, frame = 56
 1033              		@ frame_needed = 1, uses_anonymous_args = 0
 1034 0000 80B5     		push	{r7, lr}
 1035              	.LCFI37:
 1036              		.cfi_def_cfa_offset 8
 1037              		.cfi_offset 7, -8
 1038              		.cfi_offset 14, -4
 1039 0002 90B0     		sub	sp, sp, #64
 1040              	.LCFI38:
 1041              		.cfi_def_cfa_offset 72
 1042 0004 02AF     		add	r7, sp, #8
 1043              	.LCFI39:
 1044              		.cfi_def_cfa 7, 64
 1045 0006 F860     		str	r0, [r7, #12]
 1046 0008 B960     		str	r1, [r7, #8]
 1047 000a 7A60     		str	r2, [r7, #4]
 1048 000c 3B60     		str	r3, [r7]
 778:ThirdParty/FreeRTOS/stream_buffer.c ****     StreamBuffer_t * const pxStreamBuffer = xStreamBuffer;
 1049              		.loc 1 778 28
 1050 000e FB68     		ldr	r3, [r7, #12]
 1051 0010 3B63     		str	r3, [r7, #48]
 779:ThirdParty/FreeRTOS/stream_buffer.c ****     size_t xReturn, xSpace;
 780:ThirdParty/FreeRTOS/stream_buffer.c ****     size_t xRequiredSpace = xDataLengthBytes;
 1052              		.loc 1 780 12
 1053 0012 7B68     		ldr	r3, [r7, #4]
 1054 0014 7B63     		str	r3, [r7, #52]
 781:ThirdParty/FreeRTOS/stream_buffer.c **** 
 782:ThirdParty/FreeRTOS/stream_buffer.c ****     configASSERT( pvTxData );
 1055              		.loc 1 782 5
 1056 0016 BB68     		ldr	r3, [r7, #8]
 1057 0018 002B     		cmp	r3, #0
 1058 001a 0AD1     		bne	.L62
 1059              	.LBB111:
 1060              	.LBB112:
 198:ThirdParty/FreeRTOS/portable/GCC/ARM_CM4F/portmacro.h ****         (
 1061              		.loc 2 198 9
 1062              		.syntax unified
 1063              	@ 198 "ThirdParty/FreeRTOS/portable/GCC/ARM_CM4F/portmacro.h" 1
 1064 001c 4FF05003 			mov r3, #80												
 1065 0020 83F31188 		msr basepri, r3											
 1066 0024 BFF36F8F 		isb														
ARM GAS  C:\Users\Admin\AppData\Local\Temp\ccKb5mMk.s 			page 37


 1067 0028 BFF34F8F 		dsb														
 1068              	
 1069              	@ 0 "" 2
 1070              		.thumb
 1071              		.syntax unified
 1072 002c 3B62     		str	r3, [r7, #32]
 1073              		.loc 2 206 5
 1074 002e 00BF     		nop
 1075              	.L63:
 1076              	.LBE112:
 1077              	.LBE111:
 1078              		.loc 1 782 5 discriminator 1
 1079 0030 FEE7     		b	.L63
 1080              	.L62:
 783:ThirdParty/FreeRTOS/stream_buffer.c ****     configASSERT( pxStreamBuffer );
 1081              		.loc 1 783 5
 1082 0032 3B6B     		ldr	r3, [r7, #48]
 1083 0034 002B     		cmp	r3, #0
 1084 0036 0AD1     		bne	.L64
 1085              	.LBB113:
 1086              	.LBB114:
 198:ThirdParty/FreeRTOS/portable/GCC/ARM_CM4F/portmacro.h ****         (
 1087              		.loc 2 198 9
 1088              		.syntax unified
 1089              	@ 198 "ThirdParty/FreeRTOS/portable/GCC/ARM_CM4F/portmacro.h" 1
 1090 0038 4FF05003 			mov r3, #80												
 1091 003c 83F31188 		msr basepri, r3											
 1092 0040 BFF36F8F 		isb														
 1093 0044 BFF34F8F 		dsb														
 1094              	
 1095              	@ 0 "" 2
 1096              		.thumb
 1097              		.syntax unified
 1098 0048 FB61     		str	r3, [r7, #28]
 1099              		.loc 2 206 5
 1100 004a 00BF     		nop
 1101              	.L65:
 1102              	.LBE114:
 1103              	.LBE113:
 1104              		.loc 1 783 5 discriminator 2
 1105 004c FEE7     		b	.L65
 1106              	.L64:
 784:ThirdParty/FreeRTOS/stream_buffer.c **** 
 785:ThirdParty/FreeRTOS/stream_buffer.c ****     /* This send function is used to write to both message buffers and stream
 786:ThirdParty/FreeRTOS/stream_buffer.c ****      * buffers.  If this is a message buffer then the space needed must be
 787:ThirdParty/FreeRTOS/stream_buffer.c ****      * increased by the amount of bytes needed to store the length of the
 788:ThirdParty/FreeRTOS/stream_buffer.c ****      * message. */
 789:ThirdParty/FreeRTOS/stream_buffer.c ****     if( ( pxStreamBuffer->ucFlags & sbFLAGS_IS_MESSAGE_BUFFER ) != ( uint8_t ) 0 )
 1107              		.loc 1 789 25
 1108 004e 3B6B     		ldr	r3, [r7, #48]
 1109 0050 1B7F     		ldrb	r3, [r3, #28]	@ zero_extendqisi2
 1110              		.loc 1 789 35
 1111 0052 03F00103 		and	r3, r3, #1
 1112              		.loc 1 789 7
 1113 0056 002B     		cmp	r3, #0
 1114 0058 02D0     		beq	.L66
 790:ThirdParty/FreeRTOS/stream_buffer.c ****     {
ARM GAS  C:\Users\Admin\AppData\Local\Temp\ccKb5mMk.s 			page 38


 791:ThirdParty/FreeRTOS/stream_buffer.c ****         xRequiredSpace += sbBYTES_TO_STORE_MESSAGE_LENGTH;
 1115              		.loc 1 791 24
 1116 005a 7B6B     		ldr	r3, [r7, #52]
 1117 005c 0433     		adds	r3, r3, #4
 1118 005e 7B63     		str	r3, [r7, #52]
 1119              	.L66:
 792:ThirdParty/FreeRTOS/stream_buffer.c ****     }
 793:ThirdParty/FreeRTOS/stream_buffer.c ****     else
 794:ThirdParty/FreeRTOS/stream_buffer.c ****     {
 795:ThirdParty/FreeRTOS/stream_buffer.c ****         mtCOVERAGE_TEST_MARKER();
 796:ThirdParty/FreeRTOS/stream_buffer.c ****     }
 797:ThirdParty/FreeRTOS/stream_buffer.c **** 
 798:ThirdParty/FreeRTOS/stream_buffer.c ****     xSpace = xStreamBufferSpacesAvailable( pxStreamBuffer );
 1120              		.loc 1 798 14
 1121 0060 386B     		ldr	r0, [r7, #48]
 1122 0062 FFF7FEFF 		bl	xStreamBufferSpacesAvailable
 1123 0066 F862     		str	r0, [r7, #44]
 799:ThirdParty/FreeRTOS/stream_buffer.c ****     xReturn = prvWriteMessageToBuffer( pxStreamBuffer, pvTxData, xDataLengthBytes, xSpace, xRequire
 1124              		.loc 1 799 15
 1125 0068 7B6B     		ldr	r3, [r7, #52]
 1126 006a 0093     		str	r3, [sp]
 1127 006c FB6A     		ldr	r3, [r7, #44]
 1128 006e 7A68     		ldr	r2, [r7, #4]
 1129 0070 B968     		ldr	r1, [r7, #8]
 1130 0072 386B     		ldr	r0, [r7, #48]
 1131 0074 FFF7FEFF 		bl	prvWriteMessageToBuffer
 1132 0078 B862     		str	r0, [r7, #40]
 800:ThirdParty/FreeRTOS/stream_buffer.c **** 
 801:ThirdParty/FreeRTOS/stream_buffer.c ****     if( xReturn > ( size_t ) 0 )
 1133              		.loc 1 801 7
 1134 007a BB6A     		ldr	r3, [r7, #40]
 1135 007c 002B     		cmp	r3, #0
 1136 007e 2DD0     		beq	.L67
 802:ThirdParty/FreeRTOS/stream_buffer.c ****     {
 803:ThirdParty/FreeRTOS/stream_buffer.c ****         /* Was a task waiting for the data? */
 804:ThirdParty/FreeRTOS/stream_buffer.c ****         if( prvBytesInBuffer( pxStreamBuffer ) >= pxStreamBuffer->xTriggerLevelBytes )
 1137              		.loc 1 804 13
 1138 0080 386B     		ldr	r0, [r7, #48]
 1139 0082 FFF7FEFF 		bl	prvBytesInBuffer
 1140 0086 0246     		mov	r2, r0
 1141              		.loc 1 804 65
 1142 0088 3B6B     		ldr	r3, [r7, #48]
 1143 008a DB68     		ldr	r3, [r3, #12]
 1144              		.loc 1 804 11
 1145 008c 9A42     		cmp	r2, r3
 1146 008e 25D3     		bcc	.L67
 1147              	.LBB115:
 1148              	.LBB116:
 1149              	.LBB117:
 207:ThirdParty/FreeRTOS/portable/GCC/ARM_CM4F/portmacro.h **** 
 208:ThirdParty/FreeRTOS/portable/GCC/ARM_CM4F/portmacro.h **** /*-----------------------------------------------------------*/
 209:ThirdParty/FreeRTOS/portable/GCC/ARM_CM4F/portmacro.h **** 
 210:ThirdParty/FreeRTOS/portable/GCC/ARM_CM4F/portmacro.h ****     portFORCE_INLINE static uint32_t ulPortRaiseBASEPRI( void )
 211:ThirdParty/FreeRTOS/portable/GCC/ARM_CM4F/portmacro.h ****     {
 212:ThirdParty/FreeRTOS/portable/GCC/ARM_CM4F/portmacro.h ****         uint32_t ulOriginalBASEPRI, ulNewBASEPRI;
 213:ThirdParty/FreeRTOS/portable/GCC/ARM_CM4F/portmacro.h **** 
 214:ThirdParty/FreeRTOS/portable/GCC/ARM_CM4F/portmacro.h ****         __asm volatile
ARM GAS  C:\Users\Admin\AppData\Local\Temp\ccKb5mMk.s 			page 39


 1150              		.loc 2 214 9
 1151              		.syntax unified
 1152              	@ 214 "ThirdParty/FreeRTOS/portable/GCC/ARM_CM4F/portmacro.h" 1
 1153 0090 EFF31182 			mrs r2, basepri											
 1154 0094 4FF05003 		mov r3, #80												
 1155 0098 83F31188 		msr basepri, r3											
 1156 009c BFF36F8F 		isb														
 1157 00a0 BFF34F8F 		dsb														
 1158              	
 1159              	@ 0 "" 2
 1160              		.thumb
 1161              		.syntax unified
 1162 00a4 BA61     		str	r2, [r7, #24]
 1163 00a6 7B61     		str	r3, [r7, #20]
 215:ThirdParty/FreeRTOS/portable/GCC/ARM_CM4F/portmacro.h ****         (
 216:ThirdParty/FreeRTOS/portable/GCC/ARM_CM4F/portmacro.h ****             "	mrs %0, basepri											\n"\
 217:ThirdParty/FreeRTOS/portable/GCC/ARM_CM4F/portmacro.h ****             "	mov %1, %2												\n"\
 218:ThirdParty/FreeRTOS/portable/GCC/ARM_CM4F/portmacro.h ****             "	msr basepri, %1											\n"\
 219:ThirdParty/FreeRTOS/portable/GCC/ARM_CM4F/portmacro.h ****             "	isb														\n"\
 220:ThirdParty/FreeRTOS/portable/GCC/ARM_CM4F/portmacro.h ****             "	dsb														\n"\
 221:ThirdParty/FreeRTOS/portable/GCC/ARM_CM4F/portmacro.h ****             : "=r" ( ulOriginalBASEPRI ), "=r" ( ulNewBASEPRI ) : "i" ( configMAX_SYSCALL_INTERRUPT
 222:ThirdParty/FreeRTOS/portable/GCC/ARM_CM4F/portmacro.h ****         );
 223:ThirdParty/FreeRTOS/portable/GCC/ARM_CM4F/portmacro.h **** 
 224:ThirdParty/FreeRTOS/portable/GCC/ARM_CM4F/portmacro.h ****         /* This return will not be reached but is necessary to prevent compiler
 225:ThirdParty/FreeRTOS/portable/GCC/ARM_CM4F/portmacro.h ****          * warnings. */
 226:ThirdParty/FreeRTOS/portable/GCC/ARM_CM4F/portmacro.h ****         return ulOriginalBASEPRI;
 1164              		.loc 2 226 16
 1165 00a8 BB69     		ldr	r3, [r7, #24]
 1166              	.LBE117:
 1167              	.LBE116:
 805:ThirdParty/FreeRTOS/stream_buffer.c ****         {
 806:ThirdParty/FreeRTOS/stream_buffer.c ****             prvSEND_COMPLETE_FROM_ISR( pxStreamBuffer, pxHigherPriorityTaskWoken );
 1168              		.loc 1 806 13
 1169 00aa 7B62     		str	r3, [r7, #36]
 1170 00ac 3B6B     		ldr	r3, [r7, #48]
 1171 00ae 1B69     		ldr	r3, [r3, #16]
 1172 00b0 002B     		cmp	r3, #0
 1173 00b2 0DD0     		beq	.L69
 1174              		.loc 1 806 13 is_stmt 0 discriminator 1
 1175 00b4 3B6B     		ldr	r3, [r7, #48]
 1176 00b6 1869     		ldr	r0, [r3, #16]
 1177 00b8 3B68     		ldr	r3, [r7]
 1178 00ba 0193     		str	r3, [sp, #4]
 1179 00bc 0023     		movs	r3, #0
 1180 00be 0093     		str	r3, [sp]
 1181 00c0 0023     		movs	r3, #0
 1182 00c2 0022     		movs	r2, #0
 1183 00c4 0021     		movs	r1, #0
 1184 00c6 FFF7FEFF 		bl	xTaskGenericNotifyFromISR
 1185 00ca 3B6B     		ldr	r3, [r7, #48]
 1186 00cc 0022     		movs	r2, #0
 1187 00ce 1A61     		str	r2, [r3, #16]
 1188              	.L69:
 1189 00d0 7B6A     		ldr	r3, [r7, #36]
 1190 00d2 3B61     		str	r3, [r7, #16]
 1191              	.LBB118:
 1192              	.LBB119:
ARM GAS  C:\Users\Admin\AppData\Local\Temp\ccKb5mMk.s 			page 40


 227:ThirdParty/FreeRTOS/portable/GCC/ARM_CM4F/portmacro.h ****     }
 228:ThirdParty/FreeRTOS/portable/GCC/ARM_CM4F/portmacro.h **** /*-----------------------------------------------------------*/
 229:ThirdParty/FreeRTOS/portable/GCC/ARM_CM4F/portmacro.h **** 
 230:ThirdParty/FreeRTOS/portable/GCC/ARM_CM4F/portmacro.h ****     portFORCE_INLINE static void vPortSetBASEPRI( uint32_t ulNewMaskValue )
 231:ThirdParty/FreeRTOS/portable/GCC/ARM_CM4F/portmacro.h ****     {
 232:ThirdParty/FreeRTOS/portable/GCC/ARM_CM4F/portmacro.h ****         __asm volatile
 1193              		.loc 2 232 9 is_stmt 1 discriminator 3
 1194 00d4 3B69     		ldr	r3, [r7, #16]
 1195              		.syntax unified
 1196              	@ 232 "ThirdParty/FreeRTOS/portable/GCC/ARM_CM4F/portmacro.h" 1
 1197 00d6 83F31188 			msr basepri, r3	
 1198              	@ 0 "" 2
 233:ThirdParty/FreeRTOS/portable/GCC/ARM_CM4F/portmacro.h ****         (
 234:ThirdParty/FreeRTOS/portable/GCC/ARM_CM4F/portmacro.h ****             "	msr basepri, %0	"::"r" ( ulNewMaskValue ) : "memory"
 235:ThirdParty/FreeRTOS/portable/GCC/ARM_CM4F/portmacro.h ****         );
 236:ThirdParty/FreeRTOS/portable/GCC/ARM_CM4F/portmacro.h ****     }
 1199              		.loc 2 236 5 discriminator 3
 1200              		.thumb
 1201              		.syntax unified
 1202 00da 00BF     		nop
 1203              	.L67:
 1204              	.LBE119:
 1205              	.LBE118:
 1206              	.LBE115:
 807:ThirdParty/FreeRTOS/stream_buffer.c ****         }
 808:ThirdParty/FreeRTOS/stream_buffer.c ****         else
 809:ThirdParty/FreeRTOS/stream_buffer.c ****         {
 810:ThirdParty/FreeRTOS/stream_buffer.c ****             mtCOVERAGE_TEST_MARKER();
 811:ThirdParty/FreeRTOS/stream_buffer.c ****         }
 812:ThirdParty/FreeRTOS/stream_buffer.c ****     }
 813:ThirdParty/FreeRTOS/stream_buffer.c ****     else
 814:ThirdParty/FreeRTOS/stream_buffer.c ****     {
 815:ThirdParty/FreeRTOS/stream_buffer.c ****         mtCOVERAGE_TEST_MARKER();
 816:ThirdParty/FreeRTOS/stream_buffer.c ****     }
 817:ThirdParty/FreeRTOS/stream_buffer.c **** 
 818:ThirdParty/FreeRTOS/stream_buffer.c ****     traceSTREAM_BUFFER_SEND_FROM_ISR( xStreamBuffer, xReturn );
 819:ThirdParty/FreeRTOS/stream_buffer.c **** 
 820:ThirdParty/FreeRTOS/stream_buffer.c ****     return xReturn;
 1207              		.loc 1 820 12
 1208 00dc BB6A     		ldr	r3, [r7, #40]
 821:ThirdParty/FreeRTOS/stream_buffer.c **** }
 1209              		.loc 1 821 1
 1210 00de 1846     		mov	r0, r3
 1211 00e0 3837     		adds	r7, r7, #56
 1212              	.LCFI40:
 1213              		.cfi_def_cfa_offset 8
 1214 00e2 BD46     		mov	sp, r7
 1215              	.LCFI41:
 1216              		.cfi_def_cfa_register 13
 1217              		@ sp needed
 1218 00e4 80BD     		pop	{r7, pc}
 1219              		.cfi_endproc
 1220              	.LFE12:
 1222              		.section	.text.prvWriteMessageToBuffer,"ax",%progbits
 1223              		.align	1
 1224              		.syntax unified
 1225              		.thumb
ARM GAS  C:\Users\Admin\AppData\Local\Temp\ccKb5mMk.s 			page 41


 1226              		.thumb_func
 1228              	prvWriteMessageToBuffer:
 1229              	.LFB13:
 822:ThirdParty/FreeRTOS/stream_buffer.c **** /*-----------------------------------------------------------*/
 823:ThirdParty/FreeRTOS/stream_buffer.c **** 
 824:ThirdParty/FreeRTOS/stream_buffer.c **** static size_t prvWriteMessageToBuffer( StreamBuffer_t * const pxStreamBuffer,
 825:ThirdParty/FreeRTOS/stream_buffer.c ****                                        const void * pvTxData,
 826:ThirdParty/FreeRTOS/stream_buffer.c ****                                        size_t xDataLengthBytes,
 827:ThirdParty/FreeRTOS/stream_buffer.c ****                                        size_t xSpace,
 828:ThirdParty/FreeRTOS/stream_buffer.c ****                                        size_t xRequiredSpace )
 829:ThirdParty/FreeRTOS/stream_buffer.c **** {
 1230              		.loc 1 829 1
 1231              		.cfi_startproc
 1232              		@ args = 4, pretend = 0, frame = 32
 1233              		@ frame_needed = 1, uses_anonymous_args = 0
 1234 0000 80B5     		push	{r7, lr}
 1235              	.LCFI42:
 1236              		.cfi_def_cfa_offset 8
 1237              		.cfi_offset 7, -8
 1238              		.cfi_offset 14, -4
 1239 0002 88B0     		sub	sp, sp, #32
 1240              	.LCFI43:
 1241              		.cfi_def_cfa_offset 40
 1242 0004 00AF     		add	r7, sp, #0
 1243              	.LCFI44:
 1244              		.cfi_def_cfa_register 7
 1245 0006 F860     		str	r0, [r7, #12]
 1246 0008 B960     		str	r1, [r7, #8]
 1247 000a 7A60     		str	r2, [r7, #4]
 1248 000c 3B60     		str	r3, [r7]
 830:ThirdParty/FreeRTOS/stream_buffer.c ****     size_t xNextHead = pxStreamBuffer->xHead;
 1249              		.loc 1 830 12
 1250 000e FB68     		ldr	r3, [r7, #12]
 1251 0010 5B68     		ldr	r3, [r3, #4]
 1252 0012 FB61     		str	r3, [r7, #28]
 831:ThirdParty/FreeRTOS/stream_buffer.c ****     configMESSAGE_BUFFER_LENGTH_TYPE xMessageLength;
 832:ThirdParty/FreeRTOS/stream_buffer.c **** 
 833:ThirdParty/FreeRTOS/stream_buffer.c ****     if( ( pxStreamBuffer->ucFlags & sbFLAGS_IS_MESSAGE_BUFFER ) != ( uint8_t ) 0 )
 1253              		.loc 1 833 25
 1254 0014 FB68     		ldr	r3, [r7, #12]
 1255 0016 1B7F     		ldrb	r3, [r3, #28]	@ zero_extendqisi2
 1256              		.loc 1 833 35
 1257 0018 03F00103 		and	r3, r3, #1
 1258              		.loc 1 833 7
 1259 001c 002B     		cmp	r3, #0
 1260 001e 20D0     		beq	.L72
 834:ThirdParty/FreeRTOS/stream_buffer.c ****     {
 835:ThirdParty/FreeRTOS/stream_buffer.c ****         /* This is a message buffer, as opposed to a stream buffer. */
 836:ThirdParty/FreeRTOS/stream_buffer.c **** 
 837:ThirdParty/FreeRTOS/stream_buffer.c ****         /* Convert xDataLengthBytes to the message length type. */
 838:ThirdParty/FreeRTOS/stream_buffer.c ****         xMessageLength = ( configMESSAGE_BUFFER_LENGTH_TYPE ) xDataLengthBytes;
 1261              		.loc 1 838 24
 1262 0020 7B68     		ldr	r3, [r7, #4]
 1263 0022 7B61     		str	r3, [r7, #20]
 839:ThirdParty/FreeRTOS/stream_buffer.c **** 
 840:ThirdParty/FreeRTOS/stream_buffer.c ****         /* Ensure the data length given fits within configMESSAGE_BUFFER_LENGTH_TYPE. */
 841:ThirdParty/FreeRTOS/stream_buffer.c ****         configASSERT( ( size_t ) xMessageLength == xDataLengthBytes );
ARM GAS  C:\Users\Admin\AppData\Local\Temp\ccKb5mMk.s 			page 42


 1264              		.loc 1 841 9
 1265 0024 7B69     		ldr	r3, [r7, #20]
 1266 0026 7A68     		ldr	r2, [r7, #4]
 1267 0028 9A42     		cmp	r2, r3
 1268 002a 0AD0     		beq	.L73
 1269              	.LBB120:
 1270              	.LBB121:
 198:ThirdParty/FreeRTOS/portable/GCC/ARM_CM4F/portmacro.h ****         (
 1271              		.loc 2 198 9
 1272              		.syntax unified
 1273              	@ 198 "ThirdParty/FreeRTOS/portable/GCC/ARM_CM4F/portmacro.h" 1
 1274 002c 4FF05003 			mov r3, #80												
 1275 0030 83F31188 		msr basepri, r3											
 1276 0034 BFF36F8F 		isb														
 1277 0038 BFF34F8F 		dsb														
 1278              	
 1279              	@ 0 "" 2
 1280              		.thumb
 1281              		.syntax unified
 1282 003c BB61     		str	r3, [r7, #24]
 206:ThirdParty/FreeRTOS/portable/GCC/ARM_CM4F/portmacro.h **** 
 1283              		.loc 2 206 5
 1284 003e 00BF     		nop
 1285              	.L74:
 1286              	.LBE121:
 1287              	.LBE120:
 1288              		.loc 1 841 9 discriminator 1
 1289 0040 FEE7     		b	.L74
 1290              	.L73:
 842:ThirdParty/FreeRTOS/stream_buffer.c **** 
 843:ThirdParty/FreeRTOS/stream_buffer.c ****         if( xSpace >= xRequiredSpace )
 1291              		.loc 1 843 11
 1292 0042 3A68     		ldr	r2, [r7]
 1293 0044 BB6A     		ldr	r3, [r7, #40]
 1294 0046 9A42     		cmp	r2, r3
 1295 0048 08D3     		bcc	.L75
 844:ThirdParty/FreeRTOS/stream_buffer.c ****         {
 845:ThirdParty/FreeRTOS/stream_buffer.c ****             /* There is enough space to write both the message length and the message
 846:ThirdParty/FreeRTOS/stream_buffer.c ****              * itself into the buffer.  Start by writing the length of the data, the data
 847:ThirdParty/FreeRTOS/stream_buffer.c ****              * itself will be written later in this function. */
 848:ThirdParty/FreeRTOS/stream_buffer.c ****             xNextHead = prvWriteBytesToBuffer( pxStreamBuffer, ( const uint8_t * ) &( xMessageLengt
 1296              		.loc 1 848 25
 1297 004a 07F11401 		add	r1, r7, #20
 1298 004e FB69     		ldr	r3, [r7, #28]
 1299 0050 0422     		movs	r2, #4
 1300 0052 F868     		ldr	r0, [r7, #12]
 1301 0054 FFF7FEFF 		bl	prvWriteBytesToBuffer
 1302 0058 F861     		str	r0, [r7, #28]
 1303 005a 08E0     		b	.L76
 1304              	.L75:
 849:ThirdParty/FreeRTOS/stream_buffer.c ****         }
 850:ThirdParty/FreeRTOS/stream_buffer.c ****         else
 851:ThirdParty/FreeRTOS/stream_buffer.c ****         {
 852:ThirdParty/FreeRTOS/stream_buffer.c ****             /* Not enough space, so do not write data to the buffer. */
 853:ThirdParty/FreeRTOS/stream_buffer.c ****             xDataLengthBytes = 0;
 1305              		.loc 1 853 30
 1306 005c 0023     		movs	r3, #0
ARM GAS  C:\Users\Admin\AppData\Local\Temp\ccKb5mMk.s 			page 43


 1307 005e 7B60     		str	r3, [r7, #4]
 1308 0060 05E0     		b	.L76
 1309              	.L72:
 854:ThirdParty/FreeRTOS/stream_buffer.c ****         }
 855:ThirdParty/FreeRTOS/stream_buffer.c ****     }
 856:ThirdParty/FreeRTOS/stream_buffer.c ****     else
 857:ThirdParty/FreeRTOS/stream_buffer.c ****     {
 858:ThirdParty/FreeRTOS/stream_buffer.c ****         /* This is a stream buffer, as opposed to a message buffer, so writing a
 859:ThirdParty/FreeRTOS/stream_buffer.c ****          * stream of bytes rather than discrete messages.  Plan to write as many
 860:ThirdParty/FreeRTOS/stream_buffer.c ****          * bytes as possible. */
 861:ThirdParty/FreeRTOS/stream_buffer.c ****         xDataLengthBytes = configMIN( xDataLengthBytes, xSpace );
 1310              		.loc 1 861 26
 1311 0062 7A68     		ldr	r2, [r7, #4]
 1312 0064 3B68     		ldr	r3, [r7]
 1313 0066 9342     		cmp	r3, r2
 1314 0068 28BF     		it	cs
 1315 006a 1346     		movcs	r3, r2
 1316 006c 7B60     		str	r3, [r7, #4]
 1317              	.L76:
 862:ThirdParty/FreeRTOS/stream_buffer.c ****     }
 863:ThirdParty/FreeRTOS/stream_buffer.c **** 
 864:ThirdParty/FreeRTOS/stream_buffer.c ****     if( xDataLengthBytes != ( size_t ) 0 )
 1318              		.loc 1 864 7
 1319 006e 7B68     		ldr	r3, [r7, #4]
 1320 0070 002B     		cmp	r3, #0
 1321 0072 08D0     		beq	.L77
 865:ThirdParty/FreeRTOS/stream_buffer.c ****     {
 866:ThirdParty/FreeRTOS/stream_buffer.c ****         /* Write the data to the buffer. */
 867:ThirdParty/FreeRTOS/stream_buffer.c ****         pxStreamBuffer->xHead = prvWriteBytesToBuffer( pxStreamBuffer, ( const uint8_t * ) pvTxData
 1322              		.loc 1 867 33
 1323 0074 FB69     		ldr	r3, [r7, #28]
 1324 0076 7A68     		ldr	r2, [r7, #4]
 1325 0078 B968     		ldr	r1, [r7, #8]
 1326 007a F868     		ldr	r0, [r7, #12]
 1327 007c FFF7FEFF 		bl	prvWriteBytesToBuffer
 1328 0080 0246     		mov	r2, r0
 1329              		.loc 1 867 31
 1330 0082 FB68     		ldr	r3, [r7, #12]
 1331 0084 5A60     		str	r2, [r3, #4]
 1332              	.L77:
 868:ThirdParty/FreeRTOS/stream_buffer.c ****     }
 869:ThirdParty/FreeRTOS/stream_buffer.c **** 
 870:ThirdParty/FreeRTOS/stream_buffer.c ****     return xDataLengthBytes;
 1333              		.loc 1 870 12
 1334 0086 7B68     		ldr	r3, [r7, #4]
 871:ThirdParty/FreeRTOS/stream_buffer.c **** }
 1335              		.loc 1 871 1
 1336 0088 1846     		mov	r0, r3
 1337 008a 2037     		adds	r7, r7, #32
 1338              	.LCFI45:
 1339              		.cfi_def_cfa_offset 8
 1340 008c BD46     		mov	sp, r7
 1341              	.LCFI46:
 1342              		.cfi_def_cfa_register 13
 1343              		@ sp needed
 1344 008e 80BD     		pop	{r7, pc}
 1345              		.cfi_endproc
ARM GAS  C:\Users\Admin\AppData\Local\Temp\ccKb5mMk.s 			page 44


 1346              	.LFE13:
 1348              		.section	.text.xStreamBufferReceive,"ax",%progbits
 1349              		.align	1
 1350              		.global	xStreamBufferReceive
 1351              		.syntax unified
 1352              		.thumb
 1353              		.thumb_func
 1355              	xStreamBufferReceive:
 1356              	.LFB14:
 872:ThirdParty/FreeRTOS/stream_buffer.c **** /*-----------------------------------------------------------*/
 873:ThirdParty/FreeRTOS/stream_buffer.c **** 
 874:ThirdParty/FreeRTOS/stream_buffer.c **** size_t xStreamBufferReceive( StreamBufferHandle_t xStreamBuffer,
 875:ThirdParty/FreeRTOS/stream_buffer.c ****                              void * pvRxData,
 876:ThirdParty/FreeRTOS/stream_buffer.c ****                              size_t xBufferLengthBytes,
 877:ThirdParty/FreeRTOS/stream_buffer.c ****                              TickType_t xTicksToWait )
 878:ThirdParty/FreeRTOS/stream_buffer.c **** {
 1357              		.loc 1 878 1
 1358              		.cfi_startproc
 1359              		@ args = 0, pretend = 0, frame = 48
 1360              		@ frame_needed = 1, uses_anonymous_args = 0
 1361 0000 80B5     		push	{r7, lr}
 1362              	.LCFI47:
 1363              		.cfi_def_cfa_offset 8
 1364              		.cfi_offset 7, -8
 1365              		.cfi_offset 14, -4
 1366 0002 8EB0     		sub	sp, sp, #56
 1367              	.LCFI48:
 1368              		.cfi_def_cfa_offset 64
 1369 0004 02AF     		add	r7, sp, #8
 1370              	.LCFI49:
 1371              		.cfi_def_cfa 7, 56
 1372 0006 F860     		str	r0, [r7, #12]
 1373 0008 B960     		str	r1, [r7, #8]
 1374 000a 7A60     		str	r2, [r7, #4]
 1375 000c 3B60     		str	r3, [r7]
 879:ThirdParty/FreeRTOS/stream_buffer.c ****     StreamBuffer_t * const pxStreamBuffer = xStreamBuffer;
 1376              		.loc 1 879 28
 1377 000e FB68     		ldr	r3, [r7, #12]
 1378 0010 3B62     		str	r3, [r7, #32]
 880:ThirdParty/FreeRTOS/stream_buffer.c ****     size_t xReceivedLength = 0, xBytesAvailable, xBytesToStoreMessageLength;
 1379              		.loc 1 880 12
 1380 0012 0023     		movs	r3, #0
 1381 0014 FB62     		str	r3, [r7, #44]
 881:ThirdParty/FreeRTOS/stream_buffer.c **** 
 882:ThirdParty/FreeRTOS/stream_buffer.c ****     configASSERT( pvRxData );
 1382              		.loc 1 882 5
 1383 0016 BB68     		ldr	r3, [r7, #8]
 1384 0018 002B     		cmp	r3, #0
 1385 001a 0AD1     		bne	.L80
 1386              	.LBB122:
 1387              	.LBB123:
 198:ThirdParty/FreeRTOS/portable/GCC/ARM_CM4F/portmacro.h ****         (
 1388              		.loc 2 198 9
 1389              		.syntax unified
 1390              	@ 198 "ThirdParty/FreeRTOS/portable/GCC/ARM_CM4F/portmacro.h" 1
 1391 001c 4FF05003 			mov r3, #80												
 1392 0020 83F31188 		msr basepri, r3											
ARM GAS  C:\Users\Admin\AppData\Local\Temp\ccKb5mMk.s 			page 45


 1393 0024 BFF36F8F 		isb														
 1394 0028 BFF34F8F 		dsb														
 1395              	
 1396              	@ 0 "" 2
 1397              		.thumb
 1398              		.syntax unified
 1399 002c FB61     		str	r3, [r7, #28]
 206:ThirdParty/FreeRTOS/portable/GCC/ARM_CM4F/portmacro.h **** 
 1400              		.loc 2 206 5
 1401 002e 00BF     		nop
 1402              	.L81:
 1403              	.LBE123:
 1404              	.LBE122:
 1405              		.loc 1 882 5 discriminator 1
 1406 0030 FEE7     		b	.L81
 1407              	.L80:
 883:ThirdParty/FreeRTOS/stream_buffer.c ****     configASSERT( pxStreamBuffer );
 1408              		.loc 1 883 5
 1409 0032 3B6A     		ldr	r3, [r7, #32]
 1410 0034 002B     		cmp	r3, #0
 1411 0036 0AD1     		bne	.L82
 1412              	.LBB124:
 1413              	.LBB125:
 198:ThirdParty/FreeRTOS/portable/GCC/ARM_CM4F/portmacro.h ****         (
 1414              		.loc 2 198 9
 1415              		.syntax unified
 1416              	@ 198 "ThirdParty/FreeRTOS/portable/GCC/ARM_CM4F/portmacro.h" 1
 1417 0038 4FF05003 			mov r3, #80												
 1418 003c 83F31188 		msr basepri, r3											
 1419 0040 BFF36F8F 		isb														
 1420 0044 BFF34F8F 		dsb														
 1421              	
 1422              	@ 0 "" 2
 1423              		.thumb
 1424              		.syntax unified
 1425 0048 BB61     		str	r3, [r7, #24]
 206:ThirdParty/FreeRTOS/portable/GCC/ARM_CM4F/portmacro.h **** 
 1426              		.loc 2 206 5
 1427 004a 00BF     		nop
 1428              	.L83:
 1429              	.LBE125:
 1430              	.LBE124:
 1431              		.loc 1 883 5 discriminator 2
 1432 004c FEE7     		b	.L83
 1433              	.L82:
 884:ThirdParty/FreeRTOS/stream_buffer.c **** 
 885:ThirdParty/FreeRTOS/stream_buffer.c ****     /* This receive function is used by both message buffers, which store
 886:ThirdParty/FreeRTOS/stream_buffer.c ****      * discrete messages, and stream buffers, which store a continuous stream of
 887:ThirdParty/FreeRTOS/stream_buffer.c ****      * bytes.  Discrete messages include an additional
 888:ThirdParty/FreeRTOS/stream_buffer.c ****      * sbBYTES_TO_STORE_MESSAGE_LENGTH bytes that hold the length of the
 889:ThirdParty/FreeRTOS/stream_buffer.c ****      * message. */
 890:ThirdParty/FreeRTOS/stream_buffer.c ****     if( ( pxStreamBuffer->ucFlags & sbFLAGS_IS_MESSAGE_BUFFER ) != ( uint8_t ) 0 )
 1434              		.loc 1 890 25
 1435 004e 3B6A     		ldr	r3, [r7, #32]
 1436 0050 1B7F     		ldrb	r3, [r3, #28]	@ zero_extendqisi2
 1437              		.loc 1 890 35
 1438 0052 03F00103 		and	r3, r3, #1
ARM GAS  C:\Users\Admin\AppData\Local\Temp\ccKb5mMk.s 			page 46


 1439              		.loc 1 890 7
 1440 0056 002B     		cmp	r3, #0
 1441 0058 02D0     		beq	.L84
 891:ThirdParty/FreeRTOS/stream_buffer.c ****     {
 892:ThirdParty/FreeRTOS/stream_buffer.c ****         xBytesToStoreMessageLength = sbBYTES_TO_STORE_MESSAGE_LENGTH;
 1442              		.loc 1 892 36
 1443 005a 0423     		movs	r3, #4
 1444 005c 7B62     		str	r3, [r7, #36]
 1445 005e 01E0     		b	.L85
 1446              	.L84:
 893:ThirdParty/FreeRTOS/stream_buffer.c ****     }
 894:ThirdParty/FreeRTOS/stream_buffer.c ****     else
 895:ThirdParty/FreeRTOS/stream_buffer.c ****     {
 896:ThirdParty/FreeRTOS/stream_buffer.c ****         xBytesToStoreMessageLength = 0;
 1447              		.loc 1 896 36
 1448 0060 0023     		movs	r3, #0
 1449 0062 7B62     		str	r3, [r7, #36]
 1450              	.L85:
 897:ThirdParty/FreeRTOS/stream_buffer.c ****     }
 898:ThirdParty/FreeRTOS/stream_buffer.c **** 
 899:ThirdParty/FreeRTOS/stream_buffer.c ****     if( xTicksToWait != ( TickType_t ) 0 )
 1451              		.loc 1 899 7
 1452 0064 3B68     		ldr	r3, [r7]
 1453 0066 002B     		cmp	r3, #0
 1454 0068 37D0     		beq	.L86
 900:ThirdParty/FreeRTOS/stream_buffer.c ****     {
 901:ThirdParty/FreeRTOS/stream_buffer.c ****         /* Checking if there is data and clearing the notification state must be
 902:ThirdParty/FreeRTOS/stream_buffer.c ****          * performed atomically. */
 903:ThirdParty/FreeRTOS/stream_buffer.c ****         taskENTER_CRITICAL();
 1455              		.loc 1 903 9
 1456 006a FFF7FEFF 		bl	vPortEnterCritical
 904:ThirdParty/FreeRTOS/stream_buffer.c ****         {
 905:ThirdParty/FreeRTOS/stream_buffer.c ****             xBytesAvailable = prvBytesInBuffer( pxStreamBuffer );
 1457              		.loc 1 905 31
 1458 006e 386A     		ldr	r0, [r7, #32]
 1459 0070 FFF7FEFF 		bl	prvBytesInBuffer
 1460 0074 B862     		str	r0, [r7, #40]
 906:ThirdParty/FreeRTOS/stream_buffer.c **** 
 907:ThirdParty/FreeRTOS/stream_buffer.c ****             /* If this function was invoked by a message buffer read then
 908:ThirdParty/FreeRTOS/stream_buffer.c ****              * xBytesToStoreMessageLength holds the number of bytes used to hold
 909:ThirdParty/FreeRTOS/stream_buffer.c ****              * the length of the next discrete message.  If this function was
 910:ThirdParty/FreeRTOS/stream_buffer.c ****              * invoked by a stream buffer read then xBytesToStoreMessageLength will
 911:ThirdParty/FreeRTOS/stream_buffer.c ****              * be 0. */
 912:ThirdParty/FreeRTOS/stream_buffer.c ****             if( xBytesAvailable <= xBytesToStoreMessageLength )
 1461              		.loc 1 912 15
 1462 0076 BA6A     		ldr	r2, [r7, #40]
 1463 0078 7B6A     		ldr	r3, [r7, #36]
 1464 007a 9A42     		cmp	r2, r3
 1465 007c 17D8     		bhi	.L87
 913:ThirdParty/FreeRTOS/stream_buffer.c ****             {
 914:ThirdParty/FreeRTOS/stream_buffer.c ****                 /* Clear notification state as going to wait for data. */
 915:ThirdParty/FreeRTOS/stream_buffer.c ****                 ( void ) xTaskNotifyStateClear( NULL );
 1466              		.loc 1 915 26
 1467 007e 0021     		movs	r1, #0
 1468 0080 0020     		movs	r0, #0
 1469 0082 FFF7FEFF 		bl	xTaskGenericNotifyStateClear
 916:ThirdParty/FreeRTOS/stream_buffer.c **** 
ARM GAS  C:\Users\Admin\AppData\Local\Temp\ccKb5mMk.s 			page 47


 917:ThirdParty/FreeRTOS/stream_buffer.c ****                 /* Should only be one reader. */
 918:ThirdParty/FreeRTOS/stream_buffer.c ****                 configASSERT( pxStreamBuffer->xTaskWaitingToReceive == NULL );
 1470              		.loc 1 918 17
 1471 0086 3B6A     		ldr	r3, [r7, #32]
 1472 0088 1B69     		ldr	r3, [r3, #16]
 1473 008a 002B     		cmp	r3, #0
 1474 008c 0AD0     		beq	.L88
 1475              	.LBB126:
 1476              	.LBB127:
 198:ThirdParty/FreeRTOS/portable/GCC/ARM_CM4F/portmacro.h ****         (
 1477              		.loc 2 198 9
 1478              		.syntax unified
 1479              	@ 198 "ThirdParty/FreeRTOS/portable/GCC/ARM_CM4F/portmacro.h" 1
 1480 008e 4FF05003 			mov r3, #80												
 1481 0092 83F31188 		msr basepri, r3											
 1482 0096 BFF36F8F 		isb														
 1483 009a BFF34F8F 		dsb														
 1484              	
 1485              	@ 0 "" 2
 1486              		.thumb
 1487              		.syntax unified
 1488 009e 7B61     		str	r3, [r7, #20]
 206:ThirdParty/FreeRTOS/portable/GCC/ARM_CM4F/portmacro.h **** 
 1489              		.loc 2 206 5
 1490 00a0 00BF     		nop
 1491              	.L89:
 1492              	.LBE127:
 1493              	.LBE126:
 1494              		.loc 1 918 17 discriminator 3
 1495 00a2 FEE7     		b	.L89
 1496              	.L88:
 919:ThirdParty/FreeRTOS/stream_buffer.c ****                 pxStreamBuffer->xTaskWaitingToReceive = xTaskGetCurrentTaskHandle();
 1497              		.loc 1 919 57
 1498 00a4 FFF7FEFF 		bl	xTaskGetCurrentTaskHandle
 1499 00a8 0246     		mov	r2, r0
 1500              		.loc 1 919 55
 1501 00aa 3B6A     		ldr	r3, [r7, #32]
 1502 00ac 1A61     		str	r2, [r3, #16]
 1503              	.L87:
 920:ThirdParty/FreeRTOS/stream_buffer.c ****             }
 921:ThirdParty/FreeRTOS/stream_buffer.c ****             else
 922:ThirdParty/FreeRTOS/stream_buffer.c ****             {
 923:ThirdParty/FreeRTOS/stream_buffer.c ****                 mtCOVERAGE_TEST_MARKER();
 924:ThirdParty/FreeRTOS/stream_buffer.c ****             }
 925:ThirdParty/FreeRTOS/stream_buffer.c ****         }
 926:ThirdParty/FreeRTOS/stream_buffer.c ****         taskEXIT_CRITICAL();
 1504              		.loc 1 926 9
 1505 00ae FFF7FEFF 		bl	vPortExitCritical
 927:ThirdParty/FreeRTOS/stream_buffer.c **** 
 928:ThirdParty/FreeRTOS/stream_buffer.c ****         if( xBytesAvailable <= xBytesToStoreMessageLength )
 1506              		.loc 1 928 11
 1507 00b2 BA6A     		ldr	r2, [r7, #40]
 1508 00b4 7B6A     		ldr	r3, [r7, #36]
 1509 00b6 9A42     		cmp	r2, r3
 1510 00b8 13D8     		bhi	.L90
 929:ThirdParty/FreeRTOS/stream_buffer.c ****         {
 930:ThirdParty/FreeRTOS/stream_buffer.c ****             /* Wait for data to be available. */
ARM GAS  C:\Users\Admin\AppData\Local\Temp\ccKb5mMk.s 			page 48


 931:ThirdParty/FreeRTOS/stream_buffer.c ****             traceBLOCKING_ON_STREAM_BUFFER_RECEIVE( xStreamBuffer );
 932:ThirdParty/FreeRTOS/stream_buffer.c ****             ( void ) xTaskNotifyWait( ( uint32_t ) 0, ( uint32_t ) 0, NULL, xTicksToWait );
 1511              		.loc 1 932 22
 1512 00ba 3B68     		ldr	r3, [r7]
 1513 00bc 0093     		str	r3, [sp]
 1514 00be 0023     		movs	r3, #0
 1515 00c0 0022     		movs	r2, #0
 1516 00c2 0021     		movs	r1, #0
 1517 00c4 0020     		movs	r0, #0
 1518 00c6 FFF7FEFF 		bl	xTaskGenericNotifyWait
 933:ThirdParty/FreeRTOS/stream_buffer.c ****             pxStreamBuffer->xTaskWaitingToReceive = NULL;
 1519              		.loc 1 933 51
 1520 00ca 3B6A     		ldr	r3, [r7, #32]
 1521 00cc 0022     		movs	r2, #0
 1522 00ce 1A61     		str	r2, [r3, #16]
 934:ThirdParty/FreeRTOS/stream_buffer.c **** 
 935:ThirdParty/FreeRTOS/stream_buffer.c ****             /* Recheck the data available after blocking. */
 936:ThirdParty/FreeRTOS/stream_buffer.c ****             xBytesAvailable = prvBytesInBuffer( pxStreamBuffer );
 1523              		.loc 1 936 31
 1524 00d0 386A     		ldr	r0, [r7, #32]
 1525 00d2 FFF7FEFF 		bl	prvBytesInBuffer
 1526 00d6 B862     		str	r0, [r7, #40]
 1527 00d8 03E0     		b	.L90
 1528              	.L86:
 937:ThirdParty/FreeRTOS/stream_buffer.c ****         }
 938:ThirdParty/FreeRTOS/stream_buffer.c ****         else
 939:ThirdParty/FreeRTOS/stream_buffer.c ****         {
 940:ThirdParty/FreeRTOS/stream_buffer.c ****             mtCOVERAGE_TEST_MARKER();
 941:ThirdParty/FreeRTOS/stream_buffer.c ****         }
 942:ThirdParty/FreeRTOS/stream_buffer.c ****     }
 943:ThirdParty/FreeRTOS/stream_buffer.c ****     else
 944:ThirdParty/FreeRTOS/stream_buffer.c ****     {
 945:ThirdParty/FreeRTOS/stream_buffer.c ****         xBytesAvailable = prvBytesInBuffer( pxStreamBuffer );
 1529              		.loc 1 945 27
 1530 00da 386A     		ldr	r0, [r7, #32]
 1531 00dc FFF7FEFF 		bl	prvBytesInBuffer
 1532 00e0 B862     		str	r0, [r7, #40]
 1533              	.L90:
 946:ThirdParty/FreeRTOS/stream_buffer.c ****     }
 947:ThirdParty/FreeRTOS/stream_buffer.c **** 
 948:ThirdParty/FreeRTOS/stream_buffer.c ****     /* Whether receiving a discrete message (where xBytesToStoreMessageLength
 949:ThirdParty/FreeRTOS/stream_buffer.c ****      * holds the number of bytes used to store the message length) or a stream of
 950:ThirdParty/FreeRTOS/stream_buffer.c ****      * bytes (where xBytesToStoreMessageLength is zero), the number of bytes
 951:ThirdParty/FreeRTOS/stream_buffer.c ****      * available must be greater than xBytesToStoreMessageLength to be able to
 952:ThirdParty/FreeRTOS/stream_buffer.c ****      * read bytes from the buffer. */
 953:ThirdParty/FreeRTOS/stream_buffer.c ****     if( xBytesAvailable > xBytesToStoreMessageLength )
 1534              		.loc 1 953 7
 1535 00e2 BA6A     		ldr	r2, [r7, #40]
 1536 00e4 7B6A     		ldr	r3, [r7, #36]
 1537 00e6 9A42     		cmp	r2, r3
 1538 00e8 1DD9     		bls	.L91
 954:ThirdParty/FreeRTOS/stream_buffer.c ****     {
 955:ThirdParty/FreeRTOS/stream_buffer.c ****         xReceivedLength = prvReadMessageFromBuffer( pxStreamBuffer, pvRxData, xBufferLengthBytes, x
 1539              		.loc 1 955 27
 1540 00ea BB6A     		ldr	r3, [r7, #40]
 1541 00ec 7A68     		ldr	r2, [r7, #4]
 1542 00ee B968     		ldr	r1, [r7, #8]
ARM GAS  C:\Users\Admin\AppData\Local\Temp\ccKb5mMk.s 			page 49


 1543 00f0 386A     		ldr	r0, [r7, #32]
 1544 00f2 FFF7FEFF 		bl	prvReadMessageFromBuffer
 1545 00f6 F862     		str	r0, [r7, #44]
 956:ThirdParty/FreeRTOS/stream_buffer.c **** 
 957:ThirdParty/FreeRTOS/stream_buffer.c ****         /* Was a task waiting for space in the buffer? */
 958:ThirdParty/FreeRTOS/stream_buffer.c ****         if( xReceivedLength != ( size_t ) 0 )
 1546              		.loc 1 958 11
 1547 00f8 FB6A     		ldr	r3, [r7, #44]
 1548 00fa 002B     		cmp	r3, #0
 1549 00fc 13D0     		beq	.L91
 959:ThirdParty/FreeRTOS/stream_buffer.c ****         {
 960:ThirdParty/FreeRTOS/stream_buffer.c ****             traceSTREAM_BUFFER_RECEIVE( xStreamBuffer, xReceivedLength );
 961:ThirdParty/FreeRTOS/stream_buffer.c ****             prvRECEIVE_COMPLETED( xStreamBuffer );
 1550              		.loc 1 961 13
 1551 00fe FFF7FEFF 		bl	vTaskSuspendAll
 1552 0102 FB68     		ldr	r3, [r7, #12]
 1553 0104 5B69     		ldr	r3, [r3, #20]
 1554 0106 002B     		cmp	r3, #0
 1555 0108 0BD0     		beq	.L92
 1556              		.loc 1 961 13 is_stmt 0 discriminator 1
 1557 010a FB68     		ldr	r3, [r7, #12]
 1558 010c 5869     		ldr	r0, [r3, #20]
 1559 010e 0023     		movs	r3, #0
 1560 0110 0093     		str	r3, [sp]
 1561 0112 0023     		movs	r3, #0
 1562 0114 0022     		movs	r2, #0
 1563 0116 0021     		movs	r1, #0
 1564 0118 FFF7FEFF 		bl	xTaskGenericNotify
 1565 011c FB68     		ldr	r3, [r7, #12]
 1566 011e 0022     		movs	r2, #0
 1567 0120 5A61     		str	r2, [r3, #20]
 1568              	.L92:
 1569              		.loc 1 961 13 discriminator 3
 1570 0122 FFF7FEFF 		bl	xTaskResumeAll
 1571              	.L91:
 962:ThirdParty/FreeRTOS/stream_buffer.c ****         }
 963:ThirdParty/FreeRTOS/stream_buffer.c ****         else
 964:ThirdParty/FreeRTOS/stream_buffer.c ****         {
 965:ThirdParty/FreeRTOS/stream_buffer.c ****             mtCOVERAGE_TEST_MARKER();
 966:ThirdParty/FreeRTOS/stream_buffer.c ****         }
 967:ThirdParty/FreeRTOS/stream_buffer.c ****     }
 968:ThirdParty/FreeRTOS/stream_buffer.c ****     else
 969:ThirdParty/FreeRTOS/stream_buffer.c ****     {
 970:ThirdParty/FreeRTOS/stream_buffer.c ****         traceSTREAM_BUFFER_RECEIVE_FAILED( xStreamBuffer );
 971:ThirdParty/FreeRTOS/stream_buffer.c ****         mtCOVERAGE_TEST_MARKER();
 972:ThirdParty/FreeRTOS/stream_buffer.c ****     }
 973:ThirdParty/FreeRTOS/stream_buffer.c **** 
 974:ThirdParty/FreeRTOS/stream_buffer.c ****     return xReceivedLength;
 1572              		.loc 1 974 12 is_stmt 1
 1573 0126 FB6A     		ldr	r3, [r7, #44]
 975:ThirdParty/FreeRTOS/stream_buffer.c **** }
 1574              		.loc 1 975 1
 1575 0128 1846     		mov	r0, r3
 1576 012a 3037     		adds	r7, r7, #48
 1577              	.LCFI50:
 1578              		.cfi_def_cfa_offset 8
 1579 012c BD46     		mov	sp, r7
ARM GAS  C:\Users\Admin\AppData\Local\Temp\ccKb5mMk.s 			page 50


 1580              	.LCFI51:
 1581              		.cfi_def_cfa_register 13
 1582              		@ sp needed
 1583 012e 80BD     		pop	{r7, pc}
 1584              		.cfi_endproc
 1585              	.LFE14:
 1587              		.section	.text.xStreamBufferNextMessageLengthBytes,"ax",%progbits
 1588              		.align	1
 1589              		.global	xStreamBufferNextMessageLengthBytes
 1590              		.syntax unified
 1591              		.thumb
 1592              		.thumb_func
 1594              	xStreamBufferNextMessageLengthBytes:
 1595              	.LFB15:
 976:ThirdParty/FreeRTOS/stream_buffer.c **** /*-----------------------------------------------------------*/
 977:ThirdParty/FreeRTOS/stream_buffer.c **** 
 978:ThirdParty/FreeRTOS/stream_buffer.c **** size_t xStreamBufferNextMessageLengthBytes( StreamBufferHandle_t xStreamBuffer )
 979:ThirdParty/FreeRTOS/stream_buffer.c **** {
 1596              		.loc 1 979 1
 1597              		.cfi_startproc
 1598              		@ args = 0, pretend = 0, frame = 32
 1599              		@ frame_needed = 1, uses_anonymous_args = 0
 1600 0000 80B5     		push	{r7, lr}
 1601              	.LCFI52:
 1602              		.cfi_def_cfa_offset 8
 1603              		.cfi_offset 7, -8
 1604              		.cfi_offset 14, -4
 1605 0002 88B0     		sub	sp, sp, #32
 1606              	.LCFI53:
 1607              		.cfi_def_cfa_offset 40
 1608 0004 00AF     		add	r7, sp, #0
 1609              	.LCFI54:
 1610              		.cfi_def_cfa_register 7
 1611 0006 7860     		str	r0, [r7, #4]
 980:ThirdParty/FreeRTOS/stream_buffer.c ****     StreamBuffer_t * const pxStreamBuffer = xStreamBuffer;
 1612              		.loc 1 980 28
 1613 0008 7B68     		ldr	r3, [r7, #4]
 1614 000a BB61     		str	r3, [r7, #24]
 981:ThirdParty/FreeRTOS/stream_buffer.c ****     size_t xReturn, xBytesAvailable;
 982:ThirdParty/FreeRTOS/stream_buffer.c ****     configMESSAGE_BUFFER_LENGTH_TYPE xTempReturn;
 983:ThirdParty/FreeRTOS/stream_buffer.c **** 
 984:ThirdParty/FreeRTOS/stream_buffer.c ****     configASSERT( pxStreamBuffer );
 1615              		.loc 1 984 5
 1616 000c BB69     		ldr	r3, [r7, #24]
 1617 000e 002B     		cmp	r3, #0
 1618 0010 0AD1     		bne	.L95
 1619              	.LBB128:
 1620              	.LBB129:
 198:ThirdParty/FreeRTOS/portable/GCC/ARM_CM4F/portmacro.h ****         (
 1621              		.loc 2 198 9
 1622              		.syntax unified
 1623              	@ 198 "ThirdParty/FreeRTOS/portable/GCC/ARM_CM4F/portmacro.h" 1
 1624 0012 4FF05003 			mov r3, #80												
 1625 0016 83F31188 		msr basepri, r3											
 1626 001a BFF36F8F 		isb														
 1627 001e BFF34F8F 		dsb														
 1628              	
ARM GAS  C:\Users\Admin\AppData\Local\Temp\ccKb5mMk.s 			page 51


 1629              	@ 0 "" 2
 1630              		.thumb
 1631              		.syntax unified
 1632 0022 3B61     		str	r3, [r7, #16]
 206:ThirdParty/FreeRTOS/portable/GCC/ARM_CM4F/portmacro.h **** 
 1633              		.loc 2 206 5
 1634 0024 00BF     		nop
 1635              	.L96:
 1636              	.LBE129:
 1637              	.LBE128:
 1638              		.loc 1 984 5 discriminator 1
 1639 0026 FEE7     		b	.L96
 1640              	.L95:
 985:ThirdParty/FreeRTOS/stream_buffer.c **** 
 986:ThirdParty/FreeRTOS/stream_buffer.c ****     /* Ensure the stream buffer is being used as a message buffer. */
 987:ThirdParty/FreeRTOS/stream_buffer.c ****     if( ( pxStreamBuffer->ucFlags & sbFLAGS_IS_MESSAGE_BUFFER ) != ( uint8_t ) 0 )
 1641              		.loc 1 987 25
 1642 0028 BB69     		ldr	r3, [r7, #24]
 1643 002a 1B7F     		ldrb	r3, [r3, #28]	@ zero_extendqisi2
 1644              		.loc 1 987 35
 1645 002c 03F00103 		and	r3, r3, #1
 1646              		.loc 1 987 7
 1647 0030 002B     		cmp	r3, #0
 1648 0032 22D0     		beq	.L97
 988:ThirdParty/FreeRTOS/stream_buffer.c ****     {
 989:ThirdParty/FreeRTOS/stream_buffer.c ****         xBytesAvailable = prvBytesInBuffer( pxStreamBuffer );
 1649              		.loc 1 989 27
 1650 0034 B869     		ldr	r0, [r7, #24]
 1651 0036 FFF7FEFF 		bl	prvBytesInBuffer
 1652 003a 7861     		str	r0, [r7, #20]
 990:ThirdParty/FreeRTOS/stream_buffer.c **** 
 991:ThirdParty/FreeRTOS/stream_buffer.c ****         if( xBytesAvailable > sbBYTES_TO_STORE_MESSAGE_LENGTH )
 1653              		.loc 1 991 11
 1654 003c 7B69     		ldr	r3, [r7, #20]
 1655 003e 042B     		cmp	r3, #4
 1656 0040 0AD9     		bls	.L98
 992:ThirdParty/FreeRTOS/stream_buffer.c ****         {
 993:ThirdParty/FreeRTOS/stream_buffer.c ****             /* The number of bytes available is greater than the number of bytes
 994:ThirdParty/FreeRTOS/stream_buffer.c ****              * required to hold the length of the next message, so another message
 995:ThirdParty/FreeRTOS/stream_buffer.c ****              * is available. */
 996:ThirdParty/FreeRTOS/stream_buffer.c ****             ( void ) prvReadBytesFromBuffer( pxStreamBuffer, ( uint8_t * ) &xTempReturn, sbBYTES_TO
 1657              		.loc 1 996 22
 1658 0042 BB69     		ldr	r3, [r7, #24]
 1659 0044 1B68     		ldr	r3, [r3]
 1660 0046 07F10801 		add	r1, r7, #8
 1661 004a 0422     		movs	r2, #4
 1662 004c B869     		ldr	r0, [r7, #24]
 1663 004e FFF7FEFF 		bl	prvReadBytesFromBuffer
 997:ThirdParty/FreeRTOS/stream_buffer.c ****             xReturn = ( size_t ) xTempReturn;
 1664              		.loc 1 997 21
 1665 0052 BB68     		ldr	r3, [r7, #8]
 1666 0054 FB61     		str	r3, [r7, #28]
 1667 0056 12E0     		b	.L99
 1668              	.L98:
 998:ThirdParty/FreeRTOS/stream_buffer.c ****         }
 999:ThirdParty/FreeRTOS/stream_buffer.c ****         else
1000:ThirdParty/FreeRTOS/stream_buffer.c ****         {
ARM GAS  C:\Users\Admin\AppData\Local\Temp\ccKb5mMk.s 			page 52


1001:ThirdParty/FreeRTOS/stream_buffer.c ****             /* The minimum amount of bytes in a message buffer is
1002:ThirdParty/FreeRTOS/stream_buffer.c ****              * ( sbBYTES_TO_STORE_MESSAGE_LENGTH + 1 ), so if xBytesAvailable is
1003:ThirdParty/FreeRTOS/stream_buffer.c ****              * less than sbBYTES_TO_STORE_MESSAGE_LENGTH the only other valid
1004:ThirdParty/FreeRTOS/stream_buffer.c ****              * value is 0. */
1005:ThirdParty/FreeRTOS/stream_buffer.c ****             configASSERT( xBytesAvailable == 0 );
 1669              		.loc 1 1005 13
 1670 0058 7B69     		ldr	r3, [r7, #20]
 1671 005a 002B     		cmp	r3, #0
 1672 005c 0AD0     		beq	.L100
 1673              	.LBB130:
 1674              	.LBB131:
 198:ThirdParty/FreeRTOS/portable/GCC/ARM_CM4F/portmacro.h ****         (
 1675              		.loc 2 198 9
 1676              		.syntax unified
 1677              	@ 198 "ThirdParty/FreeRTOS/portable/GCC/ARM_CM4F/portmacro.h" 1
 1678 005e 4FF05003 			mov r3, #80												
 1679 0062 83F31188 		msr basepri, r3											
 1680 0066 BFF36F8F 		isb														
 1681 006a BFF34F8F 		dsb														
 1682              	
 1683              	@ 0 "" 2
 1684              		.thumb
 1685              		.syntax unified
 1686 006e FB60     		str	r3, [r7, #12]
 206:ThirdParty/FreeRTOS/portable/GCC/ARM_CM4F/portmacro.h **** 
 1687              		.loc 2 206 5
 1688 0070 00BF     		nop
 1689              	.L101:
 1690              	.LBE131:
 1691              	.LBE130:
 1692              		.loc 1 1005 13 discriminator 2
 1693 0072 FEE7     		b	.L101
 1694              	.L100:
1006:ThirdParty/FreeRTOS/stream_buffer.c ****             xReturn = 0;
 1695              		.loc 1 1006 21
 1696 0074 0023     		movs	r3, #0
 1697 0076 FB61     		str	r3, [r7, #28]
 1698 0078 01E0     		b	.L99
 1699              	.L97:
1007:ThirdParty/FreeRTOS/stream_buffer.c ****         }
1008:ThirdParty/FreeRTOS/stream_buffer.c ****     }
1009:ThirdParty/FreeRTOS/stream_buffer.c ****     else
1010:ThirdParty/FreeRTOS/stream_buffer.c ****     {
1011:ThirdParty/FreeRTOS/stream_buffer.c ****         xReturn = 0;
 1700              		.loc 1 1011 17
 1701 007a 0023     		movs	r3, #0
 1702 007c FB61     		str	r3, [r7, #28]
 1703              	.L99:
1012:ThirdParty/FreeRTOS/stream_buffer.c ****     }
1013:ThirdParty/FreeRTOS/stream_buffer.c **** 
1014:ThirdParty/FreeRTOS/stream_buffer.c ****     return xReturn;
 1704              		.loc 1 1014 12
 1705 007e FB69     		ldr	r3, [r7, #28]
1015:ThirdParty/FreeRTOS/stream_buffer.c **** }
 1706              		.loc 1 1015 1
 1707 0080 1846     		mov	r0, r3
 1708 0082 2037     		adds	r7, r7, #32
ARM GAS  C:\Users\Admin\AppData\Local\Temp\ccKb5mMk.s 			page 53


 1709              	.LCFI55:
 1710              		.cfi_def_cfa_offset 8
 1711 0084 BD46     		mov	sp, r7
 1712              	.LCFI56:
 1713              		.cfi_def_cfa_register 13
 1714              		@ sp needed
 1715 0086 80BD     		pop	{r7, pc}
 1716              		.cfi_endproc
 1717              	.LFE15:
 1719              		.section	.text.xStreamBufferReceiveFromISR,"ax",%progbits
 1720              		.align	1
 1721              		.global	xStreamBufferReceiveFromISR
 1722              		.syntax unified
 1723              		.thumb
 1724              		.thumb_func
 1726              	xStreamBufferReceiveFromISR:
 1727              	.LFB16:
1016:ThirdParty/FreeRTOS/stream_buffer.c **** /*-----------------------------------------------------------*/
1017:ThirdParty/FreeRTOS/stream_buffer.c **** 
1018:ThirdParty/FreeRTOS/stream_buffer.c **** size_t xStreamBufferReceiveFromISR( StreamBufferHandle_t xStreamBuffer,
1019:ThirdParty/FreeRTOS/stream_buffer.c ****                                     void * pvRxData,
1020:ThirdParty/FreeRTOS/stream_buffer.c ****                                     size_t xBufferLengthBytes,
1021:ThirdParty/FreeRTOS/stream_buffer.c ****                                     BaseType_t * const pxHigherPriorityTaskWoken )
1022:ThirdParty/FreeRTOS/stream_buffer.c **** {
 1728              		.loc 1 1022 1
 1729              		.cfi_startproc
 1730              		@ args = 0, pretend = 0, frame = 56
 1731              		@ frame_needed = 1, uses_anonymous_args = 0
 1732 0000 80B5     		push	{r7, lr}
 1733              	.LCFI57:
 1734              		.cfi_def_cfa_offset 8
 1735              		.cfi_offset 7, -8
 1736              		.cfi_offset 14, -4
 1737 0002 90B0     		sub	sp, sp, #64
 1738              	.LCFI58:
 1739              		.cfi_def_cfa_offset 72
 1740 0004 02AF     		add	r7, sp, #8
 1741              	.LCFI59:
 1742              		.cfi_def_cfa 7, 64
 1743 0006 F860     		str	r0, [r7, #12]
 1744 0008 B960     		str	r1, [r7, #8]
 1745 000a 7A60     		str	r2, [r7, #4]
 1746 000c 3B60     		str	r3, [r7]
1023:ThirdParty/FreeRTOS/stream_buffer.c ****     StreamBuffer_t * const pxStreamBuffer = xStreamBuffer;
 1747              		.loc 1 1023 28
 1748 000e FB68     		ldr	r3, [r7, #12]
 1749 0010 FB62     		str	r3, [r7, #44]
1024:ThirdParty/FreeRTOS/stream_buffer.c ****     size_t xReceivedLength = 0, xBytesAvailable, xBytesToStoreMessageLength;
 1750              		.loc 1 1024 12
 1751 0012 0023     		movs	r3, #0
 1752 0014 7B63     		str	r3, [r7, #52]
1025:ThirdParty/FreeRTOS/stream_buffer.c **** 
1026:ThirdParty/FreeRTOS/stream_buffer.c ****     configASSERT( pvRxData );
 1753              		.loc 1 1026 5
 1754 0016 BB68     		ldr	r3, [r7, #8]
 1755 0018 002B     		cmp	r3, #0
 1756 001a 0AD1     		bne	.L104
ARM GAS  C:\Users\Admin\AppData\Local\Temp\ccKb5mMk.s 			page 54


 1757              	.LBB132:
 1758              	.LBB133:
 198:ThirdParty/FreeRTOS/portable/GCC/ARM_CM4F/portmacro.h ****         (
 1759              		.loc 2 198 9
 1760              		.syntax unified
 1761              	@ 198 "ThirdParty/FreeRTOS/portable/GCC/ARM_CM4F/portmacro.h" 1
 1762 001c 4FF05003 			mov r3, #80												
 1763 0020 83F31188 		msr basepri, r3											
 1764 0024 BFF36F8F 		isb														
 1765 0028 BFF34F8F 		dsb														
 1766              	
 1767              	@ 0 "" 2
 1768              		.thumb
 1769              		.syntax unified
 1770 002c 3B62     		str	r3, [r7, #32]
 206:ThirdParty/FreeRTOS/portable/GCC/ARM_CM4F/portmacro.h **** 
 1771              		.loc 2 206 5
 1772 002e 00BF     		nop
 1773              	.L105:
 1774              	.LBE133:
 1775              	.LBE132:
 1776              		.loc 1 1026 5 discriminator 1
 1777 0030 FEE7     		b	.L105
 1778              	.L104:
1027:ThirdParty/FreeRTOS/stream_buffer.c ****     configASSERT( pxStreamBuffer );
 1779              		.loc 1 1027 5
 1780 0032 FB6A     		ldr	r3, [r7, #44]
 1781 0034 002B     		cmp	r3, #0
 1782 0036 0AD1     		bne	.L106
 1783              	.LBB134:
 1784              	.LBB135:
 198:ThirdParty/FreeRTOS/portable/GCC/ARM_CM4F/portmacro.h ****         (
 1785              		.loc 2 198 9
 1786              		.syntax unified
 1787              	@ 198 "ThirdParty/FreeRTOS/portable/GCC/ARM_CM4F/portmacro.h" 1
 1788 0038 4FF05003 			mov r3, #80												
 1789 003c 83F31188 		msr basepri, r3											
 1790 0040 BFF36F8F 		isb														
 1791 0044 BFF34F8F 		dsb														
 1792              	
 1793              	@ 0 "" 2
 1794              		.thumb
 1795              		.syntax unified
 1796 0048 FB61     		str	r3, [r7, #28]
 206:ThirdParty/FreeRTOS/portable/GCC/ARM_CM4F/portmacro.h **** 
 1797              		.loc 2 206 5
 1798 004a 00BF     		nop
 1799              	.L107:
 1800              	.LBE135:
 1801              	.LBE134:
 1802              		.loc 1 1027 5 discriminator 2
 1803 004c FEE7     		b	.L107
 1804              	.L106:
1028:ThirdParty/FreeRTOS/stream_buffer.c **** 
1029:ThirdParty/FreeRTOS/stream_buffer.c ****     /* This receive function is used by both message buffers, which store
1030:ThirdParty/FreeRTOS/stream_buffer.c ****      * discrete messages, and stream buffers, which store a continuous stream of
1031:ThirdParty/FreeRTOS/stream_buffer.c ****      * bytes.  Discrete messages include an additional
ARM GAS  C:\Users\Admin\AppData\Local\Temp\ccKb5mMk.s 			page 55


1032:ThirdParty/FreeRTOS/stream_buffer.c ****      * sbBYTES_TO_STORE_MESSAGE_LENGTH bytes that hold the length of the
1033:ThirdParty/FreeRTOS/stream_buffer.c ****      * message. */
1034:ThirdParty/FreeRTOS/stream_buffer.c ****     if( ( pxStreamBuffer->ucFlags & sbFLAGS_IS_MESSAGE_BUFFER ) != ( uint8_t ) 0 )
 1805              		.loc 1 1034 25
 1806 004e FB6A     		ldr	r3, [r7, #44]
 1807 0050 1B7F     		ldrb	r3, [r3, #28]	@ zero_extendqisi2
 1808              		.loc 1 1034 35
 1809 0052 03F00103 		and	r3, r3, #1
 1810              		.loc 1 1034 7
 1811 0056 002B     		cmp	r3, #0
 1812 0058 02D0     		beq	.L108
1035:ThirdParty/FreeRTOS/stream_buffer.c ****     {
1036:ThirdParty/FreeRTOS/stream_buffer.c ****         xBytesToStoreMessageLength = sbBYTES_TO_STORE_MESSAGE_LENGTH;
 1813              		.loc 1 1036 36
 1814 005a 0423     		movs	r3, #4
 1815 005c 3B63     		str	r3, [r7, #48]
 1816 005e 01E0     		b	.L109
 1817              	.L108:
1037:ThirdParty/FreeRTOS/stream_buffer.c ****     }
1038:ThirdParty/FreeRTOS/stream_buffer.c ****     else
1039:ThirdParty/FreeRTOS/stream_buffer.c ****     {
1040:ThirdParty/FreeRTOS/stream_buffer.c ****         xBytesToStoreMessageLength = 0;
 1818              		.loc 1 1040 36
 1819 0060 0023     		movs	r3, #0
 1820 0062 3B63     		str	r3, [r7, #48]
 1821              	.L109:
1041:ThirdParty/FreeRTOS/stream_buffer.c ****     }
1042:ThirdParty/FreeRTOS/stream_buffer.c **** 
1043:ThirdParty/FreeRTOS/stream_buffer.c ****     xBytesAvailable = prvBytesInBuffer( pxStreamBuffer );
 1822              		.loc 1 1043 23
 1823 0064 F86A     		ldr	r0, [r7, #44]
 1824 0066 FFF7FEFF 		bl	prvBytesInBuffer
 1825 006a B862     		str	r0, [r7, #40]
1044:ThirdParty/FreeRTOS/stream_buffer.c **** 
1045:ThirdParty/FreeRTOS/stream_buffer.c ****     /* Whether receiving a discrete message (where xBytesToStoreMessageLength
1046:ThirdParty/FreeRTOS/stream_buffer.c ****      * holds the number of bytes used to store the message length) or a stream of
1047:ThirdParty/FreeRTOS/stream_buffer.c ****      * bytes (where xBytesToStoreMessageLength is zero), the number of bytes
1048:ThirdParty/FreeRTOS/stream_buffer.c ****      * available must be greater than xBytesToStoreMessageLength to be able to
1049:ThirdParty/FreeRTOS/stream_buffer.c ****      * read bytes from the buffer. */
1050:ThirdParty/FreeRTOS/stream_buffer.c ****     if( xBytesAvailable > xBytesToStoreMessageLength )
 1826              		.loc 1 1050 7
 1827 006c BA6A     		ldr	r2, [r7, #40]
 1828 006e 3B6B     		ldr	r3, [r7, #48]
 1829 0070 9A42     		cmp	r2, r3
 1830 0072 2FD9     		bls	.L110
1051:ThirdParty/FreeRTOS/stream_buffer.c ****     {
1052:ThirdParty/FreeRTOS/stream_buffer.c ****         xReceivedLength = prvReadMessageFromBuffer( pxStreamBuffer, pvRxData, xBufferLengthBytes, x
 1831              		.loc 1 1052 27
 1832 0074 BB6A     		ldr	r3, [r7, #40]
 1833 0076 7A68     		ldr	r2, [r7, #4]
 1834 0078 B968     		ldr	r1, [r7, #8]
 1835 007a F86A     		ldr	r0, [r7, #44]
 1836 007c FFF7FEFF 		bl	prvReadMessageFromBuffer
 1837 0080 7863     		str	r0, [r7, #52]
1053:ThirdParty/FreeRTOS/stream_buffer.c **** 
1054:ThirdParty/FreeRTOS/stream_buffer.c ****         /* Was a task waiting for space in the buffer? */
1055:ThirdParty/FreeRTOS/stream_buffer.c ****         if( xReceivedLength != ( size_t ) 0 )
ARM GAS  C:\Users\Admin\AppData\Local\Temp\ccKb5mMk.s 			page 56


 1838              		.loc 1 1055 11
 1839 0082 7B6B     		ldr	r3, [r7, #52]
 1840 0084 002B     		cmp	r3, #0
 1841 0086 25D0     		beq	.L110
 1842              	.LBB136:
 1843              	.LBB137:
 1844              	.LBB138:
 214:ThirdParty/FreeRTOS/portable/GCC/ARM_CM4F/portmacro.h ****         (
 1845              		.loc 2 214 9
 1846              		.syntax unified
 1847              	@ 214 "ThirdParty/FreeRTOS/portable/GCC/ARM_CM4F/portmacro.h" 1
 1848 0088 EFF31182 			mrs r2, basepri											
 1849 008c 4FF05003 		mov r3, #80												
 1850 0090 83F31188 		msr basepri, r3											
 1851 0094 BFF36F8F 		isb														
 1852 0098 BFF34F8F 		dsb														
 1853              	
 1854              	@ 0 "" 2
 1855              		.thumb
 1856              		.syntax unified
 1857 009c BA61     		str	r2, [r7, #24]
 1858 009e 7B61     		str	r3, [r7, #20]
 226:ThirdParty/FreeRTOS/portable/GCC/ARM_CM4F/portmacro.h ****     }
 1859              		.loc 2 226 16
 1860 00a0 BB69     		ldr	r3, [r7, #24]
 1861              	.LBE138:
 1862              	.LBE137:
1056:ThirdParty/FreeRTOS/stream_buffer.c ****         {
1057:ThirdParty/FreeRTOS/stream_buffer.c ****             prvRECEIVE_COMPLETED_FROM_ISR( pxStreamBuffer, pxHigherPriorityTaskWoken );
 1863              		.loc 1 1057 13
 1864 00a2 7B62     		str	r3, [r7, #36]
 1865 00a4 FB6A     		ldr	r3, [r7, #44]
 1866 00a6 5B69     		ldr	r3, [r3, #20]
 1867 00a8 002B     		cmp	r3, #0
 1868 00aa 0DD0     		beq	.L112
 1869              		.loc 1 1057 13 is_stmt 0 discriminator 1
 1870 00ac FB6A     		ldr	r3, [r7, #44]
 1871 00ae 5869     		ldr	r0, [r3, #20]
 1872 00b0 3B68     		ldr	r3, [r7]
 1873 00b2 0193     		str	r3, [sp, #4]
 1874 00b4 0023     		movs	r3, #0
 1875 00b6 0093     		str	r3, [sp]
 1876 00b8 0023     		movs	r3, #0
 1877 00ba 0022     		movs	r2, #0
 1878 00bc 0021     		movs	r1, #0
 1879 00be FFF7FEFF 		bl	xTaskGenericNotifyFromISR
 1880 00c2 FB6A     		ldr	r3, [r7, #44]
 1881 00c4 0022     		movs	r2, #0
 1882 00c6 5A61     		str	r2, [r3, #20]
 1883              	.L112:
 1884 00c8 7B6A     		ldr	r3, [r7, #36]
 1885 00ca 3B61     		str	r3, [r7, #16]
 1886              	.LBB139:
 1887              	.LBB140:
 232:ThirdParty/FreeRTOS/portable/GCC/ARM_CM4F/portmacro.h ****         (
 1888              		.loc 2 232 9 is_stmt 1 discriminator 3
 1889 00cc 3B69     		ldr	r3, [r7, #16]
ARM GAS  C:\Users\Admin\AppData\Local\Temp\ccKb5mMk.s 			page 57


 1890              		.syntax unified
 1891              	@ 232 "ThirdParty/FreeRTOS/portable/GCC/ARM_CM4F/portmacro.h" 1
 1892 00ce 83F31188 			msr basepri, r3	
 1893              	@ 0 "" 2
 1894              		.loc 2 236 5 discriminator 3
 1895              		.thumb
 1896              		.syntax unified
 1897 00d2 00BF     		nop
 1898              	.L110:
 1899              	.LBE140:
 1900              	.LBE139:
 1901              	.LBE136:
1058:ThirdParty/FreeRTOS/stream_buffer.c ****         }
1059:ThirdParty/FreeRTOS/stream_buffer.c ****         else
1060:ThirdParty/FreeRTOS/stream_buffer.c ****         {
1061:ThirdParty/FreeRTOS/stream_buffer.c ****             mtCOVERAGE_TEST_MARKER();
1062:ThirdParty/FreeRTOS/stream_buffer.c ****         }
1063:ThirdParty/FreeRTOS/stream_buffer.c ****     }
1064:ThirdParty/FreeRTOS/stream_buffer.c ****     else
1065:ThirdParty/FreeRTOS/stream_buffer.c ****     {
1066:ThirdParty/FreeRTOS/stream_buffer.c ****         mtCOVERAGE_TEST_MARKER();
1067:ThirdParty/FreeRTOS/stream_buffer.c ****     }
1068:ThirdParty/FreeRTOS/stream_buffer.c **** 
1069:ThirdParty/FreeRTOS/stream_buffer.c ****     traceSTREAM_BUFFER_RECEIVE_FROM_ISR( xStreamBuffer, xReceivedLength );
1070:ThirdParty/FreeRTOS/stream_buffer.c **** 
1071:ThirdParty/FreeRTOS/stream_buffer.c ****     return xReceivedLength;
 1902              		.loc 1 1071 12
 1903 00d4 7B6B     		ldr	r3, [r7, #52]
1072:ThirdParty/FreeRTOS/stream_buffer.c **** }
 1904              		.loc 1 1072 1
 1905 00d6 1846     		mov	r0, r3
 1906 00d8 3837     		adds	r7, r7, #56
 1907              	.LCFI60:
 1908              		.cfi_def_cfa_offset 8
 1909 00da BD46     		mov	sp, r7
 1910              	.LCFI61:
 1911              		.cfi_def_cfa_register 13
 1912              		@ sp needed
 1913 00dc 80BD     		pop	{r7, pc}
 1914              		.cfi_endproc
 1915              	.LFE16:
 1917              		.section	.text.prvReadMessageFromBuffer,"ax",%progbits
 1918              		.align	1
 1919              		.syntax unified
 1920              		.thumb
 1921              		.thumb_func
 1923              	prvReadMessageFromBuffer:
 1924              	.LFB17:
1073:ThirdParty/FreeRTOS/stream_buffer.c **** /*-----------------------------------------------------------*/
1074:ThirdParty/FreeRTOS/stream_buffer.c **** 
1075:ThirdParty/FreeRTOS/stream_buffer.c **** static size_t prvReadMessageFromBuffer( StreamBuffer_t * pxStreamBuffer,
1076:ThirdParty/FreeRTOS/stream_buffer.c ****                                         void * pvRxData,
1077:ThirdParty/FreeRTOS/stream_buffer.c ****                                         size_t xBufferLengthBytes,
1078:ThirdParty/FreeRTOS/stream_buffer.c ****                                         size_t xBytesAvailable )
1079:ThirdParty/FreeRTOS/stream_buffer.c **** {
 1925              		.loc 1 1079 1
 1926              		.cfi_startproc
ARM GAS  C:\Users\Admin\AppData\Local\Temp\ccKb5mMk.s 			page 58


 1927              		@ args = 0, pretend = 0, frame = 32
 1928              		@ frame_needed = 1, uses_anonymous_args = 0
 1929 0000 80B5     		push	{r7, lr}
 1930              	.LCFI62:
 1931              		.cfi_def_cfa_offset 8
 1932              		.cfi_offset 7, -8
 1933              		.cfi_offset 14, -4
 1934 0002 88B0     		sub	sp, sp, #32
 1935              	.LCFI63:
 1936              		.cfi_def_cfa_offset 40
 1937 0004 00AF     		add	r7, sp, #0
 1938              	.LCFI64:
 1939              		.cfi_def_cfa_register 7
 1940 0006 F860     		str	r0, [r7, #12]
 1941 0008 B960     		str	r1, [r7, #8]
 1942 000a 7A60     		str	r2, [r7, #4]
 1943 000c 3B60     		str	r3, [r7]
1080:ThirdParty/FreeRTOS/stream_buffer.c ****     size_t xCount, xNextMessageLength;
1081:ThirdParty/FreeRTOS/stream_buffer.c ****     configMESSAGE_BUFFER_LENGTH_TYPE xTempNextMessageLength;
1082:ThirdParty/FreeRTOS/stream_buffer.c ****     size_t xNextTail = pxStreamBuffer->xTail;
 1944              		.loc 1 1082 12
 1945 000e FB68     		ldr	r3, [r7, #12]
 1946 0010 1B68     		ldr	r3, [r3]
 1947 0012 BB61     		str	r3, [r7, #24]
1083:ThirdParty/FreeRTOS/stream_buffer.c **** 
1084:ThirdParty/FreeRTOS/stream_buffer.c ****     if( ( pxStreamBuffer->ucFlags & sbFLAGS_IS_MESSAGE_BUFFER ) != ( uint8_t ) 0 )
 1948              		.loc 1 1084 25
 1949 0014 FB68     		ldr	r3, [r7, #12]
 1950 0016 1B7F     		ldrb	r3, [r3, #28]	@ zero_extendqisi2
 1951              		.loc 1 1084 35
 1952 0018 03F00103 		and	r3, r3, #1
 1953              		.loc 1 1084 7
 1954 001c 002B     		cmp	r3, #0
 1955 001e 13D0     		beq	.L115
1085:ThirdParty/FreeRTOS/stream_buffer.c ****     {
1086:ThirdParty/FreeRTOS/stream_buffer.c ****         /* A discrete message is being received.  First receive the length
1087:ThirdParty/FreeRTOS/stream_buffer.c ****          * of the message. */
1088:ThirdParty/FreeRTOS/stream_buffer.c ****         xNextTail = prvReadBytesFromBuffer( pxStreamBuffer, ( uint8_t * ) &xTempNextMessageLength, 
 1956              		.loc 1 1088 21
 1957 0020 07F11001 		add	r1, r7, #16
 1958 0024 BB69     		ldr	r3, [r7, #24]
 1959 0026 0422     		movs	r2, #4
 1960 0028 F868     		ldr	r0, [r7, #12]
 1961 002a FFF7FEFF 		bl	prvReadBytesFromBuffer
 1962 002e B861     		str	r0, [r7, #24]
1089:ThirdParty/FreeRTOS/stream_buffer.c ****         xNextMessageLength = ( size_t ) xTempNextMessageLength;
 1963              		.loc 1 1089 28
 1964 0030 3B69     		ldr	r3, [r7, #16]
 1965 0032 FB61     		str	r3, [r7, #28]
1090:ThirdParty/FreeRTOS/stream_buffer.c **** 
1091:ThirdParty/FreeRTOS/stream_buffer.c ****         /* Reduce the number of bytes available by the number of bytes just
1092:ThirdParty/FreeRTOS/stream_buffer.c ****          * read out. */
1093:ThirdParty/FreeRTOS/stream_buffer.c ****         xBytesAvailable -= sbBYTES_TO_STORE_MESSAGE_LENGTH;
 1966              		.loc 1 1093 25
 1967 0034 3B68     		ldr	r3, [r7]
 1968 0036 043B     		subs	r3, r3, #4
 1969 0038 3B60     		str	r3, [r7]
ARM GAS  C:\Users\Admin\AppData\Local\Temp\ccKb5mMk.s 			page 59


1094:ThirdParty/FreeRTOS/stream_buffer.c **** 
1095:ThirdParty/FreeRTOS/stream_buffer.c ****         /* Check there is enough space in the buffer provided by the
1096:ThirdParty/FreeRTOS/stream_buffer.c ****          * user. */
1097:ThirdParty/FreeRTOS/stream_buffer.c ****         if( xNextMessageLength > xBufferLengthBytes )
 1970              		.loc 1 1097 11
 1971 003a FA69     		ldr	r2, [r7, #28]
 1972 003c 7B68     		ldr	r3, [r7, #4]
 1973 003e 9A42     		cmp	r2, r3
 1974 0040 04D9     		bls	.L116
1098:ThirdParty/FreeRTOS/stream_buffer.c ****         {
1099:ThirdParty/FreeRTOS/stream_buffer.c ****             /* The user has provided insufficient space to read the message. */
1100:ThirdParty/FreeRTOS/stream_buffer.c ****             xNextMessageLength = 0;
 1975              		.loc 1 1100 32
 1976 0042 0023     		movs	r3, #0
 1977 0044 FB61     		str	r3, [r7, #28]
 1978 0046 01E0     		b	.L116
 1979              	.L115:
1101:ThirdParty/FreeRTOS/stream_buffer.c ****         }
1102:ThirdParty/FreeRTOS/stream_buffer.c ****         else
1103:ThirdParty/FreeRTOS/stream_buffer.c ****         {
1104:ThirdParty/FreeRTOS/stream_buffer.c ****             mtCOVERAGE_TEST_MARKER();
1105:ThirdParty/FreeRTOS/stream_buffer.c ****         }
1106:ThirdParty/FreeRTOS/stream_buffer.c ****     }
1107:ThirdParty/FreeRTOS/stream_buffer.c ****     else
1108:ThirdParty/FreeRTOS/stream_buffer.c ****     {
1109:ThirdParty/FreeRTOS/stream_buffer.c ****         /* A stream of bytes is being received (as opposed to a discrete
1110:ThirdParty/FreeRTOS/stream_buffer.c ****          * message), so read as many bytes as possible. */
1111:ThirdParty/FreeRTOS/stream_buffer.c ****         xNextMessageLength = xBufferLengthBytes;
 1980              		.loc 1 1111 28
 1981 0048 7B68     		ldr	r3, [r7, #4]
 1982 004a FB61     		str	r3, [r7, #28]
 1983              	.L116:
1112:ThirdParty/FreeRTOS/stream_buffer.c ****     }
1113:ThirdParty/FreeRTOS/stream_buffer.c **** 
1114:ThirdParty/FreeRTOS/stream_buffer.c ****     /* Use the minimum of the wanted bytes and the available bytes. */
1115:ThirdParty/FreeRTOS/stream_buffer.c ****     xCount = configMIN( xNextMessageLength, xBytesAvailable );
 1984              		.loc 1 1115 12
 1985 004c 3A68     		ldr	r2, [r7]
 1986 004e FB69     		ldr	r3, [r7, #28]
 1987 0050 9342     		cmp	r3, r2
 1988 0052 28BF     		it	cs
 1989 0054 1346     		movcs	r3, r2
 1990 0056 7B61     		str	r3, [r7, #20]
1116:ThirdParty/FreeRTOS/stream_buffer.c **** 
1117:ThirdParty/FreeRTOS/stream_buffer.c ****     if( xCount != ( size_t ) 0 )
 1991              		.loc 1 1117 7
 1992 0058 7B69     		ldr	r3, [r7, #20]
 1993 005a 002B     		cmp	r3, #0
 1994 005c 08D0     		beq	.L117
1118:ThirdParty/FreeRTOS/stream_buffer.c ****     {
1119:ThirdParty/FreeRTOS/stream_buffer.c ****         /* Read the actual data and update the tail to mark the data as officially consumed. */
1120:ThirdParty/FreeRTOS/stream_buffer.c ****         pxStreamBuffer->xTail = prvReadBytesFromBuffer( pxStreamBuffer, ( uint8_t * ) pvRxData, xCo
 1995              		.loc 1 1120 33
 1996 005e BB69     		ldr	r3, [r7, #24]
 1997 0060 7A69     		ldr	r2, [r7, #20]
 1998 0062 B968     		ldr	r1, [r7, #8]
 1999 0064 F868     		ldr	r0, [r7, #12]
ARM GAS  C:\Users\Admin\AppData\Local\Temp\ccKb5mMk.s 			page 60


 2000 0066 FFF7FEFF 		bl	prvReadBytesFromBuffer
 2001 006a 0246     		mov	r2, r0
 2002              		.loc 1 1120 31
 2003 006c FB68     		ldr	r3, [r7, #12]
 2004 006e 1A60     		str	r2, [r3]
 2005              	.L117:
1121:ThirdParty/FreeRTOS/stream_buffer.c ****     }
1122:ThirdParty/FreeRTOS/stream_buffer.c **** 
1123:ThirdParty/FreeRTOS/stream_buffer.c ****     return xCount;
 2006              		.loc 1 1123 12
 2007 0070 7B69     		ldr	r3, [r7, #20]
1124:ThirdParty/FreeRTOS/stream_buffer.c **** }
 2008              		.loc 1 1124 1
 2009 0072 1846     		mov	r0, r3
 2010 0074 2037     		adds	r7, r7, #32
 2011              	.LCFI65:
 2012              		.cfi_def_cfa_offset 8
 2013 0076 BD46     		mov	sp, r7
 2014              	.LCFI66:
 2015              		.cfi_def_cfa_register 13
 2016              		@ sp needed
 2017 0078 80BD     		pop	{r7, pc}
 2018              		.cfi_endproc
 2019              	.LFE17:
 2021              		.section	.text.xStreamBufferIsEmpty,"ax",%progbits
 2022              		.align	1
 2023              		.global	xStreamBufferIsEmpty
 2024              		.syntax unified
 2025              		.thumb
 2026              		.thumb_func
 2028              	xStreamBufferIsEmpty:
 2029              	.LFB18:
1125:ThirdParty/FreeRTOS/stream_buffer.c **** /*-----------------------------------------------------------*/
1126:ThirdParty/FreeRTOS/stream_buffer.c **** 
1127:ThirdParty/FreeRTOS/stream_buffer.c **** BaseType_t xStreamBufferIsEmpty( StreamBufferHandle_t xStreamBuffer )
1128:ThirdParty/FreeRTOS/stream_buffer.c **** {
 2030              		.loc 1 1128 1
 2031              		.cfi_startproc
 2032              		@ args = 0, pretend = 0, frame = 24
 2033              		@ frame_needed = 1, uses_anonymous_args = 0
 2034              		@ link register save eliminated.
 2035 0000 80B4     		push	{r7}
 2036              	.LCFI67:
 2037              		.cfi_def_cfa_offset 4
 2038              		.cfi_offset 7, -4
 2039 0002 87B0     		sub	sp, sp, #28
 2040              	.LCFI68:
 2041              		.cfi_def_cfa_offset 32
 2042 0004 00AF     		add	r7, sp, #0
 2043              	.LCFI69:
 2044              		.cfi_def_cfa_register 7
 2045 0006 7860     		str	r0, [r7, #4]
1129:ThirdParty/FreeRTOS/stream_buffer.c ****     const StreamBuffer_t * const pxStreamBuffer = xStreamBuffer;
 2046              		.loc 1 1129 34
 2047 0008 7B68     		ldr	r3, [r7, #4]
 2048 000a 3B61     		str	r3, [r7, #16]
1130:ThirdParty/FreeRTOS/stream_buffer.c ****     BaseType_t xReturn;
ARM GAS  C:\Users\Admin\AppData\Local\Temp\ccKb5mMk.s 			page 61


1131:ThirdParty/FreeRTOS/stream_buffer.c ****     size_t xTail;
1132:ThirdParty/FreeRTOS/stream_buffer.c **** 
1133:ThirdParty/FreeRTOS/stream_buffer.c ****     configASSERT( pxStreamBuffer );
 2049              		.loc 1 1133 5
 2050 000c 3B69     		ldr	r3, [r7, #16]
 2051 000e 002B     		cmp	r3, #0
 2052 0010 0AD1     		bne	.L120
 2053              	.LBB141:
 2054              	.LBB142:
 198:ThirdParty/FreeRTOS/portable/GCC/ARM_CM4F/portmacro.h ****         (
 2055              		.loc 2 198 9
 2056              		.syntax unified
 2057              	@ 198 "ThirdParty/FreeRTOS/portable/GCC/ARM_CM4F/portmacro.h" 1
 2058 0012 4FF05003 			mov r3, #80												
 2059 0016 83F31188 		msr basepri, r3											
 2060 001a BFF36F8F 		isb														
 2061 001e BFF34F8F 		dsb														
 2062              	
 2063              	@ 0 "" 2
 2064              		.thumb
 2065              		.syntax unified
 2066 0022 BB60     		str	r3, [r7, #8]
 206:ThirdParty/FreeRTOS/portable/GCC/ARM_CM4F/portmacro.h **** 
 2067              		.loc 2 206 5
 2068 0024 00BF     		nop
 2069              	.L121:
 2070              	.LBE142:
 2071              	.LBE141:
 2072              		.loc 1 1133 5 discriminator 1
 2073 0026 FEE7     		b	.L121
 2074              	.L120:
1134:ThirdParty/FreeRTOS/stream_buffer.c **** 
1135:ThirdParty/FreeRTOS/stream_buffer.c ****     /* True if no bytes are available. */
1136:ThirdParty/FreeRTOS/stream_buffer.c ****     xTail = pxStreamBuffer->xTail;
 2075              		.loc 1 1136 11
 2076 0028 3B69     		ldr	r3, [r7, #16]
 2077 002a 1B68     		ldr	r3, [r3]
 2078 002c FB60     		str	r3, [r7, #12]
1137:ThirdParty/FreeRTOS/stream_buffer.c **** 
1138:ThirdParty/FreeRTOS/stream_buffer.c ****     if( pxStreamBuffer->xHead == xTail )
 2079              		.loc 1 1138 23
 2080 002e 3B69     		ldr	r3, [r7, #16]
 2081 0030 5B68     		ldr	r3, [r3, #4]
 2082              		.loc 1 1138 7
 2083 0032 FA68     		ldr	r2, [r7, #12]
 2084 0034 9A42     		cmp	r2, r3
 2085 0036 02D1     		bne	.L122
1139:ThirdParty/FreeRTOS/stream_buffer.c ****     {
1140:ThirdParty/FreeRTOS/stream_buffer.c ****         xReturn = pdTRUE;
 2086              		.loc 1 1140 17
 2087 0038 0123     		movs	r3, #1
 2088 003a 7B61     		str	r3, [r7, #20]
 2089 003c 01E0     		b	.L123
 2090              	.L122:
1141:ThirdParty/FreeRTOS/stream_buffer.c ****     }
1142:ThirdParty/FreeRTOS/stream_buffer.c ****     else
1143:ThirdParty/FreeRTOS/stream_buffer.c ****     {
ARM GAS  C:\Users\Admin\AppData\Local\Temp\ccKb5mMk.s 			page 62


1144:ThirdParty/FreeRTOS/stream_buffer.c ****         xReturn = pdFALSE;
 2091              		.loc 1 1144 17
 2092 003e 0023     		movs	r3, #0
 2093 0040 7B61     		str	r3, [r7, #20]
 2094              	.L123:
1145:ThirdParty/FreeRTOS/stream_buffer.c ****     }
1146:ThirdParty/FreeRTOS/stream_buffer.c **** 
1147:ThirdParty/FreeRTOS/stream_buffer.c ****     return xReturn;
 2095              		.loc 1 1147 12
 2096 0042 7B69     		ldr	r3, [r7, #20]
1148:ThirdParty/FreeRTOS/stream_buffer.c **** }
 2097              		.loc 1 1148 1
 2098 0044 1846     		mov	r0, r3
 2099 0046 1C37     		adds	r7, r7, #28
 2100              	.LCFI70:
 2101              		.cfi_def_cfa_offset 4
 2102 0048 BD46     		mov	sp, r7
 2103              	.LCFI71:
 2104              		.cfi_def_cfa_register 13
 2105              		@ sp needed
 2106 004a 5DF8047B 		ldr	r7, [sp], #4
 2107              	.LCFI72:
 2108              		.cfi_restore 7
 2109              		.cfi_def_cfa_offset 0
 2110 004e 7047     		bx	lr
 2111              		.cfi_endproc
 2112              	.LFE18:
 2114              		.section	.text.xStreamBufferIsFull,"ax",%progbits
 2115              		.align	1
 2116              		.global	xStreamBufferIsFull
 2117              		.syntax unified
 2118              		.thumb
 2119              		.thumb_func
 2121              	xStreamBufferIsFull:
 2122              	.LFB19:
1149:ThirdParty/FreeRTOS/stream_buffer.c **** /*-----------------------------------------------------------*/
1150:ThirdParty/FreeRTOS/stream_buffer.c **** 
1151:ThirdParty/FreeRTOS/stream_buffer.c **** BaseType_t xStreamBufferIsFull( StreamBufferHandle_t xStreamBuffer )
1152:ThirdParty/FreeRTOS/stream_buffer.c **** {
 2123              		.loc 1 1152 1
 2124              		.cfi_startproc
 2125              		@ args = 0, pretend = 0, frame = 24
 2126              		@ frame_needed = 1, uses_anonymous_args = 0
 2127 0000 80B5     		push	{r7, lr}
 2128              	.LCFI73:
 2129              		.cfi_def_cfa_offset 8
 2130              		.cfi_offset 7, -8
 2131              		.cfi_offset 14, -4
 2132 0002 86B0     		sub	sp, sp, #24
 2133              	.LCFI74:
 2134              		.cfi_def_cfa_offset 32
 2135 0004 00AF     		add	r7, sp, #0
 2136              	.LCFI75:
 2137              		.cfi_def_cfa_register 7
 2138 0006 7860     		str	r0, [r7, #4]
1153:ThirdParty/FreeRTOS/stream_buffer.c ****     BaseType_t xReturn;
1154:ThirdParty/FreeRTOS/stream_buffer.c ****     size_t xBytesToStoreMessageLength;
ARM GAS  C:\Users\Admin\AppData\Local\Temp\ccKb5mMk.s 			page 63


1155:ThirdParty/FreeRTOS/stream_buffer.c ****     const StreamBuffer_t * const pxStreamBuffer = xStreamBuffer;
 2139              		.loc 1 1155 34
 2140 0008 7B68     		ldr	r3, [r7, #4]
 2141 000a FB60     		str	r3, [r7, #12]
1156:ThirdParty/FreeRTOS/stream_buffer.c **** 
1157:ThirdParty/FreeRTOS/stream_buffer.c ****     configASSERT( pxStreamBuffer );
 2142              		.loc 1 1157 5
 2143 000c FB68     		ldr	r3, [r7, #12]
 2144 000e 002B     		cmp	r3, #0
 2145 0010 0AD1     		bne	.L126
 2146              	.LBB143:
 2147              	.LBB144:
 198:ThirdParty/FreeRTOS/portable/GCC/ARM_CM4F/portmacro.h ****         (
 2148              		.loc 2 198 9
 2149              		.syntax unified
 2150              	@ 198 "ThirdParty/FreeRTOS/portable/GCC/ARM_CM4F/portmacro.h" 1
 2151 0012 4FF05003 			mov r3, #80												
 2152 0016 83F31188 		msr basepri, r3											
 2153 001a BFF36F8F 		isb														
 2154 001e BFF34F8F 		dsb														
 2155              	
 2156              	@ 0 "" 2
 2157              		.thumb
 2158              		.syntax unified
 2159 0022 BB60     		str	r3, [r7, #8]
 206:ThirdParty/FreeRTOS/portable/GCC/ARM_CM4F/portmacro.h **** 
 2160              		.loc 2 206 5
 2161 0024 00BF     		nop
 2162              	.L127:
 2163              	.LBE144:
 2164              	.LBE143:
 2165              		.loc 1 1157 5 discriminator 1
 2166 0026 FEE7     		b	.L127
 2167              	.L126:
1158:ThirdParty/FreeRTOS/stream_buffer.c **** 
1159:ThirdParty/FreeRTOS/stream_buffer.c ****     /* This generic version of the receive function is used by both message
1160:ThirdParty/FreeRTOS/stream_buffer.c ****      * buffers, which store discrete messages, and stream buffers, which store a
1161:ThirdParty/FreeRTOS/stream_buffer.c ****      * continuous stream of bytes.  Discrete messages include an additional
1162:ThirdParty/FreeRTOS/stream_buffer.c ****      * sbBYTES_TO_STORE_MESSAGE_LENGTH bytes that hold the length of the message. */
1163:ThirdParty/FreeRTOS/stream_buffer.c ****     if( ( pxStreamBuffer->ucFlags & sbFLAGS_IS_MESSAGE_BUFFER ) != ( uint8_t ) 0 )
 2168              		.loc 1 1163 25
 2169 0028 FB68     		ldr	r3, [r7, #12]
 2170 002a 1B7F     		ldrb	r3, [r3, #28]	@ zero_extendqisi2
 2171              		.loc 1 1163 35
 2172 002c 03F00103 		and	r3, r3, #1
 2173              		.loc 1 1163 7
 2174 0030 002B     		cmp	r3, #0
 2175 0032 02D0     		beq	.L128
1164:ThirdParty/FreeRTOS/stream_buffer.c ****     {
1165:ThirdParty/FreeRTOS/stream_buffer.c ****         xBytesToStoreMessageLength = sbBYTES_TO_STORE_MESSAGE_LENGTH;
 2176              		.loc 1 1165 36
 2177 0034 0423     		movs	r3, #4
 2178 0036 3B61     		str	r3, [r7, #16]
 2179 0038 01E0     		b	.L129
 2180              	.L128:
1166:ThirdParty/FreeRTOS/stream_buffer.c ****     }
1167:ThirdParty/FreeRTOS/stream_buffer.c ****     else
ARM GAS  C:\Users\Admin\AppData\Local\Temp\ccKb5mMk.s 			page 64


1168:ThirdParty/FreeRTOS/stream_buffer.c ****     {
1169:ThirdParty/FreeRTOS/stream_buffer.c ****         xBytesToStoreMessageLength = 0;
 2181              		.loc 1 1169 36
 2182 003a 0023     		movs	r3, #0
 2183 003c 3B61     		str	r3, [r7, #16]
 2184              	.L129:
1170:ThirdParty/FreeRTOS/stream_buffer.c ****     }
1171:ThirdParty/FreeRTOS/stream_buffer.c **** 
1172:ThirdParty/FreeRTOS/stream_buffer.c ****     /* True if the available space equals zero. */
1173:ThirdParty/FreeRTOS/stream_buffer.c ****     if( xStreamBufferSpacesAvailable( xStreamBuffer ) <= xBytesToStoreMessageLength )
 2185              		.loc 1 1173 9
 2186 003e 7868     		ldr	r0, [r7, #4]
 2187 0040 FFF7FEFF 		bl	xStreamBufferSpacesAvailable
 2188 0044 0246     		mov	r2, r0
 2189              		.loc 1 1173 7
 2190 0046 3B69     		ldr	r3, [r7, #16]
 2191 0048 9342     		cmp	r3, r2
 2192 004a 02D3     		bcc	.L130
1174:ThirdParty/FreeRTOS/stream_buffer.c ****     {
1175:ThirdParty/FreeRTOS/stream_buffer.c ****         xReturn = pdTRUE;
 2193              		.loc 1 1175 17
 2194 004c 0123     		movs	r3, #1
 2195 004e 7B61     		str	r3, [r7, #20]
 2196 0050 01E0     		b	.L131
 2197              	.L130:
1176:ThirdParty/FreeRTOS/stream_buffer.c ****     }
1177:ThirdParty/FreeRTOS/stream_buffer.c ****     else
1178:ThirdParty/FreeRTOS/stream_buffer.c ****     {
1179:ThirdParty/FreeRTOS/stream_buffer.c ****         xReturn = pdFALSE;
 2198              		.loc 1 1179 17
 2199 0052 0023     		movs	r3, #0
 2200 0054 7B61     		str	r3, [r7, #20]
 2201              	.L131:
1180:ThirdParty/FreeRTOS/stream_buffer.c ****     }
1181:ThirdParty/FreeRTOS/stream_buffer.c **** 
1182:ThirdParty/FreeRTOS/stream_buffer.c ****     return xReturn;
 2202              		.loc 1 1182 12
 2203 0056 7B69     		ldr	r3, [r7, #20]
1183:ThirdParty/FreeRTOS/stream_buffer.c **** }
 2204              		.loc 1 1183 1
 2205 0058 1846     		mov	r0, r3
 2206 005a 1837     		adds	r7, r7, #24
 2207              	.LCFI76:
 2208              		.cfi_def_cfa_offset 8
 2209 005c BD46     		mov	sp, r7
 2210              	.LCFI77:
 2211              		.cfi_def_cfa_register 13
 2212              		@ sp needed
 2213 005e 80BD     		pop	{r7, pc}
 2214              		.cfi_endproc
 2215              	.LFE19:
 2217              		.section	.text.xStreamBufferSendCompletedFromISR,"ax",%progbits
 2218              		.align	1
 2219              		.global	xStreamBufferSendCompletedFromISR
 2220              		.syntax unified
 2221              		.thumb
 2222              		.thumb_func
ARM GAS  C:\Users\Admin\AppData\Local\Temp\ccKb5mMk.s 			page 65


 2224              	xStreamBufferSendCompletedFromISR:
 2225              	.LFB20:
1184:ThirdParty/FreeRTOS/stream_buffer.c **** /*-----------------------------------------------------------*/
1185:ThirdParty/FreeRTOS/stream_buffer.c **** 
1186:ThirdParty/FreeRTOS/stream_buffer.c **** BaseType_t xStreamBufferSendCompletedFromISR( StreamBufferHandle_t xStreamBuffer,
1187:ThirdParty/FreeRTOS/stream_buffer.c ****                                               BaseType_t * pxHigherPriorityTaskWoken )
1188:ThirdParty/FreeRTOS/stream_buffer.c **** {
 2226              		.loc 1 1188 1
 2227              		.cfi_startproc
 2228              		@ args = 0, pretend = 0, frame = 40
 2229              		@ frame_needed = 1, uses_anonymous_args = 0
 2230 0000 80B5     		push	{r7, lr}
 2231              	.LCFI78:
 2232              		.cfi_def_cfa_offset 8
 2233              		.cfi_offset 7, -8
 2234              		.cfi_offset 14, -4
 2235 0002 8CB0     		sub	sp, sp, #48
 2236              	.LCFI79:
 2237              		.cfi_def_cfa_offset 56
 2238 0004 02AF     		add	r7, sp, #8
 2239              	.LCFI80:
 2240              		.cfi_def_cfa 7, 48
 2241 0006 7860     		str	r0, [r7, #4]
 2242 0008 3960     		str	r1, [r7]
1189:ThirdParty/FreeRTOS/stream_buffer.c ****     StreamBuffer_t * const pxStreamBuffer = xStreamBuffer;
 2243              		.loc 1 1189 28
 2244 000a 7B68     		ldr	r3, [r7, #4]
 2245 000c 3B62     		str	r3, [r7, #32]
1190:ThirdParty/FreeRTOS/stream_buffer.c ****     BaseType_t xReturn;
1191:ThirdParty/FreeRTOS/stream_buffer.c ****     UBaseType_t uxSavedInterruptStatus;
1192:ThirdParty/FreeRTOS/stream_buffer.c **** 
1193:ThirdParty/FreeRTOS/stream_buffer.c ****     configASSERT( pxStreamBuffer );
 2246              		.loc 1 1193 5
 2247 000e 3B6A     		ldr	r3, [r7, #32]
 2248 0010 002B     		cmp	r3, #0
 2249 0012 0AD1     		bne	.L134
 2250              	.LBB145:
 2251              	.LBB146:
 198:ThirdParty/FreeRTOS/portable/GCC/ARM_CM4F/portmacro.h ****         (
 2252              		.loc 2 198 9
 2253              		.syntax unified
 2254              	@ 198 "ThirdParty/FreeRTOS/portable/GCC/ARM_CM4F/portmacro.h" 1
 2255 0014 4FF05003 			mov r3, #80												
 2256 0018 83F31188 		msr basepri, r3											
 2257 001c BFF36F8F 		isb														
 2258 0020 BFF34F8F 		dsb														
 2259              	
 2260              	@ 0 "" 2
 2261              		.thumb
 2262              		.syntax unified
 2263 0024 BB61     		str	r3, [r7, #24]
 206:ThirdParty/FreeRTOS/portable/GCC/ARM_CM4F/portmacro.h **** 
 2264              		.loc 2 206 5
 2265 0026 00BF     		nop
 2266              	.L135:
 2267              	.LBE146:
 2268              	.LBE145:
ARM GAS  C:\Users\Admin\AppData\Local\Temp\ccKb5mMk.s 			page 66


 2269              		.loc 1 1193 5 discriminator 1
 2270 0028 FEE7     		b	.L135
 2271              	.L134:
 2272              	.LBB147:
 2273              	.LBB148:
 214:ThirdParty/FreeRTOS/portable/GCC/ARM_CM4F/portmacro.h ****         (
 2274              		.loc 2 214 9
 2275              		.syntax unified
 2276              	@ 214 "ThirdParty/FreeRTOS/portable/GCC/ARM_CM4F/portmacro.h" 1
 2277 002a EFF31182 			mrs r2, basepri											
 2278 002e 4FF05003 		mov r3, #80												
 2279 0032 83F31188 		msr basepri, r3											
 2280 0036 BFF36F8F 		isb														
 2281 003a BFF34F8F 		dsb														
 2282              	
 2283              	@ 0 "" 2
 2284              		.thumb
 2285              		.syntax unified
 2286 003e 7A61     		str	r2, [r7, #20]
 2287 0040 3B61     		str	r3, [r7, #16]
 226:ThirdParty/FreeRTOS/portable/GCC/ARM_CM4F/portmacro.h ****     }
 2288              		.loc 2 226 16
 2289 0042 7B69     		ldr	r3, [r7, #20]
 2290              	.LBE148:
 2291              	.LBE147:
1194:ThirdParty/FreeRTOS/stream_buffer.c **** 
1195:ThirdParty/FreeRTOS/stream_buffer.c ****     uxSavedInterruptStatus = ( UBaseType_t ) portSET_INTERRUPT_MASK_FROM_ISR();
 2292              		.loc 1 1195 46
 2293 0044 FB61     		str	r3, [r7, #28]
1196:ThirdParty/FreeRTOS/stream_buffer.c ****     {
1197:ThirdParty/FreeRTOS/stream_buffer.c ****         if( ( pxStreamBuffer )->xTaskWaitingToReceive != NULL )
 2294              		.loc 1 1197 31
 2295 0046 3B6A     		ldr	r3, [r7, #32]
 2296 0048 1B69     		ldr	r3, [r3, #16]
 2297              		.loc 1 1197 11
 2298 004a 002B     		cmp	r3, #0
 2299 004c 10D0     		beq	.L137
1198:ThirdParty/FreeRTOS/stream_buffer.c ****         {
1199:ThirdParty/FreeRTOS/stream_buffer.c ****             ( void ) xTaskNotifyFromISR( ( pxStreamBuffer )->xTaskWaitingToReceive,
 2300              		.loc 1 1199 22
 2301 004e 3B6A     		ldr	r3, [r7, #32]
 2302 0050 1869     		ldr	r0, [r3, #16]
 2303 0052 3B68     		ldr	r3, [r7]
 2304 0054 0193     		str	r3, [sp, #4]
 2305 0056 0023     		movs	r3, #0
 2306 0058 0093     		str	r3, [sp]
 2307 005a 0023     		movs	r3, #0
 2308 005c 0022     		movs	r2, #0
 2309 005e 0021     		movs	r1, #0
 2310 0060 FFF7FEFF 		bl	xTaskGenericNotifyFromISR
1200:ThirdParty/FreeRTOS/stream_buffer.c ****                                          ( uint32_t ) 0,
1201:ThirdParty/FreeRTOS/stream_buffer.c ****                                          eNoAction,
1202:ThirdParty/FreeRTOS/stream_buffer.c ****                                          pxHigherPriorityTaskWoken );
1203:ThirdParty/FreeRTOS/stream_buffer.c ****             ( pxStreamBuffer )->xTaskWaitingToReceive = NULL;
 2311              		.loc 1 1203 55
 2312 0064 3B6A     		ldr	r3, [r7, #32]
 2313 0066 0022     		movs	r2, #0
ARM GAS  C:\Users\Admin\AppData\Local\Temp\ccKb5mMk.s 			page 67


 2314 0068 1A61     		str	r2, [r3, #16]
1204:ThirdParty/FreeRTOS/stream_buffer.c ****             xReturn = pdTRUE;
 2315              		.loc 1 1204 21
 2316 006a 0123     		movs	r3, #1
 2317 006c 7B62     		str	r3, [r7, #36]
 2318 006e 01E0     		b	.L138
 2319              	.L137:
1205:ThirdParty/FreeRTOS/stream_buffer.c ****         }
1206:ThirdParty/FreeRTOS/stream_buffer.c ****         else
1207:ThirdParty/FreeRTOS/stream_buffer.c ****         {
1208:ThirdParty/FreeRTOS/stream_buffer.c ****             xReturn = pdFALSE;
 2320              		.loc 1 1208 21
 2321 0070 0023     		movs	r3, #0
 2322 0072 7B62     		str	r3, [r7, #36]
 2323              	.L138:
 2324 0074 FB69     		ldr	r3, [r7, #28]
 2325 0076 FB60     		str	r3, [r7, #12]
 2326              	.LBB149:
 2327              	.LBB150:
 232:ThirdParty/FreeRTOS/portable/GCC/ARM_CM4F/portmacro.h ****         (
 2328              		.loc 2 232 9
 2329 0078 FB68     		ldr	r3, [r7, #12]
 2330              		.syntax unified
 2331              	@ 232 "ThirdParty/FreeRTOS/portable/GCC/ARM_CM4F/portmacro.h" 1
 2332 007a 83F31188 			msr basepri, r3	
 2333              	@ 0 "" 2
 2334              		.loc 2 236 5
 2335              		.thumb
 2336              		.syntax unified
 2337 007e 00BF     		nop
 2338              	.LBE150:
 2339              	.LBE149:
1209:ThirdParty/FreeRTOS/stream_buffer.c ****         }
1210:ThirdParty/FreeRTOS/stream_buffer.c ****     }
1211:ThirdParty/FreeRTOS/stream_buffer.c ****     portCLEAR_INTERRUPT_MASK_FROM_ISR( uxSavedInterruptStatus );
1212:ThirdParty/FreeRTOS/stream_buffer.c **** 
1213:ThirdParty/FreeRTOS/stream_buffer.c ****     return xReturn;
 2340              		.loc 1 1213 12
 2341 0080 7B6A     		ldr	r3, [r7, #36]
1214:ThirdParty/FreeRTOS/stream_buffer.c **** }
 2342              		.loc 1 1214 1
 2343 0082 1846     		mov	r0, r3
 2344 0084 2837     		adds	r7, r7, #40
 2345              	.LCFI81:
 2346              		.cfi_def_cfa_offset 8
 2347 0086 BD46     		mov	sp, r7
 2348              	.LCFI82:
 2349              		.cfi_def_cfa_register 13
 2350              		@ sp needed
 2351 0088 80BD     		pop	{r7, pc}
 2352              		.cfi_endproc
 2353              	.LFE20:
 2355              		.section	.text.xStreamBufferReceiveCompletedFromISR,"ax",%progbits
 2356              		.align	1
 2357              		.global	xStreamBufferReceiveCompletedFromISR
 2358              		.syntax unified
 2359              		.thumb
ARM GAS  C:\Users\Admin\AppData\Local\Temp\ccKb5mMk.s 			page 68


 2360              		.thumb_func
 2362              	xStreamBufferReceiveCompletedFromISR:
 2363              	.LFB21:
1215:ThirdParty/FreeRTOS/stream_buffer.c **** /*-----------------------------------------------------------*/
1216:ThirdParty/FreeRTOS/stream_buffer.c **** 
1217:ThirdParty/FreeRTOS/stream_buffer.c **** BaseType_t xStreamBufferReceiveCompletedFromISR( StreamBufferHandle_t xStreamBuffer,
1218:ThirdParty/FreeRTOS/stream_buffer.c ****                                                  BaseType_t * pxHigherPriorityTaskWoken )
1219:ThirdParty/FreeRTOS/stream_buffer.c **** {
 2364              		.loc 1 1219 1
 2365              		.cfi_startproc
 2366              		@ args = 0, pretend = 0, frame = 40
 2367              		@ frame_needed = 1, uses_anonymous_args = 0
 2368 0000 80B5     		push	{r7, lr}
 2369              	.LCFI83:
 2370              		.cfi_def_cfa_offset 8
 2371              		.cfi_offset 7, -8
 2372              		.cfi_offset 14, -4
 2373 0002 8CB0     		sub	sp, sp, #48
 2374              	.LCFI84:
 2375              		.cfi_def_cfa_offset 56
 2376 0004 02AF     		add	r7, sp, #8
 2377              	.LCFI85:
 2378              		.cfi_def_cfa 7, 48
 2379 0006 7860     		str	r0, [r7, #4]
 2380 0008 3960     		str	r1, [r7]
1220:ThirdParty/FreeRTOS/stream_buffer.c ****     StreamBuffer_t * const pxStreamBuffer = xStreamBuffer;
 2381              		.loc 1 1220 28
 2382 000a 7B68     		ldr	r3, [r7, #4]
 2383 000c 3B62     		str	r3, [r7, #32]
1221:ThirdParty/FreeRTOS/stream_buffer.c ****     BaseType_t xReturn;
1222:ThirdParty/FreeRTOS/stream_buffer.c ****     UBaseType_t uxSavedInterruptStatus;
1223:ThirdParty/FreeRTOS/stream_buffer.c **** 
1224:ThirdParty/FreeRTOS/stream_buffer.c ****     configASSERT( pxStreamBuffer );
 2384              		.loc 1 1224 5
 2385 000e 3B6A     		ldr	r3, [r7, #32]
 2386 0010 002B     		cmp	r3, #0
 2387 0012 0AD1     		bne	.L141
 2388              	.LBB151:
 2389              	.LBB152:
 198:ThirdParty/FreeRTOS/portable/GCC/ARM_CM4F/portmacro.h ****         (
 2390              		.loc 2 198 9
 2391              		.syntax unified
 2392              	@ 198 "ThirdParty/FreeRTOS/portable/GCC/ARM_CM4F/portmacro.h" 1
 2393 0014 4FF05003 			mov r3, #80												
 2394 0018 83F31188 		msr basepri, r3											
 2395 001c BFF36F8F 		isb														
 2396 0020 BFF34F8F 		dsb														
 2397              	
 2398              	@ 0 "" 2
 2399              		.thumb
 2400              		.syntax unified
 2401 0024 BB61     		str	r3, [r7, #24]
 206:ThirdParty/FreeRTOS/portable/GCC/ARM_CM4F/portmacro.h **** 
 2402              		.loc 2 206 5
 2403 0026 00BF     		nop
 2404              	.L142:
 2405              	.LBE152:
ARM GAS  C:\Users\Admin\AppData\Local\Temp\ccKb5mMk.s 			page 69


 2406              	.LBE151:
 2407              		.loc 1 1224 5 discriminator 1
 2408 0028 FEE7     		b	.L142
 2409              	.L141:
 2410              	.LBB153:
 2411              	.LBB154:
 214:ThirdParty/FreeRTOS/portable/GCC/ARM_CM4F/portmacro.h ****         (
 2412              		.loc 2 214 9
 2413              		.syntax unified
 2414              	@ 214 "ThirdParty/FreeRTOS/portable/GCC/ARM_CM4F/portmacro.h" 1
 2415 002a EFF31182 			mrs r2, basepri											
 2416 002e 4FF05003 		mov r3, #80												
 2417 0032 83F31188 		msr basepri, r3											
 2418 0036 BFF36F8F 		isb														
 2419 003a BFF34F8F 		dsb														
 2420              	
 2421              	@ 0 "" 2
 2422              		.thumb
 2423              		.syntax unified
 2424 003e 7A61     		str	r2, [r7, #20]
 2425 0040 3B61     		str	r3, [r7, #16]
 226:ThirdParty/FreeRTOS/portable/GCC/ARM_CM4F/portmacro.h ****     }
 2426              		.loc 2 226 16
 2427 0042 7B69     		ldr	r3, [r7, #20]
 2428              	.LBE154:
 2429              	.LBE153:
1225:ThirdParty/FreeRTOS/stream_buffer.c **** 
1226:ThirdParty/FreeRTOS/stream_buffer.c ****     uxSavedInterruptStatus = ( UBaseType_t ) portSET_INTERRUPT_MASK_FROM_ISR();
 2430              		.loc 1 1226 46
 2431 0044 FB61     		str	r3, [r7, #28]
1227:ThirdParty/FreeRTOS/stream_buffer.c ****     {
1228:ThirdParty/FreeRTOS/stream_buffer.c ****         if( ( pxStreamBuffer )->xTaskWaitingToSend != NULL )
 2432              		.loc 1 1228 31
 2433 0046 3B6A     		ldr	r3, [r7, #32]
 2434 0048 5B69     		ldr	r3, [r3, #20]
 2435              		.loc 1 1228 11
 2436 004a 002B     		cmp	r3, #0
 2437 004c 10D0     		beq	.L144
1229:ThirdParty/FreeRTOS/stream_buffer.c ****         {
1230:ThirdParty/FreeRTOS/stream_buffer.c ****             ( void ) xTaskNotifyFromISR( ( pxStreamBuffer )->xTaskWaitingToSend,
 2438              		.loc 1 1230 22
 2439 004e 3B6A     		ldr	r3, [r7, #32]
 2440 0050 5869     		ldr	r0, [r3, #20]
 2441 0052 3B68     		ldr	r3, [r7]
 2442 0054 0193     		str	r3, [sp, #4]
 2443 0056 0023     		movs	r3, #0
 2444 0058 0093     		str	r3, [sp]
 2445 005a 0023     		movs	r3, #0
 2446 005c 0022     		movs	r2, #0
 2447 005e 0021     		movs	r1, #0
 2448 0060 FFF7FEFF 		bl	xTaskGenericNotifyFromISR
1231:ThirdParty/FreeRTOS/stream_buffer.c ****                                          ( uint32_t ) 0,
1232:ThirdParty/FreeRTOS/stream_buffer.c ****                                          eNoAction,
1233:ThirdParty/FreeRTOS/stream_buffer.c ****                                          pxHigherPriorityTaskWoken );
1234:ThirdParty/FreeRTOS/stream_buffer.c ****             ( pxStreamBuffer )->xTaskWaitingToSend = NULL;
 2449              		.loc 1 1234 52
 2450 0064 3B6A     		ldr	r3, [r7, #32]
ARM GAS  C:\Users\Admin\AppData\Local\Temp\ccKb5mMk.s 			page 70


 2451 0066 0022     		movs	r2, #0
 2452 0068 5A61     		str	r2, [r3, #20]
1235:ThirdParty/FreeRTOS/stream_buffer.c ****             xReturn = pdTRUE;
 2453              		.loc 1 1235 21
 2454 006a 0123     		movs	r3, #1
 2455 006c 7B62     		str	r3, [r7, #36]
 2456 006e 01E0     		b	.L145
 2457              	.L144:
1236:ThirdParty/FreeRTOS/stream_buffer.c ****         }
1237:ThirdParty/FreeRTOS/stream_buffer.c ****         else
1238:ThirdParty/FreeRTOS/stream_buffer.c ****         {
1239:ThirdParty/FreeRTOS/stream_buffer.c ****             xReturn = pdFALSE;
 2458              		.loc 1 1239 21
 2459 0070 0023     		movs	r3, #0
 2460 0072 7B62     		str	r3, [r7, #36]
 2461              	.L145:
 2462 0074 FB69     		ldr	r3, [r7, #28]
 2463 0076 FB60     		str	r3, [r7, #12]
 2464              	.LBB155:
 2465              	.LBB156:
 232:ThirdParty/FreeRTOS/portable/GCC/ARM_CM4F/portmacro.h ****         (
 2466              		.loc 2 232 9
 2467 0078 FB68     		ldr	r3, [r7, #12]
 2468              		.syntax unified
 2469              	@ 232 "ThirdParty/FreeRTOS/portable/GCC/ARM_CM4F/portmacro.h" 1
 2470 007a 83F31188 			msr basepri, r3	
 2471              	@ 0 "" 2
 2472              		.loc 2 236 5
 2473              		.thumb
 2474              		.syntax unified
 2475 007e 00BF     		nop
 2476              	.LBE156:
 2477              	.LBE155:
1240:ThirdParty/FreeRTOS/stream_buffer.c ****         }
1241:ThirdParty/FreeRTOS/stream_buffer.c ****     }
1242:ThirdParty/FreeRTOS/stream_buffer.c ****     portCLEAR_INTERRUPT_MASK_FROM_ISR( uxSavedInterruptStatus );
1243:ThirdParty/FreeRTOS/stream_buffer.c **** 
1244:ThirdParty/FreeRTOS/stream_buffer.c ****     return xReturn;
 2478              		.loc 1 1244 12
 2479 0080 7B6A     		ldr	r3, [r7, #36]
1245:ThirdParty/FreeRTOS/stream_buffer.c **** }
 2480              		.loc 1 1245 1
 2481 0082 1846     		mov	r0, r3
 2482 0084 2837     		adds	r7, r7, #40
 2483              	.LCFI86:
 2484              		.cfi_def_cfa_offset 8
 2485 0086 BD46     		mov	sp, r7
 2486              	.LCFI87:
 2487              		.cfi_def_cfa_register 13
 2488              		@ sp needed
 2489 0088 80BD     		pop	{r7, pc}
 2490              		.cfi_endproc
 2491              	.LFE21:
 2493              		.section	.text.prvWriteBytesToBuffer,"ax",%progbits
 2494              		.align	1
 2495              		.syntax unified
 2496              		.thumb
ARM GAS  C:\Users\Admin\AppData\Local\Temp\ccKb5mMk.s 			page 71


 2497              		.thumb_func
 2499              	prvWriteBytesToBuffer:
 2500              	.LFB22:
1246:ThirdParty/FreeRTOS/stream_buffer.c **** /*-----------------------------------------------------------*/
1247:ThirdParty/FreeRTOS/stream_buffer.c **** 
1248:ThirdParty/FreeRTOS/stream_buffer.c **** static size_t prvWriteBytesToBuffer( StreamBuffer_t * const pxStreamBuffer,
1249:ThirdParty/FreeRTOS/stream_buffer.c ****                                      const uint8_t * pucData,
1250:ThirdParty/FreeRTOS/stream_buffer.c ****                                      size_t xCount,
1251:ThirdParty/FreeRTOS/stream_buffer.c ****                                      size_t xHead )
1252:ThirdParty/FreeRTOS/stream_buffer.c **** {
 2501              		.loc 1 1252 1
 2502              		.cfi_startproc
 2503              		@ args = 0, pretend = 0, frame = 32
 2504              		@ frame_needed = 1, uses_anonymous_args = 0
 2505 0000 80B5     		push	{r7, lr}
 2506              	.LCFI88:
 2507              		.cfi_def_cfa_offset 8
 2508              		.cfi_offset 7, -8
 2509              		.cfi_offset 14, -4
 2510 0002 88B0     		sub	sp, sp, #32
 2511              	.LCFI89:
 2512              		.cfi_def_cfa_offset 40
 2513 0004 00AF     		add	r7, sp, #0
 2514              	.LCFI90:
 2515              		.cfi_def_cfa_register 7
 2516 0006 F860     		str	r0, [r7, #12]
 2517 0008 B960     		str	r1, [r7, #8]
 2518 000a 7A60     		str	r2, [r7, #4]
 2519 000c 3B60     		str	r3, [r7]
1253:ThirdParty/FreeRTOS/stream_buffer.c ****     size_t xFirstLength;
1254:ThirdParty/FreeRTOS/stream_buffer.c **** 
1255:ThirdParty/FreeRTOS/stream_buffer.c ****     configASSERT( xCount > ( size_t ) 0 );
 2520              		.loc 1 1255 5
 2521 000e 7B68     		ldr	r3, [r7, #4]
 2522 0010 002B     		cmp	r3, #0
 2523 0012 0AD1     		bne	.L148
 2524              	.LBB157:
 2525              	.LBB158:
 198:ThirdParty/FreeRTOS/portable/GCC/ARM_CM4F/portmacro.h ****         (
 2526              		.loc 2 198 9
 2527              		.syntax unified
 2528              	@ 198 "ThirdParty/FreeRTOS/portable/GCC/ARM_CM4F/portmacro.h" 1
 2529 0014 4FF05003 			mov r3, #80												
 2530 0018 83F31188 		msr basepri, r3											
 2531 001c BFF36F8F 		isb														
 2532 0020 BFF34F8F 		dsb														
 2533              	
 2534              	@ 0 "" 2
 2535              		.thumb
 2536              		.syntax unified
 2537 0024 BB61     		str	r3, [r7, #24]
 206:ThirdParty/FreeRTOS/portable/GCC/ARM_CM4F/portmacro.h **** 
 2538              		.loc 2 206 5
 2539 0026 00BF     		nop
 2540              	.L149:
 2541              	.LBE158:
 2542              	.LBE157:
ARM GAS  C:\Users\Admin\AppData\Local\Temp\ccKb5mMk.s 			page 72


 2543              		.loc 1 1255 5 discriminator 1
 2544 0028 FEE7     		b	.L149
 2545              	.L148:
1256:ThirdParty/FreeRTOS/stream_buffer.c **** 
1257:ThirdParty/FreeRTOS/stream_buffer.c ****     /* Calculate the number of bytes that can be added in the first write -
1258:ThirdParty/FreeRTOS/stream_buffer.c ****      * which may be less than the total number of bytes that need to be added if
1259:ThirdParty/FreeRTOS/stream_buffer.c ****      * the buffer will wrap back to the beginning. */
1260:ThirdParty/FreeRTOS/stream_buffer.c ****     xFirstLength = configMIN( pxStreamBuffer->xLength - xHead, xCount );
 2546              		.loc 1 1260 20
 2547 002a FB68     		ldr	r3, [r7, #12]
 2548 002c 9A68     		ldr	r2, [r3, #8]
 2549 002e 3B68     		ldr	r3, [r7]
 2550 0030 D31A     		subs	r3, r2, r3
 2551              		.loc 1 1260 18
 2552 0032 7A68     		ldr	r2, [r7, #4]
 2553 0034 9342     		cmp	r3, r2
 2554 0036 28BF     		it	cs
 2555 0038 1346     		movcs	r3, r2
 2556 003a FB61     		str	r3, [r7, #28]
1261:ThirdParty/FreeRTOS/stream_buffer.c **** 
1262:ThirdParty/FreeRTOS/stream_buffer.c ****     /* Write as many bytes as can be written in the first write. */
1263:ThirdParty/FreeRTOS/stream_buffer.c ****     configASSERT( ( xHead + xFirstLength ) <= pxStreamBuffer->xLength );
 2557              		.loc 1 1263 5
 2558 003c 3A68     		ldr	r2, [r7]
 2559 003e FB69     		ldr	r3, [r7, #28]
 2560 0040 1A44     		add	r2, r2, r3
 2561 0042 FB68     		ldr	r3, [r7, #12]
 2562 0044 9B68     		ldr	r3, [r3, #8]
 2563 0046 9A42     		cmp	r2, r3
 2564 0048 0AD9     		bls	.L150
 2565              	.LBB159:
 2566              	.LBB160:
 198:ThirdParty/FreeRTOS/portable/GCC/ARM_CM4F/portmacro.h ****         (
 2567              		.loc 2 198 9
 2568              		.syntax unified
 2569              	@ 198 "ThirdParty/FreeRTOS/portable/GCC/ARM_CM4F/portmacro.h" 1
 2570 004a 4FF05003 			mov r3, #80												
 2571 004e 83F31188 		msr basepri, r3											
 2572 0052 BFF36F8F 		isb														
 2573 0056 BFF34F8F 		dsb														
 2574              	
 2575              	@ 0 "" 2
 2576              		.thumb
 2577              		.syntax unified
 2578 005a 7B61     		str	r3, [r7, #20]
 206:ThirdParty/FreeRTOS/portable/GCC/ARM_CM4F/portmacro.h **** 
 2579              		.loc 2 206 5
 2580 005c 00BF     		nop
 2581              	.L151:
 2582              	.LBE160:
 2583              	.LBE159:
 2584              		.loc 1 1263 5 discriminator 2
 2585 005e FEE7     		b	.L151
 2586              	.L150:
1264:ThirdParty/FreeRTOS/stream_buffer.c ****     ( void ) memcpy( ( void * ) ( &( pxStreamBuffer->pucBuffer[ xHead ] ) ), ( const void * ) pucDa
 2587              		.loc 1 1264 52
 2588 0060 FB68     		ldr	r3, [r7, #12]
ARM GAS  C:\Users\Admin\AppData\Local\Temp\ccKb5mMk.s 			page 73


 2589 0062 9A69     		ldr	r2, [r3, #24]
 2590              		.loc 1 1264 35
 2591 0064 3B68     		ldr	r3, [r7]
 2592 0066 1344     		add	r3, r3, r2
 2593              		.loc 1 1264 14
 2594 0068 FA69     		ldr	r2, [r7, #28]
 2595 006a B968     		ldr	r1, [r7, #8]
 2596 006c 1846     		mov	r0, r3
 2597 006e FFF7FEFF 		bl	memcpy
1265:ThirdParty/FreeRTOS/stream_buffer.c **** 
1266:ThirdParty/FreeRTOS/stream_buffer.c ****     /* If the number of bytes written was less than the number that could be
1267:ThirdParty/FreeRTOS/stream_buffer.c ****      * written in the first write... */
1268:ThirdParty/FreeRTOS/stream_buffer.c ****     if( xCount > xFirstLength )
 2598              		.loc 1 1268 7
 2599 0072 7A68     		ldr	r2, [r7, #4]
 2600 0074 FB69     		ldr	r3, [r7, #28]
 2601 0076 9A42     		cmp	r2, r3
 2602 0078 1CD9     		bls	.L152
1269:ThirdParty/FreeRTOS/stream_buffer.c ****     {
1270:ThirdParty/FreeRTOS/stream_buffer.c ****         /* ...then write the remaining bytes to the start of the buffer. */
1271:ThirdParty/FreeRTOS/stream_buffer.c ****         configASSERT( ( xCount - xFirstLength ) <= pxStreamBuffer->xLength );
 2603              		.loc 1 1271 9
 2604 007a 7A68     		ldr	r2, [r7, #4]
 2605 007c FB69     		ldr	r3, [r7, #28]
 2606 007e D21A     		subs	r2, r2, r3
 2607 0080 FB68     		ldr	r3, [r7, #12]
 2608 0082 9B68     		ldr	r3, [r3, #8]
 2609 0084 9A42     		cmp	r2, r3
 2610 0086 0AD9     		bls	.L153
 2611              	.LBB161:
 2612              	.LBB162:
 198:ThirdParty/FreeRTOS/portable/GCC/ARM_CM4F/portmacro.h ****         (
 2613              		.loc 2 198 9
 2614              		.syntax unified
 2615              	@ 198 "ThirdParty/FreeRTOS/portable/GCC/ARM_CM4F/portmacro.h" 1
 2616 0088 4FF05003 			mov r3, #80												
 2617 008c 83F31188 		msr basepri, r3											
 2618 0090 BFF36F8F 		isb														
 2619 0094 BFF34F8F 		dsb														
 2620              	
 2621              	@ 0 "" 2
 2622              		.thumb
 2623              		.syntax unified
 2624 0098 3B61     		str	r3, [r7, #16]
 206:ThirdParty/FreeRTOS/portable/GCC/ARM_CM4F/portmacro.h **** 
 2625              		.loc 2 206 5
 2626 009a 00BF     		nop
 2627              	.L154:
 2628              	.LBE162:
 2629              	.LBE161:
 2630              		.loc 1 1271 9 discriminator 3
 2631 009c FEE7     		b	.L154
 2632              	.L153:
1272:ThirdParty/FreeRTOS/stream_buffer.c ****         ( void ) memcpy( ( void * ) pxStreamBuffer->pucBuffer, ( const void * ) &( pucData[ xFirstL
 2633              		.loc 1 1272 51
 2634 009e FB68     		ldr	r3, [r7, #12]
 2635 00a0 9869     		ldr	r0, [r3, #24]
ARM GAS  C:\Users\Admin\AppData\Local\Temp\ccKb5mMk.s 			page 74


 2636              		.loc 1 1272 81
 2637 00a2 BA68     		ldr	r2, [r7, #8]
 2638 00a4 FB69     		ldr	r3, [r7, #28]
 2639 00a6 D118     		adds	r1, r2, r3
 2640              		.loc 1 1272 18
 2641 00a8 7A68     		ldr	r2, [r7, #4]
 2642 00aa FB69     		ldr	r3, [r7, #28]
 2643 00ac D31A     		subs	r3, r2, r3
 2644 00ae 1A46     		mov	r2, r3
 2645 00b0 FFF7FEFF 		bl	memcpy
 2646              	.L152:
1273:ThirdParty/FreeRTOS/stream_buffer.c ****     }
1274:ThirdParty/FreeRTOS/stream_buffer.c ****     else
1275:ThirdParty/FreeRTOS/stream_buffer.c ****     {
1276:ThirdParty/FreeRTOS/stream_buffer.c ****         mtCOVERAGE_TEST_MARKER();
1277:ThirdParty/FreeRTOS/stream_buffer.c ****     }
1278:ThirdParty/FreeRTOS/stream_buffer.c **** 
1279:ThirdParty/FreeRTOS/stream_buffer.c ****     xHead += xCount;
 2647              		.loc 1 1279 11
 2648 00b4 3A68     		ldr	r2, [r7]
 2649 00b6 7B68     		ldr	r3, [r7, #4]
 2650 00b8 1344     		add	r3, r3, r2
 2651 00ba 3B60     		str	r3, [r7]
1280:ThirdParty/FreeRTOS/stream_buffer.c **** 
1281:ThirdParty/FreeRTOS/stream_buffer.c ****     if( xHead >= pxStreamBuffer->xLength )
 2652              		.loc 1 1281 32
 2653 00bc FB68     		ldr	r3, [r7, #12]
 2654 00be 9B68     		ldr	r3, [r3, #8]
 2655              		.loc 1 1281 7
 2656 00c0 3A68     		ldr	r2, [r7]
 2657 00c2 9A42     		cmp	r2, r3
 2658 00c4 04D3     		bcc	.L155
1282:ThirdParty/FreeRTOS/stream_buffer.c ****     {
1283:ThirdParty/FreeRTOS/stream_buffer.c ****         xHead -= pxStreamBuffer->xLength;
 2659              		.loc 1 1283 32
 2660 00c6 FB68     		ldr	r3, [r7, #12]
 2661 00c8 9B68     		ldr	r3, [r3, #8]
 2662              		.loc 1 1283 15
 2663 00ca 3A68     		ldr	r2, [r7]
 2664 00cc D31A     		subs	r3, r2, r3
 2665 00ce 3B60     		str	r3, [r7]
 2666              	.L155:
1284:ThirdParty/FreeRTOS/stream_buffer.c ****     }
1285:ThirdParty/FreeRTOS/stream_buffer.c ****     else
1286:ThirdParty/FreeRTOS/stream_buffer.c ****     {
1287:ThirdParty/FreeRTOS/stream_buffer.c ****         mtCOVERAGE_TEST_MARKER();
1288:ThirdParty/FreeRTOS/stream_buffer.c ****     }
1289:ThirdParty/FreeRTOS/stream_buffer.c **** 
1290:ThirdParty/FreeRTOS/stream_buffer.c ****     return xHead;
 2667              		.loc 1 1290 12
 2668 00d0 3B68     		ldr	r3, [r7]
1291:ThirdParty/FreeRTOS/stream_buffer.c **** }
 2669              		.loc 1 1291 1
 2670 00d2 1846     		mov	r0, r3
 2671 00d4 2037     		adds	r7, r7, #32
 2672              	.LCFI91:
 2673              		.cfi_def_cfa_offset 8
ARM GAS  C:\Users\Admin\AppData\Local\Temp\ccKb5mMk.s 			page 75


 2674 00d6 BD46     		mov	sp, r7
 2675              	.LCFI92:
 2676              		.cfi_def_cfa_register 13
 2677              		@ sp needed
 2678 00d8 80BD     		pop	{r7, pc}
 2679              		.cfi_endproc
 2680              	.LFE22:
 2682              		.section	.text.prvReadBytesFromBuffer,"ax",%progbits
 2683              		.align	1
 2684              		.syntax unified
 2685              		.thumb
 2686              		.thumb_func
 2688              	prvReadBytesFromBuffer:
 2689              	.LFB23:
1292:ThirdParty/FreeRTOS/stream_buffer.c **** /*-----------------------------------------------------------*/
1293:ThirdParty/FreeRTOS/stream_buffer.c **** 
1294:ThirdParty/FreeRTOS/stream_buffer.c **** static size_t prvReadBytesFromBuffer( StreamBuffer_t * pxStreamBuffer,
1295:ThirdParty/FreeRTOS/stream_buffer.c ****                                       uint8_t * pucData,
1296:ThirdParty/FreeRTOS/stream_buffer.c ****                                       size_t xCount,
1297:ThirdParty/FreeRTOS/stream_buffer.c ****                                       size_t xTail )
1298:ThirdParty/FreeRTOS/stream_buffer.c **** {
 2690              		.loc 1 1298 1
 2691              		.cfi_startproc
 2692              		@ args = 0, pretend = 0, frame = 32
 2693              		@ frame_needed = 1, uses_anonymous_args = 0
 2694 0000 80B5     		push	{r7, lr}
 2695              	.LCFI93:
 2696              		.cfi_def_cfa_offset 8
 2697              		.cfi_offset 7, -8
 2698              		.cfi_offset 14, -4
 2699 0002 88B0     		sub	sp, sp, #32
 2700              	.LCFI94:
 2701              		.cfi_def_cfa_offset 40
 2702 0004 00AF     		add	r7, sp, #0
 2703              	.LCFI95:
 2704              		.cfi_def_cfa_register 7
 2705 0006 F860     		str	r0, [r7, #12]
 2706 0008 B960     		str	r1, [r7, #8]
 2707 000a 7A60     		str	r2, [r7, #4]
 2708 000c 3B60     		str	r3, [r7]
1299:ThirdParty/FreeRTOS/stream_buffer.c ****     size_t xFirstLength;
1300:ThirdParty/FreeRTOS/stream_buffer.c **** 
1301:ThirdParty/FreeRTOS/stream_buffer.c ****     configASSERT( xCount != ( size_t ) 0 );
 2709              		.loc 1 1301 5
 2710 000e 7B68     		ldr	r3, [r7, #4]
 2711 0010 002B     		cmp	r3, #0
 2712 0012 0AD1     		bne	.L158
 2713              	.LBB163:
 2714              	.LBB164:
 198:ThirdParty/FreeRTOS/portable/GCC/ARM_CM4F/portmacro.h ****         (
 2715              		.loc 2 198 9
 2716              		.syntax unified
 2717              	@ 198 "ThirdParty/FreeRTOS/portable/GCC/ARM_CM4F/portmacro.h" 1
 2718 0014 4FF05003 			mov r3, #80												
 2719 0018 83F31188 		msr basepri, r3											
 2720 001c BFF36F8F 		isb														
 2721 0020 BFF34F8F 		dsb														
ARM GAS  C:\Users\Admin\AppData\Local\Temp\ccKb5mMk.s 			page 76


 2722              	
 2723              	@ 0 "" 2
 2724              		.thumb
 2725              		.syntax unified
 2726 0024 BB61     		str	r3, [r7, #24]
 206:ThirdParty/FreeRTOS/portable/GCC/ARM_CM4F/portmacro.h **** 
 2727              		.loc 2 206 5
 2728 0026 00BF     		nop
 2729              	.L159:
 2730              	.LBE164:
 2731              	.LBE163:
 2732              		.loc 1 1301 5 discriminator 1
 2733 0028 FEE7     		b	.L159
 2734              	.L158:
1302:ThirdParty/FreeRTOS/stream_buffer.c **** 
1303:ThirdParty/FreeRTOS/stream_buffer.c ****     /* Calculate the number of bytes that can be read - which may be
1304:ThirdParty/FreeRTOS/stream_buffer.c ****      * less than the number wanted if the data wraps around to the start of
1305:ThirdParty/FreeRTOS/stream_buffer.c ****      * the buffer. */
1306:ThirdParty/FreeRTOS/stream_buffer.c ****     xFirstLength = configMIN( pxStreamBuffer->xLength - xTail, xCount );
 2735              		.loc 1 1306 20
 2736 002a FB68     		ldr	r3, [r7, #12]
 2737 002c 9A68     		ldr	r2, [r3, #8]
 2738 002e 3B68     		ldr	r3, [r7]
 2739 0030 D31A     		subs	r3, r2, r3
 2740              		.loc 1 1306 18
 2741 0032 7A68     		ldr	r2, [r7, #4]
 2742 0034 9342     		cmp	r3, r2
 2743 0036 28BF     		it	cs
 2744 0038 1346     		movcs	r3, r2
 2745 003a FB61     		str	r3, [r7, #28]
1307:ThirdParty/FreeRTOS/stream_buffer.c **** 
1308:ThirdParty/FreeRTOS/stream_buffer.c ****     /* Obtain the number of bytes it is possible to obtain in the first
1309:ThirdParty/FreeRTOS/stream_buffer.c ****      * read.  Asserts check bounds of read and write. */
1310:ThirdParty/FreeRTOS/stream_buffer.c ****     configASSERT( xFirstLength <= xCount );
 2746              		.loc 1 1310 5
 2747 003c FA69     		ldr	r2, [r7, #28]
 2748 003e 7B68     		ldr	r3, [r7, #4]
 2749 0040 9A42     		cmp	r2, r3
 2750 0042 0AD9     		bls	.L160
 2751              	.LBB165:
 2752              	.LBB166:
 198:ThirdParty/FreeRTOS/portable/GCC/ARM_CM4F/portmacro.h ****         (
 2753              		.loc 2 198 9
 2754              		.syntax unified
 2755              	@ 198 "ThirdParty/FreeRTOS/portable/GCC/ARM_CM4F/portmacro.h" 1
 2756 0044 4FF05003 			mov r3, #80												
 2757 0048 83F31188 		msr basepri, r3											
 2758 004c BFF36F8F 		isb														
 2759 0050 BFF34F8F 		dsb														
 2760              	
 2761              	@ 0 "" 2
 2762              		.thumb
 2763              		.syntax unified
 2764 0054 7B61     		str	r3, [r7, #20]
 206:ThirdParty/FreeRTOS/portable/GCC/ARM_CM4F/portmacro.h **** 
 2765              		.loc 2 206 5
 2766 0056 00BF     		nop
ARM GAS  C:\Users\Admin\AppData\Local\Temp\ccKb5mMk.s 			page 77


 2767              	.L161:
 2768              	.LBE166:
 2769              	.LBE165:
 2770              		.loc 1 1310 5 discriminator 2
 2771 0058 FEE7     		b	.L161
 2772              	.L160:
1311:ThirdParty/FreeRTOS/stream_buffer.c ****     configASSERT( ( xTail + xFirstLength ) <= pxStreamBuffer->xLength );
 2773              		.loc 1 1311 5
 2774 005a 3A68     		ldr	r2, [r7]
 2775 005c FB69     		ldr	r3, [r7, #28]
 2776 005e 1A44     		add	r2, r2, r3
 2777 0060 FB68     		ldr	r3, [r7, #12]
 2778 0062 9B68     		ldr	r3, [r3, #8]
 2779 0064 9A42     		cmp	r2, r3
 2780 0066 0AD9     		bls	.L162
 2781              	.LBB167:
 2782              	.LBB168:
 198:ThirdParty/FreeRTOS/portable/GCC/ARM_CM4F/portmacro.h ****         (
 2783              		.loc 2 198 9
 2784              		.syntax unified
 2785              	@ 198 "ThirdParty/FreeRTOS/portable/GCC/ARM_CM4F/portmacro.h" 1
 2786 0068 4FF05003 			mov r3, #80												
 2787 006c 83F31188 		msr basepri, r3											
 2788 0070 BFF36F8F 		isb														
 2789 0074 BFF34F8F 		dsb														
 2790              	
 2791              	@ 0 "" 2
 2792              		.thumb
 2793              		.syntax unified
 2794 0078 3B61     		str	r3, [r7, #16]
